
build-fiona/benchmark_transformer.elf:     file format elf64-littleriscv


Disassembly of section .text:

0000000000010120 <__cxa_bad_cast>:
   10120:	1141                	addi	sp,sp,-16
   10122:	4521                	li	a0,8
   10124:	e406                	sd	ra,8(sp)
   10126:	1d7060ef          	jal	16afc <__cxa_allocate_exception>
   1012a:	000357b7          	lui	a5,0x35
   1012e:	83078793          	addi	a5,a5,-2000 # 34830 <_ZTVSt8bad_cast+0x10>
   10132:	665d                	lui	a2,0x17
   10134:	000355b7          	lui	a1,0x35
   10138:	e11c                	sd	a5,0(a0)
   1013a:	9d260613          	addi	a2,a2,-1582 # 169d2 <_ZNSt8bad_castD1Ev>
   1013e:	80858593          	addi	a1,a1,-2040 # 34808 <_ZTISt8bad_cast>
   10142:	7c8060ef          	jal	1690a <__cxa_throw>

0000000000010146 <__cxa_bad_typeid>:
   10146:	1141                	addi	sp,sp,-16
   10148:	4521                	li	a0,8
   1014a:	e406                	sd	ra,8(sp)
   1014c:	1b1060ef          	jal	16afc <__cxa_allocate_exception>
   10150:	000357b7          	lui	a5,0x35
   10154:	88078793          	addi	a5,a5,-1920 # 34880 <_ZTVSt10bad_typeid+0x10>
   10158:	665d                	lui	a2,0x17
   1015a:	000355b7          	lui	a1,0x35
   1015e:	e11c                	sd	a5,0(a0)
   10160:	9fc60613          	addi	a2,a2,-1540 # 169fc <_ZNSt10bad_typeidD1Ev>
   10164:	85858593          	addi	a1,a1,-1960 # 34858 <_ZTISt10bad_typeid>
   10168:	7a2060ef          	jal	1690a <__cxa_throw>

000000000001016c <__cxa_throw_bad_array_new_length>:
   1016c:	1141                	addi	sp,sp,-16
   1016e:	4521                	li	a0,8
   10170:	e406                	sd	ra,8(sp)
   10172:	18b060ef          	jal	16afc <__cxa_allocate_exception>
   10176:	000347b7          	lui	a5,0x34
   1017a:	7e078793          	addi	a5,a5,2016 # 347e0 <_ZTVSt20bad_array_new_length+0x10>
   1017e:	665d                	lui	a2,0x17
   10180:	000345b7          	lui	a1,0x34
   10184:	e11c                	sd	a5,0(a0)
   10186:	9a660613          	addi	a2,a2,-1626 # 169a6 <_ZNSt20bad_array_new_lengthD1Ev>
   1018a:	7b858593          	addi	a1,a1,1976 # 347b8 <_ZTISt20bad_array_new_length>
   1018e:	77c060ef          	jal	1690a <__cxa_throw>

0000000000010192 <_ZN9__gnu_cxx9__freeresEv>:
   10192:	1141                	addi	sp,sp,-16
   10194:	e022                	sd	s0,0(sp)
   10196:	00048437          	lui	s0,0x48
   1019a:	90040413          	addi	s0,s0,-1792 # 47900 <_ZN12_GLOBAL__N_1L14emergency_poolE>
   1019e:	6808                	ld	a0,16(s0)
   101a0:	e406                	sd	ra,8(sp)
   101a2:	c509                	beqz	a0,101ac <_ZN9__gnu_cxx9__freeresEv+0x1a>
   101a4:	5e0140ef          	jal	24784 <free>
   101a8:	00043823          	sd	zero,16(s0)
   101ac:	60a2                	ld	ra,8(sp)
   101ae:	6402                	ld	s0,0(sp)
   101b0:	0141                	addi	sp,sp,16
   101b2:	8082                	ret

00000000000101b4 <_ZSt9terminatev>:
   101b4:	1141                	addi	sp,sp,-16
   101b6:	e406                	sd	ra,8(sp)
   101b8:	296070ef          	jal	1744e <_ZSt13get_terminatev>
   101bc:	26e070ef          	jal	1742a <_ZN10__cxxabiv111__terminateEPFvvE>

00000000000101c0 <_ZSt10unexpectedv>:
   101c0:	1141                	addi	sp,sp,-16
   101c2:	e406                	sd	ra,8(sp)
   101c4:	2b2070ef          	jal	17476 <_ZSt14get_unexpectedv>
   101c8:	292070ef          	jal	1745a <_ZN10__cxxabiv112__unexpectedEPFvvE>

00000000000101cc <_ZSt21__throw_bad_exceptionv>:
   101cc:	1141                	addi	sp,sp,-16
   101ce:	4521                	li	a0,8
   101d0:	e406                	sd	ra,8(sp)
   101d2:	12b060ef          	jal	16afc <__cxa_allocate_exception>
   101d6:	000357b7          	lui	a5,0x35
   101da:	98878793          	addi	a5,a5,-1656 # 34988 <_ZTVSt13bad_exception+0x10>
   101de:	665d                	lui	a2,0x17
   101e0:	000355b7          	lui	a1,0x35
   101e4:	e11c                	sd	a5,0(a0)
   101e6:	d1a60613          	addi	a2,a2,-742 # 16d1a <_ZNSt13bad_exceptionD1Ev>
   101ea:	8d058593          	addi	a1,a1,-1840 # 348d0 <_ZTISt13bad_exception>
   101ee:	71c060ef          	jal	1690a <__cxa_throw>

00000000000101f2 <_ZSt17__throw_bad_allocv>:
   101f2:	1141                	addi	sp,sp,-16
   101f4:	4521                	li	a0,8
   101f6:	e406                	sd	ra,8(sp)
   101f8:	105060ef          	jal	16afc <__cxa_allocate_exception>
   101fc:	000357b7          	lui	a5,0x35
   10200:	b5878793          	addi	a5,a5,-1192 # 34b58 <_ZTVSt9bad_alloc+0x10>
   10204:	6661                	lui	a2,0x18
   10206:	000355b7          	lui	a1,0x35
   1020a:	e11c                	sd	a5,0(a0)
   1020c:	8b060613          	addi	a2,a2,-1872 # 178b0 <_ZNSt9bad_allocD1Ev>
   10210:	b3058593          	addi	a1,a1,-1232 # 34b30 <_ZTISt9bad_alloc>
   10214:	6f6060ef          	jal	1690a <__cxa_throw>

0000000000010218 <_ZSt28__throw_bad_array_new_lengthv>:
   10218:	1141                	addi	sp,sp,-16
   1021a:	4521                	li	a0,8
   1021c:	e406                	sd	ra,8(sp)
   1021e:	0df060ef          	jal	16afc <__cxa_allocate_exception>
   10222:	000347b7          	lui	a5,0x34
   10226:	7e078793          	addi	a5,a5,2016 # 347e0 <_ZTVSt20bad_array_new_length+0x10>
   1022a:	665d                	lui	a2,0x17
   1022c:	000345b7          	lui	a1,0x34
   10230:	e11c                	sd	a5,0(a0)
   10232:	9a660613          	addi	a2,a2,-1626 # 169a6 <_ZNSt20bad_array_new_lengthD1Ev>
   10236:	7b858593          	addi	a1,a1,1976 # 347b8 <_ZTISt20bad_array_new_length>
   1023a:	6d0060ef          	jal	1690a <__cxa_throw>

000000000001023e <_ZSt16__throw_bad_castv>:
   1023e:	1141                	addi	sp,sp,-16
   10240:	4521                	li	a0,8
   10242:	e406                	sd	ra,8(sp)
   10244:	0b9060ef          	jal	16afc <__cxa_allocate_exception>
   10248:	000357b7          	lui	a5,0x35
   1024c:	83078793          	addi	a5,a5,-2000 # 34830 <_ZTVSt8bad_cast+0x10>
   10250:	665d                	lui	a2,0x17
   10252:	000355b7          	lui	a1,0x35
   10256:	e11c                	sd	a5,0(a0)
   10258:	9d260613          	addi	a2,a2,-1582 # 169d2 <_ZNSt8bad_castD1Ev>
   1025c:	80858593          	addi	a1,a1,-2040 # 34808 <_ZTISt8bad_cast>
   10260:	6aa060ef          	jal	1690a <__cxa_throw>

0000000000010264 <_ZSt18__throw_bad_typeidv>:
   10264:	1141                	addi	sp,sp,-16
   10266:	4521                	li	a0,8
   10268:	e406                	sd	ra,8(sp)
   1026a:	093060ef          	jal	16afc <__cxa_allocate_exception>
   1026e:	000357b7          	lui	a5,0x35
   10272:	88078793          	addi	a5,a5,-1920 # 34880 <_ZTVSt10bad_typeid+0x10>
   10276:	665d                	lui	a2,0x17
   10278:	000355b7          	lui	a1,0x35
   1027c:	e11c                	sd	a5,0(a0)
   1027e:	9fc60613          	addi	a2,a2,-1540 # 169fc <_ZNSt10bad_typeidD1Ev>
   10282:	85858593          	addi	a1,a1,-1960 # 34858 <_ZTISt10bad_typeid>
   10286:	684060ef          	jal	1690a <__cxa_throw>

000000000001028a <_ZSt19__throw_logic_errorPKc>:
   1028a:	7179                	addi	sp,sp,-48
   1028c:	e42a                	sd	a0,8(sp)
   1028e:	4541                	li	a0,16
   10290:	f022                	sd	s0,32(sp)
   10292:	f406                	sd	ra,40(sp)
   10294:	ec26                	sd	s1,24(sp)
   10296:	067060ef          	jal	16afc <__cxa_allocate_exception>
   1029a:	65a2                	ld	a1,8(sp)
   1029c:	842a                	mv	s0,a0
   1029e:	1160c0ef          	jal	1c3b4 <_ZNSt11logic_errorC1EPKc>
   102a2:	6671                	lui	a2,0x1c
   102a4:	000365b7          	lui	a1,0x36
   102a8:	08860613          	addi	a2,a2,136 # 1c088 <_ZNSt11logic_errorD1Ev>
   102ac:	d7858593          	addi	a1,a1,-648 # 35d78 <_ZTISt11logic_error>
   102b0:	8522                	mv	a0,s0
   102b2:	658060ef          	jal	1690a <__cxa_throw>
   102b6:	84aa                	mv	s1,a0
   102b8:	8522                	mv	a0,s0
   102ba:	07d060ef          	jal	16b36 <__cxa_free_exception>
   102be:	8526                	mv	a0,s1
   102c0:	7a7120ef          	jal	23266 <_Unwind_Resume>

00000000000102c4 <_ZSt20__throw_domain_errorPKc>:
   102c4:	7179                	addi	sp,sp,-48
   102c6:	e42a                	sd	a0,8(sp)
   102c8:	4541                	li	a0,16
   102ca:	f022                	sd	s0,32(sp)
   102cc:	f406                	sd	ra,40(sp)
   102ce:	ec26                	sd	s1,24(sp)
   102d0:	02d060ef          	jal	16afc <__cxa_allocate_exception>
   102d4:	65a2                	ld	a1,8(sp)
   102d6:	842a                	mv	s0,a0
   102d8:	1120c0ef          	jal	1c3ea <_ZNSt12domain_errorC1EPKc>
   102dc:	6671                	lui	a2,0x1c
   102de:	000365b7          	lui	a1,0x36
   102e2:	0c460613          	addi	a2,a2,196 # 1c0c4 <_ZNSt12domain_errorD1Ev>
   102e6:	da858593          	addi	a1,a1,-600 # 35da8 <_ZTISt12domain_error>
   102ea:	8522                	mv	a0,s0
   102ec:	61e060ef          	jal	1690a <__cxa_throw>
   102f0:	84aa                	mv	s1,a0
   102f2:	8522                	mv	a0,s0
   102f4:	043060ef          	jal	16b36 <__cxa_free_exception>
   102f8:	8526                	mv	a0,s1
   102fa:	76d120ef          	jal	23266 <_Unwind_Resume>

00000000000102fe <_ZSt24__throw_invalid_argumentPKc>:
   102fe:	7179                	addi	sp,sp,-48
   10300:	e42a                	sd	a0,8(sp)
   10302:	4541                	li	a0,16
   10304:	f022                	sd	s0,32(sp)
   10306:	f406                	sd	ra,40(sp)
   10308:	ec26                	sd	s1,24(sp)
   1030a:	7f2060ef          	jal	16afc <__cxa_allocate_exception>
   1030e:	65a2                	ld	a1,8(sp)
   10310:	842a                	mv	s0,a0
   10312:	0f40c0ef          	jal	1c406 <_ZNSt16invalid_argumentC1EPKc>
   10316:	6671                	lui	a2,0x1c
   10318:	000365b7          	lui	a1,0x36
   1031c:	0e660613          	addi	a2,a2,230 # 1c0e6 <_ZNSt16invalid_argumentD1Ev>
   10320:	dd858593          	addi	a1,a1,-552 # 35dd8 <_ZTISt16invalid_argument>
   10324:	8522                	mv	a0,s0
   10326:	5e4060ef          	jal	1690a <__cxa_throw>
   1032a:	84aa                	mv	s1,a0
   1032c:	8522                	mv	a0,s0
   1032e:	009060ef          	jal	16b36 <__cxa_free_exception>
   10332:	8526                	mv	a0,s1
   10334:	733120ef          	jal	23266 <_Unwind_Resume>

0000000000010338 <_ZSt20__throw_length_errorPKc>:
   10338:	7179                	addi	sp,sp,-48
   1033a:	e42a                	sd	a0,8(sp)
   1033c:	4541                	li	a0,16
   1033e:	f022                	sd	s0,32(sp)
   10340:	f406                	sd	ra,40(sp)
   10342:	ec26                	sd	s1,24(sp)
   10344:	7b8060ef          	jal	16afc <__cxa_allocate_exception>
   10348:	65a2                	ld	a1,8(sp)
   1034a:	842a                	mv	s0,a0
   1034c:	0d60c0ef          	jal	1c422 <_ZNSt12length_errorC1EPKc>
   10350:	6671                	lui	a2,0x1c
   10352:	000365b7          	lui	a1,0x36
   10356:	10860613          	addi	a2,a2,264 # 1c108 <_ZNSt12length_errorD1Ev>
   1035a:	e0858593          	addi	a1,a1,-504 # 35e08 <_ZTISt12length_error>
   1035e:	8522                	mv	a0,s0
   10360:	5aa060ef          	jal	1690a <__cxa_throw>
   10364:	84aa                	mv	s1,a0
   10366:	8522                	mv	a0,s0
   10368:	7ce060ef          	jal	16b36 <__cxa_free_exception>
   1036c:	8526                	mv	a0,s1
   1036e:	6f9120ef          	jal	23266 <_Unwind_Resume>

0000000000010372 <_ZSt20__throw_out_of_rangePKc>:
   10372:	7179                	addi	sp,sp,-48
   10374:	e42a                	sd	a0,8(sp)
   10376:	4541                	li	a0,16
   10378:	f022                	sd	s0,32(sp)
   1037a:	f406                	sd	ra,40(sp)
   1037c:	ec26                	sd	s1,24(sp)
   1037e:	77e060ef          	jal	16afc <__cxa_allocate_exception>
   10382:	65a2                	ld	a1,8(sp)
   10384:	842a                	mv	s0,a0
   10386:	0b80c0ef          	jal	1c43e <_ZNSt12out_of_rangeC1EPKc>
   1038a:	6671                	lui	a2,0x1c
   1038c:	000365b7          	lui	a1,0x36
   10390:	12a60613          	addi	a2,a2,298 # 1c12a <_ZNSt12out_of_rangeD1Ev>
   10394:	e3858593          	addi	a1,a1,-456 # 35e38 <_ZTISt12out_of_range>
   10398:	8522                	mv	a0,s0
   1039a:	570060ef          	jal	1690a <__cxa_throw>
   1039e:	84aa                	mv	s1,a0
   103a0:	8522                	mv	a0,s0
   103a2:	794060ef          	jal	16b36 <__cxa_free_exception>
   103a6:	8526                	mv	a0,s1
   103a8:	6bf120ef          	jal	23266 <_Unwind_Resume>

00000000000103ac <_ZSt24__throw_out_of_range_fmtPKcz>:
   103ac:	7159                	addi	sp,sp,-112
   103ae:	f406                	sd	ra,40(sp)
   103b0:	f022                	sd	s0,32(sp)
   103b2:	ec26                	sd	s1,24(sp)
   103b4:	1800                	addi	s0,sp,48
   103b6:	e84a                	sd	s2,16(sp)
   103b8:	84aa                	mv	s1,a0
   103ba:	f018                	sd	a4,32(s0)
   103bc:	03043823          	sd	a6,48(s0)
   103c0:	03143c23          	sd	a7,56(s0)
   103c4:	e40c                	sd	a1,8(s0)
   103c6:	e810                	sd	a2,16(s0)
   103c8:	ec14                	sd	a3,24(s0)
   103ca:	f41c                	sd	a5,40(s0)
   103cc:	1dc180ef          	jal	285a8 <strlen>
   103d0:	20f50793          	addi	a5,a0,527
   103d4:	9bc1                	andi	a5,a5,-16
   103d6:	40f10133          	sub	sp,sp,a5
   103da:	20050593          	addi	a1,a0,512
   103de:	00840693          	addi	a3,s0,8
   103e2:	8626                	mv	a2,s1
   103e4:	850a                	mv	a0,sp
   103e6:	fcd43c23          	sd	a3,-40(s0)
   103ea:	400070ef          	jal	177ea <_ZN9__gnu_cxx15__snprintf_liteEPcmPKcPv>
   103ee:	4541                	li	a0,16
   103f0:	70c060ef          	jal	16afc <__cxa_allocate_exception>
   103f4:	858a                	mv	a1,sp
   103f6:	84aa                	mv	s1,a0
   103f8:	0460c0ef          	jal	1c43e <_ZNSt12out_of_rangeC1EPKc>
   103fc:	6671                	lui	a2,0x1c
   103fe:	000365b7          	lui	a1,0x36
   10402:	12a60613          	addi	a2,a2,298 # 1c12a <_ZNSt12out_of_rangeD1Ev>
   10406:	e3858593          	addi	a1,a1,-456 # 35e38 <_ZTISt12out_of_range>
   1040a:	8526                	mv	a0,s1
   1040c:	4fe060ef          	jal	1690a <__cxa_throw>
   10410:	892a                	mv	s2,a0
   10412:	8526                	mv	a0,s1
   10414:	722060ef          	jal	16b36 <__cxa_free_exception>
   10418:	854a                	mv	a0,s2
   1041a:	64d120ef          	jal	23266 <_Unwind_Resume>

000000000001041e <_ZSt21__throw_runtime_errorPKc>:
   1041e:	7179                	addi	sp,sp,-48
   10420:	e42a                	sd	a0,8(sp)
   10422:	4541                	li	a0,16
   10424:	f022                	sd	s0,32(sp)
   10426:	f406                	sd	ra,40(sp)
   10428:	ec26                	sd	s1,24(sp)
   1042a:	6d2060ef          	jal	16afc <__cxa_allocate_exception>
   1042e:	65a2                	ld	a1,8(sp)
   10430:	842a                	mv	s0,a0
   10432:	0280c0ef          	jal	1c45a <_ZNSt13runtime_errorC1EPKc>
   10436:	6671                	lui	a2,0x1c
   10438:	000365b7          	lui	a1,0x36
   1043c:	fe660613          	addi	a2,a2,-26 # 1bfe6 <_ZNSt13runtime_errorD1Ev>
   10440:	e6858593          	addi	a1,a1,-408 # 35e68 <_ZTISt13runtime_error>
   10444:	8522                	mv	a0,s0
   10446:	4c4060ef          	jal	1690a <__cxa_throw>
   1044a:	84aa                	mv	s1,a0
   1044c:	8522                	mv	a0,s0
   1044e:	6e8060ef          	jal	16b36 <__cxa_free_exception>
   10452:	8526                	mv	a0,s1
   10454:	613120ef          	jal	23266 <_Unwind_Resume>

0000000000010458 <_ZSt19__throw_range_errorPKc>:
   10458:	7179                	addi	sp,sp,-48
   1045a:	e42a                	sd	a0,8(sp)
   1045c:	4541                	li	a0,16
   1045e:	f022                	sd	s0,32(sp)
   10460:	f406                	sd	ra,40(sp)
   10462:	ec26                	sd	s1,24(sp)
   10464:	698060ef          	jal	16afc <__cxa_allocate_exception>
   10468:	65a2                	ld	a1,8(sp)
   1046a:	842a                	mv	s0,a0
   1046c:	0240c0ef          	jal	1c490 <_ZNSt11range_errorC1EPKc>
   10470:	6671                	lui	a2,0x1c
   10472:	000365b7          	lui	a1,0x36
   10476:	02260613          	addi	a2,a2,34 # 1c022 <_ZNSt11range_errorD1Ev>
   1047a:	e9058593          	addi	a1,a1,-368 # 35e90 <_ZTISt11range_error>
   1047e:	8522                	mv	a0,s0
   10480:	48a060ef          	jal	1690a <__cxa_throw>
   10484:	84aa                	mv	s1,a0
   10486:	8522                	mv	a0,s0
   10488:	6ae060ef          	jal	16b36 <__cxa_free_exception>
   1048c:	8526                	mv	a0,s1
   1048e:	5d9120ef          	jal	23266 <_Unwind_Resume>

0000000000010492 <_ZSt22__throw_overflow_errorPKc>:
   10492:	7179                	addi	sp,sp,-48
   10494:	e42a                	sd	a0,8(sp)
   10496:	4541                	li	a0,16
   10498:	f022                	sd	s0,32(sp)
   1049a:	f406                	sd	ra,40(sp)
   1049c:	ec26                	sd	s1,24(sp)
   1049e:	65e060ef          	jal	16afc <__cxa_allocate_exception>
   104a2:	65a2                	ld	a1,8(sp)
   104a4:	842a                	mv	s0,a0
   104a6:	0060c0ef          	jal	1c4ac <_ZNSt14overflow_errorC1EPKc>
   104aa:	6671                	lui	a2,0x1c
   104ac:	000365b7          	lui	a1,0x36
   104b0:	04460613          	addi	a2,a2,68 # 1c044 <_ZNSt14overflow_errorD1Ev>
   104b4:	ec058593          	addi	a1,a1,-320 # 35ec0 <_ZTISt14overflow_error>
   104b8:	8522                	mv	a0,s0
   104ba:	450060ef          	jal	1690a <__cxa_throw>
   104be:	84aa                	mv	s1,a0
   104c0:	8522                	mv	a0,s0
   104c2:	674060ef          	jal	16b36 <__cxa_free_exception>
   104c6:	8526                	mv	a0,s1
   104c8:	59f120ef          	jal	23266 <_Unwind_Resume>

00000000000104cc <_ZSt23__throw_underflow_errorPKc>:
   104cc:	7179                	addi	sp,sp,-48
   104ce:	e42a                	sd	a0,8(sp)
   104d0:	4541                	li	a0,16
   104d2:	f022                	sd	s0,32(sp)
   104d4:	f406                	sd	ra,40(sp)
   104d6:	ec26                	sd	s1,24(sp)
   104d8:	624060ef          	jal	16afc <__cxa_allocate_exception>
   104dc:	65a2                	ld	a1,8(sp)
   104de:	842a                	mv	s0,a0
   104e0:	7e90b0ef          	jal	1c4c8 <_ZNSt15underflow_errorC1EPKc>
   104e4:	6671                	lui	a2,0x1c
   104e6:	000365b7          	lui	a1,0x36
   104ea:	06660613          	addi	a2,a2,102 # 1c066 <_ZNSt15underflow_errorD1Ev>
   104ee:	ef058593          	addi	a1,a1,-272 # 35ef0 <_ZTISt15underflow_error>
   104f2:	8522                	mv	a0,s0
   104f4:	416060ef          	jal	1690a <__cxa_throw>
   104f8:	84aa                	mv	s1,a0
   104fa:	8522                	mv	a0,s0
   104fc:	63a060ef          	jal	16b36 <__cxa_free_exception>
   10500:	8526                	mv	a0,s1
   10502:	565120ef          	jal	23266 <_Unwind_Resume>

0000000000010506 <_ZN9__gnu_cxx26__throw_insufficient_spaceEPKcS1_>:
   10506:	7175                	addi	sp,sp,-144
   10508:	e122                	sd	s0,128(sp)
   1050a:	fca6                	sd	s1,120(sp)
   1050c:	0900                	addi	s0,sp,144
   1050e:	84ae                	mv	s1,a1
   10510:	000335b7          	lui	a1,0x33
   10514:	e506                	sd	ra,136(sp)
   10516:	f8ca                	sd	s2,112(sp)
   10518:	06900613          	li	a2,105
   1051c:	892a                	mv	s2,a0
   1051e:	ef858593          	addi	a1,a1,-264 # 32ef8 <__clzdi2+0x20ca>
   10522:	f7040513          	addi	a0,s0,-144
   10526:	412484b3          	sub	s1,s1,s2
   1052a:	797170ef          	jal	284c0 <memcpy>
   1052e:	07848793          	addi	a5,s1,120
   10532:	9bc1                	andi	a5,a5,-16
   10534:	40f10133          	sub	sp,sp,a5
   10538:	06800613          	li	a2,104
   1053c:	f7040593          	addi	a1,s0,-144
   10540:	850a                	mv	a0,sp
   10542:	77f170ef          	jal	284c0 <memcpy>
   10546:	8626                	mv	a2,s1
   10548:	85ca                	mv	a1,s2
   1054a:	10a8                	addi	a0,sp,104
   1054c:	775170ef          	jal	284c0 <memcpy>
   10550:	948a                	add	s1,s1,sp
   10552:	06048423          	sb	zero,104(s1)
   10556:	850a                	mv	a0,sp
   10558:	d33ff0ef          	jal	1028a <_ZSt19__throw_logic_errorPKc>

000000000001055c <__cxa_call_terminate>:
   1055c:	1141                	addi	sp,sp,-16
   1055e:	e406                	sd	ra,8(sp)
   10560:	e022                	sd	s0,0(sp)
   10562:	c905                	beqz	a0,10592 <__cxa_call_terminate+0x36>
   10564:	842a                	mv	s0,a0
   10566:	6b6060ef          	jal	16c1c <__cxa_begin_catch>
   1056a:	b8b1b7b7          	lui	a5,0xb8b1b
   1056e:	abd78793          	addi	a5,a5,-1347 # ffffffffb8b1aabd <__BSS_END__+0xffffffffb8ad2b95>
   10572:	07b2                	slli	a5,a5,0xc
   10574:	bcd78793          	addi	a5,a5,-1075
   10578:	6018                	ld	a4,0(s0)
   1057a:	07b2                	slli	a5,a5,0xc
   1057c:	4d578793          	addi	a5,a5,1237
   10580:	07a2                	slli	a5,a5,0x8
   10582:	97ba                	add	a5,a5,a4
   10584:	4705                	li	a4,1
   10586:	00f76663          	bltu	a4,a5,10592 <__cxa_call_terminate+0x36>
   1058a:	fc843503          	ld	a0,-56(s0)
   1058e:	69d060ef          	jal	1742a <_ZN10__cxxabiv111__terminateEPFvvE>
   10592:	c23ff0ef          	jal	101b4 <_ZSt9terminatev>

0000000000010596 <_ZNSt7__cxx1112basic_stringIcSt11char_traitsIcESaIcEE15_M_replace_coldEPcmPKcmm>:
   10596:	7139                	addi	sp,sp,-64
   10598:	f822                	sd	s0,48(sp)
   1059a:	f426                	sd	s1,40(sp)
   1059c:	f04a                	sd	s2,32(sp)
   1059e:	ec4e                	sd	s3,24(sp)
   105a0:	843a                	mv	s0,a4
   105a2:	fc06                	sd	ra,56(sp)
   105a4:	177d                	addi	a4,a4,-1
   105a6:	84ae                	mv	s1,a1
   105a8:	8932                	mv	s2,a2
   105aa:	89b6                	mv	s3,a3
   105ac:	00c77963          	bgeu	a4,a2,105be <_ZNSt7__cxx1112basic_stringIcSt11char_traitsIcESaIcEE15_M_replace_coldEPcmPKcmm+0x28>
   105b0:	8622                	mv	a2,s0
   105b2:	85b6                	mv	a1,a3
   105b4:	8526                	mv	a0,s1
   105b6:	e43e                	sd	a5,8(sp)
   105b8:	0f30e0ef          	jal	1eeaa <_ZNSt7__cxx1112basic_stringIcSt11char_traitsIcESaIcEE7_S_moveEPcPKcm>
   105bc:	67a2                	ld	a5,8(sp)
   105be:	cb91                	beqz	a5,105d2 <_ZNSt7__cxx1112basic_stringIcSt11char_traitsIcESaIcEE15_M_replace_coldEPcmPKcmm+0x3c>
   105c0:	07240963          	beq	s0,s2,10632 <_ZNSt7__cxx1112basic_stringIcSt11char_traitsIcESaIcEE15_M_replace_coldEPcmPKcmm+0x9c>
   105c4:	863e                	mv	a2,a5
   105c6:	012485b3          	add	a1,s1,s2
   105ca:	00848533          	add	a0,s1,s0
   105ce:	0dd0e0ef          	jal	1eeaa <_ZNSt7__cxx1112basic_stringIcSt11char_traitsIcESaIcEE7_S_moveEPcPKcm>
   105d2:	06897063          	bgeu	s2,s0,10632 <_ZNSt7__cxx1112basic_stringIcSt11char_traitsIcESaIcEE15_M_replace_coldEPcmPKcmm+0x9c>
   105d6:	012487b3          	add	a5,s1,s2
   105da:	00898733          	add	a4,s3,s0
   105de:	00e7ed63          	bltu	a5,a4,105f8 <_ZNSt7__cxx1112basic_stringIcSt11char_traitsIcESaIcEE15_M_replace_coldEPcmPKcmm+0x62>
   105e2:	8622                	mv	a2,s0
   105e4:	7442                	ld	s0,48(sp)
   105e6:	70e2                	ld	ra,56(sp)
   105e8:	7902                	ld	s2,32(sp)
   105ea:	85ce                	mv	a1,s3
   105ec:	8526                	mv	a0,s1
   105ee:	69e2                	ld	s3,24(sp)
   105f0:	74a2                	ld	s1,40(sp)
   105f2:	6121                	addi	sp,sp,64
   105f4:	0b70e06f          	j	1eeaa <_ZNSt7__cxx1112basic_stringIcSt11char_traitsIcESaIcEE7_S_moveEPcPKcm>
   105f8:	00f9ef63          	bltu	s3,a5,10616 <_ZNSt7__cxx1112basic_stringIcSt11char_traitsIcESaIcEE15_M_replace_coldEPcmPKcmm+0x80>
   105fc:	412405b3          	sub	a1,s0,s2
   10600:	8622                	mv	a2,s0
   10602:	95ce                	add	a1,a1,s3
   10604:	8526                	mv	a0,s1
   10606:	7442                	ld	s0,48(sp)
   10608:	70e2                	ld	ra,56(sp)
   1060a:	74a2                	ld	s1,40(sp)
   1060c:	7902                	ld	s2,32(sp)
   1060e:	69e2                	ld	s3,24(sp)
   10610:	6121                	addi	sp,sp,64
   10612:	0850e06f          	j	1ee96 <_ZNSt7__cxx1112basic_stringIcSt11char_traitsIcESaIcEE7_S_copyEPcPKcm>
   10616:	41378933          	sub	s2,a5,s3
   1061a:	864a                	mv	a2,s2
   1061c:	85ce                	mv	a1,s3
   1061e:	8526                	mv	a0,s1
   10620:	08b0e0ef          	jal	1eeaa <_ZNSt7__cxx1112basic_stringIcSt11char_traitsIcESaIcEE7_S_moveEPcPKcm>
   10624:	41240633          	sub	a2,s0,s2
   10628:	008485b3          	add	a1,s1,s0
   1062c:	01248533          	add	a0,s1,s2
   10630:	bfd9                	j	10606 <_ZNSt7__cxx1112basic_stringIcSt11char_traitsIcESaIcEE15_M_replace_coldEPcmPKcmm+0x70>
   10632:	70e2                	ld	ra,56(sp)
   10634:	7442                	ld	s0,48(sp)
   10636:	74a2                	ld	s1,40(sp)
   10638:	7902                	ld	s2,32(sp)
   1063a:	69e2                	ld	s3,24(sp)
   1063c:	6121                	addi	sp,sp,64
   1063e:	8082                	ret

0000000000010640 <_ZSt20__throw_system_errori>:
   10640:	7139                	addi	sp,sp,-64
   10642:	f04a                	sd	s2,32(sp)
   10644:	892a                	mv	s2,a0
   10646:	02000513          	li	a0,32
   1064a:	f822                	sd	s0,48(sp)
   1064c:	f426                	sd	s1,40(sp)
   1064e:	fc06                	sd	ra,56(sp)
   10650:	4ac060ef          	jal	16afc <__cxa_allocate_exception>
   10654:	a281b783          	ld	a5,-1496(gp) # 41888 <_ZN12_GLOBAL__N_1L25generic_category_instanceE>
   10658:	84aa                	mv	s1,a0
   1065a:	864a                	mv	a2,s2
   1065c:	739c                	ld	a5,32(a5)
   1065e:	a2818593          	addi	a1,gp,-1496 # 41888 <_ZN12_GLOBAL__N_1L25generic_category_instanceE>
   10662:	850a                	mv	a0,sp
   10664:	9782                	jalr	a5
   10666:	858a                	mv	a1,sp
   10668:	8526                	mv	a0,s1
   1066a:	3d4100ef          	jal	20a3e <_ZNSt13runtime_errorC1ERKNSt7__cxx1112basic_stringIcSt11char_traitsIcESaIcEEE>
   1066e:	850a                	mv	a0,sp
   10670:	7ac0e0ef          	jal	1ee1c <_ZNSt7__cxx1112basic_stringIcSt11char_traitsIcESaIcEE10_M_disposeEv>
   10674:	000367b7          	lui	a5,0x36
   10678:	26078793          	addi	a5,a5,608 # 36260 <_ZTVSt12system_error+0x10>
   1067c:	a2818413          	addi	s0,gp,-1496 # 41888 <_ZN12_GLOBAL__N_1L25generic_category_instanceE>
   10680:	00021637          	lui	a2,0x21
   10684:	000365b7          	lui	a1,0x36
   10688:	e09c                	sd	a5,0(s1)
   1068a:	0124a823          	sw	s2,16(s1)
   1068e:	ec80                	sd	s0,24(s1)
   10690:	83e60613          	addi	a2,a2,-1986 # 2083e <_ZNSt12system_errorD1Ev>
   10694:	0b858593          	addi	a1,a1,184 # 360b8 <_ZTISt12system_error>
   10698:	8526                	mv	a0,s1
   1069a:	270060ef          	jal	1690a <__cxa_throw>
   1069e:	842a                	mv	s0,a0
   106a0:	850a                	mv	a0,sp
   106a2:	77a0e0ef          	jal	1ee1c <_ZNSt7__cxx1112basic_stringIcSt11char_traitsIcESaIcEE10_M_disposeEv>
   106a6:	8526                	mv	a0,s1
   106a8:	48e060ef          	jal	16b36 <__cxa_free_exception>
   106ac:	8522                	mv	a0,s0
   106ae:	3b9120ef          	jal	23266 <_Unwind_Resume>
   106b2:	842a                	mv	s0,a0
   106b4:	bfcd                	j	106a6 <_ZSt20__throw_system_errori+0x66>

00000000000106b6 <exit>:
   106b6:	1141                	addi	sp,sp,-16
   106b8:	4581                	li	a1,0
   106ba:	e022                	sd	s0,0(sp)
   106bc:	e406                	sd	ra,8(sp)
   106be:	842a                	mv	s0,a0
   106c0:	110180ef          	jal	287d0 <__call_exitprocs>
   106c4:	a881b783          	ld	a5,-1400(gp) # 418e8 <__stdio_exit_handler>
   106c8:	c391                	beqz	a5,106cc <exit+0x16>
   106ca:	9782                	jalr	a5
   106cc:	8522                	mv	a0,s0
   106ce:	33c1f0ef          	jal	2fa0a <_exit>

00000000000106d2 <main>:
   106d2:	1141                	addi	sp,sp,-16
   106d4:	e406                	sd	ra,8(sp)
   106d6:	4ec010ef          	jal	11bc2 <_Z20print_summary_headerv>
   106da:	63c000ef          	jal	10d16 <_Z13benchmark_mvmv>
   106de:	16b000ef          	jal	11048 <_Z19benchmark_attentionv>
   106e2:	4e7000ef          	jal	113c8 <_Z13benchmark_ffnv>
   106e6:	230010ef          	jal	11916 <_Z27benchmark_output_statisticsv>
   106ea:	00031537          	lui	a0,0x31
   106ee:	29850513          	addi	a0,a0,664 # 31298 <__clzdi2+0x46a>
   106f2:	325160ef          	jal	27216 <puts>
   106f6:	00031537          	lui	a0,0x31
   106fa:	2e050513          	addi	a0,a0,736 # 312e0 <__clzdi2+0x4b2>
   106fe:	319160ef          	jal	27216 <puts>
   10702:	00031537          	lui	a0,0x31
   10706:	14050513          	addi	a0,a0,320 # 31140 <__clzdi2+0x312>
   1070a:	30d160ef          	jal	27216 <puts>
   1070e:	1e00000b          	.insn	4, 0x1e00000b
   10712:	60a2                	ld	ra,8(sp)
   10714:	4501                	li	a0,0
   10716:	0141                	addi	sp,sp,16
   10718:	8082                	ret

000000000001071a <_GLOBAL__sub_I__ZN9__gnu_cxx9__freeresEv>:
   1071a:	7175                	addi	sp,sp,-144
   1071c:	fca6                	sd	s1,120(sp)
   1071e:	00033537          	lui	a0,0x33
   10722:	000484b7          	lui	s1,0x48
   10726:	e122                	sd	s0,128(sp)
   10728:	f4ce                	sd	s3,104(sp)
   1072a:	f0d2                	sd	s4,96(sp)
   1072c:	e506                	sd	ra,136(sp)
   1072e:	f8ca                	sd	s2,112(sp)
   10730:	90048493          	addi	s1,s1,-1792 # 47900 <_ZN12_GLOBAL__N_1L14emergency_poolE>
   10734:	de850513          	addi	a0,a0,-536 # 32de8 <__clzdi2+0x1fba>
   10738:	0004b423          	sd	zero,8(s1)
   1073c:	0004b823          	sd	zero,16(s1)
   10740:	0004bc23          	sd	zero,24(s1)
   10744:	74f130ef          	jal	24692 <getenv>
   10748:	47bd                	li	a5,15
   1074a:	f03e                	sd	a5,32(sp)
   1074c:	000337b7          	lui	a5,0x33
   10750:	e0078793          	addi	a5,a5,-512 # 32e00 <__clzdi2+0x1fd2>
   10754:	f43e                	sd	a5,40(sp)
   10756:	47a1                	li	a5,8
   10758:	f83e                	sd	a5,48(sp)
   1075a:	000337b7          	lui	a5,0x33
   1075e:	e1078793          	addi	a5,a5,-496 # 32e10 <__clzdi2+0x1fe2>
   10762:	fc3e                	sd	a5,56(sp)
   10764:	47a5                	li	a5,9
   10766:	e4be                	sd	a5,72(sp)
   10768:	000337b7          	lui	a5,0x33
   1076c:	e2078793          	addi	a5,a5,-480 # 32e20 <__clzdi2+0x1ff2>
   10770:	e8be                	sd	a5,80(sp)
   10772:	4791                	li	a5,4
   10774:	842a                	mv	s0,a0
   10776:	e082                	sd	zero,64(sp)
   10778:	ccbe                	sw	a5,88(sp)
   1077a:	03a00993          	li	s3,58
   1077e:	02e00a13          	li	s4,46
   10782:	e031                	bnez	s0,107c6 <_GLOBAL__sub_I__ZN9__gnu_cxx9__freeresEv+0xac>
   10784:	46e6                	lw	a3,88(sp)
   10786:	04000713          	li	a4,64
   1078a:	0006879b          	sext.w	a5,a3
   1078e:	00d75463          	bge	a4,a3,10796 <_GLOBAL__sub_I__ZN9__gnu_cxx9__freeresEv+0x7c>
   10792:	0007079b          	sext.w	a5,a4
   10796:	4406                	lw	s0,64(sp)
   10798:	e011                	bnez	s0,1079c <_GLOBAL__sub_I__ZN9__gnu_cxx9__freeresEv+0x82>
   1079a:	4419                	li	s0,6
   1079c:	0479                	addi	s0,s0,30
   1079e:	02f40433          	mul	s0,s0,a5
   107a2:	040e                	slli	s0,s0,0x3
   107a4:	ec80                	sd	s0,24(s1)
   107a6:	c801                	beqz	s0,107b6 <_GLOBAL__sub_I__ZN9__gnu_cxx9__freeresEv+0x9c>
   107a8:	8522                	mv	a0,s0
   107aa:	7d3130ef          	jal	2477c <malloc>
   107ae:	e888                	sd	a0,16(s1)
   107b0:	e555                	bnez	a0,1085c <_GLOBAL__sub_I__ZN9__gnu_cxx9__freeresEv+0x142>
   107b2:	0004bc23          	sd	zero,24(s1)
   107b6:	60aa                	ld	ra,136(sp)
   107b8:	640a                	ld	s0,128(sp)
   107ba:	74e6                	ld	s1,120(sp)
   107bc:	7946                	ld	s2,112(sp)
   107be:	79a6                	ld	s3,104(sp)
   107c0:	7a06                	ld	s4,96(sp)
   107c2:	6149                	addi	sp,sp,144
   107c4:	8082                	ret
   107c6:	00044783          	lbu	a5,0(s0)
   107ca:	01379363          	bne	a5,s3,107d0 <_GLOBAL__sub_I__ZN9__gnu_cxx9__freeresEv+0xb6>
   107ce:	0405                	addi	s0,s0,1
   107d0:	473d                	li	a4,15
   107d2:	86a2                	mv	a3,s0
   107d4:	863a                	mv	a2,a4
   107d6:	4581                	li	a1,0
   107d8:	1008                	addi	a0,sp,32
   107da:	3d2060ef          	jal	16bac <_ZNKSt17basic_string_viewIcSt11char_traitsIcEE7compareEmmPKcm>
   107de:	ed1d                	bnez	a0,1081c <_GLOBAL__sub_I__ZN9__gnu_cxx9__freeresEv+0x102>
   107e0:	00f44783          	lbu	a5,15(s0)
   107e4:	03479c63          	bne	a5,s4,1081c <_GLOBAL__sub_I__ZN9__gnu_cxx9__freeresEv+0x102>
   107e8:	0441                	addi	s0,s0,16
   107ea:	03010913          	addi	s2,sp,48
   107ee:	00093703          	ld	a4,0(s2)
   107f2:	86a2                	mv	a3,s0
   107f4:	4581                	li	a1,0
   107f6:	863a                	mv	a2,a4
   107f8:	854a                	mv	a0,s2
   107fa:	e43a                	sd	a4,8(sp)
   107fc:	3b0060ef          	jal	16bac <_ZNKSt17basic_string_viewIcSt11char_traitsIcEE7compareEmmPKcm>
   10800:	e911                	bnez	a0,10814 <_GLOBAL__sub_I__ZN9__gnu_cxx9__freeresEv+0xfa>
   10802:	6722                	ld	a4,8(sp)
   10804:	00e407b3          	add	a5,s0,a4
   10808:	0007c683          	lbu	a3,0(a5)
   1080c:	03d00793          	li	a5,61
   10810:	00f68d63          	beq	a3,a5,1082a <_GLOBAL__sub_I__ZN9__gnu_cxx9__freeresEv+0x110>
   10814:	0961                	addi	s2,s2,24
   10816:	109c                	addi	a5,sp,96
   10818:	fcf91be3          	bne	s2,a5,107ee <_GLOBAL__sub_I__ZN9__gnu_cxx9__freeresEv+0xd4>
   1081c:	8522                	mv	a0,s0
   1081e:	03a00593          	li	a1,58
   10822:	286170ef          	jal	27aa8 <strchr>
   10826:	842a                	mv	s0,a0
   10828:	bfa9                	j	10782 <_GLOBAL__sub_I__ZN9__gnu_cxx9__freeresEv+0x68>
   1082a:	0705                	addi	a4,a4,1
   1082c:	00e40533          	add	a0,s0,a4
   10830:	4601                	li	a2,0
   10832:	082c                	addi	a1,sp,24
   10834:	3e1140ef          	jal	25414 <strtoul>
   10838:	6462                	ld	s0,24(sp)
   1083a:	00044703          	lbu	a4,0(s0)
   1083e:	fc670793          	addi	a5,a4,-58
   10842:	0017b793          	seqz	a5,a5
   10846:	00173713          	seqz	a4,a4
   1084a:	8fd9                	or	a5,a5,a4
   1084c:	dbe1                	beqz	a5,1081c <_GLOBAL__sub_I__ZN9__gnu_cxx9__freeresEv+0x102>
   1084e:	4785                	li	a5,1
   10850:	07fe                	slli	a5,a5,0x1f
   10852:	fcf575e3          	bgeu	a0,a5,1081c <_GLOBAL__sub_I__ZN9__gnu_cxx9__freeresEv+0x102>
   10856:	00a92823          	sw	a0,16(s2)
   1085a:	b7c9                	j	1081c <_GLOBAL__sub_I__ZN9__gnu_cxx9__freeresEv+0x102>
   1085c:	e488                	sd	a0,8(s1)
   1085e:	e100                	sd	s0,0(a0)
   10860:	00053423          	sd	zero,8(a0)
   10864:	bf89                	j	107b6 <_GLOBAL__sub_I__ZN9__gnu_cxx9__freeresEv+0x9c>

0000000000010866 <_GLOBAL__sub_I__ZSt20__throw_system_errori>:
   10866:	8082                	ret

0000000000010868 <register_fini>:
   10868:	00000793          	li	a5,0
   1086c:	c799                	beqz	a5,1087a <register_fini+0x12>
   1086e:	0002d537          	lui	a0,0x2d
   10872:	33e50513          	addi	a0,a0,830 # 2d33e <__libc_fini_array>
   10876:	02c1806f          	j	288a2 <atexit>
   1087a:	8082                	ret

000000000001087c <_start>:
   1087c:	00031197          	auipc	gp,0x31
   10880:	5e418193          	addi	gp,gp,1508 # 41e60 <__global_pointer$>
   10884:	00031517          	auipc	a0,0x31
   10888:	02c50513          	addi	a0,a0,44 # 418b0 <_ZZN9__gnu_cxx27__verbose_terminate_handlerEvE11terminating>
   1088c:	00037617          	auipc	a2,0x37
   10890:	69c60613          	addi	a2,a2,1692 # 47f28 <__BSS_END__>
   10894:	8e09                	sub	a2,a2,a0
   10896:	4581                	li	a1,0
   10898:	37f170ef          	jal	28416 <memset>
   1089c:	00018517          	auipc	a0,0x18
   108a0:	00650513          	addi	a0,a0,6 # 288a2 <atexit>
   108a4:	c519                	beqz	a0,108b2 <_start+0x36>
   108a6:	0001d517          	auipc	a0,0x1d
   108aa:	a9850513          	addi	a0,a0,-1384 # 2d33e <__libc_fini_array>
   108ae:	7f5170ef          	jal	288a2 <atexit>
   108b2:	219170ef          	jal	282ca <__libc_init_array>
   108b6:	4502                	lw	a0,0(sp)
   108b8:	002c                	addi	a1,sp,8
   108ba:	4601                	li	a2,0
   108bc:	e17ff0ef          	jal	106d2 <main>
   108c0:	bbdd                	j	106b6 <exit>

00000000000108c2 <__do_global_dtors_aux>:
   108c2:	1141                	addi	sp,sp,-16
   108c4:	e022                	sd	s0,0(sp)
   108c6:	ae01c783          	lbu	a5,-1312(gp) # 41940 <completed.1>
   108ca:	e406                	sd	ra,8(sp)
   108cc:	ef99                	bnez	a5,108ea <__do_global_dtors_aux+0x28>
   108ce:	000247b7          	lui	a5,0x24
   108d2:	55a78793          	addi	a5,a5,1370 # 2455a <__deregister_frame_info>
   108d6:	c799                	beqz	a5,108e4 <__do_global_dtors_aux+0x22>
   108d8:	00038537          	lui	a0,0x38
   108dc:	92050513          	addi	a0,a0,-1760 # 37920 <__EH_FRAME_BEGIN__>
   108e0:	47b130ef          	jal	2455a <__deregister_frame_info>
   108e4:	4785                	li	a5,1
   108e6:	aef18023          	sb	a5,-1312(gp) # 41940 <completed.1>
   108ea:	60a2                	ld	ra,8(sp)
   108ec:	6402                	ld	s0,0(sp)
   108ee:	0141                	addi	sp,sp,16
   108f0:	8082                	ret

00000000000108f2 <frame_dummy>:
   108f2:	000247b7          	lui	a5,0x24
   108f6:	47c78793          	addi	a5,a5,1148 # 2447c <__register_frame_info>
   108fa:	cb89                	beqz	a5,1090c <frame_dummy+0x1a>
   108fc:	00038537          	lui	a0,0x38
   10900:	ae818593          	addi	a1,gp,-1304 # 41948 <object.0>
   10904:	92050513          	addi	a0,a0,-1760 # 37920 <__EH_FRAME_BEGIN__>
   10908:	3751306f          	j	2447c <__register_frame_info>
   1090c:	8082                	ret

000000000001090e <_Z11pseudo_randv>:
   1090e:	9f01a783          	lw	a5,-1552(gp) # 41850 <_ZL9rand_seed>
   10912:	41c65637          	lui	a2,0x41c65
   10916:	e6d6061b          	addiw	a2,a2,-403 # 41c64e6d <__BSS_END__+0x41c1cf45>
   1091a:	02f6063b          	mulw	a2,a2,a5
   1091e:	678d                	lui	a5,0x3
   10920:	0397879b          	addiw	a5,a5,57 # 3039 <__cxa_bad_cast-0xd0e7>
   10924:	000d2737          	lui	a4,0xd2
   10928:	b7170713          	addi	a4,a4,-1167 # d1b71 <__BSS_END__+0x89c49>
   1092c:	0732                	slli	a4,a4,0xc
   1092e:	75970713          	addi	a4,a4,1881
   10932:	6689                	lui	a3,0x2
   10934:	7106869b          	addiw	a3,a3,1808 # 2710 <__cxa_bad_cast-0xda10>
   10938:	9fb1                	addw	a5,a5,a2
   1093a:	02079613          	slli	a2,a5,0x20
   1093e:	9201                	srli	a2,a2,0x20
   10940:	02e60733          	mul	a4,a2,a4
   10944:	9ef1a823          	sw	a5,-1552(gp) # 41850 <_ZL9rand_seed>
   10948:	8a01a707          	flw	fa4,-1888(gp) # 41700 <mask+0x68>
   1094c:	8a41a787          	flw	fa5,-1884(gp) # 41704 <mask+0x6c>
   10950:	9335                	srli	a4,a4,0x2d
   10952:	02e6873b          	mulw	a4,a3,a4
   10956:	9f99                	subw	a5,a5,a4
   10958:	d007f553          	fcvt.s.w	fa0,a5
   1095c:	78e57543          	fmadd.s	fa0,fa0,fa4,fa5
   10960:	8082                	ret

0000000000010962 <_Z10reset_randj>:
   10962:	9ea1a823          	sw	a0,-1552(gp) # 41850 <_ZL9rand_seed>
   10966:	8082                	ret

0000000000010968 <_Z11init_randomPfmf>:
   10968:	c5ad                	beqz	a1,109d2 <_Z11init_randomPfmf+0x6a>
   1096a:	8a01a687          	flw	fa3,-1888(gp) # 41700 <mask+0x68>
   1096e:	000d26b7          	lui	a3,0xd2
   10972:	b7168693          	addi	a3,a3,-1167 # d1b71 <__BSS_END__+0x89c49>
   10976:	8a41a707          	flw	fa4,-1884(gp) # 41704 <mask+0x6c>
   1097a:	9f01a703          	lw	a4,-1552(gp) # 41850 <_ZL9rand_seed>
   1097e:	058a                	slli	a1,a1,0x2
   10980:	06b2                	slli	a3,a3,0xc
   10982:	41c658b7          	lui	a7,0x41c65
   10986:	680d                	lui	a6,0x3
   10988:	6609                	lui	a2,0x2
   1098a:	95aa                	add	a1,a1,a0
   1098c:	75968693          	addi	a3,a3,1881
   10990:	e6d8889b          	addiw	a7,a7,-403 # 41c64e6d <__BSS_END__+0x41c1cf45>
   10994:	0398081b          	addiw	a6,a6,57 # 3039 <__cxa_bad_cast-0xd0e7>
   10998:	7106061b          	addiw	a2,a2,1808 # 2710 <__cxa_bad_cast-0xda10>
   1099c:	0317073b          	mulw	a4,a4,a7
   109a0:	0511                	addi	a0,a0,4
   109a2:	00e8073b          	addw	a4,a6,a4
   109a6:	02071793          	slli	a5,a4,0x20
   109aa:	9381                	srli	a5,a5,0x20
   109ac:	02d787b3          	mul	a5,a5,a3
   109b0:	93b5                	srli	a5,a5,0x2d
   109b2:	02f607bb          	mulw	a5,a2,a5
   109b6:	40f707bb          	subw	a5,a4,a5
   109ba:	d007f7d3          	fcvt.s.w	fa5,a5
   109be:	70d7f7c3          	fmadd.s	fa5,fa5,fa3,fa4
   109c2:	10a7f7d3          	fmul.s	fa5,fa5,fa0
   109c6:	fef52e27          	fsw	fa5,-4(a0)
   109ca:	fca599e3          	bne	a1,a0,1099c <_Z11init_randomPfmf+0x34>
   109ce:	9ee1a823          	sw	a4,-1552(gp) # 41850 <_ZL9rand_seed>
   109d2:	8082                	ret

00000000000109d4 <_Z13compute_statsPKfm>:
   109d4:	4118                	lw	a4,0(a0)
   109d6:	1141                	addi	sp,sp,-16
   109d8:	cdbd                	beqz	a1,10a56 <_Z13compute_statsPKfm+0x82>
   109da:	f0000753          	fmv.w.x	fa4,zero
   109de:	00259613          	slli	a2,a1,0x2
   109e2:	86ba                	mv	a3,a4
   109e4:	962a                	add	a2,a2,a0
   109e6:	87aa                	mv	a5,a0
   109e8:	0007a787          	flw	fa5,0(a5)
   109ec:	f00706d3          	fmv.w.x	fa3,a4
   109f0:	0791                	addi	a5,a5,4
   109f2:	00f77753          	fadd.s	fa4,fa4,fa5
   109f6:	28f686d3          	fmin.s	fa3,fa3,fa5
   109fa:	e0068753          	fmv.x.w	a4,fa3
   109fe:	f00686d3          	fmv.w.x	fa3,a3
   10a02:	28f697d3          	fmax.s	fa5,fa3,fa5
   10a06:	e00786d3          	fmv.x.w	a3,fa5
   10a0a:	fcc79fe3          	bne	a5,a2,109e8 <_Z13compute_statsPKfm+0x14>
   10a0e:	d025f653          	fcvt.s.l	fa2,a1
   10a12:	f00006d3          	fmv.w.x	fa3,zero
   10a16:	18c777d3          	fdiv.s	fa5,fa4,fa2
   10a1a:	e00787d3          	fmv.x.w	a5,fa5
   10a1e:	00052787          	flw	fa5,0(a0)
   10a22:	f0078753          	fmv.w.x	fa4,a5
   10a26:	0511                	addi	a0,a0,4
   10a28:	08e7f7d3          	fsub.s	fa5,fa5,fa4
   10a2c:	68f7f6c3          	fmadd.s	fa3,fa5,fa5,fa3
   10a30:	fec517e3          	bne	a0,a2,10a1e <_Z13compute_statsPKfm+0x4a>
   10a34:	18c6f6d3          	fdiv.s	fa3,fa3,fa2
   10a38:	1782                	slli	a5,a5,0x20
   10a3a:	1702                	slli	a4,a4,0x20
   10a3c:	9381                	srli	a5,a5,0x20
   10a3e:	9301                	srli	a4,a4,0x20
   10a40:	02069593          	slli	a1,a3,0x20
   10a44:	8dd9                	or	a1,a1,a4
   10a46:	0141                	addi	sp,sp,16
   10a48:	5806f7d3          	fsqrt.s	fa5,fa3
   10a4c:	e0078553          	fmv.x.w	a0,fa5
   10a50:	1502                	slli	a0,a0,0x20
   10a52:	8d5d                	or	a0,a0,a5
   10a54:	8082                	ret
   10a56:	8a81a687          	flw	fa3,-1880(gp) # 41708 <mask+0x70>
   10a5a:	86ba                	mv	a3,a4
   10a5c:	e00687d3          	fmv.x.w	a5,fa3
   10a60:	bfe1                	j	10a38 <_Z13compute_statsPKfm+0x64>

0000000000010a62 <_Z11compute_msePKfS0_m>:
   10a62:	f0000753          	fmv.w.x	fa4,zero
   10a66:	c205                	beqz	a2,10a86 <_Z11compute_msePKfS0_m+0x24>
   10a68:	00261793          	slli	a5,a2,0x2
   10a6c:	97aa                	add	a5,a5,a0
   10a6e:	00052787          	flw	fa5,0(a0)
   10a72:	0005a687          	flw	fa3,0(a1)
   10a76:	0511                	addi	a0,a0,4
   10a78:	0591                	addi	a1,a1,4
   10a7a:	08d7f7d3          	fsub.s	fa5,fa5,fa3
   10a7e:	70f7f743          	fmadd.s	fa4,fa5,fa5,fa4
   10a82:	fea796e3          	bne	a5,a0,10a6e <_Z11compute_msePKfS0_m+0xc>
   10a86:	d0267553          	fcvt.s.l	fa0,a2
   10a8a:	18a77553          	fdiv.s	fa0,fa4,fa0
   10a8e:	8082                	ret

0000000000010a90 <_Z17compute_max_errorPKfS0_m>:
   10a90:	f0000553          	fmv.w.x	fa0,zero
   10a94:	c215                	beqz	a2,10ab8 <_Z17compute_max_errorPKfS0_m+0x28>
   10a96:	060a                	slli	a2,a2,0x2
   10a98:	962a                	add	a2,a2,a0
   10a9a:	00052787          	flw	fa5,0(a0)
   10a9e:	0005a707          	flw	fa4,0(a1)
   10aa2:	0511                	addi	a0,a0,4
   10aa4:	0591                	addi	a1,a1,4
   10aa6:	08e7f7d3          	fsub.s	fa5,fa5,fa4
   10aaa:	20f7a7d3          	fabs.s	fa5,fa5
   10aae:	28f51553          	fmax.s	fa0,fa0,fa5
   10ab2:	fec514e3          	bne	a0,a2,10a9a <_Z17compute_max_errorPKfS0_m+0xa>
   10ab6:	8082                	ret
   10ab8:	8082                	ret

0000000000010aba <_Z25compute_cosine_similarityPKfS0_m>:
   10aba:	c631                	beqz	a2,10b06 <_Z25compute_cosine_similarityPKfS0_m+0x4c>
   10abc:	f0000653          	fmv.w.x	fa2,zero
   10ac0:	060a                	slli	a2,a2,0x2
   10ac2:	962a                	add	a2,a2,a0
   10ac4:	20c606d3          	fmv.s	fa3,fa2
   10ac8:	20c60553          	fmv.s	fa0,fa2
   10acc:	00052707          	flw	fa4,0(a0)
   10ad0:	0005a787          	flw	fa5,0(a1)
   10ad4:	0511                	addi	a0,a0,4
   10ad6:	68e776c3          	fmadd.s	fa3,fa4,fa4,fa3
   10ada:	50f77543          	fmadd.s	fa0,fa4,fa5,fa0
   10ade:	60f7f643          	fmadd.s	fa2,fa5,fa5,fa2
   10ae2:	0591                	addi	a1,a1,4
   10ae4:	fea614e3          	bne	a2,a0,10acc <_Z25compute_cosine_similarityPKfS0_m+0x12>
   10ae8:	8ac1a787          	flw	fa5,-1876(gp) # 4170c <mask+0x74>
   10aec:	a0f697d3          	flt.s	a5,fa3,fa5
   10af0:	eb99                	bnez	a5,10b06 <_Z25compute_cosine_similarityPKfS0_m+0x4c>
   10af2:	a0f617d3          	flt.s	a5,fa2,fa5
   10af6:	eb81                	bnez	a5,10b06 <_Z25compute_cosine_similarityPKfS0_m+0x4c>
   10af8:	10c6f6d3          	fmul.s	fa3,fa3,fa2
   10afc:	5806f6d3          	fsqrt.s	fa3,fa3
   10b00:	18d57553          	fdiv.s	fa0,fa0,fa3
   10b04:	8082                	ret
   10b06:	f0000553          	fmv.w.x	fa0,zero
   10b0a:	8082                	ret

0000000000010b0c <_Z12count_errorsPKfS0_mf>:
   10b0c:	c615                	beqz	a2,10b38 <_Z12count_errorsPKfS0_mf+0x2c>
   10b0e:	060a                	slli	a2,a2,0x2
   10b10:	87aa                	mv	a5,a0
   10b12:	962a                	add	a2,a2,a0
   10b14:	4501                	li	a0,0
   10b16:	0007a787          	flw	fa5,0(a5)
   10b1a:	0005a707          	flw	fa4,0(a1)
   10b1e:	0791                	addi	a5,a5,4
   10b20:	0591                	addi	a1,a1,4
   10b22:	08e7f7d3          	fsub.s	fa5,fa5,fa4
   10b26:	20f7a7d3          	fabs.s	fa5,fa5
   10b2a:	a0a78753          	fle.s	a4,fa5,fa0
   10b2e:	e311                	bnez	a4,10b32 <_Z12count_errorsPKfS0_mf+0x26>
   10b30:	2505                	addiw	a0,a0,1
   10b32:	fec792e3          	bne	a5,a2,10b16 <_Z12count_errorsPKfS0_mf+0xa>
   10b36:	8082                	ret
   10b38:	4501                	li	a0,0
   10b3a:	8082                	ret

0000000000010b3c <_Z10ref_matmulPfPKfS1_mmm>:
   10b3c:	1141                	addi	sp,sp,-16
   10b3e:	e422                	sd	s0,8(sp)
   10b40:	8436                	mv	s0,a3
   10b42:	ce8d                	beqz	a3,10b7c <_Z10ref_matmulPfPKfS1_mmm+0x40>
   10b44:	cf85                	beqz	a5,10b7c <_Z10ref_matmulPfPKfS1_mmm+0x40>
   10b46:	86ba                	mv	a3,a4
   10b48:	070a                	slli	a4,a4,0x2
   10b4a:	8fae                	mv	t6,a1
   10b4c:	00e588b3          	add	a7,a1,a4
   10b50:	00279313          	slli	t1,a5,0x2
   10b54:	4381                	li	t2,0
   10b56:	4281                	li	t0,0
   10b58:	00239e13          	slli	t3,t2,0x2
   10b5c:	9e2a                	add	t3,t3,a0
   10b5e:	8f32                	mv	t5,a2
   10b60:	4e81                	li	t4,0
   10b62:	e69d                	bnez	a3,10b90 <_Z10ref_matmulPfPKfS1_mmm+0x54>
   10b64:	000e2023          	sw	zero,0(t3)
   10b68:	0e85                	addi	t4,t4,1
   10b6a:	0e11                	addi	t3,t3,4
   10b6c:	ffd79ce3          	bne	a5,t4,10b64 <_Z10ref_matmulPfPKfS1_mmm+0x28>
   10b70:	0285                	addi	t0,t0,1
   10b72:	93f6                	add	t2,t2,t4
   10b74:	9fba                	add	t6,t6,a4
   10b76:	98ba                	add	a7,a7,a4
   10b78:	fe5410e3          	bne	s0,t0,10b58 <_Z10ref_matmulPfPKfS1_mmm+0x1c>
   10b7c:	6422                	ld	s0,8(sp)
   10b7e:	0141                	addi	sp,sp,16
   10b80:	8082                	ret
   10b82:	00fe2027          	fsw	fa5,0(t3)
   10b86:	0e85                	addi	t4,t4,1
   10b88:	0e11                	addi	t3,t3,4
   10b8a:	0f11                	addi	t5,t5,4
   10b8c:	fefe82e3          	beq	t4,a5,10b70 <_Z10ref_matmulPfPKfS1_mmm+0x34>
   10b90:	f00007d3          	fmv.w.x	fa5,zero
   10b94:	887a                	mv	a6,t5
   10b96:	85fe                	mv	a1,t6
   10b98:	0005a687          	flw	fa3,0(a1)
   10b9c:	00082707          	flw	fa4,0(a6)
   10ba0:	0591                	addi	a1,a1,4
   10ba2:	981a                	add	a6,a6,t1
   10ba4:	78e6f7c3          	fmadd.s	fa5,fa3,fa4,fa5
   10ba8:	feb898e3          	bne	a7,a1,10b98 <_Z10ref_matmulPfPKfS1_mmm+0x5c>
   10bac:	bfd9                	j	10b82 <_Z10ref_matmulPfPKfS1_mmm+0x46>

0000000000010bae <_Z7ref_mvmPfPKfS1_mm>:
   10bae:	c6b1                	beqz	a3,10bfa <_Z7ref_mvmPfPKfS1_mm+0x4c>
   10bb0:	068a                	slli	a3,a3,0x2
   10bb2:	00d50333          	add	t1,a0,a3
   10bb6:	e719                	bnez	a4,10bc4 <_Z7ref_mvmPfPKfS1_mm+0x16>
   10bb8:	00052023          	sw	zero,0(a0)
   10bbc:	0511                	addi	a0,a0,4
   10bbe:	fe651de3          	bne	a0,t1,10bb8 <_Z7ref_mvmPfPKfS1_mm+0xa>
   10bc2:	8082                	ret
   10bc4:	00271813          	slli	a6,a4,0x2
   10bc8:	9832                	add	a6,a6,a2
   10bca:	4881                	li	a7,0
   10bcc:	f00007d3          	fmv.w.x	fa5,zero
   10bd0:	00289693          	slli	a3,a7,0x2
   10bd4:	96ae                	add	a3,a3,a1
   10bd6:	87b2                	mv	a5,a2
   10bd8:	0006a687          	flw	fa3,0(a3)
   10bdc:	0007a707          	flw	fa4,0(a5)
   10be0:	0791                	addi	a5,a5,4
   10be2:	0691                	addi	a3,a3,4
   10be4:	78e6f7c3          	fmadd.s	fa5,fa3,fa4,fa5
   10be8:	fef818e3          	bne	a6,a5,10bd8 <_Z7ref_mvmPfPKfS1_mm+0x2a>
   10bec:	00f52027          	fsw	fa5,0(a0)
   10bf0:	0511                	addi	a0,a0,4
   10bf2:	98ba                	add	a7,a7,a4
   10bf4:	fc651ce3          	bne	a0,t1,10bcc <_Z7ref_mvmPfPKfS1_mm+0x1e>
   10bf8:	8082                	ret
   10bfa:	8082                	ret

0000000000010bfc <_Z13ref_attentionPfPKfS1_S1_mmm>:
   10bfc:	7159                	addi	sp,sp,-112
   10bfe:	fc56                	sd	s5,56(sp)
   10c00:	02e70ab3          	mul	s5,a4,a4
   10c04:	f0a2                	sd	s0,96(sp)
   10c06:	f062                	sd	s8,32(sp)
   10c08:	8c2a                	mv	s8,a0
   10c0a:	e02e                	sd	a1,0(sp)
   10c0c:	f486                	sd	ra,104(sp)
   10c0e:	e432                	sd	a2,8(sp)
   10c10:	eca6                	sd	s1,88(sp)
   10c12:	e8ca                	sd	s2,80(sp)
   10c14:	e4ce                	sd	s3,72(sp)
   10c16:	002a9413          	slli	s0,s5,0x2
   10c1a:	8522                	mv	a0,s0
   10c1c:	893e                	mv	s2,a5
   10c1e:	e0d2                	sd	s4,64(sp)
   10c20:	f85a                	sd	s6,48(sp)
   10c22:	f45e                	sd	s7,40(sp)
   10c24:	ec66                	sd	s9,24(sp)
   10c26:	8bba                	mv	s7,a4
   10c28:	8cb6                	mv	s9,a3
   10c2a:	e86a                	sd	s10,16(sp)
   10c2c:	8d42                	mv	s10,a6
   10c2e:	34f130ef          	jal	2477c <malloc>
   10c32:	84aa                	mv	s1,a0
   10c34:	8522                	mv	a0,s0
   10c36:	347130ef          	jal	2477c <malloc>
   10c3a:	00291b13          	slli	s6,s2,0x2
   10c3e:	89aa                	mv	s3,a0
   10c40:	036b8533          	mul	a0,s7,s6
   10c44:	339130ef          	jal	2477c <malloc>
   10c48:	6582                	ld	a1,0(sp)
   10c4a:	8a2a                	mv	s4,a0
   10c4c:	0a0b8d63          	beqz	s7,10d06 <_Z13ref_attentionPfPKfS1_S1_mmm+0x10a>
   10c50:	882a                	mv	a6,a0
   10c52:	4781                	li	a5,0
   10c54:	08091463          	bnez	s2,10cdc <_Z13ref_attentionPfPKfS1_S1_mmm+0xe0>
   10c58:	0785                	addi	a5,a5,1
   10c5a:	fefb9fe3          	bne	s7,a5,10c58 <_Z13ref_attentionPfPKfS1_S1_mmm+0x5c>
   10c5e:	86be                	mv	a3,a5
   10c60:	874a                	mv	a4,s2
   10c62:	8652                	mv	a2,s4
   10c64:	8526                	mv	a0,s1
   10c66:	ed7ff0ef          	jal	10b3c <_Z10ref_matmulPfPKfS1_mmm>
   10c6a:	d03977d3          	fcvt.s.lu	fa5,s2
   10c6e:	8b01a707          	flw	fa4,-1872(gp) # 41710 <mask+0x78>
   10c72:	5807f7d3          	fsqrt.s	fa5,fa5
   10c76:	18f77753          	fdiv.s	fa4,fa4,fa5
   10c7a:	000a8d63          	beqz	s5,10c94 <_Z13ref_attentionPfPKfS1_S1_mmm+0x98>
   10c7e:	9426                	add	s0,s0,s1
   10c80:	87a6                	mv	a5,s1
   10c82:	0007a787          	flw	fa5,0(a5)
   10c86:	0791                	addi	a5,a5,4
   10c88:	10e7f7d3          	fmul.s	fa5,fa5,fa4
   10c8c:	fef7ae27          	fsw	fa5,-4(a5)
   10c90:	fef419e3          	bne	s0,a5,10c82 <_Z13ref_attentionPfPKfS1_S1_mmm+0x86>
   10c94:	86de                	mv	a3,s7
   10c96:	865e                	mv	a2,s7
   10c98:	85a6                	mv	a1,s1
   10c9a:	854e                	mv	a0,s3
   10c9c:	033030ef          	jal	144ce <_Z15softmax_2d_fp32PfPKfmm>
   10ca0:	87ea                	mv	a5,s10
   10ca2:	875e                	mv	a4,s7
   10ca4:	86de                	mv	a3,s7
   10ca6:	8666                	mv	a2,s9
   10ca8:	85ce                	mv	a1,s3
   10caa:	8562                	mv	a0,s8
   10cac:	e91ff0ef          	jal	10b3c <_Z10ref_matmulPfPKfS1_mmm>
   10cb0:	8526                	mv	a0,s1
   10cb2:	2d3130ef          	jal	24784 <free>
   10cb6:	854e                	mv	a0,s3
   10cb8:	2cd130ef          	jal	24784 <free>
   10cbc:	7406                	ld	s0,96(sp)
   10cbe:	70a6                	ld	ra,104(sp)
   10cc0:	64e6                	ld	s1,88(sp)
   10cc2:	6946                	ld	s2,80(sp)
   10cc4:	69a6                	ld	s3,72(sp)
   10cc6:	7ae2                	ld	s5,56(sp)
   10cc8:	7b42                	ld	s6,48(sp)
   10cca:	7ba2                	ld	s7,40(sp)
   10ccc:	7c02                	ld	s8,32(sp)
   10cce:	6ce2                	ld	s9,24(sp)
   10cd0:	6d42                	ld	s10,16(sp)
   10cd2:	8552                	mv	a0,s4
   10cd4:	6a06                	ld	s4,64(sp)
   10cd6:	6165                	addi	sp,sp,112
   10cd8:	2ad1306f          	j	24784 <free>
   10cdc:	6622                	ld	a2,8(sp)
   10cde:	002b9513          	slli	a0,s7,0x2
   10ce2:	965a                	add	a2,a2,s6
   10ce4:	41660733          	sub	a4,a2,s6
   10ce8:	86c2                	mv	a3,a6
   10cea:	00072787          	flw	fa5,0(a4)
   10cee:	0711                	addi	a4,a4,4
   10cf0:	00f6a027          	fsw	fa5,0(a3)
   10cf4:	96aa                	add	a3,a3,a0
   10cf6:	fee61ae3          	bne	a2,a4,10cea <_Z13ref_attentionPfPKfS1_S1_mmm+0xee>
   10cfa:	0785                	addi	a5,a5,1
   10cfc:	0811                	addi	a6,a6,4
   10cfe:	965a                	add	a2,a2,s6
   10d00:	fefb92e3          	bne	s7,a5,10ce4 <_Z13ref_attentionPfPKfS1_S1_mmm+0xe8>
   10d04:	bfa9                	j	10c5e <_Z13ref_attentionPfPKfS1_S1_mmm+0x62>
   10d06:	862a                	mv	a2,a0
   10d08:	874a                	mv	a4,s2
   10d0a:	4781                	li	a5,0
   10d0c:	4681                	li	a3,0
   10d0e:	8526                	mv	a0,s1
   10d10:	e2dff0ef          	jal	10b3c <_Z10ref_matmulPfPKfS1_mmm>
   10d14:	b741                	j	10c94 <_Z13ref_attentionPfPKfS1_S1_mmm+0x98>

0000000000010d16 <_Z13benchmark_mvmv>:
   10d16:	00031537          	lui	a0,0x31
   10d1a:	7135                	addi	sp,sp,-160
   10d1c:	e6050513          	addi	a0,a0,-416 # 30e60 <__clzdi2+0x32>
   10d20:	ed06                	sd	ra,152(sp)
   10d22:	e922                	sd	s0,144(sp)
   10d24:	e526                	sd	s1,136(sp)
   10d26:	e14a                	sd	s2,128(sp)
   10d28:	fcce                	sd	s3,120(sp)
   10d2a:	f8d2                	sd	s4,112(sp)
   10d2c:	f4d6                	sd	s5,104(sp)
   10d2e:	f0da                	sd	s6,96(sp)
   10d30:	ecde                	sd	s7,88(sp)
   10d32:	e8e2                	sd	s8,80(sp)
   10d34:	e4e6                	sd	s9,72(sp)
   10d36:	bc22                	fsd	fs0,56(sp)
   10d38:	b826                	fsd	fs1,48(sp)
   10d3a:	b44a                	fsd	fs2,40(sp)
   10d3c:	b04e                	fsd	fs3,32(sp)
   10d3e:	ac52                	fsd	fs4,24(sp)
   10d40:	a856                	fsd	fs5,16(sp)
   10d42:	a45a                	fsd	fs6,8(sp)
   10d44:	a05e                	fsd	fs7,0(sp)
   10d46:	e0ea                	sd	s10,64(sp)
   10d48:	4ce160ef          	jal	27216 <puts>
   10d4c:	00031537          	lui	a0,0x31
   10d50:	e9050513          	addi	a0,a0,-368 # 30e90 <__clzdi2+0x62>
   10d54:	4c2160ef          	jal	27216 <puts>
   10d58:	00031537          	lui	a0,0x31
   10d5c:	15850513          	addi	a0,a0,344 # 31158 <__clzdi2+0x32a>
   10d60:	4b6160ef          	jal	27216 <puts>
   10d64:	04000613          	li	a2,64
   10d68:	00031537          	lui	a0,0x31
   10d6c:	85b2                	mv	a1,a2
   10d6e:	ec050513          	addi	a0,a0,-320 # 30ec0 <__clzdi2+0x92>
   10d72:	2c8160ef          	jal	2703a <printf>
   10d76:	6511                	lui	a0,0x4
   10d78:	205130ef          	jal	2477c <malloc>
   10d7c:	8aaa                	mv	s5,a0
   10d7e:	10000513          	li	a0,256
   10d82:	1fb130ef          	jal	2477c <malloc>
   10d86:	89aa                	mv	s3,a0
   10d88:	10000513          	li	a0,256
   10d8c:	1f1130ef          	jal	2477c <malloc>
   10d90:	8b2a                	mv	s6,a0
   10d92:	10000513          	li	a0,256
   10d96:	1e7130ef          	jal	2477c <malloc>
   10d9a:	f00009d3          	fmv.w.x	fs3,zero
   10d9e:	8a01ab07          	flw	fs6,-1888(gp) # 41700 <mask+0x68>
   10da2:	8a41aa87          	flw	fs5,-1884(gp) # 41704 <mask+0x6c>
   10da6:	8b81aa07          	flw	fs4,-1864(gp) # 41718 <mask+0x80>
   10daa:	8ac1a907          	flw	fs2,-1876(gp) # 4170c <mask+0x74>
   10dae:	21398453          	fmv.s	fs0,fs3
   10db2:	213984d3          	fmv.s	fs1,fs3
   10db6:	8b41ab87          	flw	fs7,-1868(gp) # 41714 <mask+0x7c>
   10dba:	8baa                	mv	s7,a0
   10dbc:	10098a13          	addi	s4,s3,256
   10dc0:	100b0913          	addi	s2,s6,256
   10dc4:	4c81                	li	s9,0
   10dc6:	4c01                	li	s8,0
   10dc8:	000d2637          	lui	a2,0xd2
   10dcc:	b7160613          	addi	a2,a2,-1167 # d1b71 <__BSS_END__+0x89c49>
   10dd0:	6891                	lui	a7,0x4
   10dd2:	0632                	slli	a2,a2,0xc
   10dd4:	41c65837          	lui	a6,0x41c65
   10dd8:	650d                	lui	a0,0x3
   10dda:	6589                	lui	a1,0x2
   10ddc:	75960613          	addi	a2,a2,1881
   10de0:	98d6                	add	a7,a7,s5
   10de2:	e6d8081b          	addiw	a6,a6,-403 # 41c64e6d <__BSS_END__+0x41c1cf45>
   10de6:	0395051b          	addiw	a0,a0,57 # 3039 <__cxa_bad_cast-0xd0e7>
   10dea:	7105859b          	addiw	a1,a1,1808 # 2710 <__cxa_bad_cast-0xda10>
   10dee:	86d6                	mv	a3,s5
   10df0:	87e6                	mv	a5,s9
   10df2:	030787bb          	mulw	a5,a5,a6
   10df6:	0691                	addi	a3,a3,4
   10df8:	9fa9                	addw	a5,a5,a0
   10dfa:	02079713          	slli	a4,a5,0x20
   10dfe:	9301                	srli	a4,a4,0x20
   10e00:	02c70733          	mul	a4,a4,a2
   10e04:	9335                	srli	a4,a4,0x2d
   10e06:	02e5873b          	mulw	a4,a1,a4
   10e0a:	40e7873b          	subw	a4,a5,a4
   10e0e:	d00777d3          	fcvt.s.w	fa5,a4
   10e12:	a967f7c3          	fmadd.s	fa5,fa5,fs6,fs5
   10e16:	1177f7d3          	fmul.s	fa5,fa5,fs7
   10e1a:	fef6ae27          	fsw	fa5,-4(a3)
   10e1e:	fcd89ae3          	bne	a7,a3,10df2 <_Z13benchmark_mvmv+0xdc>
   10e22:	000d2637          	lui	a2,0xd2
   10e26:	b7160613          	addi	a2,a2,-1167 # d1b71 <__BSS_END__+0x89c49>
   10e2a:	0632                	slli	a2,a2,0xc
   10e2c:	41c65837          	lui	a6,0x41c65
   10e30:	650d                	lui	a0,0x3
   10e32:	6589                	lui	a1,0x2
   10e34:	75960613          	addi	a2,a2,1881
   10e38:	e6d8081b          	addiw	a6,a6,-403 # 41c64e6d <__BSS_END__+0x41c1cf45>
   10e3c:	0395051b          	addiw	a0,a0,57 # 3039 <__cxa_bad_cast-0xd0e7>
   10e40:	7105859b          	addiw	a1,a1,1808 # 2710 <__cxa_bad_cast-0xda10>
   10e44:	86ce                	mv	a3,s3
   10e46:	030787bb          	mulw	a5,a5,a6
   10e4a:	0691                	addi	a3,a3,4
   10e4c:	9fa9                	addw	a5,a5,a0
   10e4e:	02079713          	slli	a4,a5,0x20
   10e52:	9301                	srli	a4,a4,0x20
   10e54:	02c70733          	mul	a4,a4,a2
   10e58:	9335                	srli	a4,a4,0x2d
   10e5a:	02e5873b          	mulw	a4,a1,a4
   10e5e:	40e7873b          	subw	a4,a5,a4
   10e62:	d00777d3          	fcvt.s.w	fa5,a4
   10e66:	a967f7c3          	fmadd.s	fa5,fa5,fs6,fs5
   10e6a:	fef6ae27          	fsw	fa5,-4(a3)
   10e6e:	fcda1ce3          	bne	s4,a3,10e46 <_Z13benchmark_mvmv+0x130>
   10e72:	6591                	lui	a1,0x4
   10e74:	10058593          	addi	a1,a1,256 # 4100 <__cxa_bad_cast-0xc020>
   10e78:	9ef1a823          	sw	a5,-1552(gp) # 41850 <_ZL9rand_seed>
   10e7c:	95d6                	add	a1,a1,s5
   10e7e:	8d5a                	mv	s10,s6
   10e80:	100a8693          	addi	a3,s5,256
   10e84:	865a                	mv	a2,s6
   10e86:	f00007d3          	fmv.w.x	fa5,zero
   10e8a:	f0068793          	addi	a5,a3,-256
   10e8e:	874e                	mv	a4,s3
   10e90:	0007a687          	flw	fa3,0(a5)
   10e94:	00072707          	flw	fa4,0(a4)
   10e98:	0791                	addi	a5,a5,4
   10e9a:	0711                	addi	a4,a4,4
   10e9c:	78e6f7c3          	fmadd.s	fa5,fa3,fa4,fa5
   10ea0:	fef698e3          	bne	a3,a5,10e90 <_Z13benchmark_mvmv+0x17a>
   10ea4:	00f62027          	fsw	fa5,0(a2)
   10ea8:	10068693          	addi	a3,a3,256
   10eac:	0611                	addi	a2,a2,4
   10eae:	fcd59ce3          	bne	a1,a3,10e86 <_Z13benchmark_mvmv+0x170>
   10eb2:	04000713          	li	a4,64
   10eb6:	86ba                	mv	a3,a4
   10eb8:	864e                	mv	a2,s3
   10eba:	85d6                	mv	a1,s5
   10ebc:	855e                	mv	a0,s7
   10ebe:	2d3030ef          	jal	14990 <_Z17photonic_mvm_fp32PfPKfS1_mm>
   10ec2:	f0000753          	fmv.w.x	fa4,zero
   10ec6:	875e                	mv	a4,s7
   10ec8:	86de                	mv	a3,s7
   10eca:	87da                	mv	a5,s6
   10ecc:	0007a787          	flw	fa5,0(a5)
   10ed0:	0006a687          	flw	fa3,0(a3)
   10ed4:	0791                	addi	a5,a5,4
   10ed6:	0691                	addi	a3,a3,4
   10ed8:	08d7f7d3          	fsub.s	fa5,fa5,fa3
   10edc:	70f7f743          	fmadd.s	fa4,fa5,fa5,fa4
   10ee0:	fef916e3          	bne	s2,a5,10ecc <_Z13benchmark_mvmv+0x1b6>
   10ee4:	114775d3          	fmul.s	fa1,fa4,fs4
   10ee8:	f0000053          	fmv.w.x	ft0,zero
   10eec:	86de                	mv	a3,s7
   10eee:	87da                	mv	a5,s6
   10ef0:	0007a787          	flw	fa5,0(a5)
   10ef4:	0006a707          	flw	fa4,0(a3)
   10ef8:	0791                	addi	a5,a5,4
   10efa:	0691                	addi	a3,a3,4
   10efc:	08e7f7d3          	fsub.s	fa5,fa5,fa4
   10f00:	20f7a7d3          	fabs.s	fa5,fa5
   10f04:	28f01053          	fmax.s	ft0,ft0,fa5
   10f08:	fef914e3          	bne	s2,a5,10ef0 <_Z13benchmark_mvmv+0x1da>
   10f0c:	f0000653          	fmv.w.x	fa2,zero
   10f10:	20c606d3          	fmv.s	fa3,fa2
   10f14:	20c60553          	fmv.s	fa0,fa2
   10f18:	000d2707          	flw	fa4,0(s10)
   10f1c:	00072787          	flw	fa5,0(a4)
   10f20:	0d11                	addi	s10,s10,4
   10f22:	68e776c3          	fmadd.s	fa3,fa4,fa4,fa3
   10f26:	50f77543          	fmadd.s	fa0,fa4,fa5,fa0
   10f2a:	60f7f643          	fmadd.s	fa2,fa5,fa5,fa2
   10f2e:	0711                	addi	a4,a4,4
   10f30:	ffa914e3          	bne	s2,s10,10f18 <_Z13benchmark_mvmv+0x202>
   10f34:	a12697d3          	flt.s	a5,fa3,fs2
   10f38:	eb95                	bnez	a5,10f6c <_Z13benchmark_mvmv+0x256>
   10f3a:	a12617d3          	flt.s	a5,fa2,fs2
   10f3e:	e79d                	bnez	a5,10f6c <_Z13benchmark_mvmv+0x256>
   10f40:	10c6f7d3          	fmul.s	fa5,fa3,fa2
   10f44:	4789                	li	a5,2
   10f46:	00b4f4d3          	fadd.s	fs1,fs1,fa1
   10f4a:	00047453          	fadd.s	fs0,fs0,ft0
   10f4e:	5807f7d3          	fsqrt.s	fa5,fa5
   10f52:	18f57553          	fdiv.s	fa0,fa0,fa5
   10f56:	00a9f9d3          	fadd.s	fs3,fs3,fa0
   10f5a:	0387d263          	bge	a5,s8,10f7e <_Z13benchmark_mvmv+0x268>
   10f5e:	2c05                	addiw	s8,s8,1
   10f60:	47a9                	li	a5,10
   10f62:	04fc0563          	beq	s8,a5,10fac <_Z13benchmark_mvmv+0x296>
   10f66:	3e8c8c9b          	addiw	s9,s9,1000
   10f6a:	bdb9                	j	10dc8 <_Z13benchmark_mvmv+0xb2>
   10f6c:	4789                	li	a5,2
   10f6e:	00b4f4d3          	fadd.s	fs1,fs1,fa1
   10f72:	00047453          	fadd.s	fs0,fs0,ft0
   10f76:	f0000553          	fmv.w.x	fa0,zero
   10f7a:	ff87c2e3          	blt	a5,s8,10f5e <_Z13benchmark_mvmv+0x248>
   10f7e:	420507d3          	fcvt.d.s	fa5,fa0
   10f82:	00031537          	lui	a0,0x31
   10f86:	85e2                	mv	a1,s8
   10f88:	e2078753          	fmv.x.d	a4,fa5
   10f8c:	420007d3          	fcvt.d.s	fa5,ft0
   10f90:	ed850513          	addi	a0,a0,-296 # 30ed8 <__clzdi2+0xaa>
   10f94:	2c05                	addiw	s8,s8,1
   10f96:	e20786d3          	fmv.x.d	a3,fa5
   10f9a:	420587d3          	fcvt.d.s	fa5,fa1
   10f9e:	3e8c8c9b          	addiw	s9,s9,1000
   10fa2:	e2078653          	fmv.x.d	a2,fa5
   10fa6:	094160ef          	jal	2703a <printf>
   10faa:	bd39                	j	10dc8 <_Z13benchmark_mvmv+0xb2>
   10fac:	00031537          	lui	a0,0x31
   10fb0:	85e2                	mv	a1,s8
   10fb2:	f0850513          	addi	a0,a0,-248 # 30f08 <__clzdi2+0xda>
   10fb6:	084160ef          	jal	2703a <printf>
   10fba:	8b41a907          	flw	fs2,-1868(gp) # 41714 <mask+0x7c>
   10fbe:	00031537          	lui	a0,0x31
   10fc2:	f3850513          	addi	a0,a0,-200 # 30f38 <__clzdi2+0x10a>
   10fc6:	1124f4d3          	fmul.s	fs1,fs1,fs2
   10fca:	11247453          	fmul.s	fs0,fs0,fs2
   10fce:	1129f9d3          	fmul.s	fs3,fs3,fs2
   10fd2:	420487d3          	fcvt.d.s	fa5,fs1
   10fd6:	e20785d3          	fmv.x.d	a1,fa5
   10fda:	060160ef          	jal	2703a <printf>
   10fde:	420407d3          	fcvt.d.s	fa5,fs0
   10fe2:	00031537          	lui	a0,0x31
   10fe6:	f5050513          	addi	a0,a0,-176 # 30f50 <__clzdi2+0x122>
   10fea:	e20785d3          	fmv.x.d	a1,fa5
   10fee:	04c160ef          	jal	2703a <printf>
   10ff2:	420987d3          	fcvt.d.s	fa5,fs3
   10ff6:	00031537          	lui	a0,0x31
   10ffa:	f6850513          	addi	a0,a0,-152 # 30f68 <__clzdi2+0x13a>
   10ffe:	e20785d3          	fmv.x.d	a1,fa5
   11002:	038160ef          	jal	2703a <printf>
   11006:	8556                	mv	a0,s5
   11008:	77c130ef          	jal	24784 <free>
   1100c:	854e                	mv	a0,s3
   1100e:	776130ef          	jal	24784 <free>
   11012:	855a                	mv	a0,s6
   11014:	770130ef          	jal	24784 <free>
   11018:	644a                	ld	s0,144(sp)
   1101a:	60ea                	ld	ra,152(sp)
   1101c:	64aa                	ld	s1,136(sp)
   1101e:	690a                	ld	s2,128(sp)
   11020:	79e6                	ld	s3,120(sp)
   11022:	7a46                	ld	s4,112(sp)
   11024:	7aa6                	ld	s5,104(sp)
   11026:	7b06                	ld	s6,96(sp)
   11028:	6c46                	ld	s8,80(sp)
   1102a:	6ca6                	ld	s9,72(sp)
   1102c:	6d06                	ld	s10,64(sp)
   1102e:	3462                	fld	fs0,56(sp)
   11030:	34c2                	fld	fs1,48(sp)
   11032:	3922                	fld	fs2,40(sp)
   11034:	3982                	fld	fs3,32(sp)
   11036:	2a62                	fld	fs4,24(sp)
   11038:	2ac2                	fld	fs5,16(sp)
   1103a:	2b22                	fld	fs6,8(sp)
   1103c:	2b82                	fld	fs7,0(sp)
   1103e:	855e                	mv	a0,s7
   11040:	6be6                	ld	s7,88(sp)
   11042:	610d                	addi	sp,sp,160
   11044:	7401306f          	j	24784 <free>

0000000000011048 <_Z19benchmark_attentionv>:
   11048:	00031537          	lui	a0,0x31
   1104c:	7171                	addi	sp,sp,-176
   1104e:	e6050513          	addi	a0,a0,-416 # 30e60 <__clzdi2+0x32>
   11052:	f506                	sd	ra,168(sp)
   11054:	f122                	sd	s0,160(sp)
   11056:	ed26                	sd	s1,152(sp)
   11058:	e94a                	sd	s2,144(sp)
   1105a:	e54e                	sd	s3,136(sp)
   1105c:	e152                	sd	s4,128(sp)
   1105e:	fcd6                	sd	s5,120(sp)
   11060:	f8da                	sd	s6,112(sp)
   11062:	f4de                	sd	s7,104(sp)
   11064:	f0e2                	sd	s8,96(sp)
   11066:	ece6                	sd	s9,88(sp)
   11068:	e8ea                	sd	s10,80(sp)
   1106a:	e4ee                	sd	s11,72(sp)
   1106c:	bc22                	fsd	fs0,56(sp)
   1106e:	b826                	fsd	fs1,48(sp)
   11070:	b44a                	fsd	fs2,40(sp)
   11072:	b04e                	fsd	fs3,32(sp)
   11074:	ac52                	fsd	fs4,24(sp)
   11076:	a856                	fsd	fs5,16(sp)
   11078:	a45a                	fsd	fs6,8(sp)
   1107a:	19c160ef          	jal	27216 <puts>
   1107e:	00031537          	lui	a0,0x31
   11082:	f8050513          	addi	a0,a0,-128 # 30f80 <__clzdi2+0x152>
   11086:	190160ef          	jal	27216 <puts>
   1108a:	00031537          	lui	a0,0x31
   1108e:	15850513          	addi	a0,a0,344 # 31158 <__clzdi2+0x32a>
   11092:	184160ef          	jal	27216 <puts>
   11096:	00031537          	lui	a0,0x31
   1109a:	02000613          	li	a2,32
   1109e:	45a1                	li	a1,8
   110a0:	fb050513          	addi	a0,a0,-80 # 30fb0 <__clzdi2+0x182>
   110a4:	797150ef          	jal	2703a <printf>
   110a8:	40000513          	li	a0,1024
   110ac:	6d0130ef          	jal	2477c <malloc>
   110b0:	89aa                	mv	s3,a0
   110b2:	40000513          	li	a0,1024
   110b6:	6c6130ef          	jal	2477c <malloc>
   110ba:	892a                	mv	s2,a0
   110bc:	40000513          	li	a0,1024
   110c0:	6bc130ef          	jal	2477c <malloc>
   110c4:	84aa                	mv	s1,a0
   110c6:	40000513          	li	a0,1024
   110ca:	6b2130ef          	jal	2477c <malloc>
   110ce:	8d2a                	mv	s10,a0
   110d0:	40000513          	li	a0,1024
   110d4:	6a8130ef          	jal	2477c <malloc>
   110d8:	f0000953          	fmv.w.x	fs2,zero
   110dc:	8a01ab07          	flw	fs6,-1888(gp) # 41700 <mask+0x68>
   110e0:	8a41aa87          	flw	fs5,-1884(gp) # 41704 <mask+0x6c>
   110e4:	8bc1aa07          	flw	fs4,-1860(gp) # 4171c <mask+0x84>
   110e8:	8c01a987          	flw	fs3,-1856(gp) # 41720 <mask+0x88>
   110ec:	21290453          	fmv.s	fs0,fs2
   110f0:	212904d3          	fmv.s	fs1,fs2
   110f4:	842a                	mv	s0,a0
   110f6:	40098c93          	addi	s9,s3,1024
   110fa:	40090c13          	addi	s8,s2,1024
   110fe:	40048b93          	addi	s7,s1,1024
   11102:	400d0b13          	addi	s6,s10,1024
   11106:	4a01                	li	s4,0
   11108:	4d81                	li	s11,0
   1110a:	000d2637          	lui	a2,0xd2
   1110e:	b7160613          	addi	a2,a2,-1167 # d1b71 <__BSS_END__+0x89c49>
   11112:	0632                	slli	a2,a2,0xc
   11114:	41c65837          	lui	a6,0x41c65
   11118:	650d                	lui	a0,0x3
   1111a:	6589                	lui	a1,0x2
   1111c:	75960613          	addi	a2,a2,1881
   11120:	e6d8081b          	addiw	a6,a6,-403 # 41c64e6d <__BSS_END__+0x41c1cf45>
   11124:	0395051b          	addiw	a0,a0,57 # 3039 <__cxa_bad_cast-0xd0e7>
   11128:	7105859b          	addiw	a1,a1,1808 # 2710 <__cxa_bad_cast-0xda10>
   1112c:	86ce                	mv	a3,s3
   1112e:	87d2                	mv	a5,s4
   11130:	030787bb          	mulw	a5,a5,a6
   11134:	0691                	addi	a3,a3,4
   11136:	9fa9                	addw	a5,a5,a0
   11138:	02079713          	slli	a4,a5,0x20
   1113c:	9301                	srli	a4,a4,0x20
   1113e:	02c70733          	mul	a4,a4,a2
   11142:	9335                	srli	a4,a4,0x2d
   11144:	02e5873b          	mulw	a4,a1,a4
   11148:	40e7873b          	subw	a4,a5,a4
   1114c:	d00777d3          	fcvt.s.w	fa5,a4
   11150:	a967f7c3          	fmadd.s	fa5,fa5,fs6,fs5
   11154:	1147f7d3          	fmul.s	fa5,fa5,fs4
   11158:	fef6ae27          	fsw	fa5,-4(a3)
   1115c:	fcdc9ae3          	bne	s9,a3,11130 <_Z19benchmark_attentionv+0xe8>
   11160:	000d2637          	lui	a2,0xd2
   11164:	b7160613          	addi	a2,a2,-1167 # d1b71 <__BSS_END__+0x89c49>
   11168:	0632                	slli	a2,a2,0xc
   1116a:	41c65837          	lui	a6,0x41c65
   1116e:	650d                	lui	a0,0x3
   11170:	6589                	lui	a1,0x2
   11172:	75960613          	addi	a2,a2,1881
   11176:	e6d8081b          	addiw	a6,a6,-403 # 41c64e6d <__BSS_END__+0x41c1cf45>
   1117a:	0395051b          	addiw	a0,a0,57 # 3039 <__cxa_bad_cast-0xd0e7>
   1117e:	7105859b          	addiw	a1,a1,1808 # 2710 <__cxa_bad_cast-0xda10>
   11182:	86ca                	mv	a3,s2
   11184:	030787bb          	mulw	a5,a5,a6
   11188:	0691                	addi	a3,a3,4
   1118a:	9fa9                	addw	a5,a5,a0
   1118c:	02079713          	slli	a4,a5,0x20
   11190:	9301                	srli	a4,a4,0x20
   11192:	02c70733          	mul	a4,a4,a2
   11196:	9335                	srli	a4,a4,0x2d
   11198:	02e5873b          	mulw	a4,a1,a4
   1119c:	40e7873b          	subw	a4,a5,a4
   111a0:	d00777d3          	fcvt.s.w	fa5,a4
   111a4:	a967f7c3          	fmadd.s	fa5,fa5,fs6,fs5
   111a8:	1147f7d3          	fmul.s	fa5,fa5,fs4
   111ac:	fef6ae27          	fsw	fa5,-4(a3)
   111b0:	fcdc1ae3          	bne	s8,a3,11184 <_Z19benchmark_attentionv+0x13c>
   111b4:	000d2637          	lui	a2,0xd2
   111b8:	b7160613          	addi	a2,a2,-1167 # d1b71 <__BSS_END__+0x89c49>
   111bc:	0632                	slli	a2,a2,0xc
   111be:	41c65837          	lui	a6,0x41c65
   111c2:	650d                	lui	a0,0x3
   111c4:	6589                	lui	a1,0x2
   111c6:	75960613          	addi	a2,a2,1881
   111ca:	e6d8081b          	addiw	a6,a6,-403 # 41c64e6d <__BSS_END__+0x41c1cf45>
   111ce:	0395051b          	addiw	a0,a0,57 # 3039 <__cxa_bad_cast-0xd0e7>
   111d2:	7105859b          	addiw	a1,a1,1808 # 2710 <__cxa_bad_cast-0xda10>
   111d6:	86a6                	mv	a3,s1
   111d8:	030787bb          	mulw	a5,a5,a6
   111dc:	0691                	addi	a3,a3,4
   111de:	9fa9                	addw	a5,a5,a0
   111e0:	02079713          	slli	a4,a5,0x20
   111e4:	9301                	srli	a4,a4,0x20
   111e6:	02c70733          	mul	a4,a4,a2
   111ea:	9335                	srli	a4,a4,0x2d
   111ec:	02e5873b          	mulw	a4,a1,a4
   111f0:	40e7873b          	subw	a4,a5,a4
   111f4:	d00777d3          	fcvt.s.w	fa5,a4
   111f8:	a967f7c3          	fmadd.s	fa5,fa5,fs6,fs5
   111fc:	1147f7d3          	fmul.s	fa5,fa5,fs4
   11200:	fef6ae27          	fsw	fa5,-4(a3)
   11204:	fcdb9ae3          	bne	s7,a3,111d8 <_Z19benchmark_attentionv+0x190>
   11208:	02000813          	li	a6,32
   1120c:	9ef1a823          	sw	a5,-1552(gp) # 41850 <_ZL9rand_seed>
   11210:	4721                	li	a4,8
   11212:	87c2                	mv	a5,a6
   11214:	86a6                	mv	a3,s1
   11216:	864a                	mv	a2,s2
   11218:	85ce                	mv	a1,s3
   1121a:	856a                	mv	a0,s10
   1121c:	9e1ff0ef          	jal	10bfc <_Z13ref_attentionPfPKfS1_S1_mmm>
   11220:	02000813          	li	a6,32
   11224:	86a6                	mv	a3,s1
   11226:	864a                	mv	a2,s2
   11228:	87c2                	mv	a5,a6
   1122a:	4721                	li	a4,8
   1122c:	85ce                	mv	a1,s3
   1122e:	8522                	mv	a0,s0
   11230:	4881                	li	a7,0
   11232:	2b1030ef          	jal	14ce2 <_Z33scaled_dot_product_attention_fp32PfPKfS1_S1_mmmb>
   11236:	f0000753          	fmv.w.x	fa4,zero
   1123a:	87ea                	mv	a5,s10
   1123c:	86a2                	mv	a3,s0
   1123e:	8622                	mv	a2,s0
   11240:	876a                	mv	a4,s10
   11242:	00072787          	flw	fa5,0(a4)
   11246:	00062687          	flw	fa3,0(a2)
   1124a:	0711                	addi	a4,a4,4
   1124c:	0611                	addi	a2,a2,4
   1124e:	08d7f7d3          	fsub.s	fa5,fa5,fa3
   11252:	70f7f743          	fmadd.s	fa4,fa5,fa5,fa4
   11256:	feeb16e3          	bne	s6,a4,11242 <_Z19benchmark_attentionv+0x1fa>
   1125a:	113775d3          	fmul.s	fa1,fa4,fs3
   1125e:	f0000053          	fmv.w.x	ft0,zero
   11262:	8622                	mv	a2,s0
   11264:	876a                	mv	a4,s10
   11266:	00072787          	flw	fa5,0(a4)
   1126a:	00062707          	flw	fa4,0(a2)
   1126e:	0711                	addi	a4,a4,4
   11270:	0611                	addi	a2,a2,4
   11272:	08e7f7d3          	fsub.s	fa5,fa5,fa4
   11276:	20f7a7d3          	fabs.s	fa5,fa5
   1127a:	28f01053          	fmax.s	ft0,ft0,fa5
   1127e:	feeb14e3          	bne	s6,a4,11266 <_Z19benchmark_attentionv+0x21e>
   11282:	f0000653          	fmv.w.x	fa2,zero
   11286:	20c606d3          	fmv.s	fa3,fa2
   1128a:	20c60553          	fmv.s	fa0,fa2
   1128e:	0007a707          	flw	fa4,0(a5)
   11292:	0006a787          	flw	fa5,0(a3)
   11296:	0791                	addi	a5,a5,4
   11298:	68e776c3          	fmadd.s	fa3,fa4,fa4,fa3
   1129c:	50f77543          	fmadd.s	fa0,fa4,fa5,fa0
   112a0:	60f7f643          	fmadd.s	fa2,fa5,fa5,fa2
   112a4:	0691                	addi	a3,a3,4
   112a6:	fefb14e3          	bne	s6,a5,1128e <_Z19benchmark_attentionv+0x246>
   112aa:	8ac1a787          	flw	fa5,-1876(gp) # 4170c <mask+0x74>
   112ae:	a0f697d3          	flt.s	a5,fa3,fa5
   112b2:	eb95                	bnez	a5,112e6 <_Z19benchmark_attentionv+0x29e>
   112b4:	a0f617d3          	flt.s	a5,fa2,fa5
   112b8:	e79d                	bnez	a5,112e6 <_Z19benchmark_attentionv+0x29e>
   112ba:	10c6f6d3          	fmul.s	fa3,fa3,fa2
   112be:	4789                	li	a5,2
   112c0:	00b4f4d3          	fadd.s	fs1,fs1,fa1
   112c4:	00047453          	fadd.s	fs0,fs0,ft0
   112c8:	5806f6d3          	fsqrt.s	fa3,fa3
   112cc:	18d57553          	fdiv.s	fa0,fa0,fa3
   112d0:	00a97953          	fadd.s	fs2,fs2,fa0
   112d4:	03b7d263          	bge	a5,s11,112f8 <_Z19benchmark_attentionv+0x2b0>
   112d8:	2d85                	addiw	s11,s11,1
   112da:	47a9                	li	a5,10
   112dc:	04fd8563          	beq	s11,a5,11326 <_Z19benchmark_attentionv+0x2de>
   112e0:	7d0a0a1b          	addiw	s4,s4,2000
   112e4:	b51d                	j	1110a <_Z19benchmark_attentionv+0xc2>
   112e6:	4789                	li	a5,2
   112e8:	00b4f4d3          	fadd.s	fs1,fs1,fa1
   112ec:	00047453          	fadd.s	fs0,fs0,ft0
   112f0:	f0000553          	fmv.w.x	fa0,zero
   112f4:	ffb7c2e3          	blt	a5,s11,112d8 <_Z19benchmark_attentionv+0x290>
   112f8:	420507d3          	fcvt.d.s	fa5,fa0
   112fc:	00031537          	lui	a0,0x31
   11300:	85ee                	mv	a1,s11
   11302:	e2078753          	fmv.x.d	a4,fa5
   11306:	420007d3          	fcvt.d.s	fa5,ft0
   1130a:	ed850513          	addi	a0,a0,-296 # 30ed8 <__clzdi2+0xaa>
   1130e:	2d85                	addiw	s11,s11,1
   11310:	e20786d3          	fmv.x.d	a3,fa5
   11314:	420587d3          	fcvt.d.s	fa5,fa1
   11318:	7d0a0a1b          	addiw	s4,s4,2000
   1131c:	e2078653          	fmv.x.d	a2,fa5
   11320:	51b150ef          	jal	2703a <printf>
   11324:	b3dd                	j	1110a <_Z19benchmark_attentionv+0xc2>
   11326:	00031537          	lui	a0,0x31
   1132a:	85ee                	mv	a1,s11
   1132c:	fc850513          	addi	a0,a0,-56 # 30fc8 <__clzdi2+0x19a>
   11330:	50b150ef          	jal	2703a <printf>
   11334:	8b41a987          	flw	fs3,-1868(gp) # 41714 <mask+0x7c>
   11338:	00031537          	lui	a0,0x31
   1133c:	f3850513          	addi	a0,a0,-200 # 30f38 <__clzdi2+0x10a>
   11340:	1134f4d3          	fmul.s	fs1,fs1,fs3
   11344:	11347453          	fmul.s	fs0,fs0,fs3
   11348:	11397953          	fmul.s	fs2,fs2,fs3
   1134c:	420487d3          	fcvt.d.s	fa5,fs1
   11350:	e20785d3          	fmv.x.d	a1,fa5
   11354:	4e7150ef          	jal	2703a <printf>
   11358:	420407d3          	fcvt.d.s	fa5,fs0
   1135c:	00031537          	lui	a0,0x31
   11360:	f5050513          	addi	a0,a0,-176 # 30f50 <__clzdi2+0x122>
   11364:	e20785d3          	fmv.x.d	a1,fa5
   11368:	4d3150ef          	jal	2703a <printf>
   1136c:	420907d3          	fcvt.d.s	fa5,fs2
   11370:	00031537          	lui	a0,0x31
   11374:	f6850513          	addi	a0,a0,-152 # 30f68 <__clzdi2+0x13a>
   11378:	e20785d3          	fmv.x.d	a1,fa5
   1137c:	4bf150ef          	jal	2703a <printf>
   11380:	854e                	mv	a0,s3
   11382:	402130ef          	jal	24784 <free>
   11386:	854a                	mv	a0,s2
   11388:	3fc130ef          	jal	24784 <free>
   1138c:	8526                	mv	a0,s1
   1138e:	3f6130ef          	jal	24784 <free>
   11392:	856a                	mv	a0,s10
   11394:	3f0130ef          	jal	24784 <free>
   11398:	8522                	mv	a0,s0
   1139a:	740a                	ld	s0,160(sp)
   1139c:	70aa                	ld	ra,168(sp)
   1139e:	64ea                	ld	s1,152(sp)
   113a0:	694a                	ld	s2,144(sp)
   113a2:	69aa                	ld	s3,136(sp)
   113a4:	6a0a                	ld	s4,128(sp)
   113a6:	7ae6                	ld	s5,120(sp)
   113a8:	7b46                	ld	s6,112(sp)
   113aa:	7ba6                	ld	s7,104(sp)
   113ac:	7c06                	ld	s8,96(sp)
   113ae:	6ce6                	ld	s9,88(sp)
   113b0:	6d46                	ld	s10,80(sp)
   113b2:	6da6                	ld	s11,72(sp)
   113b4:	3462                	fld	fs0,56(sp)
   113b6:	34c2                	fld	fs1,48(sp)
   113b8:	3922                	fld	fs2,40(sp)
   113ba:	3982                	fld	fs3,32(sp)
   113bc:	2a62                	fld	fs4,24(sp)
   113be:	2ac2                	fld	fs5,16(sp)
   113c0:	2b22                	fld	fs6,8(sp)
   113c2:	614d                	addi	sp,sp,176
   113c4:	3c01306f          	j	24784 <free>

00000000000113c8 <_Z13benchmark_ffnv>:
   113c8:	00031537          	lui	a0,0x31
   113cc:	7115                	addi	sp,sp,-224
   113ce:	e6050513          	addi	a0,a0,-416 # 30e60 <__clzdi2+0x32>
   113d2:	ed86                	sd	ra,216(sp)
   113d4:	e9a2                	sd	s0,208(sp)
   113d6:	e5a6                	sd	s1,200(sp)
   113d8:	e1ca                	sd	s2,192(sp)
   113da:	fd4e                	sd	s3,184(sp)
   113dc:	f952                	sd	s4,176(sp)
   113de:	f556                	sd	s5,168(sp)
   113e0:	f15a                	sd	s6,160(sp)
   113e2:	ed5e                	sd	s7,152(sp)
   113e4:	e962                	sd	s8,144(sp)
   113e6:	e566                	sd	s9,136(sp)
   113e8:	fcee                	sd	s11,120(sp)
   113ea:	b4a2                	fsd	fs0,104(sp)
   113ec:	b0a6                	fsd	fs1,96(sp)
   113ee:	acca                	fsd	fs2,88(sp)
   113f0:	a8ce                	fsd	fs3,80(sp)
   113f2:	a4d2                	fsd	fs4,72(sp)
   113f4:	a0d6                	fsd	fs5,64(sp)
   113f6:	bc5a                	fsd	fs6,56(sp)
   113f8:	e16a                	sd	s10,128(sp)
   113fa:	61d150ef          	jal	27216 <puts>
   113fe:	00031537          	lui	a0,0x31
   11402:	ff850513          	addi	a0,a0,-8 # 30ff8 <__clzdi2+0x1ca>
   11406:	611150ef          	jal	27216 <puts>
   1140a:	00031537          	lui	a0,0x31
   1140e:	15850513          	addi	a0,a0,344 # 31158 <__clzdi2+0x32a>
   11412:	605150ef          	jal	27216 <puts>
   11416:	00031537          	lui	a0,0x31
   1141a:	08000693          	li	a3,128
   1141e:	04000613          	li	a2,64
   11422:	45a1                	li	a1,8
   11424:	02850513          	addi	a0,a0,40 # 31028 <__clzdi2+0x1fa>
   11428:	413150ef          	jal	2703a <printf>
   1142c:	6405                	lui	s0,0x1
   1142e:	80040513          	addi	a0,s0,-2048 # 800 <__cxa_bad_cast-0xf920>
   11432:	34a130ef          	jal	2477c <malloc>
   11436:	8a2a                	mv	s4,a0
   11438:	6521                	lui	a0,0x8
   1143a:	342130ef          	jal	2477c <malloc>
   1143e:	8baa                	mv	s7,a0
   11440:	20000513          	li	a0,512
   11444:	338130ef          	jal	2477c <malloc>
   11448:	8aaa                	mv	s5,a0
   1144a:	6521                	lui	a0,0x8
   1144c:	330130ef          	jal	2477c <malloc>
   11450:	8daa                	mv	s11,a0
   11452:	10000513          	li	a0,256
   11456:	326130ef          	jal	2477c <malloc>
   1145a:	8b2a                	mv	s6,a0
   1145c:	80040513          	addi	a0,s0,-2048
   11460:	31c130ef          	jal	2477c <malloc>
   11464:	ec2a                	sd	a0,24(sp)
   11466:	8522                	mv	a0,s0
   11468:	314130ef          	jal	2477c <malloc>
   1146c:	f02a                	sd	a0,32(sp)
   1146e:	8522                	mv	a0,s0
   11470:	30c130ef          	jal	2477c <malloc>
   11474:	f42a                	sd	a0,40(sp)
   11476:	80040513          	addi	a0,s0,-2048
   1147a:	302130ef          	jal	2477c <malloc>
   1147e:	f0000b53          	fmv.w.x	fs6,zero
   11482:	8bc1aa87          	flw	fs5,-1860(gp) # 4171c <mask+0x84>
   11486:	8a01a987          	flw	fs3,-1888(gp) # 41700 <mask+0x68>
   1148a:	000d2437          	lui	s0,0xd2
   1148e:	b7140413          	addi	s0,s0,-1167 # d1b71 <__BSS_END__+0x89c49>
   11492:	8c41aa07          	flw	fs4,-1852(gp) # 41724 <mask+0x8c>
   11496:	216b0453          	fmv.s	fs0,fs6
   1149a:	216b04d3          	fmv.s	fs1,fs6
   1149e:	8a41a907          	flw	fs2,-1884(gp) # 41704 <mask+0x6c>
   114a2:	0432                	slli	s0,s0,0xc
   114a4:	892a                	mv	s2,a0
   114a6:	200a8493          	addi	s1,s5,512
   114aa:	100b0c93          	addi	s9,s6,256
   114ae:	75940413          	addi	s0,s0,1881
   114b2:	4981                	li	s3,0
   114b4:	4c01                	li	s8,0
   114b6:	7ffa0893          	addi	a7,s4,2047
   114ba:	41c65837          	lui	a6,0x41c65
   114be:	658d                	lui	a1,0x3
   114c0:	6609                	lui	a2,0x2
   114c2:	0885                	addi	a7,a7,1 # 4001 <__cxa_bad_cast-0xc11f>
   114c4:	e6d8081b          	addiw	a6,a6,-403 # 41c64e6d <__BSS_END__+0x41c1cf45>
   114c8:	0395859b          	addiw	a1,a1,57 # 3039 <__cxa_bad_cast-0xd0e7>
   114cc:	7106061b          	addiw	a2,a2,1808 # 2710 <__cxa_bad_cast-0xda10>
   114d0:	8552                	mv	a0,s4
   114d2:	86d2                	mv	a3,s4
   114d4:	87ce                	mv	a5,s3
   114d6:	030787bb          	mulw	a5,a5,a6
   114da:	0691                	addi	a3,a3,4
   114dc:	9fad                	addw	a5,a5,a1
   114de:	02079713          	slli	a4,a5,0x20
   114e2:	9301                	srli	a4,a4,0x20
   114e4:	02870733          	mul	a4,a4,s0
   114e8:	9335                	srli	a4,a4,0x2d
   114ea:	02e6073b          	mulw	a4,a2,a4
   114ee:	40e7873b          	subw	a4,a5,a4
   114f2:	d00777d3          	fcvt.s.w	fa5,a4
   114f6:	9137f7c3          	fmadd.s	fa5,fa5,fs3,fs2
   114fa:	1157f7d3          	fmul.s	fa5,fa5,fs5
   114fe:	fef6ae27          	fsw	fa5,-4(a3)
   11502:	fcd89ae3          	bne	a7,a3,114d6 <_Z13benchmark_ffnv+0x10e>
   11506:	68a1                	lui	a7,0x8
   11508:	41c65837          	lui	a6,0x41c65
   1150c:	658d                	lui	a1,0x3
   1150e:	6609                	lui	a2,0x2
   11510:	98de                	add	a7,a7,s7
   11512:	e6d8081b          	addiw	a6,a6,-403 # 41c64e6d <__BSS_END__+0x41c1cf45>
   11516:	0395859b          	addiw	a1,a1,57 # 3039 <__cxa_bad_cast-0xd0e7>
   1151a:	7106061b          	addiw	a2,a2,1808 # 2710 <__cxa_bad_cast-0xda10>
   1151e:	86de                	mv	a3,s7
   11520:	030787bb          	mulw	a5,a5,a6
   11524:	0691                	addi	a3,a3,4
   11526:	9fad                	addw	a5,a5,a1
   11528:	02079713          	slli	a4,a5,0x20
   1152c:	9301                	srli	a4,a4,0x20
   1152e:	02870733          	mul	a4,a4,s0
   11532:	9335                	srli	a4,a4,0x2d
   11534:	02e6073b          	mulw	a4,a2,a4
   11538:	40e7873b          	subw	a4,a5,a4
   1153c:	d00777d3          	fcvt.s.w	fa5,a4
   11540:	9137f7c3          	fmadd.s	fa5,fa5,fs3,fs2
   11544:	1147f7d3          	fmul.s	fa5,fa5,fs4
   11548:	fef6ae27          	fsw	fa5,-4(a3)
   1154c:	fcd89ae3          	bne	a7,a3,11520 <_Z13benchmark_ffnv+0x158>
   11550:	68a1                	lui	a7,0x8
   11552:	41c65837          	lui	a6,0x41c65
   11556:	658d                	lui	a1,0x3
   11558:	6609                	lui	a2,0x2
   1155a:	98ee                	add	a7,a7,s11
   1155c:	e6d8081b          	addiw	a6,a6,-403 # 41c64e6d <__BSS_END__+0x41c1cf45>
   11560:	0395859b          	addiw	a1,a1,57 # 3039 <__cxa_bad_cast-0xd0e7>
   11564:	7106061b          	addiw	a2,a2,1808 # 2710 <__cxa_bad_cast-0xda10>
   11568:	86ee                	mv	a3,s11
   1156a:	030787bb          	mulw	a5,a5,a6
   1156e:	0691                	addi	a3,a3,4
   11570:	9fad                	addw	a5,a5,a1
   11572:	02079713          	slli	a4,a5,0x20
   11576:	9301                	srli	a4,a4,0x20
   11578:	02870733          	mul	a4,a4,s0
   1157c:	9335                	srli	a4,a4,0x2d
   1157e:	02e6073b          	mulw	a4,a2,a4
   11582:	40e7873b          	subw	a4,a5,a4
   11586:	d00777d3          	fcvt.s.w	fa5,a4
   1158a:	9137f7c3          	fmadd.s	fa5,fa5,fs3,fs2
   1158e:	1147f7d3          	fmul.s	fa5,fa5,fs4
   11592:	fef6ae27          	fsw	fa5,-4(a3)
   11596:	fcd89ae3          	bne	a7,a3,1156a <_Z13benchmark_ffnv+0x1a2>
   1159a:	8a01a607          	flw	fa2,-1888(gp) # 41700 <mask+0x68>
   1159e:	8a41a687          	flw	fa3,-1884(gp) # 41704 <mask+0x6c>
   115a2:	8c81a707          	flw	fa4,-1848(gp) # 41728 <mask+0x90>
   115a6:	41c65837          	lui	a6,0x41c65
   115aa:	658d                	lui	a1,0x3
   115ac:	6609                	lui	a2,0x2
   115ae:	e6d8081b          	addiw	a6,a6,-403 # 41c64e6d <__BSS_END__+0x41c1cf45>
   115b2:	0395859b          	addiw	a1,a1,57 # 3039 <__cxa_bad_cast-0xd0e7>
   115b6:	7106061b          	addiw	a2,a2,1808 # 2710 <__cxa_bad_cast-0xda10>
   115ba:	86d6                	mv	a3,s5
   115bc:	030787bb          	mulw	a5,a5,a6
   115c0:	0691                	addi	a3,a3,4
   115c2:	9fad                	addw	a5,a5,a1
   115c4:	02079713          	slli	a4,a5,0x20
   115c8:	9301                	srli	a4,a4,0x20
   115ca:	02870733          	mul	a4,a4,s0
   115ce:	9335                	srli	a4,a4,0x2d
   115d0:	02e6073b          	mulw	a4,a2,a4
   115d4:	40e7873b          	subw	a4,a5,a4
   115d8:	d00777d3          	fcvt.s.w	fa5,a4
   115dc:	68c7f7c3          	fmadd.s	fa5,fa5,fa2,fa3
   115e0:	10e7f7d3          	fmul.s	fa5,fa5,fa4
   115e4:	fef6ae27          	fsw	fa5,-4(a3)
   115e8:	fcd49ae3          	bne	s1,a3,115bc <_Z13benchmark_ffnv+0x1f4>
   115ec:	8a01a607          	flw	fa2,-1888(gp) # 41700 <mask+0x68>
   115f0:	8a41a687          	flw	fa3,-1884(gp) # 41704 <mask+0x6c>
   115f4:	8c81a707          	flw	fa4,-1848(gp) # 41728 <mask+0x90>
   115f8:	41c65837          	lui	a6,0x41c65
   115fc:	658d                	lui	a1,0x3
   115fe:	6609                	lui	a2,0x2
   11600:	e6d8081b          	addiw	a6,a6,-403 # 41c64e6d <__BSS_END__+0x41c1cf45>
   11604:	0395859b          	addiw	a1,a1,57 # 3039 <__cxa_bad_cast-0xd0e7>
   11608:	7106061b          	addiw	a2,a2,1808 # 2710 <__cxa_bad_cast-0xda10>
   1160c:	86da                	mv	a3,s6
   1160e:	030787bb          	mulw	a5,a5,a6
   11612:	0691                	addi	a3,a3,4
   11614:	9fad                	addw	a5,a5,a1
   11616:	02079713          	slli	a4,a5,0x20
   1161a:	9301                	srli	a4,a4,0x20
   1161c:	02870733          	mul	a4,a4,s0
   11620:	9335                	srli	a4,a4,0x2d
   11622:	02e6073b          	mulw	a4,a2,a4
   11626:	40e7873b          	subw	a4,a5,a4
   1162a:	d00777d3          	fcvt.s.w	fa5,a4
   1162e:	68c7f7c3          	fmadd.s	fa5,fa5,fa2,fa3
   11632:	10e7f7d3          	fmul.s	fa5,fa5,fa4
   11636:	fef6ae27          	fsw	fa5,-4(a3)
   1163a:	fcdc9ae3          	bne	s9,a3,1160e <_Z13benchmark_ffnv+0x246>
   1163e:	9ef1a823          	sw	a5,-1552(gp) # 41850 <_ZL9rand_seed>
   11642:	7782                	ld	a5,32(sp)
   11644:	68a1                	lui	a7,0x8
   11646:	10088893          	addi	a7,a7,256 # 8100 <__cxa_bad_cast-0x8020>
   1164a:	833e                	mv	t1,a5
   1164c:	98de                	add	a7,a7,s7
   1164e:	20078793          	addi	a5,a5,512
   11652:	4601                	li	a2,0
   11654:	40000e13          	li	t3,1024
   11658:	100b8593          	addi	a1,s7,256
   1165c:	881a                	mv	a6,t1
   1165e:	f00007d3          	fmv.w.x	fa5,zero
   11662:	f0058713          	addi	a4,a1,-256
   11666:	86aa                	mv	a3,a0
   11668:	00072687          	flw	fa3,0(a4)
   1166c:	0006a707          	flw	fa4,0(a3)
   11670:	0711                	addi	a4,a4,4
   11672:	0691                	addi	a3,a3,4
   11674:	78e6f7c3          	fmadd.s	fa5,fa3,fa4,fa5
   11678:	fee598e3          	bne	a1,a4,11668 <_Z13benchmark_ffnv+0x2a0>
   1167c:	00f82027          	fsw	fa5,0(a6)
   11680:	10058593          	addi	a1,a1,256
   11684:	0811                	addi	a6,a6,4
   11686:	fcb89ce3          	bne	a7,a1,1165e <_Z13benchmark_ffnv+0x296>
   1168a:	86d6                	mv	a3,s5
   1168c:	871a                	mv	a4,t1
   1168e:	00072787          	flw	fa5,0(a4)
   11692:	0006a707          	flw	fa4,0(a3)
   11696:	0711                	addi	a4,a4,4
   11698:	0691                	addi	a3,a3,4
   1169a:	00e7f7d3          	fadd.s	fa5,fa5,fa4
   1169e:	fef72e27          	fsw	fa5,-4(a4)
   116a2:	fee796e3          	bne	a5,a4,1168e <_Z13benchmark_ffnv+0x2c6>
   116a6:	08060613          	addi	a2,a2,128
   116aa:	20030313          	addi	t1,t1,512
   116ae:	20078793          	addi	a5,a5,512
   116b2:	10050513          	addi	a0,a0,256 # 8100 <__cxa_bad_cast-0x8020>
   116b6:	fbc611e3          	bne	a2,t3,11658 <_Z13benchmark_ffnv+0x290>
   116ba:	7522                	ld	a0,40(sp)
   116bc:	7582                	ld	a1,32(sp)
   116be:	8d4a                	mv	s10,s2
   116c0:	657020ef          	jal	14516 <_Z9gelu_fp32PfPKfm>
   116c4:	6821                	lui	a6,0x8
   116c6:	7522                	ld	a0,40(sp)
   116c8:	20080813          	addi	a6,a6,512 # 8200 <__cxa_bad_cast-0x7f20>
   116cc:	10090613          	addi	a2,s2,256
   116d0:	88ca                	mv	a7,s2
   116d2:	986e                	add	a6,a6,s11
   116d4:	4e01                	li	t3,0
   116d6:	20000e93          	li	t4,512
   116da:	200d8693          	addi	a3,s11,512
   116de:	85c6                	mv	a1,a7
   116e0:	f00007d3          	fmv.w.x	fa5,zero
   116e4:	e0068793          	addi	a5,a3,-512
   116e8:	872a                	mv	a4,a0
   116ea:	0007a687          	flw	fa3,0(a5)
   116ee:	00072707          	flw	fa4,0(a4)
   116f2:	0791                	addi	a5,a5,4
   116f4:	0711                	addi	a4,a4,4
   116f6:	78e6f7c3          	fmadd.s	fa5,fa3,fa4,fa5
   116fa:	fef698e3          	bne	a3,a5,116ea <_Z13benchmark_ffnv+0x322>
   116fe:	00f5a027          	fsw	fa5,0(a1)
   11702:	20068693          	addi	a3,a3,512
   11706:	0591                	addi	a1,a1,4
   11708:	fcd81ce3          	bne	a6,a3,116e0 <_Z13benchmark_ffnv+0x318>
   1170c:	875a                	mv	a4,s6
   1170e:	87c6                	mv	a5,a7
   11710:	0007a787          	flw	fa5,0(a5)
   11714:	00072707          	flw	fa4,0(a4)
   11718:	0791                	addi	a5,a5,4
   1171a:	0711                	addi	a4,a4,4
   1171c:	00e7f7d3          	fadd.s	fa5,fa5,fa4
   11720:	fef7ae27          	fsw	fa5,-4(a5)
   11724:	fef616e3          	bne	a2,a5,11710 <_Z13benchmark_ffnv+0x348>
   11728:	040e0e13          	addi	t3,t3,64
   1172c:	10088893          	addi	a7,a7,256
   11730:	10060613          	addi	a2,a2,256
   11734:	20050513          	addi	a0,a0,512
   11738:	fbde11e3          	bne	t3,t4,116da <_Z13benchmark_ffnv+0x312>
   1173c:	6562                	ld	a0,24(sp)
   1173e:	08000793          	li	a5,128
   11742:	e03e                	sd	a5,0(sp)
   11744:	876e                	mv	a4,s11
   11746:	87da                	mv	a5,s6
   11748:	86d6                	mv	a3,s5
   1174a:	865e                	mv	a2,s7
   1174c:	04000893          	li	a7,64
   11750:	4821                	li	a6,8
   11752:	85d2                	mv	a1,s4
   11754:	762030ef          	jal	14eb6 <_Z13ffn_gelu_fp32PfPKfS1_S1_S1_S1_mmm>
   11758:	6662                	ld	a2,24(sp)
   1175a:	f0000753          	fmv.w.x	fa4,zero
   1175e:	7ff90713          	addi	a4,s2,2047
   11762:	0705                	addi	a4,a4,1
   11764:	86b2                	mv	a3,a2
   11766:	87ca                	mv	a5,s2
   11768:	0007a787          	flw	fa5,0(a5)
   1176c:	00062687          	flw	fa3,0(a2)
   11770:	0791                	addi	a5,a5,4
   11772:	0611                	addi	a2,a2,4
   11774:	08d7f7d3          	fsub.s	fa5,fa5,fa3
   11778:	70f7f743          	fmadd.s	fa4,fa5,fa5,fa4
   1177c:	fef716e3          	bne	a4,a5,11768 <_Z13benchmark_ffnv+0x3a0>
   11780:	8cc1a787          	flw	fa5,-1844(gp) # 4172c <mask+0x94>
   11784:	f0000553          	fmv.w.x	fa0,zero
   11788:	6662                	ld	a2,24(sp)
   1178a:	10f77753          	fmul.s	fa4,fa4,fa5
   1178e:	87ca                	mv	a5,s2
   11790:	0007a787          	flw	fa5,0(a5)
   11794:	00062687          	flw	fa3,0(a2)
   11798:	0791                	addi	a5,a5,4
   1179a:	0611                	addi	a2,a2,4
   1179c:	08d7f7d3          	fsub.s	fa5,fa5,fa3
   117a0:	20f7a7d3          	fabs.s	fa5,fa5
   117a4:	28f51553          	fmax.s	fa0,fa0,fa5
   117a8:	fef714e3          	bne	a4,a5,11790 <_Z13benchmark_ffnv+0x3c8>
   117ac:	f00005d3          	fmv.w.x	fa1,zero
   117b0:	20b586d3          	fmv.s	fa3,fa1
   117b4:	20b58653          	fmv.s	fa2,fa1
   117b8:	000d2007          	flw	ft0,0(s10)
   117bc:	0006a787          	flw	fa5,0(a3)
   117c0:	0d11                	addi	s10,s10,4
   117c2:	680076c3          	fmadd.s	fa3,ft0,ft0,fa3
   117c6:	60f07643          	fmadd.s	fa2,ft0,fa5,fa2
   117ca:	58f7f5c3          	fmadd.s	fa1,fa5,fa5,fa1
   117ce:	0691                	addi	a3,a3,4
   117d0:	ffa714e3          	bne	a4,s10,117b8 <_Z13benchmark_ffnv+0x3f0>
   117d4:	8ac1a787          	flw	fa5,-1876(gp) # 4170c <mask+0x74>
   117d8:	a0f697d3          	flt.s	a5,fa3,fa5
   117dc:	ef8d                	bnez	a5,11816 <_Z13benchmark_ffnv+0x44e>
   117de:	a0f597d3          	flt.s	a5,fa1,fa5
   117e2:	eb95                	bnez	a5,11816 <_Z13benchmark_ffnv+0x44e>
   117e4:	10b6f7d3          	fmul.s	fa5,fa3,fa1
   117e8:	4789                	li	a5,2
   117ea:	00e4f4d3          	fadd.s	fs1,fs1,fa4
   117ee:	00a47453          	fadd.s	fs0,fs0,fa0
   117f2:	5807f7d3          	fsqrt.s	fa5,fa5
   117f6:	18f67653          	fdiv.s	fa2,fa2,fa5
   117fa:	00cb7b53          	fadd.s	fs6,fs6,fa2
   117fe:	0387d563          	bge	a5,s8,11828 <_Z13benchmark_ffnv+0x460>
   11802:	2c05                	addiw	s8,s8,1
   11804:	47a9                	li	a5,10
   11806:	04fc0b63          	beq	s8,a5,1185c <_Z13benchmark_ffnv+0x494>
   1180a:	6785                	lui	a5,0x1
   1180c:	bb87879b          	addiw	a5,a5,-1096 # bb8 <__cxa_bad_cast-0xf568>
   11810:	00f989bb          	addw	s3,s3,a5
   11814:	b14d                	j	114b6 <_Z13benchmark_ffnv+0xee>
   11816:	4789                	li	a5,2
   11818:	00e4f4d3          	fadd.s	fs1,fs1,fa4
   1181c:	00a47453          	fadd.s	fs0,fs0,fa0
   11820:	f0000653          	fmv.w.x	fa2,zero
   11824:	fd87cfe3          	blt	a5,s8,11802 <_Z13benchmark_ffnv+0x43a>
   11828:	420607d3          	fcvt.d.s	fa5,fa2
   1182c:	00031537          	lui	a0,0x31
   11830:	85e2                	mv	a1,s8
   11832:	e2078753          	fmv.x.d	a4,fa5
   11836:	420507d3          	fcvt.d.s	fa5,fa0
   1183a:	ed850513          	addi	a0,a0,-296 # 30ed8 <__clzdi2+0xaa>
   1183e:	2c05                	addiw	s8,s8,1
   11840:	e20786d3          	fmv.x.d	a3,fa5
   11844:	420707d3          	fcvt.d.s	fa5,fa4
   11848:	e2078653          	fmv.x.d	a2,fa5
   1184c:	7ee150ef          	jal	2703a <printf>
   11850:	6785                	lui	a5,0x1
   11852:	bb87879b          	addiw	a5,a5,-1096 # bb8 <__cxa_bad_cast-0xf568>
   11856:	00f989bb          	addw	s3,s3,a5
   1185a:	b9b1                	j	114b6 <_Z13benchmark_ffnv+0xee>
   1185c:	00031537          	lui	a0,0x31
   11860:	85e2                	mv	a1,s8
   11862:	05050513          	addi	a0,a0,80 # 31050 <__clzdi2+0x222>
   11866:	7d4150ef          	jal	2703a <printf>
   1186a:	8b41a907          	flw	fs2,-1868(gp) # 41714 <mask+0x7c>
   1186e:	00031537          	lui	a0,0x31
   11872:	f3850513          	addi	a0,a0,-200 # 30f38 <__clzdi2+0x10a>
   11876:	1124f4d3          	fmul.s	fs1,fs1,fs2
   1187a:	11247453          	fmul.s	fs0,fs0,fs2
   1187e:	112b7b53          	fmul.s	fs6,fs6,fs2
   11882:	420487d3          	fcvt.d.s	fa5,fs1
   11886:	e20785d3          	fmv.x.d	a1,fa5
   1188a:	7b0150ef          	jal	2703a <printf>
   1188e:	420407d3          	fcvt.d.s	fa5,fs0
   11892:	00031537          	lui	a0,0x31
   11896:	f5050513          	addi	a0,a0,-176 # 30f50 <__clzdi2+0x122>
   1189a:	e20785d3          	fmv.x.d	a1,fa5
   1189e:	79c150ef          	jal	2703a <printf>
   118a2:	420b07d3          	fcvt.d.s	fa5,fs6
   118a6:	00031537          	lui	a0,0x31
   118aa:	f6850513          	addi	a0,a0,-152 # 30f68 <__clzdi2+0x13a>
   118ae:	e20785d3          	fmv.x.d	a1,fa5
   118b2:	788150ef          	jal	2703a <printf>
   118b6:	8552                	mv	a0,s4
   118b8:	6cd120ef          	jal	24784 <free>
   118bc:	855e                	mv	a0,s7
   118be:	6c7120ef          	jal	24784 <free>
   118c2:	8556                	mv	a0,s5
   118c4:	6c1120ef          	jal	24784 <free>
   118c8:	856e                	mv	a0,s11
   118ca:	6bb120ef          	jal	24784 <free>
   118ce:	855a                	mv	a0,s6
   118d0:	6b5120ef          	jal	24784 <free>
   118d4:	6562                	ld	a0,24(sp)
   118d6:	6af120ef          	jal	24784 <free>
   118da:	7502                	ld	a0,32(sp)
   118dc:	6a9120ef          	jal	24784 <free>
   118e0:	7522                	ld	a0,40(sp)
   118e2:	6a3120ef          	jal	24784 <free>
   118e6:	644e                	ld	s0,208(sp)
   118e8:	60ee                	ld	ra,216(sp)
   118ea:	64ae                	ld	s1,200(sp)
   118ec:	79ea                	ld	s3,184(sp)
   118ee:	7a4a                	ld	s4,176(sp)
   118f0:	7aaa                	ld	s5,168(sp)
   118f2:	7b0a                	ld	s6,160(sp)
   118f4:	6bea                	ld	s7,152(sp)
   118f6:	6c4a                	ld	s8,144(sp)
   118f8:	6caa                	ld	s9,136(sp)
   118fa:	6d0a                	ld	s10,128(sp)
   118fc:	7de6                	ld	s11,120(sp)
   118fe:	3426                	fld	fs0,104(sp)
   11900:	3486                	fld	fs1,96(sp)
   11902:	2966                	fld	fs2,88(sp)
   11904:	29c6                	fld	fs3,80(sp)
   11906:	2a26                	fld	fs4,72(sp)
   11908:	2a86                	fld	fs5,64(sp)
   1190a:	3b62                	fld	fs6,56(sp)
   1190c:	854a                	mv	a0,s2
   1190e:	690e                	ld	s2,192(sp)
   11910:	612d                	addi	sp,sp,224
   11912:	6731206f          	j	24784 <free>

0000000000011916 <_Z27benchmark_output_statisticsv>:
   11916:	00031537          	lui	a0,0x31
   1191a:	7175                	addi	sp,sp,-144
   1191c:	e6050513          	addi	a0,a0,-416 # 30e60 <__clzdi2+0x32>
   11920:	e506                	sd	ra,136(sp)
   11922:	e122                	sd	s0,128(sp)
   11924:	fca6                	sd	s1,120(sp)
   11926:	f8ca                	sd	s2,112(sp)
   11928:	f0d2                	sd	s4,96(sp)
   1192a:	e8da                	sd	s6,80(sp)
   1192c:	f4ce                	sd	s3,104(sp)
   1192e:	ecd6                	sd	s5,88(sp)
   11930:	e4de                	sd	s7,72(sp)
   11932:	e0e2                	sd	s8,64(sp)
   11934:	bc22                	fsd	fs0,56(sp)
   11936:	b826                	fsd	fs1,48(sp)
   11938:	b44a                	fsd	fs2,40(sp)
   1193a:	b04e                	fsd	fs3,32(sp)
   1193c:	ac52                	fsd	fs4,24(sp)
   1193e:	a856                	fsd	fs5,16(sp)
   11940:	a45a                	fsd	fs6,8(sp)
   11942:	a05e                	fsd	fs7,0(sp)
   11944:	0d3150ef          	jal	27216 <puts>
   11948:	00031537          	lui	a0,0x31
   1194c:	08050513          	addi	a0,a0,128 # 31080 <__clzdi2+0x252>
   11950:	0c7150ef          	jal	27216 <puts>
   11954:	00031537          	lui	a0,0x31
   11958:	15850513          	addi	a0,a0,344 # 31158 <__clzdi2+0x32a>
   1195c:	0bb150ef          	jal	27216 <puts>
   11960:	6905                	lui	s2,0x1
   11962:	80090513          	addi	a0,s2,-2048 # 800 <__cxa_bad_cast-0xf920>
   11966:	617120ef          	jal	2477c <malloc>
   1196a:	84aa                	mv	s1,a0
   1196c:	6511                	lui	a0,0x4
   1196e:	60f120ef          	jal	2477c <malloc>
   11972:	842a                	mv	s0,a0
   11974:	80090513          	addi	a0,s2,-2048
   11978:	605120ef          	jal	2477c <malloc>
   1197c:	000d2637          	lui	a2,0xd2
   11980:	b7160613          	addi	a2,a2,-1167 # d1b71 <__BSS_END__+0x89c49>
   11984:	8a01a687          	flw	fa3,-1888(gp) # 41700 <mask+0x68>
   11988:	8a41a707          	flw	fa4,-1884(gp) # 41704 <mask+0x6c>
   1198c:	892a                	mv	s2,a0
   1198e:	7ff48b13          	addi	s6,s1,2047
   11992:	0632                	slli	a2,a2,0xc
   11994:	41c65837          	lui	a6,0x41c65
   11998:	650d                	lui	a0,0x3
   1199a:	6589                	lui	a1,0x2
   1199c:	0b05                	addi	s6,s6,1
   1199e:	8a26                	mv	s4,s1
   119a0:	86a6                	mv	a3,s1
   119a2:	75960613          	addi	a2,a2,1881
   119a6:	e6d8081b          	addiw	a6,a6,-403 # 41c64e6d <__BSS_END__+0x41c1cf45>
   119aa:	0395051b          	addiw	a0,a0,57 # 3039 <__cxa_bad_cast-0xd0e7>
   119ae:	7105859b          	addiw	a1,a1,1808 # 2710 <__cxa_bad_cast-0xda10>
   119b2:	02a00793          	li	a5,42
   119b6:	030787bb          	mulw	a5,a5,a6
   119ba:	0691                	addi	a3,a3,4
   119bc:	9fa9                	addw	a5,a5,a0
   119be:	02079713          	slli	a4,a5,0x20
   119c2:	9301                	srli	a4,a4,0x20
   119c4:	02c70733          	mul	a4,a4,a2
   119c8:	9335                	srli	a4,a4,0x2d
   119ca:	02e5873b          	mulw	a4,a1,a4
   119ce:	40e7873b          	subw	a4,a5,a4
   119d2:	d00777d3          	fcvt.s.w	fa5,a4
   119d6:	70d7f7c3          	fmadd.s	fa5,fa5,fa3,fa4
   119da:	fef6ae27          	fsw	fa5,-4(a3)
   119de:	fcdb1ce3          	bne	s6,a3,119b6 <_Z27benchmark_output_statisticsv+0xa0>
   119e2:	000d2637          	lui	a2,0xd2
   119e6:	b7160613          	addi	a2,a2,-1167 # d1b71 <__BSS_END__+0x89c49>
   119ea:	8b41a607          	flw	fa2,-1868(gp) # 41714 <mask+0x7c>
   119ee:	8a01a687          	flw	fa3,-1888(gp) # 41700 <mask+0x68>
   119f2:	8a41a707          	flw	fa4,-1884(gp) # 41704 <mask+0x6c>
   119f6:	0632                	slli	a2,a2,0xc
   119f8:	6891                	lui	a7,0x4
   119fa:	41c65837          	lui	a6,0x41c65
   119fe:	650d                	lui	a0,0x3
   11a00:	6589                	lui	a1,0x2
   11a02:	75960613          	addi	a2,a2,1881
   11a06:	98a2                	add	a7,a7,s0
   11a08:	e6d8081b          	addiw	a6,a6,-403 # 41c64e6d <__BSS_END__+0x41c1cf45>
   11a0c:	0395051b          	addiw	a0,a0,57 # 3039 <__cxa_bad_cast-0xd0e7>
   11a10:	7105859b          	addiw	a1,a1,1808 # 2710 <__cxa_bad_cast-0xda10>
   11a14:	86a2                	mv	a3,s0
   11a16:	030787bb          	mulw	a5,a5,a6
   11a1a:	0691                	addi	a3,a3,4
   11a1c:	9fa9                	addw	a5,a5,a0
   11a1e:	02079713          	slli	a4,a5,0x20
   11a22:	9301                	srli	a4,a4,0x20
   11a24:	02c70733          	mul	a4,a4,a2
   11a28:	9335                	srli	a4,a4,0x2d
   11a2a:	02e5873b          	mulw	a4,a1,a4
   11a2e:	40e7873b          	subw	a4,a5,a4
   11a32:	d00777d3          	fcvt.s.w	fa5,a4
   11a36:	70d7f7c3          	fmadd.s	fa5,fa5,fa3,fa4
   11a3a:	10c7f7d3          	fmul.s	fa5,fa5,fa2
   11a3e:	fef6ae27          	fsw	fa5,-4(a3)
   11a42:	fcd89ae3          	bne	a7,a3,11a16 <_Z27benchmark_output_statisticsv+0x100>
   11a46:	7ff90b93          	addi	s7,s2,2047
   11a4a:	9ef1a823          	sw	a5,-1552(gp) # 41850 <_ZL9rand_seed>
   11a4e:	0b85                	addi	s7,s7,1
   11a50:	89ca                	mv	s3,s2
   11a52:	8c26                	mv	s8,s1
   11a54:	8aca                	mv	s5,s2
   11a56:	04000713          	li	a4,64
   11a5a:	8662                	mv	a2,s8
   11a5c:	8556                	mv	a0,s5
   11a5e:	86ba                	mv	a3,a4
   11a60:	85a2                	mv	a1,s0
   11a62:	100a8a93          	addi	s5,s5,256
   11a66:	72b020ef          	jal	14990 <_Z17photonic_mvm_fp32PfPKfS1_mm>
   11a6a:	100c0c13          	addi	s8,s8,256
   11a6e:	ff5b94e3          	bne	s7,s5,11a56 <_Z27benchmark_output_statisticsv+0x140>
   11a72:	0004aa87          	flw	fs5,0(s1)
   11a76:	f0000753          	fmv.w.x	fa4,zero
   11a7a:	87a6                	mv	a5,s1
   11a7c:	215a8bd3          	fmv.s	fs7,fs5
   11a80:	0007a787          	flw	fa5,0(a5)
   11a84:	0791                	addi	a5,a5,4
   11a86:	00f77753          	fadd.s	fa4,fa4,fa5
   11a8a:	28fa8ad3          	fmin.s	fs5,fs5,fa5
   11a8e:	28fb9bd3          	fmax.s	fs7,fs7,fa5
   11a92:	fefb17e3          	bne	s6,a5,11a80 <_Z27benchmark_output_statisticsv+0x16a>
   11a96:	8cc1a787          	flw	fa5,-1844(gp) # 4172c <mask+0x94>
   11a9a:	f00006d3          	fmv.w.x	fa3,zero
   11a9e:	10f774d3          	fmul.s	fs1,fa4,fa5
   11aa2:	000a2787          	flw	fa5,0(s4)
   11aa6:	0a11                	addi	s4,s4,4
   11aa8:	0897f7d3          	fsub.s	fa5,fa5,fs1
   11aac:	68f7f6c3          	fmadd.s	fa3,fa5,fa5,fa3
   11ab0:	ff4b19e3          	bne	s6,s4,11aa2 <_Z27benchmark_output_statisticsv+0x18c>
   11ab4:	8cc1a787          	flw	fa5,-1844(gp) # 4172c <mask+0x94>
   11ab8:	00092a07          	flw	fs4,0(s2)
   11abc:	f0000753          	fmv.w.x	fa4,zero
   11ac0:	10f6f6d3          	fmul.s	fa3,fa3,fa5
   11ac4:	214a0b53          	fmv.s	fs6,fs4
   11ac8:	87ca                	mv	a5,s2
   11aca:	5806f9d3          	fsqrt.s	fs3,fa3
   11ace:	0007a787          	flw	fa5,0(a5)
   11ad2:	0791                	addi	a5,a5,4
   11ad4:	00f77753          	fadd.s	fa4,fa4,fa5
   11ad8:	28fa0a53          	fmin.s	fs4,fs4,fa5
   11adc:	28fb1b53          	fmax.s	fs6,fs6,fa5
   11ae0:	fefb97e3          	bne	s7,a5,11ace <_Z27benchmark_output_statisticsv+0x1b8>
   11ae4:	8cc1a787          	flw	fa5,-1844(gp) # 4172c <mask+0x94>
   11ae8:	f00006d3          	fmv.w.x	fa3,zero
   11aec:	10f77453          	fmul.s	fs0,fa4,fa5
   11af0:	0009a787          	flw	fa5,0(s3)
   11af4:	0991                	addi	s3,s3,4
   11af6:	0887f7d3          	fsub.s	fa5,fa5,fs0
   11afa:	68f7f6c3          	fmadd.s	fa3,fa5,fa5,fa3
   11afe:	ff3b99e3          	bne	s7,s3,11af0 <_Z27benchmark_output_statisticsv+0x1da>
   11b02:	8cc1a787          	flw	fa5,-1844(gp) # 4172c <mask+0x94>
   11b06:	00031537          	lui	a0,0x31
   11b0a:	0b050513          	addi	a0,a0,176 # 310b0 <__clzdi2+0x282>
   11b0e:	10f6f6d3          	fmul.s	fa3,fa3,fa5
   11b12:	000319b7          	lui	s3,0x31
   11b16:	5806f953          	fsqrt.s	fs2,fa3
   11b1a:	6fc150ef          	jal	27216 <puts>
   11b1e:	420b87d3          	fcvt.d.s	fa5,fs7
   11b22:	0c898513          	addi	a0,s3,200 # 310c8 <__clzdi2+0x29a>
   11b26:	e2078753          	fmv.x.d	a4,fa5
   11b2a:	420a87d3          	fcvt.d.s	fa5,fs5
   11b2e:	e20786d3          	fmv.x.d	a3,fa5
   11b32:	420987d3          	fcvt.d.s	fa5,fs3
   11b36:	e2078653          	fmv.x.d	a2,fa5
   11b3a:	420487d3          	fcvt.d.s	fa5,fs1
   11b3e:	e20785d3          	fmv.x.d	a1,fa5
   11b42:	4f8150ef          	jal	2703a <printf>
   11b46:	00031537          	lui	a0,0x31
   11b4a:	0f850513          	addi	a0,a0,248 # 310f8 <__clzdi2+0x2ca>
   11b4e:	6c8150ef          	jal	27216 <puts>
   11b52:	420b07d3          	fcvt.d.s	fa5,fs6
   11b56:	0c898513          	addi	a0,s3,200
   11b5a:	e2078753          	fmv.x.d	a4,fa5
   11b5e:	420a07d3          	fcvt.d.s	fa5,fs4
   11b62:	e20786d3          	fmv.x.d	a3,fa5
   11b66:	420907d3          	fcvt.d.s	fa5,fs2
   11b6a:	e2078653          	fmv.x.d	a2,fa5
   11b6e:	420407d3          	fcvt.d.s	fa5,fs0
   11b72:	e20785d3          	fmv.x.d	a1,fa5
   11b76:	4c4150ef          	jal	2703a <printf>
   11b7a:	00031537          	lui	a0,0x31
   11b7e:	4601                	li	a2,0
   11b80:	4581                	li	a1,0
   11b82:	11050513          	addi	a0,a0,272 # 31110 <__clzdi2+0x2e2>
   11b86:	4b4150ef          	jal	2703a <printf>
   11b8a:	8526                	mv	a0,s1
   11b8c:	3f9120ef          	jal	24784 <free>
   11b90:	8522                	mv	a0,s0
   11b92:	3f3120ef          	jal	24784 <free>
   11b96:	640a                	ld	s0,128(sp)
   11b98:	60aa                	ld	ra,136(sp)
   11b9a:	74e6                	ld	s1,120(sp)
   11b9c:	79a6                	ld	s3,104(sp)
   11b9e:	7a06                	ld	s4,96(sp)
   11ba0:	6ae6                	ld	s5,88(sp)
   11ba2:	6b46                	ld	s6,80(sp)
   11ba4:	6ba6                	ld	s7,72(sp)
   11ba6:	6c06                	ld	s8,64(sp)
   11ba8:	3462                	fld	fs0,56(sp)
   11baa:	34c2                	fld	fs1,48(sp)
   11bac:	3922                	fld	fs2,40(sp)
   11bae:	3982                	fld	fs3,32(sp)
   11bb0:	2a62                	fld	fs4,24(sp)
   11bb2:	2ac2                	fld	fs5,16(sp)
   11bb4:	2b22                	fld	fs6,8(sp)
   11bb6:	2b82                	fld	fs7,0(sp)
   11bb8:	854a                	mv	a0,s2
   11bba:	7946                	ld	s2,112(sp)
   11bbc:	6149                	addi	sp,sp,144
   11bbe:	3c71206f          	j	24784 <free>

0000000000011bc2 <_Z20print_summary_headerv>:
   11bc2:	7179                	addi	sp,sp,-48
   11bc4:	4529                	li	a0,10
   11bc6:	f406                	sd	ra,40(sp)
   11bc8:	f022                	sd	s0,32(sp)
   11bca:	ec26                	sd	s1,24(sp)
   11bcc:	00031437          	lui	s0,0x31
   11bd0:	5b2150ef          	jal	27182 <putchar>
   11bd4:	14040513          	addi	a0,s0,320 # 31140 <__clzdi2+0x312>
   11bd8:	63e150ef          	jal	27216 <puts>
   11bdc:	00031537          	lui	a0,0x31
   11be0:	18850513          	addi	a0,a0,392 # 31188 <__clzdi2+0x35a>
   11be4:	632150ef          	jal	27216 <puts>
   11be8:	14040513          	addi	a0,s0,320
   11bec:	62a150ef          	jal	27216 <puts>
   11bf0:	00031537          	lui	a0,0x31
   11bf4:	1b050513          	addi	a0,a0,432 # 311b0 <__clzdi2+0x382>
   11bf8:	29b120ef          	jal	24692 <getenv>
   11bfc:	e42a                	sd	a0,8(sp)
   11bfe:	00031537          	lui	a0,0x31
   11c02:	1c850513          	addi	a0,a0,456 # 311c8 <__clzdi2+0x39a>
   11c06:	28d120ef          	jal	24692 <getenv>
   11c0a:	65a2                	ld	a1,8(sp)
   11c0c:	84aa                	mv	s1,a0
   11c0e:	c1d9                	beqz	a1,11c94 <_Z20print_summary_headerv+0xd2>
   11c10:	00031537          	lui	a0,0x31
   11c14:	1e050513          	addi	a0,a0,480 # 311e0 <__clzdi2+0x3b2>
   11c18:	422150ef          	jal	2703a <printf>
   11c1c:	c881                	beqz	s1,11c2c <_Z20print_summary_headerv+0x6a>
   11c1e:	00031537          	lui	a0,0x31
   11c22:	85a6                	mv	a1,s1
   11c24:	1f850513          	addi	a0,a0,504 # 311f8 <__clzdi2+0x3ca>
   11c28:	412150ef          	jal	2703a <printf>
   11c2c:	00031537          	lui	a0,0x31
   11c30:	21050513          	addi	a0,a0,528 # 31210 <__clzdi2+0x3e2>
   11c34:	5e2150ef          	jal	27216 <puts>
   11c38:	00031537          	lui	a0,0x31
   11c3c:	45a1                	li	a1,8
   11c3e:	22050513          	addi	a0,a0,544 # 31220 <__clzdi2+0x3f2>
   11c42:	3f8150ef          	jal	2703a <printf>
   11c46:	00031537          	lui	a0,0x31
   11c4a:	04000593          	li	a1,64
   11c4e:	23850513          	addi	a0,a0,568 # 31238 <__clzdi2+0x40a>
   11c52:	3e8150ef          	jal	2703a <printf>
   11c56:	00031537          	lui	a0,0x31
   11c5a:	02000593          	li	a1,32
   11c5e:	25050513          	addi	a0,a0,592 # 31250 <__clzdi2+0x422>
   11c62:	3d8150ef          	jal	2703a <printf>
   11c66:	00031537          	lui	a0,0x31
   11c6a:	08000593          	li	a1,128
   11c6e:	26850513          	addi	a0,a0,616 # 31268 <__clzdi2+0x43a>
   11c72:	3c8150ef          	jal	2703a <printf>
   11c76:	00031537          	lui	a0,0x31
   11c7a:	28050513          	addi	a0,a0,640 # 31280 <__clzdi2+0x452>
   11c7e:	45a9                	li	a1,10
   11c80:	3ba150ef          	jal	2703a <printf>
   11c84:	14040513          	addi	a0,s0,320
   11c88:	7402                	ld	s0,32(sp)
   11c8a:	70a2                	ld	ra,40(sp)
   11c8c:	64e2                	ld	s1,24(sp)
   11c8e:	6145                	addi	sp,sp,48
   11c90:	5861506f          	j	27216 <puts>
   11c94:	000315b7          	lui	a1,0x31
   11c98:	13058593          	addi	a1,a1,304 # 31130 <__clzdi2+0x302>
   11c9c:	bf95                	j	11c10 <_Z20print_summary_headerv+0x4e>

0000000000011c9e <_Z10matrix_sumPsPKsmm.part.0>:
   11c9e:	00031537          	lui	a0,0x31
   11ca2:	1141                	addi	sp,sp,-16
   11ca4:	2f850513          	addi	a0,a0,760 # 312f8 <__clzdi2+0x4ca>
   11ca8:	e406                	sd	ra,8(sp)
   11caa:	56c150ef          	jal	27216 <puts>
   11cae:	00031537          	lui	a0,0x31
   11cb2:	34850513          	addi	a0,a0,840 # 31348 <__clzdi2+0x51a>
   11cb6:	560150ef          	jal	27216 <puts>
   11cba:	557d                	li	a0,-1
   11cbc:	9fbfe0ef          	jal	106b6 <exit>

0000000000011cc0 <_Z12vector_equalPsPKsS1_m>:
   11cc0:	c505                	beqz	a0,11ce8 <_Z12vector_equalPsPKsS1_m+0x28>
   11cc2:	c295                	beqz	a3,11ce6 <_Z12vector_equalPsPKsS1_m+0x26>
   11cc4:	0686                	slli	a3,a3,0x1
   11cc6:	96ae                	add	a3,a3,a1
   11cc8:	00059783          	lh	a5,0(a1)
   11ccc:	00061703          	lh	a4,0(a2)
   11cd0:	0589                	addi	a1,a1,2
   11cd2:	0609                	addi	a2,a2,2
   11cd4:	8f99                	sub	a5,a5,a4
   11cd6:	0017b793          	seqz	a5,a5
   11cda:	00f51023          	sh	a5,0(a0)
   11cde:	0509                	addi	a0,a0,2
   11ce0:	fed594e3          	bne	a1,a3,11cc8 <_Z12vector_equalPsPKsS1_m+0x8>
   11ce4:	8082                	ret
   11ce6:	8082                	ret
   11ce8:	00031537          	lui	a0,0x31
   11cec:	1101                	addi	sp,sp,-32
   11cee:	36050513          	addi	a0,a0,864 # 31360 <__clzdi2+0x532>
   11cf2:	ec06                	sd	ra,24(sp)
   11cf4:	e436                	sd	a3,8(sp)
   11cf6:	520150ef          	jal	27216 <puts>
   11cfa:	65a2                	ld	a1,8(sp)
   11cfc:	00031537          	lui	a0,0x31
   11d00:	3b050513          	addi	a0,a0,944 # 313b0 <__clzdi2+0x582>
   11d04:	336150ef          	jal	2703a <printf>
   11d08:	557d                	li	a0,-1
   11d0a:	9adfe0ef          	jal	106b6 <exit>

0000000000011d0e <_Z10vector_sumPsPKsm>:
   11d0e:	c11d                	beqz	a0,11d34 <_Z10vector_sumPsPKsm+0x26>
   11d10:	4781                	li	a5,0
   11d12:	ce11                	beqz	a2,11d2e <_Z10vector_sumPsPKsm+0x20>
   11d14:	0606                	slli	a2,a2,0x1
   11d16:	962e                	add	a2,a2,a1
   11d18:	4781                	li	a5,0
   11d1a:	0005d703          	lhu	a4,0(a1)
   11d1e:	0589                	addi	a1,a1,2
   11d20:	9fb9                	addw	a5,a5,a4
   11d22:	0107979b          	slliw	a5,a5,0x10
   11d26:	4107d79b          	sraiw	a5,a5,0x10
   11d2a:	feb618e3          	bne	a2,a1,11d1a <_Z10vector_sumPsPKsm+0xc>
   11d2e:	00f51023          	sh	a5,0(a0)
   11d32:	8082                	ret
   11d34:	00031537          	lui	a0,0x31
   11d38:	1141                	addi	sp,sp,-16
   11d3a:	3d850513          	addi	a0,a0,984 # 313d8 <__clzdi2+0x5aa>
   11d3e:	e406                	sd	ra,8(sp)
   11d40:	4d6150ef          	jal	27216 <puts>
   11d44:	00031537          	lui	a0,0x31
   11d48:	34850513          	addi	a0,a0,840 # 31348 <__clzdi2+0x51a>
   11d4c:	4ca150ef          	jal	27216 <puts>
   11d50:	557d                	li	a0,-1
   11d52:	965fe0ef          	jal	106b6 <exit>

0000000000011d56 <_Z11vector_meanPsPKsm>:
   11d56:	c515                	beqz	a0,11d82 <_Z11vector_meanPsPKsm+0x2c>
   11d58:	4781                	li	a5,0
   11d5a:	c20d                	beqz	a2,11d7c <_Z11vector_meanPsPKsm+0x26>
   11d5c:	00161693          	slli	a3,a2,0x1
   11d60:	96ae                	add	a3,a3,a1
   11d62:	4781                	li	a5,0
   11d64:	0005d703          	lhu	a4,0(a1)
   11d68:	0589                	addi	a1,a1,2
   11d6a:	9fb9                	addw	a5,a5,a4
   11d6c:	0107979b          	slliw	a5,a5,0x10
   11d70:	4107d79b          	sraiw	a5,a5,0x10
   11d74:	feb698e3          	bne	a3,a1,11d64 <_Z11vector_meanPsPKsm+0xe>
   11d78:	02c7d7b3          	divu	a5,a5,a2
   11d7c:	00f51023          	sh	a5,0(a0)
   11d80:	8082                	ret
   11d82:	00031537          	lui	a0,0x31
   11d86:	1141                	addi	sp,sp,-16
   11d88:	42850513          	addi	a0,a0,1064 # 31428 <__clzdi2+0x5fa>
   11d8c:	e406                	sd	ra,8(sp)
   11d8e:	488150ef          	jal	27216 <puts>
   11d92:	00031537          	lui	a0,0x31
   11d96:	34850513          	addi	a0,a0,840 # 31348 <__clzdi2+0x51a>
   11d9a:	47c150ef          	jal	27216 <puts>
   11d9e:	557d                	li	a0,-1
   11da0:	917fe0ef          	jal	106b6 <exit>

0000000000011da4 <_Z10vector_varPsPKsm>:
   11da4:	7179                	addi	sp,sp,-48
   11da6:	f406                	sd	ra,40(sp)
   11da8:	f022                	sd	s0,32(sp)
   11daa:	ec26                	sd	s1,24(sp)
   11dac:	e84a                	sd	s2,16(sp)
   11dae:	c525                	beqz	a0,11e16 <_Z10vector_varPsPKsm+0x72>
   11db0:	57cd                	li	a5,-13
   11db2:	8389                	srli	a5,a5,0x2
   11db4:	84b2                	mv	s1,a2
   11db6:	06c7ef63          	bltu	a5,a2,11e34 <_Z10vector_varPsPKsm+0x90>
   11dba:	00161413          	slli	s0,a2,0x1
   11dbe:	892a                	mv	s2,a0
   11dc0:	8522                	mv	a0,s0
   11dc2:	e42e                	sd	a1,8(sp)
   11dc4:	3d5040ef          	jal	16998 <_Znam>
   11dc8:	65a2                	ld	a1,8(sp)
   11dca:	c4a1                	beqz	s1,11e12 <_Z10vector_varPsPKsm+0x6e>
   11dcc:	00858833          	add	a6,a1,s0
   11dd0:	87ae                	mv	a5,a1
   11dd2:	4601                	li	a2,0
   11dd4:	0007d703          	lhu	a4,0(a5)
   11dd8:	0789                	addi	a5,a5,2
   11dda:	9e39                	addw	a2,a2,a4
   11ddc:	0106161b          	slliw	a2,a2,0x10
   11de0:	4106561b          	sraiw	a2,a2,0x10
   11de4:	fef818e3          	bne	a6,a5,11dd4 <_Z10vector_varPsPKsm+0x30>
   11de8:	02965633          	divu	a2,a2,s1
   11dec:	0106161b          	slliw	a2,a2,0x10
   11df0:	4106561b          	sraiw	a2,a2,0x10
   11df4:	86a6                	mv	a3,s1
   11df6:	e42a                	sd	a0,8(sp)
   11df8:	7a0000ef          	jal	12598 <_Z23tiled_vector_sub_scalarPsPKssm>
   11dfc:	6622                	ld	a2,8(sp)
   11dfe:	7402                	ld	s0,32(sp)
   11e00:	70a2                	ld	ra,40(sp)
   11e02:	86a6                	mv	a3,s1
   11e04:	854a                	mv	a0,s2
   11e06:	64e2                	ld	s1,24(sp)
   11e08:	6942                	ld	s2,16(sp)
   11e0a:	85b2                	mv	a1,a2
   11e0c:	6145                	addi	sp,sp,48
   11e0e:	4e80106f          	j	132f6 <_Z13tiled_dotprodPsPKsS1_m>
   11e12:	4601                	li	a2,0
   11e14:	b7c5                	j	11df4 <_Z10vector_varPsPKsm+0x50>
   11e16:	00031537          	lui	a0,0x31
   11e1a:	47850513          	addi	a0,a0,1144 # 31478 <__clzdi2+0x64a>
   11e1e:	3f8150ef          	jal	27216 <puts>
   11e22:	00031537          	lui	a0,0x31
   11e26:	34850513          	addi	a0,a0,840 # 31348 <__clzdi2+0x51a>
   11e2a:	3ec150ef          	jal	27216 <puts>
   11e2e:	557d                	li	a0,-1
   11e30:	887fe0ef          	jal	106b6 <exit>
   11e34:	b38fe0ef          	jal	1016c <__cxa_throw_bad_array_new_length>

0000000000011e38 <_Z14vector_softmaxPsPKsms>:
   11e38:	715d                	addi	sp,sp,-80
   11e3a:	e486                	sd	ra,72(sp)
   11e3c:	e0a2                	sd	s0,64(sp)
   11e3e:	fc26                	sd	s1,56(sp)
   11e40:	f84a                	sd	s2,48(sp)
   11e42:	f44e                	sd	s3,40(sp)
   11e44:	c141                	beqz	a0,11ec4 <_Z14vector_softmaxPsPKsms+0x8c>
   11e46:	842a                	mv	s0,a0
   11e48:	00e10513          	addi	a0,sp,14
   11e4c:	8932                	mv	s2,a2
   11e4e:	89b6                	mv	s3,a3
   11e50:	84ae                	mv	s1,a1
   11e52:	391000ef          	jal	129e2 <_Z16tiled_vector_maxPsPKsm>
   11e56:	00e11603          	lh	a2,14(sp)
   11e5a:	86ca                	mv	a3,s2
   11e5c:	85a6                	mv	a1,s1
   11e5e:	8522                	mv	a0,s0
   11e60:	738000ef          	jal	12598 <_Z23tiled_vector_sub_scalarPsPKssm>
   11e64:	04090963          	beqz	s2,11eb6 <_Z14vector_softmaxPsPKsms+0x7e>
   11e68:	ac22                	fsd	fs0,24(sp)
   11e6a:	f2000453          	fmv.d.x	fs0,zero
   11e6e:	0906                	slli	s2,s2,0x1
   11e70:	9922                	add	s2,s2,s0
   11e72:	84a2                	mv	s1,s0
   11e74:	00049783          	lh	a5,0(s1)
   11e78:	0489                	addi	s1,s1,2
   11e7a:	d2078553          	fcvt.d.w	fa0,a5
   11e7e:	5310e0ef          	jal	20bae <exp>
   11e82:	02a47453          	fadd.d	fs0,fs0,fa0
   11e86:	fe9917e3          	bne	s2,s1,11e74 <_Z14vector_softmaxPsPKsms+0x3c>
   11e8a:	000417b7          	lui	a5,0x41
   11e8e:	6607b707          	fld	fa4,1632(a5) # 41660 <__SDATA_BEGIN__>
   11e92:	1a877753          	fdiv.d	fa4,fa4,fs0
   11e96:	00041783          	lh	a5,0(s0)
   11e9a:	0409                	addi	s0,s0,2
   11e9c:	033787bb          	mulw	a5,a5,s3
   11ea0:	d20787d3          	fcvt.d.w	fa5,a5
   11ea4:	12e7f7d3          	fmul.d	fa5,fa5,fa4
   11ea8:	c20797d3          	fcvt.w.d	a5,fa5,rtz
   11eac:	fef41f23          	sh	a5,-2(s0)
   11eb0:	fe8913e3          	bne	s2,s0,11e96 <_Z14vector_softmaxPsPKsms+0x5e>
   11eb4:	2462                	fld	fs0,24(sp)
   11eb6:	6406                	ld	s0,64(sp)
   11eb8:	60a6                	ld	ra,72(sp)
   11eba:	74e2                	ld	s1,56(sp)
   11ebc:	7942                	ld	s2,48(sp)
   11ebe:	79a2                	ld	s3,40(sp)
   11ec0:	6161                	addi	sp,sp,80
   11ec2:	8082                	ret
   11ec4:	00031537          	lui	a0,0x31
   11ec8:	4c850513          	addi	a0,a0,1224 # 314c8 <__clzdi2+0x69a>
   11ecc:	ac22                	fsd	fs0,24(sp)
   11ece:	348150ef          	jal	27216 <puts>
   11ed2:	00031537          	lui	a0,0x31
   11ed6:	34850513          	addi	a0,a0,840 # 31348 <__clzdi2+0x51a>
   11eda:	33c150ef          	jal	27216 <puts>
   11ede:	557d                	li	a0,-1
   11ee0:	fd6fe0ef          	jal	106b6 <exit>

0000000000011ee4 <_Z10matrix_sumPsPKsmm>:
   11ee4:	cd31                	beqz	a0,11f40 <_Z10matrix_sumPsPKsmm+0x5c>
   11ee6:	ca19                	beqz	a2,11efc <_Z10matrix_sumPsPKsmm+0x18>
   11ee8:	00169313          	slli	t1,a3,0x1
   11eec:	959a                	add	a1,a1,t1
   11eee:	00161e13          	slli	t3,a2,0x1
   11ef2:	4881                	li	a7,0
   11ef4:	ea81                	bnez	a3,11f04 <_Z10matrix_sumPsPKsmm+0x20>
   11ef6:	0885                	addi	a7,a7,1 # 4001 <__cxa_bad_cast-0xc11f>
   11ef8:	ff161fe3          	bne	a2,a7,11ef6 <_Z10matrix_sumPsPKsmm+0x12>
   11efc:	4801                	li	a6,0
   11efe:	01051023          	sh	a6,0(a0)
   11f02:	8082                	ret
   11f04:	4801                	li	a6,0
   11f06:	40658733          	sub	a4,a1,t1
   11f0a:	4781                	li	a5,0
   11f0c:	00075683          	lhu	a3,0(a4)
   11f10:	0709                	addi	a4,a4,2
   11f12:	9fb5                	addw	a5,a5,a3
   11f14:	03079693          	slli	a3,a5,0x30
   11f18:	0107979b          	slliw	a5,a5,0x10
   11f1c:	92c1                	srli	a3,a3,0x30
   11f1e:	4107d79b          	sraiw	a5,a5,0x10
   11f22:	fee595e3          	bne	a1,a4,11f0c <_Z10matrix_sumPsPKsmm+0x28>
   11f26:	00d8083b          	addw	a6,a6,a3
   11f2a:	0108181b          	slliw	a6,a6,0x10
   11f2e:	0885                	addi	a7,a7,1
   11f30:	4108581b          	sraiw	a6,a6,0x10
   11f34:	95f2                	add	a1,a1,t3
   11f36:	fcc898e3          	bne	a7,a2,11f06 <_Z10matrix_sumPsPKsmm+0x22>
   11f3a:	01051023          	sh	a6,0(a0)
   11f3e:	8082                	ret
   11f40:	1141                	addi	sp,sp,-16
   11f42:	e406                	sd	ra,8(sp)
   11f44:	d5bff0ef          	jal	11c9e <_Z10matrix_sumPsPKsmm.part.0>

0000000000011f48 <_Z10matrix_sumPsPKsmmm>:
   11f48:	1141                	addi	sp,sp,-16
   11f4a:	e406                	sd	ra,8(sp)
   11f4c:	e022                	sd	s0,0(sp)
   11f4e:	cd49                	beqz	a0,11fe8 <_Z10matrix_sumPsPKsmmm+0xa0>
   11f50:	842a                	mv	s0,a0
   11f52:	c741                	beqz	a4,11fda <_Z10matrix_sumPsPKsmmm+0x92>
   11f54:	c259                	beqz	a2,11fda <_Z10matrix_sumPsPKsmmm+0x92>
   11f56:	00169e93          	slli	t4,a3,0x1
   11f5a:	01d582b3          	add	t0,a1,t4
   11f5e:	00171513          	slli	a0,a4,0x1
   11f62:	00161f13          	slli	t5,a2,0x1
   11f66:	4f81                	li	t6,0
   11f68:	4381                	li	t2,0
   11f6a:	8896                	mv	a7,t0
   11f6c:	4e01                	li	t3,0
   11f6e:	e68d                	bnez	a3,11f98 <_Z10matrix_sumPsPKsmmm+0x50>
   11f70:	0e05                	addi	t3,t3,1
   11f72:	ffc61fe3          	bne	a2,t3,11f70 <_Z10matrix_sumPsPKsmmm+0x28>
   11f76:	4581                	li	a1,0
   11f78:	00bf8fbb          	addw	t6,t6,a1
   11f7c:	010f9f9b          	slliw	t6,t6,0x10
   11f80:	0385                	addi	t2,t2,1
   11f82:	410fdf9b          	sraiw	t6,t6,0x10
   11f86:	92aa                	add	t0,t0,a0
   11f88:	fee391e3          	bne	t2,a4,11f6a <_Z10matrix_sumPsPKsmmm+0x22>
   11f8c:	60a2                	ld	ra,8(sp)
   11f8e:	01f41023          	sh	t6,0(s0)
   11f92:	6402                	ld	s0,0(sp)
   11f94:	0141                	addi	sp,sp,16
   11f96:	8082                	ret
   11f98:	4301                	li	t1,0
   11f9a:	41d885b3          	sub	a1,a7,t4
   11f9e:	4781                	li	a5,0
   11fa0:	0005d803          	lhu	a6,0(a1)
   11fa4:	0589                	addi	a1,a1,2
   11fa6:	00f807bb          	addw	a5,a6,a5
   11faa:	03079813          	slli	a6,a5,0x30
   11fae:	0107979b          	slliw	a5,a5,0x10
   11fb2:	03085813          	srli	a6,a6,0x30
   11fb6:	4107d79b          	sraiw	a5,a5,0x10
   11fba:	ff1593e3          	bne	a1,a7,11fa0 <_Z10matrix_sumPsPKsmmm+0x58>
   11fbe:	010307bb          	addw	a5,t1,a6
   11fc2:	03079593          	slli	a1,a5,0x30
   11fc6:	0107931b          	slliw	t1,a5,0x10
   11fca:	0e05                	addi	t3,t3,1
   11fcc:	98fa                	add	a7,a7,t5
   11fce:	91c1                	srli	a1,a1,0x30
   11fd0:	4103531b          	sraiw	t1,t1,0x10
   11fd4:	fdc613e3          	bne	a2,t3,11f9a <_Z10matrix_sumPsPKsmmm+0x52>
   11fd8:	b745                	j	11f78 <_Z10matrix_sumPsPKsmmm+0x30>
   11fda:	4f81                	li	t6,0
   11fdc:	60a2                	ld	ra,8(sp)
   11fde:	01f41023          	sh	t6,0(s0)
   11fe2:	6402                	ld	s0,0(sp)
   11fe4:	0141                	addi	sp,sp,16
   11fe6:	8082                	ret
   11fe8:	cb7ff0ef          	jal	11c9e <_Z10matrix_sumPsPKsmm.part.0>

0000000000011fec <_Z11matrix_meanPsPKsmm>:
   11fec:	c12d                	beqz	a0,1204e <_Z11matrix_meanPsPKsmm+0x62>
   11fee:	4801                	li	a6,0
   11ff0:	c205                	beqz	a2,12010 <_Z11matrix_meanPsPKsmm+0x24>
   11ff2:	00169313          	slli	t1,a3,0x1
   11ff6:	02d60eb3          	mul	t4,a2,a3
   11ffa:	959a                	add	a1,a1,t1
   11ffc:	00161e13          	slli	t3,a2,0x1
   12000:	4881                	li	a7,0
   12002:	ea91                	bnez	a3,12016 <_Z11matrix_meanPsPKsmm+0x2a>
   12004:	0885                	addi	a7,a7,1
   12006:	ff161fe3          	bne	a2,a7,12004 <_Z11matrix_meanPsPKsmm+0x18>
   1200a:	4801                	li	a6,0
   1200c:	03d85833          	divu	a6,a6,t4
   12010:	01051023          	sh	a6,0(a0)
   12014:	8082                	ret
   12016:	4801                	li	a6,0
   12018:	40658733          	sub	a4,a1,t1
   1201c:	4781                	li	a5,0
   1201e:	00075683          	lhu	a3,0(a4)
   12022:	0709                	addi	a4,a4,2
   12024:	9fb5                	addw	a5,a5,a3
   12026:	03079693          	slli	a3,a5,0x30
   1202a:	0107979b          	slliw	a5,a5,0x10
   1202e:	92c1                	srli	a3,a3,0x30
   12030:	4107d79b          	sraiw	a5,a5,0x10
   12034:	fee595e3          	bne	a1,a4,1201e <_Z11matrix_meanPsPKsmm+0x32>
   12038:	00d8083b          	addw	a6,a6,a3
   1203c:	0108181b          	slliw	a6,a6,0x10
   12040:	0885                	addi	a7,a7,1
   12042:	4108581b          	sraiw	a6,a6,0x10
   12046:	95f2                	add	a1,a1,t3
   12048:	fd1618e3          	bne	a2,a7,12018 <_Z11matrix_meanPsPKsmm+0x2c>
   1204c:	b7c1                	j	1200c <_Z11matrix_meanPsPKsmm+0x20>
   1204e:	00031537          	lui	a0,0x31
   12052:	1141                	addi	sp,sp,-16
   12054:	51850513          	addi	a0,a0,1304 # 31518 <__clzdi2+0x6ea>
   12058:	e406                	sd	ra,8(sp)
   1205a:	1bc150ef          	jal	27216 <puts>
   1205e:	00031537          	lui	a0,0x31
   12062:	34850513          	addi	a0,a0,840 # 31348 <__clzdi2+0x51a>
   12066:	1b0150ef          	jal	27216 <puts>
   1206a:	557d                	li	a0,-1
   1206c:	e4afe0ef          	jal	106b6 <exit>

0000000000012070 <_Z11matrix_meanPsPKsmmm>:
   12070:	7139                	addi	sp,sp,-64
   12072:	fc06                	sd	ra,56(sp)
   12074:	f822                	sd	s0,48(sp)
   12076:	f426                	sd	s1,40(sp)
   12078:	f04a                	sd	s2,32(sp)
   1207a:	ec4e                	sd	s3,24(sp)
   1207c:	cd05                	beqz	a0,120b4 <_Z11matrix_meanPsPKsmmm+0x44>
   1207e:	842a                	mv	s0,a0
   12080:	00e10513          	addi	a0,sp,14
   12084:	84b2                	mv	s1,a2
   12086:	8936                	mv	s2,a3
   12088:	89ba                	mv	s3,a4
   1208a:	00011723          	sh	zero,14(sp)
   1208e:	ebbff0ef          	jal	11f48 <_Z10matrix_sumPsPKsmmm>
   12092:	03390633          	mul	a2,s2,s3
   12096:	00e11783          	lh	a5,14(sp)
   1209a:	70e2                	ld	ra,56(sp)
   1209c:	7902                	ld	s2,32(sp)
   1209e:	69e2                	ld	s3,24(sp)
   120a0:	02960633          	mul	a2,a2,s1
   120a4:	74a2                	ld	s1,40(sp)
   120a6:	02c7d7b3          	divu	a5,a5,a2
   120aa:	00f41023          	sh	a5,0(s0)
   120ae:	7442                	ld	s0,48(sp)
   120b0:	6121                	addi	sp,sp,64
   120b2:	8082                	ret
   120b4:	00031537          	lui	a0,0x31
   120b8:	51850513          	addi	a0,a0,1304 # 31518 <__clzdi2+0x6ea>
   120bc:	15a150ef          	jal	27216 <puts>
   120c0:	00031537          	lui	a0,0x31
   120c4:	34850513          	addi	a0,a0,840 # 31348 <__clzdi2+0x51a>
   120c8:	14e150ef          	jal	27216 <puts>
   120cc:	557d                	li	a0,-1
   120ce:	de8fe0ef          	jal	106b6 <exit>

00000000000120d2 <_Z14fit_vector_addPsPKsS1_m>:
   120d2:	02000793          	li	a5,32
   120d6:	02d7e263          	bltu	a5,a3,120fa <_Z14fit_vector_addPsPKsS1_m+0x28>
   120da:	872a                	mv	a4,a0
   120dc:	8536                	mv	a0,a3
   120de:	1805200b          	.insn	4, 0x1805200b
   120e2:	852e                	mv	a0,a1
   120e4:	1005208b          	.insn	4, 0x1005208b
   120e8:	8532                	mv	a0,a2
   120ea:	1005210b          	.insn	4, 0x1005210b
   120ee:	0220818b          	.insn	4, 0x0220818b
   120f2:	853a                	mv	a0,a4
   120f4:	1235200b          	.insn	4, 0x1235200b
   120f8:	8082                	ret
   120fa:	000316b7          	lui	a3,0x31
   120fe:	00031637          	lui	a2,0x31
   12102:	00031537          	lui	a0,0x31
   12106:	1141                	addi	sp,sp,-16
   12108:	56868693          	addi	a3,a3,1384 # 31568 <__clzdi2+0x73a>
   1210c:	58060613          	addi	a2,a2,1408 # 31580 <__clzdi2+0x752>
   12110:	5c850513          	addi	a0,a0,1480 # 315c8 <__clzdi2+0x79a>
   12114:	4599                	li	a1,6
   12116:	e406                	sd	ra,8(sp)
   12118:	526120ef          	jal	2463e <__assert_func>

000000000001211c <_Z16tiled_vector_addPsPKsS1_m>:
   1211c:	cd49                	beqz	a0,121b6 <_Z16tiled_vector_addPsPKsS1_m+0x9a>
   1211e:	02000793          	li	a5,32
   12122:	8e2a                	mv	t3,a0
   12124:	06d7fa63          	bgeu	a5,a3,12198 <_Z16tiled_vector_addPsPKsS1_m+0x7c>
   12128:	01f6fe93          	andi	t4,a3,31
   1212c:	0056d313          	srli	t1,a3,0x5
   12130:	88ae                	mv	a7,a1
   12132:	8832                	mv	a6,a2
   12134:	872a                	mv	a4,a0
   12136:	4781                	li	a5,0
   12138:	02000513          	li	a0,32
   1213c:	1805200b          	.insn	4, 0x1805200b
   12140:	8546                	mv	a0,a7
   12142:	1005208b          	.insn	4, 0x1005208b
   12146:	8542                	mv	a0,a6
   12148:	1005210b          	.insn	4, 0x1005210b
   1214c:	0220818b          	.insn	4, 0x0220818b
   12150:	853a                	mv	a0,a4
   12152:	1235200b          	.insn	4, 0x1235200b
   12156:	0785                	addi	a5,a5,1
   12158:	04088893          	addi	a7,a7,64
   1215c:	04080813          	addi	a6,a6,64
   12160:	04070713          	addi	a4,a4,64
   12164:	fcf31ae3          	bne	t1,a5,12138 <_Z16tiled_vector_addPsPKsS1_m+0x1c>
   12168:	000e9363          	bnez	t4,1216e <_Z16tiled_vector_addPsPKsS1_m+0x52>
   1216c:	8082                	ret
   1216e:	41d686b3          	sub	a3,a3,t4
   12172:	0686                	slli	a3,a3,0x1
   12174:	8576                	mv	a0,t4
   12176:	1805200b          	.insn	4, 0x1805200b
   1217a:	00d58533          	add	a0,a1,a3
   1217e:	1005208b          	.insn	4, 0x1005208b
   12182:	00d60533          	add	a0,a2,a3
   12186:	1005210b          	.insn	4, 0x1005210b
   1218a:	0220818b          	.insn	4, 0x0220818b
   1218e:	00de0533          	add	a0,t3,a3
   12192:	1235200b          	.insn	4, 0x1235200b
   12196:	8082                	ret
   12198:	8536                	mv	a0,a3
   1219a:	1805200b          	.insn	4, 0x1805200b
   1219e:	852e                	mv	a0,a1
   121a0:	1005208b          	.insn	4, 0x1005208b
   121a4:	8532                	mv	a0,a2
   121a6:	1005210b          	.insn	4, 0x1005210b
   121aa:	0220818b          	.insn	4, 0x0220818b
   121ae:	8572                	mv	a0,t3
   121b0:	1235200b          	.insn	4, 0x1235200b
   121b4:	8082                	ret
   121b6:	00031537          	lui	a0,0x31
   121ba:	1101                	addi	sp,sp,-32
   121bc:	5e050513          	addi	a0,a0,1504 # 315e0 <__clzdi2+0x7b2>
   121c0:	ec06                	sd	ra,24(sp)
   121c2:	e436                	sd	a3,8(sp)
   121c4:	052150ef          	jal	27216 <puts>
   121c8:	65a2                	ld	a1,8(sp)
   121ca:	00031537          	lui	a0,0x31
   121ce:	63050513          	addi	a0,a0,1584 # 31630 <__clzdi2+0x802>
   121d2:	669140ef          	jal	2703a <printf>
   121d6:	557d                	li	a0,-1
   121d8:	cdefe0ef          	jal	106b6 <exit>

00000000000121dc <_Z23tiled_matrix_vector_addPsPKsS1_mm>:
   121dc:	7139                	addi	sp,sp,-64
   121de:	e852                	sd	s4,16(sp)
   121e0:	e456                	sd	s5,8(sp)
   121e2:	fc06                	sd	ra,56(sp)
   121e4:	8a36                	mv	s4,a3
   121e6:	8aba                	mv	s5,a4
   121e8:	c131                	beqz	a0,1222c <_Z23tiled_matrix_vector_addPsPKsS1_mm+0x50>
   121ea:	ce85                	beqz	a3,12222 <_Z23tiled_matrix_vector_addPsPKsS1_mm+0x46>
   121ec:	f822                	sd	s0,48(sp)
   121ee:	f426                	sd	s1,40(sp)
   121f0:	f04a                	sd	s2,32(sp)
   121f2:	ec4e                	sd	s3,24(sp)
   121f4:	e05a                	sd	s6,0(sp)
   121f6:	842a                	mv	s0,a0
   121f8:	8b32                	mv	s6,a2
   121fa:	84ae                	mv	s1,a1
   121fc:	00171993          	slli	s3,a4,0x1
   12200:	4901                	li	s2,0
   12202:	85a6                	mv	a1,s1
   12204:	8522                	mv	a0,s0
   12206:	86d6                	mv	a3,s5
   12208:	865a                	mv	a2,s6
   1220a:	0905                	addi	s2,s2,1
   1220c:	f11ff0ef          	jal	1211c <_Z16tiled_vector_addPsPKsS1_m>
   12210:	944e                	add	s0,s0,s3
   12212:	94ce                	add	s1,s1,s3
   12214:	ff2a17e3          	bne	s4,s2,12202 <_Z23tiled_matrix_vector_addPsPKsS1_mm+0x26>
   12218:	7442                	ld	s0,48(sp)
   1221a:	74a2                	ld	s1,40(sp)
   1221c:	7902                	ld	s2,32(sp)
   1221e:	69e2                	ld	s3,24(sp)
   12220:	6b02                	ld	s6,0(sp)
   12222:	70e2                	ld	ra,56(sp)
   12224:	6a42                	ld	s4,16(sp)
   12226:	6aa2                	ld	s5,8(sp)
   12228:	6121                	addi	sp,sp,64
   1222a:	8082                	ret
   1222c:	00031537          	lui	a0,0x31
   12230:	65050513          	addi	a0,a0,1616 # 31650 <__clzdi2+0x822>
   12234:	f822                	sd	s0,48(sp)
   12236:	f426                	sd	s1,40(sp)
   12238:	f04a                	sd	s2,32(sp)
   1223a:	ec4e                	sd	s3,24(sp)
   1223c:	e05a                	sd	s6,0(sp)
   1223e:	7d9140ef          	jal	27216 <puts>
   12242:	00031537          	lui	a0,0x31
   12246:	8656                	mv	a2,s5
   12248:	85d2                	mv	a1,s4
   1224a:	6a850513          	addi	a0,a0,1704 # 316a8 <__clzdi2+0x87a>
   1224e:	5ed140ef          	jal	2703a <printf>
   12252:	557d                	li	a0,-1
   12254:	c62fe0ef          	jal	106b6 <exit>

0000000000012258 <_Z14fit_vector_subPsPKsS1_m>:
   12258:	02000793          	li	a5,32
   1225c:	02d7e263          	bltu	a5,a3,12280 <_Z14fit_vector_subPsPKsS1_m+0x28>
   12260:	872a                	mv	a4,a0
   12262:	8536                	mv	a0,a3
   12264:	1805200b          	.insn	4, 0x1805200b
   12268:	852e                	mv	a0,a1
   1226a:	1005208b          	.insn	4, 0x1005208b
   1226e:	8532                	mv	a0,a2
   12270:	1005210b          	.insn	4, 0x1005210b
   12274:	0420818b          	.insn	4, 0x0420818b
   12278:	853a                	mv	a0,a4
   1227a:	1235200b          	.insn	4, 0x1235200b
   1227e:	8082                	ret
   12280:	000316b7          	lui	a3,0x31
   12284:	00031637          	lui	a2,0x31
   12288:	00031537          	lui	a0,0x31
   1228c:	1141                	addi	sp,sp,-16
   1228e:	56868693          	addi	a3,a3,1384 # 31568 <__clzdi2+0x73a>
   12292:	6d860613          	addi	a2,a2,1752 # 316d8 <__clzdi2+0x8aa>
   12296:	5c850513          	addi	a0,a0,1480 # 315c8 <__clzdi2+0x79a>
   1229a:	03600593          	li	a1,54
   1229e:	e406                	sd	ra,8(sp)
   122a0:	39e120ef          	jal	2463e <__assert_func>

00000000000122a4 <_Z16tiled_vector_subPsPKsS1_m>:
   122a4:	cd49                	beqz	a0,1233e <_Z16tiled_vector_subPsPKsS1_m+0x9a>
   122a6:	02000793          	li	a5,32
   122aa:	8e2a                	mv	t3,a0
   122ac:	06d7fa63          	bgeu	a5,a3,12320 <_Z16tiled_vector_subPsPKsS1_m+0x7c>
   122b0:	01f6fe93          	andi	t4,a3,31
   122b4:	0056d313          	srli	t1,a3,0x5
   122b8:	88ae                	mv	a7,a1
   122ba:	8832                	mv	a6,a2
   122bc:	872a                	mv	a4,a0
   122be:	4781                	li	a5,0
   122c0:	02000513          	li	a0,32
   122c4:	1805200b          	.insn	4, 0x1805200b
   122c8:	8546                	mv	a0,a7
   122ca:	1005208b          	.insn	4, 0x1005208b
   122ce:	8542                	mv	a0,a6
   122d0:	1005210b          	.insn	4, 0x1005210b
   122d4:	0420818b          	.insn	4, 0x0420818b
   122d8:	853a                	mv	a0,a4
   122da:	1235200b          	.insn	4, 0x1235200b
   122de:	0785                	addi	a5,a5,1
   122e0:	04088893          	addi	a7,a7,64
   122e4:	04080813          	addi	a6,a6,64
   122e8:	04070713          	addi	a4,a4,64
   122ec:	fcf31ae3          	bne	t1,a5,122c0 <_Z16tiled_vector_subPsPKsS1_m+0x1c>
   122f0:	000e9363          	bnez	t4,122f6 <_Z16tiled_vector_subPsPKsS1_m+0x52>
   122f4:	8082                	ret
   122f6:	41d686b3          	sub	a3,a3,t4
   122fa:	0686                	slli	a3,a3,0x1
   122fc:	8576                	mv	a0,t4
   122fe:	1805200b          	.insn	4, 0x1805200b
   12302:	00d58533          	add	a0,a1,a3
   12306:	1005208b          	.insn	4, 0x1005208b
   1230a:	00d60533          	add	a0,a2,a3
   1230e:	1005210b          	.insn	4, 0x1005210b
   12312:	0420818b          	.insn	4, 0x0420818b
   12316:	00de0533          	add	a0,t3,a3
   1231a:	1235200b          	.insn	4, 0x1235200b
   1231e:	8082                	ret
   12320:	8536                	mv	a0,a3
   12322:	1805200b          	.insn	4, 0x1805200b
   12326:	852e                	mv	a0,a1
   12328:	1005208b          	.insn	4, 0x1005208b
   1232c:	8532                	mv	a0,a2
   1232e:	1005210b          	.insn	4, 0x1005210b
   12332:	0420818b          	.insn	4, 0x0420818b
   12336:	8572                	mv	a0,t3
   12338:	1235200b          	.insn	4, 0x1235200b
   1233c:	8082                	ret
   1233e:	00031537          	lui	a0,0x31
   12342:	1101                	addi	sp,sp,-32
   12344:	72050513          	addi	a0,a0,1824 # 31720 <__clzdi2+0x8f2>
   12348:	ec06                	sd	ra,24(sp)
   1234a:	e436                	sd	a3,8(sp)
   1234c:	6cb140ef          	jal	27216 <puts>
   12350:	65a2                	ld	a1,8(sp)
   12352:	00031537          	lui	a0,0x31
   12356:	63050513          	addi	a0,a0,1584 # 31630 <__clzdi2+0x802>
   1235a:	4e1140ef          	jal	2703a <printf>
   1235e:	557d                	li	a0,-1
   12360:	b56fe0ef          	jal	106b6 <exit>

0000000000012364 <_Z23tiled_matrix_vector_subPsPKsS1_mm>:
   12364:	7139                	addi	sp,sp,-64
   12366:	e852                	sd	s4,16(sp)
   12368:	e456                	sd	s5,8(sp)
   1236a:	fc06                	sd	ra,56(sp)
   1236c:	8a36                	mv	s4,a3
   1236e:	8aba                	mv	s5,a4
   12370:	c131                	beqz	a0,123b4 <_Z23tiled_matrix_vector_subPsPKsS1_mm+0x50>
   12372:	ce85                	beqz	a3,123aa <_Z23tiled_matrix_vector_subPsPKsS1_mm+0x46>
   12374:	f822                	sd	s0,48(sp)
   12376:	f426                	sd	s1,40(sp)
   12378:	f04a                	sd	s2,32(sp)
   1237a:	ec4e                	sd	s3,24(sp)
   1237c:	e05a                	sd	s6,0(sp)
   1237e:	842a                	mv	s0,a0
   12380:	8b32                	mv	s6,a2
   12382:	84ae                	mv	s1,a1
   12384:	00171993          	slli	s3,a4,0x1
   12388:	4901                	li	s2,0
   1238a:	85a6                	mv	a1,s1
   1238c:	8522                	mv	a0,s0
   1238e:	86d6                	mv	a3,s5
   12390:	865a                	mv	a2,s6
   12392:	0905                	addi	s2,s2,1
   12394:	f11ff0ef          	jal	122a4 <_Z16tiled_vector_subPsPKsS1_m>
   12398:	944e                	add	s0,s0,s3
   1239a:	94ce                	add	s1,s1,s3
   1239c:	ff2a17e3          	bne	s4,s2,1238a <_Z23tiled_matrix_vector_subPsPKsS1_mm+0x26>
   123a0:	7442                	ld	s0,48(sp)
   123a2:	74a2                	ld	s1,40(sp)
   123a4:	7902                	ld	s2,32(sp)
   123a6:	69e2                	ld	s3,24(sp)
   123a8:	6b02                	ld	s6,0(sp)
   123aa:	70e2                	ld	ra,56(sp)
   123ac:	6a42                	ld	s4,16(sp)
   123ae:	6aa2                	ld	s5,8(sp)
   123b0:	6121                	addi	sp,sp,64
   123b2:	8082                	ret
   123b4:	00031537          	lui	a0,0x31
   123b8:	77050513          	addi	a0,a0,1904 # 31770 <__clzdi2+0x942>
   123bc:	f822                	sd	s0,48(sp)
   123be:	f426                	sd	s1,40(sp)
   123c0:	f04a                	sd	s2,32(sp)
   123c2:	ec4e                	sd	s3,24(sp)
   123c4:	e05a                	sd	s6,0(sp)
   123c6:	651140ef          	jal	27216 <puts>
   123ca:	00031537          	lui	a0,0x31
   123ce:	8656                	mv	a2,s5
   123d0:	85d2                	mv	a1,s4
   123d2:	6a850513          	addi	a0,a0,1704 # 316a8 <__clzdi2+0x87a>
   123d6:	465140ef          	jal	2703a <printf>
   123da:	557d                	li	a0,-1
   123dc:	adafe0ef          	jal	106b6 <exit>

00000000000123e0 <_Z21fit_vector_add_scalarPsPKssm>:
   123e0:	02000793          	li	a5,32
   123e4:	02d7e063          	bltu	a5,a3,12404 <_Z21fit_vector_add_scalarPsPKssm+0x24>
   123e8:	872a                	mv	a4,a0
   123ea:	8536                	mv	a0,a3
   123ec:	1805200b          	.insn	4, 0x1805200b
   123f0:	852e                	mv	a0,a1
   123f2:	1005208b          	.insn	4, 0x1005208b
   123f6:	8532                	mv	a0,a2
   123f8:	0615210b          	.insn	4, 0x0615210b
   123fc:	853a                	mv	a0,a4
   123fe:	1235200b          	.insn	4, 0x1235200b
   12402:	8082                	ret
   12404:	000316b7          	lui	a3,0x31
   12408:	00031637          	lui	a2,0x31
   1240c:	00031537          	lui	a0,0x31
   12410:	1141                	addi	sp,sp,-16
   12412:	56868693          	addi	a3,a3,1384 # 31568 <__clzdi2+0x73a>
   12416:	7c860613          	addi	a2,a2,1992 # 317c8 <__clzdi2+0x99a>
   1241a:	5c850513          	addi	a0,a0,1480 # 315c8 <__clzdi2+0x79a>
   1241e:	06600593          	li	a1,102
   12422:	e406                	sd	ra,8(sp)
   12424:	21a120ef          	jal	2463e <__assert_func>

0000000000012428 <_Z23tiled_vector_add_scalarPsPKssm>:
   12428:	c159                	beqz	a0,124ae <_Z23tiled_vector_add_scalarPsPKssm+0x86>
   1242a:	02000793          	li	a5,32
   1242e:	832a                	mv	t1,a0
   12430:	06d7f263          	bgeu	a5,a3,12494 <_Z23tiled_vector_add_scalarPsPKssm+0x6c>
   12434:	01f6fe13          	andi	t3,a3,31
   12438:	0056d893          	srli	a7,a3,0x5
   1243c:	882e                	mv	a6,a1
   1243e:	872a                	mv	a4,a0
   12440:	4781                	li	a5,0
   12442:	02000513          	li	a0,32
   12446:	1805200b          	.insn	4, 0x1805200b
   1244a:	8542                	mv	a0,a6
   1244c:	1005208b          	.insn	4, 0x1005208b
   12450:	8532                	mv	a0,a2
   12452:	0615210b          	.insn	4, 0x0615210b
   12456:	853a                	mv	a0,a4
   12458:	1235200b          	.insn	4, 0x1235200b
   1245c:	0785                	addi	a5,a5,1
   1245e:	04080813          	addi	a6,a6,64
   12462:	04070713          	addi	a4,a4,64
   12466:	fcf89ee3          	bne	a7,a5,12442 <_Z23tiled_vector_add_scalarPsPKssm+0x1a>
   1246a:	000e1363          	bnez	t3,12470 <_Z23tiled_vector_add_scalarPsPKssm+0x48>
   1246e:	8082                	ret
   12470:	41c686b3          	sub	a3,a3,t3
   12474:	0686                	slli	a3,a3,0x1
   12476:	8572                	mv	a0,t3
   12478:	1805200b          	.insn	4, 0x1805200b
   1247c:	00d58533          	add	a0,a1,a3
   12480:	1005208b          	.insn	4, 0x1005208b
   12484:	8532                	mv	a0,a2
   12486:	0615210b          	.insn	4, 0x0615210b
   1248a:	00d30533          	add	a0,t1,a3
   1248e:	1235200b          	.insn	4, 0x1235200b
   12492:	8082                	ret
   12494:	8536                	mv	a0,a3
   12496:	1805200b          	.insn	4, 0x1805200b
   1249a:	852e                	mv	a0,a1
   1249c:	1005208b          	.insn	4, 0x1005208b
   124a0:	8532                	mv	a0,a2
   124a2:	0615210b          	.insn	4, 0x0615210b
   124a6:	851a                	mv	a0,t1
   124a8:	1235200b          	.insn	4, 0x1235200b
   124ac:	8082                	ret
   124ae:	00032537          	lui	a0,0x32
   124b2:	1101                	addi	sp,sp,-32
   124b4:	81050513          	addi	a0,a0,-2032 # 31810 <__clzdi2+0x9e2>
   124b8:	ec06                	sd	ra,24(sp)
   124ba:	e436                	sd	a3,8(sp)
   124bc:	55b140ef          	jal	27216 <puts>
   124c0:	65a2                	ld	a1,8(sp)
   124c2:	00031537          	lui	a0,0x31
   124c6:	63050513          	addi	a0,a0,1584 # 31630 <__clzdi2+0x802>
   124ca:	371140ef          	jal	2703a <printf>
   124ce:	557d                	li	a0,-1
   124d0:	9e6fe0ef          	jal	106b6 <exit>

00000000000124d4 <_Z23tiled_matrix_add_scalarPsPKssmm>:
   124d4:	7139                	addi	sp,sp,-64
   124d6:	e852                	sd	s4,16(sp)
   124d8:	e456                	sd	s5,8(sp)
   124da:	fc06                	sd	ra,56(sp)
   124dc:	8a36                	mv	s4,a3
   124de:	8aba                	mv	s5,a4
   124e0:	c131                	beqz	a0,12524 <_Z23tiled_matrix_add_scalarPsPKssmm+0x50>
   124e2:	ce85                	beqz	a3,1251a <_Z23tiled_matrix_add_scalarPsPKssmm+0x46>
   124e4:	f822                	sd	s0,48(sp)
   124e6:	f426                	sd	s1,40(sp)
   124e8:	f04a                	sd	s2,32(sp)
   124ea:	ec4e                	sd	s3,24(sp)
   124ec:	e05a                	sd	s6,0(sp)
   124ee:	842a                	mv	s0,a0
   124f0:	8b32                	mv	s6,a2
   124f2:	84ae                	mv	s1,a1
   124f4:	00171993          	slli	s3,a4,0x1
   124f8:	4901                	li	s2,0
   124fa:	85a6                	mv	a1,s1
   124fc:	8522                	mv	a0,s0
   124fe:	86d6                	mv	a3,s5
   12500:	865a                	mv	a2,s6
   12502:	0905                	addi	s2,s2,1
   12504:	f25ff0ef          	jal	12428 <_Z23tiled_vector_add_scalarPsPKssm>
   12508:	944e                	add	s0,s0,s3
   1250a:	94ce                	add	s1,s1,s3
   1250c:	ff2a17e3          	bne	s4,s2,124fa <_Z23tiled_matrix_add_scalarPsPKssmm+0x26>
   12510:	7442                	ld	s0,48(sp)
   12512:	74a2                	ld	s1,40(sp)
   12514:	7902                	ld	s2,32(sp)
   12516:	69e2                	ld	s3,24(sp)
   12518:	6b02                	ld	s6,0(sp)
   1251a:	70e2                	ld	ra,56(sp)
   1251c:	6a42                	ld	s4,16(sp)
   1251e:	6aa2                	ld	s5,8(sp)
   12520:	6121                	addi	sp,sp,64
   12522:	8082                	ret
   12524:	00032537          	lui	a0,0x32
   12528:	86850513          	addi	a0,a0,-1944 # 31868 <__clzdi2+0xa3a>
   1252c:	f822                	sd	s0,48(sp)
   1252e:	f426                	sd	s1,40(sp)
   12530:	f04a                	sd	s2,32(sp)
   12532:	ec4e                	sd	s3,24(sp)
   12534:	e05a                	sd	s6,0(sp)
   12536:	4e1140ef          	jal	27216 <puts>
   1253a:	00031537          	lui	a0,0x31
   1253e:	8656                	mv	a2,s5
   12540:	85d2                	mv	a1,s4
   12542:	6a850513          	addi	a0,a0,1704 # 316a8 <__clzdi2+0x87a>
   12546:	2f5140ef          	jal	2703a <printf>
   1254a:	557d                	li	a0,-1
   1254c:	96afe0ef          	jal	106b6 <exit>

0000000000012550 <_Z21fit_vector_sub_scalarPsPKssm>:
   12550:	02000793          	li	a5,32
   12554:	02d7e063          	bltu	a5,a3,12574 <_Z21fit_vector_sub_scalarPsPKssm+0x24>
   12558:	872a                	mv	a4,a0
   1255a:	8536                	mv	a0,a3
   1255c:	1805200b          	.insn	4, 0x1805200b
   12560:	852e                	mv	a0,a1
   12562:	1005208b          	.insn	4, 0x1005208b
   12566:	8532                	mv	a0,a2
   12568:	0815210b          	.insn	4, 0x0815210b
   1256c:	853a                	mv	a0,a4
   1256e:	1235200b          	.insn	4, 0x1235200b
   12572:	8082                	ret
   12574:	000316b7          	lui	a3,0x31
   12578:	00032637          	lui	a2,0x32
   1257c:	00031537          	lui	a0,0x31
   12580:	1141                	addi	sp,sp,-16
   12582:	56868693          	addi	a3,a3,1384 # 31568 <__clzdi2+0x73a>
   12586:	8c060613          	addi	a2,a2,-1856 # 318c0 <__clzdi2+0xa92>
   1258a:	5c850513          	addi	a0,a0,1480 # 315c8 <__clzdi2+0x79a>
   1258e:	09500593          	li	a1,149
   12592:	e406                	sd	ra,8(sp)
   12594:	0aa120ef          	jal	2463e <__assert_func>

0000000000012598 <_Z23tiled_vector_sub_scalarPsPKssm>:
   12598:	c159                	beqz	a0,1261e <_Z23tiled_vector_sub_scalarPsPKssm+0x86>
   1259a:	02000793          	li	a5,32
   1259e:	832a                	mv	t1,a0
   125a0:	06d7f263          	bgeu	a5,a3,12604 <_Z23tiled_vector_sub_scalarPsPKssm+0x6c>
   125a4:	01f6fe13          	andi	t3,a3,31
   125a8:	0056d893          	srli	a7,a3,0x5
   125ac:	882e                	mv	a6,a1
   125ae:	872a                	mv	a4,a0
   125b0:	4781                	li	a5,0
   125b2:	02000513          	li	a0,32
   125b6:	1805200b          	.insn	4, 0x1805200b
   125ba:	8542                	mv	a0,a6
   125bc:	1005208b          	.insn	4, 0x1005208b
   125c0:	8532                	mv	a0,a2
   125c2:	0815210b          	.insn	4, 0x0815210b
   125c6:	853a                	mv	a0,a4
   125c8:	1235200b          	.insn	4, 0x1235200b
   125cc:	0785                	addi	a5,a5,1
   125ce:	04080813          	addi	a6,a6,64
   125d2:	04070713          	addi	a4,a4,64
   125d6:	fcf89ee3          	bne	a7,a5,125b2 <_Z23tiled_vector_sub_scalarPsPKssm+0x1a>
   125da:	000e1363          	bnez	t3,125e0 <_Z23tiled_vector_sub_scalarPsPKssm+0x48>
   125de:	8082                	ret
   125e0:	41c686b3          	sub	a3,a3,t3
   125e4:	0686                	slli	a3,a3,0x1
   125e6:	8572                	mv	a0,t3
   125e8:	1805200b          	.insn	4, 0x1805200b
   125ec:	00d58533          	add	a0,a1,a3
   125f0:	1005208b          	.insn	4, 0x1005208b
   125f4:	8532                	mv	a0,a2
   125f6:	0815210b          	.insn	4, 0x0815210b
   125fa:	00d30533          	add	a0,t1,a3
   125fe:	1235200b          	.insn	4, 0x1235200b
   12602:	8082                	ret
   12604:	8536                	mv	a0,a3
   12606:	1805200b          	.insn	4, 0x1805200b
   1260a:	852e                	mv	a0,a1
   1260c:	1005208b          	.insn	4, 0x1005208b
   12610:	8532                	mv	a0,a2
   12612:	0815210b          	.insn	4, 0x0815210b
   12616:	851a                	mv	a0,t1
   12618:	1235200b          	.insn	4, 0x1235200b
   1261c:	8082                	ret
   1261e:	00032537          	lui	a0,0x32
   12622:	1101                	addi	sp,sp,-32
   12624:	90850513          	addi	a0,a0,-1784 # 31908 <__clzdi2+0xada>
   12628:	ec06                	sd	ra,24(sp)
   1262a:	e436                	sd	a3,8(sp)
   1262c:	3eb140ef          	jal	27216 <puts>
   12630:	65a2                	ld	a1,8(sp)
   12632:	00031537          	lui	a0,0x31
   12636:	63050513          	addi	a0,a0,1584 # 31630 <__clzdi2+0x802>
   1263a:	201140ef          	jal	2703a <printf>
   1263e:	557d                	li	a0,-1
   12640:	876fe0ef          	jal	106b6 <exit>

0000000000012644 <_Z23tiled_matrix_sub_scalarPsPKssmm>:
   12644:	7139                	addi	sp,sp,-64
   12646:	e852                	sd	s4,16(sp)
   12648:	e456                	sd	s5,8(sp)
   1264a:	fc06                	sd	ra,56(sp)
   1264c:	8a36                	mv	s4,a3
   1264e:	8aba                	mv	s5,a4
   12650:	c131                	beqz	a0,12694 <_Z23tiled_matrix_sub_scalarPsPKssmm+0x50>
   12652:	ce85                	beqz	a3,1268a <_Z23tiled_matrix_sub_scalarPsPKssmm+0x46>
   12654:	f822                	sd	s0,48(sp)
   12656:	f426                	sd	s1,40(sp)
   12658:	f04a                	sd	s2,32(sp)
   1265a:	ec4e                	sd	s3,24(sp)
   1265c:	e05a                	sd	s6,0(sp)
   1265e:	842a                	mv	s0,a0
   12660:	8b32                	mv	s6,a2
   12662:	84ae                	mv	s1,a1
   12664:	00171993          	slli	s3,a4,0x1
   12668:	4901                	li	s2,0
   1266a:	85a6                	mv	a1,s1
   1266c:	8522                	mv	a0,s0
   1266e:	86d6                	mv	a3,s5
   12670:	865a                	mv	a2,s6
   12672:	0905                	addi	s2,s2,1
   12674:	f25ff0ef          	jal	12598 <_Z23tiled_vector_sub_scalarPsPKssm>
   12678:	944e                	add	s0,s0,s3
   1267a:	94ce                	add	s1,s1,s3
   1267c:	ff2a17e3          	bne	s4,s2,1266a <_Z23tiled_matrix_sub_scalarPsPKssmm+0x26>
   12680:	7442                	ld	s0,48(sp)
   12682:	74a2                	ld	s1,40(sp)
   12684:	7902                	ld	s2,32(sp)
   12686:	69e2                	ld	s3,24(sp)
   12688:	6b02                	ld	s6,0(sp)
   1268a:	70e2                	ld	ra,56(sp)
   1268c:	6a42                	ld	s4,16(sp)
   1268e:	6aa2                	ld	s5,8(sp)
   12690:	6121                	addi	sp,sp,64
   12692:	8082                	ret
   12694:	00032537          	lui	a0,0x32
   12698:	96050513          	addi	a0,a0,-1696 # 31960 <__clzdi2+0xb32>
   1269c:	f822                	sd	s0,48(sp)
   1269e:	f426                	sd	s1,40(sp)
   126a0:	f04a                	sd	s2,32(sp)
   126a2:	ec4e                	sd	s3,24(sp)
   126a4:	e05a                	sd	s6,0(sp)
   126a6:	371140ef          	jal	27216 <puts>
   126aa:	00031537          	lui	a0,0x31
   126ae:	8656                	mv	a2,s5
   126b0:	85d2                	mv	a1,s4
   126b2:	6a850513          	addi	a0,a0,1704 # 316a8 <__clzdi2+0x87a>
   126b6:	185140ef          	jal	2703a <printf>
   126ba:	557d                	li	a0,-1
   126bc:	ffbfd0ef          	jal	106b6 <exit>

00000000000126c0 <_Z21fit_vector_mul_scalarPsPKssm>:
   126c0:	02000793          	li	a5,32
   126c4:	02d7e063          	bltu	a5,a3,126e4 <_Z21fit_vector_mul_scalarPsPKssm+0x24>
   126c8:	872a                	mv	a4,a0
   126ca:	8536                	mv	a0,a3
   126cc:	1805200b          	.insn	4, 0x1805200b
   126d0:	852e                	mv	a0,a1
   126d2:	1005208b          	.insn	4, 0x1005208b
   126d6:	8532                	mv	a0,a2
   126d8:	0a15210b          	.insn	4, 0x0a15210b
   126dc:	853a                	mv	a0,a4
   126de:	1235200b          	.insn	4, 0x1235200b
   126e2:	8082                	ret
   126e4:	000316b7          	lui	a3,0x31
   126e8:	00032637          	lui	a2,0x32
   126ec:	00031537          	lui	a0,0x31
   126f0:	1141                	addi	sp,sp,-16
   126f2:	56868693          	addi	a3,a3,1384 # 31568 <__clzdi2+0x73a>
   126f6:	9b860613          	addi	a2,a2,-1608 # 319b8 <__clzdi2+0xb8a>
   126fa:	5c850513          	addi	a0,a0,1480 # 315c8 <__clzdi2+0x79a>
   126fe:	0c400593          	li	a1,196
   12702:	e406                	sd	ra,8(sp)
   12704:	73b110ef          	jal	2463e <__assert_func>

0000000000012708 <_Z23tiled_vector_mul_scalarPsPKssm>:
   12708:	c159                	beqz	a0,1278e <_Z23tiled_vector_mul_scalarPsPKssm+0x86>
   1270a:	02000793          	li	a5,32
   1270e:	832a                	mv	t1,a0
   12710:	06d7f263          	bgeu	a5,a3,12774 <_Z23tiled_vector_mul_scalarPsPKssm+0x6c>
   12714:	01f6fe13          	andi	t3,a3,31
   12718:	0056d893          	srli	a7,a3,0x5
   1271c:	882e                	mv	a6,a1
   1271e:	872a                	mv	a4,a0
   12720:	4781                	li	a5,0
   12722:	02000513          	li	a0,32
   12726:	1805200b          	.insn	4, 0x1805200b
   1272a:	8542                	mv	a0,a6
   1272c:	1005208b          	.insn	4, 0x1005208b
   12730:	8532                	mv	a0,a2
   12732:	0a15210b          	.insn	4, 0x0a15210b
   12736:	853a                	mv	a0,a4
   12738:	1235200b          	.insn	4, 0x1235200b
   1273c:	0785                	addi	a5,a5,1
   1273e:	04080813          	addi	a6,a6,64
   12742:	04070713          	addi	a4,a4,64
   12746:	fcf89ee3          	bne	a7,a5,12722 <_Z23tiled_vector_mul_scalarPsPKssm+0x1a>
   1274a:	000e1363          	bnez	t3,12750 <_Z23tiled_vector_mul_scalarPsPKssm+0x48>
   1274e:	8082                	ret
   12750:	41c686b3          	sub	a3,a3,t3
   12754:	0686                	slli	a3,a3,0x1
   12756:	8572                	mv	a0,t3
   12758:	1805200b          	.insn	4, 0x1805200b
   1275c:	00d58533          	add	a0,a1,a3
   12760:	1005208b          	.insn	4, 0x1005208b
   12764:	8532                	mv	a0,a2
   12766:	0a15210b          	.insn	4, 0x0a15210b
   1276a:	00d30533          	add	a0,t1,a3
   1276e:	1235200b          	.insn	4, 0x1235200b
   12772:	8082                	ret
   12774:	8536                	mv	a0,a3
   12776:	1805200b          	.insn	4, 0x1805200b
   1277a:	852e                	mv	a0,a1
   1277c:	1005208b          	.insn	4, 0x1005208b
   12780:	8532                	mv	a0,a2
   12782:	0a15210b          	.insn	4, 0x0a15210b
   12786:	851a                	mv	a0,t1
   12788:	1235200b          	.insn	4, 0x1235200b
   1278c:	8082                	ret
   1278e:	00032537          	lui	a0,0x32
   12792:	1101                	addi	sp,sp,-32
   12794:	a0050513          	addi	a0,a0,-1536 # 31a00 <__clzdi2+0xbd2>
   12798:	ec06                	sd	ra,24(sp)
   1279a:	e436                	sd	a3,8(sp)
   1279c:	27b140ef          	jal	27216 <puts>
   127a0:	65a2                	ld	a1,8(sp)
   127a2:	00031537          	lui	a0,0x31
   127a6:	63050513          	addi	a0,a0,1584 # 31630 <__clzdi2+0x802>
   127aa:	091140ef          	jal	2703a <printf>
   127ae:	557d                	li	a0,-1
   127b0:	f07fd0ef          	jal	106b6 <exit>

00000000000127b4 <_Z23tiled_matrix_mul_scalarPsPKssmm>:
   127b4:	7139                	addi	sp,sp,-64
   127b6:	e852                	sd	s4,16(sp)
   127b8:	e456                	sd	s5,8(sp)
   127ba:	fc06                	sd	ra,56(sp)
   127bc:	8a36                	mv	s4,a3
   127be:	8aba                	mv	s5,a4
   127c0:	c131                	beqz	a0,12804 <_Z23tiled_matrix_mul_scalarPsPKssmm+0x50>
   127c2:	ce85                	beqz	a3,127fa <_Z23tiled_matrix_mul_scalarPsPKssmm+0x46>
   127c4:	f822                	sd	s0,48(sp)
   127c6:	f426                	sd	s1,40(sp)
   127c8:	f04a                	sd	s2,32(sp)
   127ca:	ec4e                	sd	s3,24(sp)
   127cc:	e05a                	sd	s6,0(sp)
   127ce:	842a                	mv	s0,a0
   127d0:	8b32                	mv	s6,a2
   127d2:	84ae                	mv	s1,a1
   127d4:	00171993          	slli	s3,a4,0x1
   127d8:	4901                	li	s2,0
   127da:	85a6                	mv	a1,s1
   127dc:	8522                	mv	a0,s0
   127de:	86d6                	mv	a3,s5
   127e0:	865a                	mv	a2,s6
   127e2:	0905                	addi	s2,s2,1
   127e4:	f25ff0ef          	jal	12708 <_Z23tiled_vector_mul_scalarPsPKssm>
   127e8:	944e                	add	s0,s0,s3
   127ea:	94ce                	add	s1,s1,s3
   127ec:	ff2a17e3          	bne	s4,s2,127da <_Z23tiled_matrix_mul_scalarPsPKssmm+0x26>
   127f0:	7442                	ld	s0,48(sp)
   127f2:	74a2                	ld	s1,40(sp)
   127f4:	7902                	ld	s2,32(sp)
   127f6:	69e2                	ld	s3,24(sp)
   127f8:	6b02                	ld	s6,0(sp)
   127fa:	70e2                	ld	ra,56(sp)
   127fc:	6a42                	ld	s4,16(sp)
   127fe:	6aa2                	ld	s5,8(sp)
   12800:	6121                	addi	sp,sp,64
   12802:	8082                	ret
   12804:	00032537          	lui	a0,0x32
   12808:	a5850513          	addi	a0,a0,-1448 # 31a58 <__clzdi2+0xc2a>
   1280c:	f822                	sd	s0,48(sp)
   1280e:	f426                	sd	s1,40(sp)
   12810:	f04a                	sd	s2,32(sp)
   12812:	ec4e                	sd	s3,24(sp)
   12814:	e05a                	sd	s6,0(sp)
   12816:	201140ef          	jal	27216 <puts>
   1281a:	00031537          	lui	a0,0x31
   1281e:	8656                	mv	a2,s5
   12820:	85d2                	mv	a1,s4
   12822:	6a850513          	addi	a0,a0,1704 # 316a8 <__clzdi2+0x87a>
   12826:	015140ef          	jal	2703a <printf>
   1282a:	557d                	li	a0,-1
   1282c:	e8bfd0ef          	jal	106b6 <exit>

0000000000012830 <_Z21fit_vector_div_scalarPsPKssm>:
   12830:	02000793          	li	a5,32
   12834:	02d7e063          	bltu	a5,a3,12854 <_Z21fit_vector_div_scalarPsPKssm+0x24>
   12838:	872a                	mv	a4,a0
   1283a:	8536                	mv	a0,a3
   1283c:	1805200b          	.insn	4, 0x1805200b
   12840:	852e                	mv	a0,a1
   12842:	1005208b          	.insn	4, 0x1005208b
   12846:	8532                	mv	a0,a2
   12848:	0c15210b          	.insn	4, 0x0c15210b
   1284c:	853a                	mv	a0,a4
   1284e:	1235200b          	.insn	4, 0x1235200b
   12852:	8082                	ret
   12854:	000316b7          	lui	a3,0x31
   12858:	00032637          	lui	a2,0x32
   1285c:	00031537          	lui	a0,0x31
   12860:	1141                	addi	sp,sp,-16
   12862:	56868693          	addi	a3,a3,1384 # 31568 <__clzdi2+0x73a>
   12866:	ab060613          	addi	a2,a2,-1360 # 31ab0 <__clzdi2+0xc82>
   1286a:	5c850513          	addi	a0,a0,1480 # 315c8 <__clzdi2+0x79a>
   1286e:	0f300593          	li	a1,243
   12872:	e406                	sd	ra,8(sp)
   12874:	5cb110ef          	jal	2463e <__assert_func>

0000000000012878 <_Z23tiled_vector_div_scalarPsPKssm>:
   12878:	c159                	beqz	a0,128fe <_Z23tiled_vector_div_scalarPsPKssm+0x86>
   1287a:	02000793          	li	a5,32
   1287e:	832a                	mv	t1,a0
   12880:	06d7f263          	bgeu	a5,a3,128e4 <_Z23tiled_vector_div_scalarPsPKssm+0x6c>
   12884:	01f6fe13          	andi	t3,a3,31
   12888:	0056d893          	srli	a7,a3,0x5
   1288c:	882e                	mv	a6,a1
   1288e:	872a                	mv	a4,a0
   12890:	4781                	li	a5,0
   12892:	02000513          	li	a0,32
   12896:	1805200b          	.insn	4, 0x1805200b
   1289a:	8542                	mv	a0,a6
   1289c:	1005208b          	.insn	4, 0x1005208b
   128a0:	8532                	mv	a0,a2
   128a2:	0c15210b          	.insn	4, 0x0c15210b
   128a6:	853a                	mv	a0,a4
   128a8:	1235200b          	.insn	4, 0x1235200b
   128ac:	0785                	addi	a5,a5,1
   128ae:	04080813          	addi	a6,a6,64
   128b2:	04070713          	addi	a4,a4,64
   128b6:	fcf89ee3          	bne	a7,a5,12892 <_Z23tiled_vector_div_scalarPsPKssm+0x1a>
   128ba:	000e1363          	bnez	t3,128c0 <_Z23tiled_vector_div_scalarPsPKssm+0x48>
   128be:	8082                	ret
   128c0:	41c686b3          	sub	a3,a3,t3
   128c4:	0686                	slli	a3,a3,0x1
   128c6:	8572                	mv	a0,t3
   128c8:	1805200b          	.insn	4, 0x1805200b
   128cc:	00d58533          	add	a0,a1,a3
   128d0:	1005208b          	.insn	4, 0x1005208b
   128d4:	8532                	mv	a0,a2
   128d6:	0c15210b          	.insn	4, 0x0c15210b
   128da:	00d30533          	add	a0,t1,a3
   128de:	1235200b          	.insn	4, 0x1235200b
   128e2:	8082                	ret
   128e4:	8536                	mv	a0,a3
   128e6:	1805200b          	.insn	4, 0x1805200b
   128ea:	852e                	mv	a0,a1
   128ec:	1005208b          	.insn	4, 0x1005208b
   128f0:	8532                	mv	a0,a2
   128f2:	0c15210b          	.insn	4, 0x0c15210b
   128f6:	851a                	mv	a0,t1
   128f8:	1235200b          	.insn	4, 0x1235200b
   128fc:	8082                	ret
   128fe:	00032537          	lui	a0,0x32
   12902:	1101                	addi	sp,sp,-32
   12904:	af850513          	addi	a0,a0,-1288 # 31af8 <__clzdi2+0xcca>
   12908:	ec06                	sd	ra,24(sp)
   1290a:	e436                	sd	a3,8(sp)
   1290c:	10b140ef          	jal	27216 <puts>
   12910:	65a2                	ld	a1,8(sp)
   12912:	00031537          	lui	a0,0x31
   12916:	63050513          	addi	a0,a0,1584 # 31630 <__clzdi2+0x802>
   1291a:	720140ef          	jal	2703a <printf>
   1291e:	557d                	li	a0,-1
   12920:	d97fd0ef          	jal	106b6 <exit>

0000000000012924 <_Z23tiled_matrix_div_scalarPsPKssmm>:
   12924:	7139                	addi	sp,sp,-64
   12926:	e852                	sd	s4,16(sp)
   12928:	e456                	sd	s5,8(sp)
   1292a:	fc06                	sd	ra,56(sp)
   1292c:	8a36                	mv	s4,a3
   1292e:	8aba                	mv	s5,a4
   12930:	c131                	beqz	a0,12974 <_Z23tiled_matrix_div_scalarPsPKssmm+0x50>
   12932:	ce85                	beqz	a3,1296a <_Z23tiled_matrix_div_scalarPsPKssmm+0x46>
   12934:	f822                	sd	s0,48(sp)
   12936:	f426                	sd	s1,40(sp)
   12938:	f04a                	sd	s2,32(sp)
   1293a:	ec4e                	sd	s3,24(sp)
   1293c:	e05a                	sd	s6,0(sp)
   1293e:	842a                	mv	s0,a0
   12940:	8b32                	mv	s6,a2
   12942:	84ae                	mv	s1,a1
   12944:	00171993          	slli	s3,a4,0x1
   12948:	4901                	li	s2,0
   1294a:	85a6                	mv	a1,s1
   1294c:	8522                	mv	a0,s0
   1294e:	86d6                	mv	a3,s5
   12950:	865a                	mv	a2,s6
   12952:	0905                	addi	s2,s2,1
   12954:	f25ff0ef          	jal	12878 <_Z23tiled_vector_div_scalarPsPKssm>
   12958:	944e                	add	s0,s0,s3
   1295a:	94ce                	add	s1,s1,s3
   1295c:	ff2a17e3          	bne	s4,s2,1294a <_Z23tiled_matrix_div_scalarPsPKssmm+0x26>
   12960:	7442                	ld	s0,48(sp)
   12962:	74a2                	ld	s1,40(sp)
   12964:	7902                	ld	s2,32(sp)
   12966:	69e2                	ld	s3,24(sp)
   12968:	6b02                	ld	s6,0(sp)
   1296a:	70e2                	ld	ra,56(sp)
   1296c:	6a42                	ld	s4,16(sp)
   1296e:	6aa2                	ld	s5,8(sp)
   12970:	6121                	addi	sp,sp,64
   12972:	8082                	ret
   12974:	00032537          	lui	a0,0x32
   12978:	b5050513          	addi	a0,a0,-1200 # 31b50 <__clzdi2+0xd22>
   1297c:	f822                	sd	s0,48(sp)
   1297e:	f426                	sd	s1,40(sp)
   12980:	f04a                	sd	s2,32(sp)
   12982:	ec4e                	sd	s3,24(sp)
   12984:	e05a                	sd	s6,0(sp)
   12986:	091140ef          	jal	27216 <puts>
   1298a:	00031537          	lui	a0,0x31
   1298e:	8656                	mv	a2,s5
   12990:	85d2                	mv	a1,s4
   12992:	6a850513          	addi	a0,a0,1704 # 316a8 <__clzdi2+0x87a>
   12996:	6a4140ef          	jal	2703a <printf>
   1299a:	557d                	li	a0,-1
   1299c:	d1bfd0ef          	jal	106b6 <exit>

00000000000129a0 <_Z14fit_vector_maxPsPKsm>:
   129a0:	02000793          	li	a5,32
   129a4:	00c7ee63          	bltu	a5,a2,129c0 <_Z14fit_vector_maxPsPKsm+0x20>
   129a8:	872a                	mv	a4,a0
   129aa:	8532                	mv	a0,a2
   129ac:	1805200b          	.insn	4, 0x1805200b
   129b0:	852e                	mv	a0,a1
   129b2:	1005208b          	.insn	4, 0x1005208b
   129b6:	1600c50b          	.insn	4, 0x1600c50b
   129ba:	00a71023          	sh	a0,0(a4)
   129be:	8082                	ret
   129c0:	000316b7          	lui	a3,0x31
   129c4:	00032637          	lui	a2,0x32
   129c8:	00032537          	lui	a0,0x32
   129cc:	1141                	addi	sp,sp,-16
   129ce:	56868693          	addi	a3,a3,1384 # 31568 <__clzdi2+0x73a>
   129d2:	ba860613          	addi	a2,a2,-1112 # 31ba8 <__clzdi2+0xd7a>
   129d6:	be050513          	addi	a0,a0,-1056 # 31be0 <__clzdi2+0xdb2>
   129da:	4599                	li	a1,6
   129dc:	e406                	sd	ra,8(sp)
   129de:	461110ef          	jal	2463e <__assert_func>

00000000000129e2 <_Z16tiled_vector_maxPsPKsm>:
   129e2:	c14d                	beqz	a0,12a84 <_Z16tiled_vector_maxPsPKsm+0xa2>
   129e4:	02000793          	li	a5,32
   129e8:	8e2a                	mv	t3,a0
   129ea:	06c7fe63          	bgeu	a5,a2,12a66 <_Z16tiled_vector_maxPsPKsm+0x84>
   129ee:	01f67e93          	andi	t4,a2,31
   129f2:	00565313          	srli	t1,a2,0x5
   129f6:	882e                	mv	a6,a1
   129f8:	7761                	lui	a4,0xffff8
   129fa:	4681                	li	a3,0
   129fc:	02000513          	li	a0,32
   12a00:	1805200b          	.insn	4, 0x1805200b
   12a04:	8542                	mv	a0,a6
   12a06:	1005208b          	.insn	4, 0x1005208b
   12a0a:	1600c50b          	.insn	4, 0x1600c50b
   12a0e:	0105189b          	slliw	a7,a0,0x10
   12a12:	4108d89b          	sraiw	a7,a7,0x10
   12a16:	87aa                	mv	a5,a0
   12a18:	00e8d363          	bge	a7,a4,12a1e <_Z16tiled_vector_maxPsPKsm+0x3c>
   12a1c:	87ba                	mv	a5,a4
   12a1e:	0107971b          	slliw	a4,a5,0x10
   12a22:	0685                	addi	a3,a3,1
   12a24:	04080813          	addi	a6,a6,64
   12a28:	4107571b          	sraiw	a4,a4,0x10
   12a2c:	fcd318e3          	bne	t1,a3,129fc <_Z16tiled_vector_maxPsPKsm+0x1a>
   12a30:	000e9563          	bnez	t4,12a3a <_Z16tiled_vector_maxPsPKsm+0x58>
   12a34:	00ee1023          	sh	a4,0(t3)
   12a38:	8082                	ret
   12a3a:	41d60633          	sub	a2,a2,t4
   12a3e:	0606                	slli	a2,a2,0x1
   12a40:	8576                	mv	a0,t4
   12a42:	1805200b          	.insn	4, 0x1805200b
   12a46:	00c58533          	add	a0,a1,a2
   12a4a:	1005208b          	.insn	4, 0x1005208b
   12a4e:	1600c50b          	.insn	4, 0x1600c50b
   12a52:	0105169b          	slliw	a3,a0,0x10
   12a56:	4106d69b          	sraiw	a3,a3,0x10
   12a5a:	02e6c263          	blt	a3,a4,12a7e <_Z16tiled_vector_maxPsPKsm+0x9c>
   12a5e:	872a                	mv	a4,a0
   12a60:	00ee1023          	sh	a4,0(t3)
   12a64:	8082                	ret
   12a66:	8532                	mv	a0,a2
   12a68:	1805200b          	.insn	4, 0x1805200b
   12a6c:	852e                	mv	a0,a1
   12a6e:	1005208b          	.insn	4, 0x1005208b
   12a72:	1600c50b          	.insn	4, 0x1600c50b
   12a76:	872a                	mv	a4,a0
   12a78:	00ee1023          	sh	a4,0(t3)
   12a7c:	8082                	ret
   12a7e:	853e                	mv	a0,a5
   12a80:	872a                	mv	a4,a0
   12a82:	bff9                	j	12a60 <_Z16tiled_vector_maxPsPKsm+0x7e>
   12a84:	00032537          	lui	a0,0x32
   12a88:	1141                	addi	sp,sp,-16
   12a8a:	bf850513          	addi	a0,a0,-1032 # 31bf8 <__clzdi2+0xdca>
   12a8e:	e406                	sd	ra,8(sp)
   12a90:	786140ef          	jal	27216 <puts>
   12a94:	00031537          	lui	a0,0x31
   12a98:	34850513          	addi	a0,a0,840 # 31348 <__clzdi2+0x51a>
   12a9c:	77a140ef          	jal	27216 <puts>
   12aa0:	557d                	li	a0,-1
   12aa2:	c15fd0ef          	jal	106b6 <exit>

0000000000012aa6 <_Z23tiled_matrix_vector_maxPsPKsmm>:
   12aa6:	7139                	addi	sp,sp,-64
   12aa8:	ec4e                	sd	s3,24(sp)
   12aaa:	fc06                	sd	ra,56(sp)
   12aac:	89b2                	mv	s3,a2
   12aae:	c121                	beqz	a0,12aee <_Z23tiled_matrix_vector_maxPsPKsmm+0x48>
   12ab0:	ca1d                	beqz	a2,12ae6 <_Z23tiled_matrix_vector_maxPsPKsmm+0x40>
   12ab2:	f822                	sd	s0,48(sp)
   12ab4:	f426                	sd	s1,40(sp)
   12ab6:	f04a                	sd	s2,32(sp)
   12ab8:	e852                	sd	s4,16(sp)
   12aba:	e456                	sd	s5,8(sp)
   12abc:	8a36                	mv	s4,a3
   12abe:	842a                	mv	s0,a0
   12ac0:	84ae                	mv	s1,a1
   12ac2:	00169a93          	slli	s5,a3,0x1
   12ac6:	4901                	li	s2,0
   12ac8:	85a6                	mv	a1,s1
   12aca:	8522                	mv	a0,s0
   12acc:	8652                	mv	a2,s4
   12ace:	0905                	addi	s2,s2,1
   12ad0:	f13ff0ef          	jal	129e2 <_Z16tiled_vector_maxPsPKsm>
   12ad4:	0409                	addi	s0,s0,2
   12ad6:	94d6                	add	s1,s1,s5
   12ad8:	ff2998e3          	bne	s3,s2,12ac8 <_Z23tiled_matrix_vector_maxPsPKsmm+0x22>
   12adc:	7442                	ld	s0,48(sp)
   12ade:	74a2                	ld	s1,40(sp)
   12ae0:	7902                	ld	s2,32(sp)
   12ae2:	6a42                	ld	s4,16(sp)
   12ae4:	6aa2                	ld	s5,8(sp)
   12ae6:	70e2                	ld	ra,56(sp)
   12ae8:	69e2                	ld	s3,24(sp)
   12aea:	6121                	addi	sp,sp,64
   12aec:	8082                	ret
   12aee:	00032537          	lui	a0,0x32
   12af2:	c4850513          	addi	a0,a0,-952 # 31c48 <__clzdi2+0xe1a>
   12af6:	f822                	sd	s0,48(sp)
   12af8:	f426                	sd	s1,40(sp)
   12afa:	f04a                	sd	s2,32(sp)
   12afc:	e852                	sd	s4,16(sp)
   12afe:	e456                	sd	s5,8(sp)
   12b00:	716140ef          	jal	27216 <puts>
   12b04:	00032537          	lui	a0,0x32
   12b08:	85ce                	mv	a1,s3
   12b0a:	ca050513          	addi	a0,a0,-864 # 31ca0 <__clzdi2+0xe72>
   12b0e:	52c140ef          	jal	2703a <printf>
   12b12:	557d                	li	a0,-1
   12b14:	ba3fd0ef          	jal	106b6 <exit>

0000000000012b18 <_Z14fit_vector_minPsPKsm>:
   12b18:	02000793          	li	a5,32
   12b1c:	00c7ee63          	bltu	a5,a2,12b38 <_Z14fit_vector_minPsPKsm+0x20>
   12b20:	872a                	mv	a4,a0
   12b22:	8532                	mv	a0,a2
   12b24:	1805200b          	.insn	4, 0x1805200b
   12b28:	852e                	mv	a0,a1
   12b2a:	1005208b          	.insn	4, 0x1005208b
   12b2e:	1610c50b          	.insn	4, 0x1610c50b
   12b32:	00a71023          	sh	a0,0(a4) # ffffffffffff8000 <__BSS_END__+0xfffffffffffb00d8>
   12b36:	8082                	ret
   12b38:	000316b7          	lui	a3,0x31
   12b3c:	00032637          	lui	a2,0x32
   12b40:	00032537          	lui	a0,0x32
   12b44:	1141                	addi	sp,sp,-16
   12b46:	56868693          	addi	a3,a3,1384 # 31568 <__clzdi2+0x73a>
   12b4a:	cc060613          	addi	a2,a2,-832 # 31cc0 <__clzdi2+0xe92>
   12b4e:	be050513          	addi	a0,a0,-1056 # 31be0 <__clzdi2+0xdb2>
   12b52:	03400593          	li	a1,52
   12b56:	e406                	sd	ra,8(sp)
   12b58:	2e7110ef          	jal	2463e <__assert_func>

0000000000012b5c <_Z16tiled_vector_minPsPKsm>:
   12b5c:	c155                	beqz	a0,12c00 <_Z16tiled_vector_minPsPKsm+0xa4>
   12b5e:	02000793          	li	a5,32
   12b62:	8e2a                	mv	t3,a0
   12b64:	06c7ff63          	bgeu	a5,a2,12be2 <_Z16tiled_vector_minPsPKsm+0x86>
   12b68:	6721                	lui	a4,0x8
   12b6a:	177d                	addi	a4,a4,-1 # 7fff <__cxa_bad_cast-0x8121>
   12b6c:	01f67e93          	andi	t4,a2,31
   12b70:	00565313          	srli	t1,a2,0x5
   12b74:	882e                	mv	a6,a1
   12b76:	4681                	li	a3,0
   12b78:	02000513          	li	a0,32
   12b7c:	1805200b          	.insn	4, 0x1805200b
   12b80:	8542                	mv	a0,a6
   12b82:	1005208b          	.insn	4, 0x1005208b
   12b86:	1610c50b          	.insn	4, 0x1610c50b
   12b8a:	0105189b          	slliw	a7,a0,0x10
   12b8e:	4108d89b          	sraiw	a7,a7,0x10
   12b92:	87aa                	mv	a5,a0
   12b94:	01175363          	bge	a4,a7,12b9a <_Z16tiled_vector_minPsPKsm+0x3e>
   12b98:	87ba                	mv	a5,a4
   12b9a:	0107971b          	slliw	a4,a5,0x10
   12b9e:	0685                	addi	a3,a3,1
   12ba0:	04080813          	addi	a6,a6,64
   12ba4:	4107571b          	sraiw	a4,a4,0x10
   12ba8:	fcd318e3          	bne	t1,a3,12b78 <_Z16tiled_vector_minPsPKsm+0x1c>
   12bac:	000e9563          	bnez	t4,12bb6 <_Z16tiled_vector_minPsPKsm+0x5a>
   12bb0:	00ee1023          	sh	a4,0(t3)
   12bb4:	8082                	ret
   12bb6:	41d60633          	sub	a2,a2,t4
   12bba:	0606                	slli	a2,a2,0x1
   12bbc:	8576                	mv	a0,t4
   12bbe:	1805200b          	.insn	4, 0x1805200b
   12bc2:	00c58533          	add	a0,a1,a2
   12bc6:	1005208b          	.insn	4, 0x1005208b
   12bca:	1610c50b          	.insn	4, 0x1610c50b
   12bce:	0105169b          	slliw	a3,a0,0x10
   12bd2:	4106d69b          	sraiw	a3,a3,0x10
   12bd6:	02d74263          	blt	a4,a3,12bfa <_Z16tiled_vector_minPsPKsm+0x9e>
   12bda:	872a                	mv	a4,a0
   12bdc:	00ee1023          	sh	a4,0(t3)
   12be0:	8082                	ret
   12be2:	8532                	mv	a0,a2
   12be4:	1805200b          	.insn	4, 0x1805200b
   12be8:	852e                	mv	a0,a1
   12bea:	1005208b          	.insn	4, 0x1005208b
   12bee:	1610c50b          	.insn	4, 0x1610c50b
   12bf2:	872a                	mv	a4,a0
   12bf4:	00ee1023          	sh	a4,0(t3)
   12bf8:	8082                	ret
   12bfa:	853e                	mv	a0,a5
   12bfc:	872a                	mv	a4,a0
   12bfe:	bff9                	j	12bdc <_Z16tiled_vector_minPsPKsm+0x80>
   12c00:	00032537          	lui	a0,0x32
   12c04:	1141                	addi	sp,sp,-16
   12c06:	cf850513          	addi	a0,a0,-776 # 31cf8 <__clzdi2+0xeca>
   12c0a:	e406                	sd	ra,8(sp)
   12c0c:	60a140ef          	jal	27216 <puts>
   12c10:	00031537          	lui	a0,0x31
   12c14:	34850513          	addi	a0,a0,840 # 31348 <__clzdi2+0x51a>
   12c18:	5fe140ef          	jal	27216 <puts>
   12c1c:	557d                	li	a0,-1
   12c1e:	a99fd0ef          	jal	106b6 <exit>

0000000000012c22 <_Z23tiled_matrix_vector_minPsPKsmm>:
   12c22:	7139                	addi	sp,sp,-64
   12c24:	ec4e                	sd	s3,24(sp)
   12c26:	fc06                	sd	ra,56(sp)
   12c28:	89b2                	mv	s3,a2
   12c2a:	c121                	beqz	a0,12c6a <_Z23tiled_matrix_vector_minPsPKsmm+0x48>
   12c2c:	ca1d                	beqz	a2,12c62 <_Z23tiled_matrix_vector_minPsPKsmm+0x40>
   12c2e:	f822                	sd	s0,48(sp)
   12c30:	f426                	sd	s1,40(sp)
   12c32:	f04a                	sd	s2,32(sp)
   12c34:	e852                	sd	s4,16(sp)
   12c36:	e456                	sd	s5,8(sp)
   12c38:	8a36                	mv	s4,a3
   12c3a:	842a                	mv	s0,a0
   12c3c:	84ae                	mv	s1,a1
   12c3e:	00169a93          	slli	s5,a3,0x1
   12c42:	4901                	li	s2,0
   12c44:	85a6                	mv	a1,s1
   12c46:	8522                	mv	a0,s0
   12c48:	8652                	mv	a2,s4
   12c4a:	0905                	addi	s2,s2,1
   12c4c:	f11ff0ef          	jal	12b5c <_Z16tiled_vector_minPsPKsm>
   12c50:	0409                	addi	s0,s0,2
   12c52:	94d6                	add	s1,s1,s5
   12c54:	ff2998e3          	bne	s3,s2,12c44 <_Z23tiled_matrix_vector_minPsPKsmm+0x22>
   12c58:	7442                	ld	s0,48(sp)
   12c5a:	74a2                	ld	s1,40(sp)
   12c5c:	7902                	ld	s2,32(sp)
   12c5e:	6a42                	ld	s4,16(sp)
   12c60:	6aa2                	ld	s5,8(sp)
   12c62:	70e2                	ld	ra,56(sp)
   12c64:	69e2                	ld	s3,24(sp)
   12c66:	6121                	addi	sp,sp,64
   12c68:	8082                	ret
   12c6a:	00032537          	lui	a0,0x32
   12c6e:	d4850513          	addi	a0,a0,-696 # 31d48 <__clzdi2+0xf1a>
   12c72:	f822                	sd	s0,48(sp)
   12c74:	f426                	sd	s1,40(sp)
   12c76:	f04a                	sd	s2,32(sp)
   12c78:	e852                	sd	s4,16(sp)
   12c7a:	e456                	sd	s5,8(sp)
   12c7c:	59a140ef          	jal	27216 <puts>
   12c80:	00032537          	lui	a0,0x32
   12c84:	85ce                	mv	a1,s3
   12c86:	ca050513          	addi	a0,a0,-864 # 31ca0 <__clzdi2+0xe72>
   12c8a:	3b0140ef          	jal	2703a <printf>
   12c8e:	557d                	li	a0,-1
   12c90:	a27fd0ef          	jal	106b6 <exit>

0000000000012c94 <_Z18fit_vector_dropoutPsPKssm>:
   12c94:	02000793          	li	a5,32
   12c98:	02d7e163          	bltu	a5,a3,12cba <_Z18fit_vector_dropoutPsPKssm+0x26>
   12c9c:	852e                	mv	a0,a1
   12c9e:	1005258b          	.insn	4, 0x1005258b
   12ca2:	8536                	mv	a0,a3
   12ca4:	1805200b          	.insn	4, 0x1805200b
   12ca8:	45ad                	li	a1,11
   12caa:	18c5b08b          	.insn	4, 0x18c5b08b
   12cae:	0205858b          	.insn	4, 0x0205858b
   12cb2:	567d                	li	a2,-1
   12cb4:	18c5b08b          	.insn	4, 0x18c5b08b
   12cb8:	8082                	ret
   12cba:	000316b7          	lui	a3,0x31
   12cbe:	00032637          	lui	a2,0x32
   12cc2:	00032537          	lui	a0,0x32
   12cc6:	1141                	addi	sp,sp,-16
   12cc8:	56868693          	addi	a3,a3,1384 # 31568 <__clzdi2+0x73a>
   12ccc:	da060613          	addi	a2,a2,-608 # 31da0 <__clzdi2+0xf72>
   12cd0:	be050513          	addi	a0,a0,-1056 # 31be0 <__clzdi2+0xdb2>
   12cd4:	06200593          	li	a1,98
   12cd8:	e406                	sd	ra,8(sp)
   12cda:	165110ef          	jal	2463e <__assert_func>

0000000000012cde <_Z13vector_argmaxPsPKsm>:
   12cde:	7139                	addi	sp,sp,-64
   12ce0:	f426                	sd	s1,40(sp)
   12ce2:	84aa                	mv	s1,a0
   12ce4:	01e10513          	addi	a0,sp,30
   12ce8:	f822                	sd	s0,48(sp)
   12cea:	e432                	sd	a2,8(sp)
   12cec:	fc06                	sd	ra,56(sp)
   12cee:	842e                	mv	s0,a1
   12cf0:	cf3ff0ef          	jal	129e2 <_Z16tiled_vector_maxPsPKsm>
   12cf4:	6622                	ld	a2,8(sp)
   12cf6:	c60d                	beqz	a2,12d20 <_Z13vector_argmaxPsPKsm+0x42>
   12cf8:	01e11683          	lh	a3,30(sp)
   12cfc:	85a2                	mv	a1,s0
   12cfe:	4781                	li	a5,0
   12d00:	a021                	j	12d08 <_Z13vector_argmaxPsPKsm+0x2a>
   12d02:	0785                	addi	a5,a5,1
   12d04:	00f60763          	beq	a2,a5,12d12 <_Z13vector_argmaxPsPKsm+0x34>
   12d08:	00059703          	lh	a4,0(a1)
   12d0c:	0589                	addi	a1,a1,2
   12d0e:	fed71ae3          	bne	a4,a3,12d02 <_Z13vector_argmaxPsPKsm+0x24>
   12d12:	70e2                	ld	ra,56(sp)
   12d14:	7442                	ld	s0,48(sp)
   12d16:	00f49023          	sh	a5,0(s1)
   12d1a:	74a2                	ld	s1,40(sp)
   12d1c:	6121                	addi	sp,sp,64
   12d1e:	8082                	ret
   12d20:	4781                	li	a5,0
   12d22:	bfc5                	j	12d12 <_Z13vector_argmaxPsPKsm+0x34>

0000000000012d24 <_Z20matrix_vector_argmaxPsPKsmm>:
   12d24:	715d                	addi	sp,sp,-80
   12d26:	f052                	sd	s4,32(sp)
   12d28:	e486                	sd	ra,72(sp)
   12d2a:	8a32                	mv	s4,a2
   12d2c:	c935                	beqz	a0,12da0 <_Z20matrix_vector_argmaxPsPKsmm+0x7c>
   12d2e:	ce21                	beqz	a2,12d86 <_Z20matrix_vector_argmaxPsPKsmm+0x62>
   12d30:	e0a2                	sd	s0,64(sp)
   12d32:	fc26                	sd	s1,56(sp)
   12d34:	f84a                	sd	s2,48(sp)
   12d36:	f44e                	sd	s3,40(sp)
   12d38:	ec56                	sd	s5,24(sp)
   12d3a:	8436                	mv	s0,a3
   12d3c:	84ae                	mv	s1,a1
   12d3e:	892a                	mv	s2,a0
   12d40:	00169a93          	slli	s5,a3,0x1
   12d44:	4981                	li	s3,0
   12d46:	8622                	mv	a2,s0
   12d48:	85a6                	mv	a1,s1
   12d4a:	00e10513          	addi	a0,sp,14
   12d4e:	c95ff0ef          	jal	129e2 <_Z16tiled_vector_maxPsPKsm>
   12d52:	cc15                	beqz	s0,12d8e <_Z20matrix_vector_argmaxPsPKsmm+0x6a>
   12d54:	00e11683          	lh	a3,14(sp)
   12d58:	8726                	mv	a4,s1
   12d5a:	4781                	li	a5,0
   12d5c:	a029                	j	12d66 <_Z20matrix_vector_argmaxPsPKsmm+0x42>
   12d5e:	0785                	addi	a5,a5,1
   12d60:	0709                	addi	a4,a4,2
   12d62:	00f40663          	beq	s0,a5,12d6e <_Z20matrix_vector_argmaxPsPKsmm+0x4a>
   12d66:	00071803          	lh	a6,0(a4)
   12d6a:	fed81ae3          	bne	a6,a3,12d5e <_Z20matrix_vector_argmaxPsPKsmm+0x3a>
   12d6e:	00f91023          	sh	a5,0(s2)
   12d72:	0985                	addi	s3,s3,1
   12d74:	94d6                	add	s1,s1,s5
   12d76:	0909                	addi	s2,s2,2
   12d78:	fd3a17e3          	bne	s4,s3,12d46 <_Z20matrix_vector_argmaxPsPKsmm+0x22>
   12d7c:	6406                	ld	s0,64(sp)
   12d7e:	74e2                	ld	s1,56(sp)
   12d80:	7942                	ld	s2,48(sp)
   12d82:	79a2                	ld	s3,40(sp)
   12d84:	6ae2                	ld	s5,24(sp)
   12d86:	60a6                	ld	ra,72(sp)
   12d88:	7a02                	ld	s4,32(sp)
   12d8a:	6161                	addi	sp,sp,80
   12d8c:	8082                	ret
   12d8e:	4781                	li	a5,0
   12d90:	00f91023          	sh	a5,0(s2)
   12d94:	0985                	addi	s3,s3,1
   12d96:	94d6                	add	s1,s1,s5
   12d98:	0909                	addi	s2,s2,2
   12d9a:	fb3a16e3          	bne	s4,s3,12d46 <_Z20matrix_vector_argmaxPsPKsmm+0x22>
   12d9e:	bff9                	j	12d7c <_Z20matrix_vector_argmaxPsPKsmm+0x58>
   12da0:	00032537          	lui	a0,0x32
   12da4:	de050513          	addi	a0,a0,-544 # 31de0 <__clzdi2+0xfb2>
   12da8:	e0a2                	sd	s0,64(sp)
   12daa:	fc26                	sd	s1,56(sp)
   12dac:	f84a                	sd	s2,48(sp)
   12dae:	f44e                	sd	s3,40(sp)
   12db0:	ec56                	sd	s5,24(sp)
   12db2:	464140ef          	jal	27216 <puts>
   12db6:	00032537          	lui	a0,0x32
   12dba:	85d2                	mv	a1,s4
   12dbc:	ca050513          	addi	a0,a0,-864 # 31ca0 <__clzdi2+0xe72>
   12dc0:	27a140ef          	jal	2703a <printf>
   12dc4:	557d                	li	a0,-1
   12dc6:	8f1fd0ef          	jal	106b6 <exit>

0000000000012dca <_Z12vector_shiftPsmm11direction_t>:
   12dca:	c215                	beqz	a2,12dee <_Z12vector_shiftPsmm11direction_t+0x24>
   12dcc:	c121                	beqz	a0,12e0c <_Z12vector_shiftPsmm11direction_t+0x42>
   12dce:	4785                	li	a5,1
   12dd0:	02f68063          	beq	a3,a5,12df0 <_Z12vector_shiftPsmm11direction_t+0x26>
   12dd4:	00159713          	slli	a4,a1,0x1
   12dd8:	972a                	add	a4,a4,a0
   12dda:	c985                	beqz	a1,12e0a <_Z12vector_shiftPsmm11direction_t+0x40>
   12ddc:	00051783          	lh	a5,0(a0)
   12de0:	0509                	addi	a0,a0,2
   12de2:	00c797bb          	sllw	a5,a5,a2
   12de6:	fef51f23          	sh	a5,-2(a0)
   12dea:	fea719e3          	bne	a4,a0,12ddc <_Z12vector_shiftPsmm11direction_t+0x12>
   12dee:	8082                	ret
   12df0:	ddfd                	beqz	a1,12dee <_Z12vector_shiftPsmm11direction_t+0x24>
   12df2:	0586                	slli	a1,a1,0x1
   12df4:	95aa                	add	a1,a1,a0
   12df6:	00051783          	lh	a5,0(a0)
   12dfa:	0509                	addi	a0,a0,2
   12dfc:	40c7d7bb          	sraw	a5,a5,a2
   12e00:	fef51f23          	sh	a5,-2(a0)
   12e04:	fea599e3          	bne	a1,a0,12df6 <_Z12vector_shiftPsmm11direction_t+0x2c>
   12e08:	8082                	ret
   12e0a:	8082                	ret
   12e0c:	00032537          	lui	a0,0x32
   12e10:	1101                	addi	sp,sp,-32
   12e12:	e3850513          	addi	a0,a0,-456 # 31e38 <__clzdi2+0x100a>
   12e16:	ec06                	sd	ra,24(sp)
   12e18:	e42e                	sd	a1,8(sp)
   12e1a:	3fc140ef          	jal	27216 <puts>
   12e1e:	65a2                	ld	a1,8(sp)
   12e20:	00032537          	lui	a0,0x32
   12e24:	e8850513          	addi	a0,a0,-376 # 31e88 <__clzdi2+0x105a>
   12e28:	212140ef          	jal	2703a <printf>
   12e2c:	557d                	li	a0,-1
   12e2e:	889fd0ef          	jal	106b6 <exit>

0000000000012e32 <_Z13mat_transposePsPKsmm>:
   12e32:	cd15                	beqz	a0,12e6e <_Z13mat_transposePsPKsmm+0x3c>
   12e34:	c611                	beqz	a2,12e40 <_Z13mat_transposePsPKsmm+0xe>
   12e36:	4881                	li	a7,0
   12e38:	e689                	bnez	a3,12e42 <_Z13mat_transposePsPKsmm+0x10>
   12e3a:	0885                	addi	a7,a7,1
   12e3c:	ff161fe3          	bne	a2,a7,12e3a <_Z13mat_transposePsPKsmm+0x8>
   12e40:	8082                	ret
   12e42:	00169313          	slli	t1,a3,0x1
   12e46:	959a                	add	a1,a1,t1
   12e48:	00161813          	slli	a6,a2,0x1
   12e4c:	406587b3          	sub	a5,a1,t1
   12e50:	872a                	mv	a4,a0
   12e52:	00079683          	lh	a3,0(a5)
   12e56:	0789                	addi	a5,a5,2
   12e58:	00d71023          	sh	a3,0(a4)
   12e5c:	9742                	add	a4,a4,a6
   12e5e:	fef59ae3          	bne	a1,a5,12e52 <_Z13mat_transposePsPKsmm+0x20>
   12e62:	0885                	addi	a7,a7,1
   12e64:	0509                	addi	a0,a0,2
   12e66:	959a                	add	a1,a1,t1
   12e68:	ff1612e3          	bne	a2,a7,12e4c <_Z13mat_transposePsPKsmm+0x1a>
   12e6c:	8082                	ret
   12e6e:	00032537          	lui	a0,0x32
   12e72:	1101                	addi	sp,sp,-32
   12e74:	ea850513          	addi	a0,a0,-344 # 31ea8 <__clzdi2+0x107a>
   12e78:	ec06                	sd	ra,24(sp)
   12e7a:	e436                	sd	a3,8(sp)
   12e7c:	e032                	sd	a2,0(sp)
   12e7e:	398140ef          	jal	27216 <puts>
   12e82:	6602                	ld	a2,0(sp)
   12e84:	65a2                	ld	a1,8(sp)
   12e86:	00032537          	lui	a0,0x32
   12e8a:	ef850513          	addi	a0,a0,-264 # 31ef8 <__clzdi2+0x10ca>
   12e8e:	1ac140ef          	jal	2703a <printf>
   12e92:	557d                	li	a0,-1
   12e94:	823fd0ef          	jal	106b6 <exit>

0000000000012e98 <_Z15fit_vector_reluPsPKsm>:
   12e98:	02000793          	li	a5,32
   12e9c:	00c7ef63          	bltu	a5,a2,12eba <_Z15fit_vector_reluPsPKsm+0x22>
   12ea0:	872a                	mv	a4,a0
   12ea2:	8532                	mv	a0,a2
   12ea4:	1805200b          	.insn	4, 0x1805200b
   12ea8:	852e                	mv	a0,a1
   12eaa:	1005208b          	.insn	4, 0x1005208b
   12eae:	0e00810b          	.insn	4, 0x0e00810b
   12eb2:	853a                	mv	a0,a4
   12eb4:	1225200b          	.insn	4, 0x1225200b
   12eb8:	8082                	ret
   12eba:	000316b7          	lui	a3,0x31
   12ebe:	00032637          	lui	a2,0x32
   12ec2:	00032537          	lui	a0,0x32
   12ec6:	1141                	addi	sp,sp,-16
   12ec8:	56868693          	addi	a3,a3,1384 # 31568 <__clzdi2+0x73a>
   12ecc:	f2060613          	addi	a2,a2,-224 # 31f20 <__clzdi2+0x10f2>
   12ed0:	f5850513          	addi	a0,a0,-168 # 31f58 <__clzdi2+0x112a>
   12ed4:	4599                	li	a1,6
   12ed6:	e406                	sd	ra,8(sp)
   12ed8:	766110ef          	jal	2463e <__assert_func>

0000000000012edc <_Z17tiled_vector_reluPsPKsm>:
   12edc:	c141                	beqz	a0,12f5c <_Z17tiled_vector_reluPsPKsm+0x80>
   12ede:	02000793          	li	a5,32
   12ee2:	88aa                	mv	a7,a0
   12ee4:	06c7f063          	bgeu	a5,a2,12f44 <_Z17tiled_vector_reluPsPKsm+0x68>
   12ee8:	01f67313          	andi	t1,a2,31
   12eec:	00565813          	srli	a6,a2,0x5
   12ef0:	86ae                	mv	a3,a1
   12ef2:	872a                	mv	a4,a0
   12ef4:	4781                	li	a5,0
   12ef6:	02000513          	li	a0,32
   12efa:	1805200b          	.insn	4, 0x1805200b
   12efe:	8536                	mv	a0,a3
   12f00:	1005208b          	.insn	4, 0x1005208b
   12f04:	0e00810b          	.insn	4, 0x0e00810b
   12f08:	853a                	mv	a0,a4
   12f0a:	1225200b          	.insn	4, 0x1225200b
   12f0e:	0785                	addi	a5,a5,1
   12f10:	04068693          	addi	a3,a3,64
   12f14:	04070713          	addi	a4,a4,64
   12f18:	fcf81fe3          	bne	a6,a5,12ef6 <_Z17tiled_vector_reluPsPKsm+0x1a>
   12f1c:	00031363          	bnez	t1,12f22 <_Z17tiled_vector_reluPsPKsm+0x46>
   12f20:	8082                	ret
   12f22:	40660633          	sub	a2,a2,t1
   12f26:	0606                	slli	a2,a2,0x1
   12f28:	851a                	mv	a0,t1
   12f2a:	1805200b          	.insn	4, 0x1805200b
   12f2e:	00c58533          	add	a0,a1,a2
   12f32:	1005208b          	.insn	4, 0x1005208b
   12f36:	0e00810b          	.insn	4, 0x0e00810b
   12f3a:	00c88533          	add	a0,a7,a2
   12f3e:	1225200b          	.insn	4, 0x1225200b
   12f42:	8082                	ret
   12f44:	8532                	mv	a0,a2
   12f46:	1805200b          	.insn	4, 0x1805200b
   12f4a:	852e                	mv	a0,a1
   12f4c:	1005208b          	.insn	4, 0x1005208b
   12f50:	0e00810b          	.insn	4, 0x0e00810b
   12f54:	8546                	mv	a0,a7
   12f56:	1225200b          	.insn	4, 0x1225200b
   12f5a:	8082                	ret
   12f5c:	00032537          	lui	a0,0x32
   12f60:	1101                	addi	sp,sp,-32
   12f62:	f7050513          	addi	a0,a0,-144 # 31f70 <__clzdi2+0x1142>
   12f66:	ec06                	sd	ra,24(sp)
   12f68:	e432                	sd	a2,8(sp)
   12f6a:	2ac140ef          	jal	27216 <puts>
   12f6e:	65a2                	ld	a1,8(sp)
   12f70:	00031537          	lui	a0,0x31
   12f74:	63050513          	addi	a0,a0,1584 # 31630 <__clzdi2+0x802>
   12f78:	0c2140ef          	jal	2703a <printf>
   12f7c:	557d                	li	a0,-1
   12f7e:	f38fd0ef          	jal	106b6 <exit>

0000000000012f82 <_Z17tiled_matrix_reluPsPKsmm>:
   12f82:	7139                	addi	sp,sp,-64
   12f84:	e852                	sd	s4,16(sp)
   12f86:	e456                	sd	s5,8(sp)
   12f88:	fc06                	sd	ra,56(sp)
   12f8a:	8a32                	mv	s4,a2
   12f8c:	8ab6                	mv	s5,a3
   12f8e:	cd15                	beqz	a0,12fca <_Z17tiled_matrix_reluPsPKsmm+0x48>
   12f90:	ca05                	beqz	a2,12fc0 <_Z17tiled_matrix_reluPsPKsmm+0x3e>
   12f92:	f822                	sd	s0,48(sp)
   12f94:	f426                	sd	s1,40(sp)
   12f96:	f04a                	sd	s2,32(sp)
   12f98:	ec4e                	sd	s3,24(sp)
   12f9a:	842a                	mv	s0,a0
   12f9c:	84ae                	mv	s1,a1
   12f9e:	00169993          	slli	s3,a3,0x1
   12fa2:	4901                	li	s2,0
   12fa4:	85a6                	mv	a1,s1
   12fa6:	8522                	mv	a0,s0
   12fa8:	8656                	mv	a2,s5
   12faa:	0905                	addi	s2,s2,1
   12fac:	f31ff0ef          	jal	12edc <_Z17tiled_vector_reluPsPKsm>
   12fb0:	944e                	add	s0,s0,s3
   12fb2:	94ce                	add	s1,s1,s3
   12fb4:	ff2a18e3          	bne	s4,s2,12fa4 <_Z17tiled_matrix_reluPsPKsmm+0x22>
   12fb8:	7442                	ld	s0,48(sp)
   12fba:	74a2                	ld	s1,40(sp)
   12fbc:	7902                	ld	s2,32(sp)
   12fbe:	69e2                	ld	s3,24(sp)
   12fc0:	70e2                	ld	ra,56(sp)
   12fc2:	6a42                	ld	s4,16(sp)
   12fc4:	6aa2                	ld	s5,8(sp)
   12fc6:	6121                	addi	sp,sp,64
   12fc8:	8082                	ret
   12fca:	00032537          	lui	a0,0x32
   12fce:	fc850513          	addi	a0,a0,-56 # 31fc8 <__clzdi2+0x119a>
   12fd2:	f822                	sd	s0,48(sp)
   12fd4:	f426                	sd	s1,40(sp)
   12fd6:	f04a                	sd	s2,32(sp)
   12fd8:	ec4e                	sd	s3,24(sp)
   12fda:	23c140ef          	jal	27216 <puts>
   12fde:	00032537          	lui	a0,0x32
   12fe2:	8656                	mv	a2,s5
   12fe4:	85d2                	mv	a1,s4
   12fe6:	02050513          	addi	a0,a0,32 # 32020 <__clzdi2+0x11f2>
   12fea:	050140ef          	jal	2703a <printf>
   12fee:	557d                	li	a0,-1
   12ff0:	ec6fd0ef          	jal	106b6 <exit>

0000000000012ff4 <_Z15fit_vector_tanhPsPKsm>:
   12ff4:	02000793          	li	a5,32
   12ff8:	00c7ef63          	bltu	a5,a2,13016 <_Z15fit_vector_tanhPsPKsm+0x22>
   12ffc:	872a                	mv	a4,a0
   12ffe:	8532                	mv	a0,a2
   13000:	1805200b          	.insn	4, 0x1805200b
   13004:	852e                	mv	a0,a1
   13006:	1005208b          	.insn	4, 0x1005208b
   1300a:	0e10810b          	.insn	4, 0x0e10810b
   1300e:	853a                	mv	a0,a4
   13010:	1225200b          	.insn	4, 0x1225200b
   13014:	8082                	ret
   13016:	000316b7          	lui	a3,0x31
   1301a:	00032637          	lui	a2,0x32
   1301e:	00032537          	lui	a0,0x32
   13022:	1141                	addi	sp,sp,-16
   13024:	56868693          	addi	a3,a3,1384 # 31568 <__clzdi2+0x73a>
   13028:	05060613          	addi	a2,a2,80 # 32050 <__clzdi2+0x1222>
   1302c:	f5850513          	addi	a0,a0,-168 # 31f58 <__clzdi2+0x112a>
   13030:	03100593          	li	a1,49
   13034:	e406                	sd	ra,8(sp)
   13036:	608110ef          	jal	2463e <__assert_func>

000000000001303a <_Z17tiled_vector_tanhPsPKsm>:
   1303a:	c141                	beqz	a0,130ba <_Z17tiled_vector_tanhPsPKsm+0x80>
   1303c:	02000793          	li	a5,32
   13040:	88aa                	mv	a7,a0
   13042:	06c7f063          	bgeu	a5,a2,130a2 <_Z17tiled_vector_tanhPsPKsm+0x68>
   13046:	01f67313          	andi	t1,a2,31
   1304a:	00565813          	srli	a6,a2,0x5
   1304e:	86ae                	mv	a3,a1
   13050:	872a                	mv	a4,a0
   13052:	4781                	li	a5,0
   13054:	02000513          	li	a0,32
   13058:	1805200b          	.insn	4, 0x1805200b
   1305c:	8536                	mv	a0,a3
   1305e:	1005208b          	.insn	4, 0x1005208b
   13062:	0e10810b          	.insn	4, 0x0e10810b
   13066:	853a                	mv	a0,a4
   13068:	1225200b          	.insn	4, 0x1225200b
   1306c:	0785                	addi	a5,a5,1
   1306e:	04068693          	addi	a3,a3,64
   13072:	04070713          	addi	a4,a4,64
   13076:	fcf81fe3          	bne	a6,a5,13054 <_Z17tiled_vector_tanhPsPKsm+0x1a>
   1307a:	00031363          	bnez	t1,13080 <_Z17tiled_vector_tanhPsPKsm+0x46>
   1307e:	8082                	ret
   13080:	40660633          	sub	a2,a2,t1
   13084:	0606                	slli	a2,a2,0x1
   13086:	851a                	mv	a0,t1
   13088:	1805200b          	.insn	4, 0x1805200b
   1308c:	00c58533          	add	a0,a1,a2
   13090:	1005208b          	.insn	4, 0x1005208b
   13094:	0e10810b          	.insn	4, 0x0e10810b
   13098:	00c88533          	add	a0,a7,a2
   1309c:	1225200b          	.insn	4, 0x1225200b
   130a0:	8082                	ret
   130a2:	8532                	mv	a0,a2
   130a4:	1805200b          	.insn	4, 0x1805200b
   130a8:	852e                	mv	a0,a1
   130aa:	1005208b          	.insn	4, 0x1005208b
   130ae:	0e10810b          	.insn	4, 0x0e10810b
   130b2:	8546                	mv	a0,a7
   130b4:	1225200b          	.insn	4, 0x1225200b
   130b8:	8082                	ret
   130ba:	00032537          	lui	a0,0x32
   130be:	1101                	addi	sp,sp,-32
   130c0:	08850513          	addi	a0,a0,136 # 32088 <__clzdi2+0x125a>
   130c4:	ec06                	sd	ra,24(sp)
   130c6:	e432                	sd	a2,8(sp)
   130c8:	14e140ef          	jal	27216 <puts>
   130cc:	65a2                	ld	a1,8(sp)
   130ce:	00031537          	lui	a0,0x31
   130d2:	63050513          	addi	a0,a0,1584 # 31630 <__clzdi2+0x802>
   130d6:	765130ef          	jal	2703a <printf>
   130da:	557d                	li	a0,-1
   130dc:	ddafd0ef          	jal	106b6 <exit>

00000000000130e0 <_Z17tiled_matrix_tanhPsPKsmm>:
   130e0:	7139                	addi	sp,sp,-64
   130e2:	e852                	sd	s4,16(sp)
   130e4:	e456                	sd	s5,8(sp)
   130e6:	fc06                	sd	ra,56(sp)
   130e8:	8a32                	mv	s4,a2
   130ea:	8ab6                	mv	s5,a3
   130ec:	cd15                	beqz	a0,13128 <_Z17tiled_matrix_tanhPsPKsmm+0x48>
   130ee:	ca05                	beqz	a2,1311e <_Z17tiled_matrix_tanhPsPKsmm+0x3e>
   130f0:	f822                	sd	s0,48(sp)
   130f2:	f426                	sd	s1,40(sp)
   130f4:	f04a                	sd	s2,32(sp)
   130f6:	ec4e                	sd	s3,24(sp)
   130f8:	842a                	mv	s0,a0
   130fa:	84ae                	mv	s1,a1
   130fc:	00169993          	slli	s3,a3,0x1
   13100:	4901                	li	s2,0
   13102:	85a6                	mv	a1,s1
   13104:	8522                	mv	a0,s0
   13106:	8656                	mv	a2,s5
   13108:	0905                	addi	s2,s2,1
   1310a:	f31ff0ef          	jal	1303a <_Z17tiled_vector_tanhPsPKsm>
   1310e:	944e                	add	s0,s0,s3
   13110:	94ce                	add	s1,s1,s3
   13112:	ff2a18e3          	bne	s4,s2,13102 <_Z17tiled_matrix_tanhPsPKsmm+0x22>
   13116:	7442                	ld	s0,48(sp)
   13118:	74a2                	ld	s1,40(sp)
   1311a:	7902                	ld	s2,32(sp)
   1311c:	69e2                	ld	s3,24(sp)
   1311e:	70e2                	ld	ra,56(sp)
   13120:	6a42                	ld	s4,16(sp)
   13122:	6aa2                	ld	s5,8(sp)
   13124:	6121                	addi	sp,sp,64
   13126:	8082                	ret
   13128:	00032537          	lui	a0,0x32
   1312c:	0e050513          	addi	a0,a0,224 # 320e0 <__clzdi2+0x12b2>
   13130:	f822                	sd	s0,48(sp)
   13132:	f426                	sd	s1,40(sp)
   13134:	f04a                	sd	s2,32(sp)
   13136:	ec4e                	sd	s3,24(sp)
   13138:	0de140ef          	jal	27216 <puts>
   1313c:	00032537          	lui	a0,0x32
   13140:	8656                	mv	a2,s5
   13142:	85d2                	mv	a1,s4
   13144:	02050513          	addi	a0,a0,32 # 32020 <__clzdi2+0x11f2>
   13148:	6f3130ef          	jal	2703a <printf>
   1314c:	557d                	li	a0,-1
   1314e:	d68fd0ef          	jal	106b6 <exit>

0000000000013152 <_Z18fit_vector_sigmoidPsPKsm>:
   13152:	02000793          	li	a5,32
   13156:	00c7ef63          	bltu	a5,a2,13174 <_Z18fit_vector_sigmoidPsPKsm+0x22>
   1315a:	872a                	mv	a4,a0
   1315c:	8532                	mv	a0,a2
   1315e:	1805200b          	.insn	4, 0x1805200b
   13162:	852e                	mv	a0,a1
   13164:	1005208b          	.insn	4, 0x1005208b
   13168:	0e20810b          	.insn	4, 0x0e20810b
   1316c:	853a                	mv	a0,a4
   1316e:	1225200b          	.insn	4, 0x1225200b
   13172:	8082                	ret
   13174:	000316b7          	lui	a3,0x31
   13178:	00032637          	lui	a2,0x32
   1317c:	00032537          	lui	a0,0x32
   13180:	1141                	addi	sp,sp,-16
   13182:	56868693          	addi	a3,a3,1384 # 31568 <__clzdi2+0x73a>
   13186:	13860613          	addi	a2,a2,312 # 32138 <__clzdi2+0x130a>
   1318a:	f5850513          	addi	a0,a0,-168 # 31f58 <__clzdi2+0x112a>
   1318e:	05c00593          	li	a1,92
   13192:	e406                	sd	ra,8(sp)
   13194:	4aa110ef          	jal	2463e <__assert_func>

0000000000013198 <_Z20tiled_vector_sigmoidPsPKsm>:
   13198:	c141                	beqz	a0,13218 <_Z20tiled_vector_sigmoidPsPKsm+0x80>
   1319a:	02000793          	li	a5,32
   1319e:	88aa                	mv	a7,a0
   131a0:	06c7f063          	bgeu	a5,a2,13200 <_Z20tiled_vector_sigmoidPsPKsm+0x68>
   131a4:	01f67313          	andi	t1,a2,31
   131a8:	00565813          	srli	a6,a2,0x5
   131ac:	86ae                	mv	a3,a1
   131ae:	872a                	mv	a4,a0
   131b0:	4781                	li	a5,0
   131b2:	02000513          	li	a0,32
   131b6:	1805200b          	.insn	4, 0x1805200b
   131ba:	8536                	mv	a0,a3
   131bc:	1005208b          	.insn	4, 0x1005208b
   131c0:	0e20810b          	.insn	4, 0x0e20810b
   131c4:	853a                	mv	a0,a4
   131c6:	1225200b          	.insn	4, 0x1225200b
   131ca:	0785                	addi	a5,a5,1
   131cc:	04068693          	addi	a3,a3,64
   131d0:	04070713          	addi	a4,a4,64
   131d4:	fcf81fe3          	bne	a6,a5,131b2 <_Z20tiled_vector_sigmoidPsPKsm+0x1a>
   131d8:	00031363          	bnez	t1,131de <_Z20tiled_vector_sigmoidPsPKsm+0x46>
   131dc:	8082                	ret
   131de:	40660633          	sub	a2,a2,t1
   131e2:	0606                	slli	a2,a2,0x1
   131e4:	851a                	mv	a0,t1
   131e6:	1805200b          	.insn	4, 0x1805200b
   131ea:	00c58533          	add	a0,a1,a2
   131ee:	1005208b          	.insn	4, 0x1005208b
   131f2:	0e20810b          	.insn	4, 0x0e20810b
   131f6:	00c88533          	add	a0,a7,a2
   131fa:	1225200b          	.insn	4, 0x1225200b
   131fe:	8082                	ret
   13200:	8532                	mv	a0,a2
   13202:	1805200b          	.insn	4, 0x1805200b
   13206:	852e                	mv	a0,a1
   13208:	1005208b          	.insn	4, 0x1005208b
   1320c:	0e20810b          	.insn	4, 0x0e20810b
   13210:	8546                	mv	a0,a7
   13212:	1225200b          	.insn	4, 0x1225200b
   13216:	8082                	ret
   13218:	00032537          	lui	a0,0x32
   1321c:	1101                	addi	sp,sp,-32
   1321e:	17050513          	addi	a0,a0,368 # 32170 <__clzdi2+0x1342>
   13222:	ec06                	sd	ra,24(sp)
   13224:	e432                	sd	a2,8(sp)
   13226:	7f1130ef          	jal	27216 <puts>
   1322a:	65a2                	ld	a1,8(sp)
   1322c:	00031537          	lui	a0,0x31
   13230:	63050513          	addi	a0,a0,1584 # 31630 <__clzdi2+0x802>
   13234:	607130ef          	jal	2703a <printf>
   13238:	557d                	li	a0,-1
   1323a:	c7cfd0ef          	jal	106b6 <exit>

000000000001323e <_Z20tiled_matrix_sigmoidPsPKsmm>:
   1323e:	7139                	addi	sp,sp,-64
   13240:	e852                	sd	s4,16(sp)
   13242:	e456                	sd	s5,8(sp)
   13244:	fc06                	sd	ra,56(sp)
   13246:	8a32                	mv	s4,a2
   13248:	8ab6                	mv	s5,a3
   1324a:	cd15                	beqz	a0,13286 <_Z20tiled_matrix_sigmoidPsPKsmm+0x48>
   1324c:	ca05                	beqz	a2,1327c <_Z20tiled_matrix_sigmoidPsPKsmm+0x3e>
   1324e:	f822                	sd	s0,48(sp)
   13250:	f426                	sd	s1,40(sp)
   13252:	f04a                	sd	s2,32(sp)
   13254:	ec4e                	sd	s3,24(sp)
   13256:	842a                	mv	s0,a0
   13258:	84ae                	mv	s1,a1
   1325a:	00169993          	slli	s3,a3,0x1
   1325e:	4901                	li	s2,0
   13260:	85a6                	mv	a1,s1
   13262:	8522                	mv	a0,s0
   13264:	8656                	mv	a2,s5
   13266:	0905                	addi	s2,s2,1
   13268:	f31ff0ef          	jal	13198 <_Z20tiled_vector_sigmoidPsPKsm>
   1326c:	944e                	add	s0,s0,s3
   1326e:	94ce                	add	s1,s1,s3
   13270:	ff2a18e3          	bne	s4,s2,13260 <_Z20tiled_matrix_sigmoidPsPKsmm+0x22>
   13274:	7442                	ld	s0,48(sp)
   13276:	74a2                	ld	s1,40(sp)
   13278:	7902                	ld	s2,32(sp)
   1327a:	69e2                	ld	s3,24(sp)
   1327c:	70e2                	ld	ra,56(sp)
   1327e:	6a42                	ld	s4,16(sp)
   13280:	6aa2                	ld	s5,8(sp)
   13282:	6121                	addi	sp,sp,64
   13284:	8082                	ret
   13286:	00032537          	lui	a0,0x32
   1328a:	1c850513          	addi	a0,a0,456 # 321c8 <__clzdi2+0x139a>
   1328e:	f822                	sd	s0,48(sp)
   13290:	f426                	sd	s1,40(sp)
   13292:	f04a                	sd	s2,32(sp)
   13294:	ec4e                	sd	s3,24(sp)
   13296:	781130ef          	jal	27216 <puts>
   1329a:	00032537          	lui	a0,0x32
   1329e:	8656                	mv	a2,s5
   132a0:	85d2                	mv	a1,s4
   132a2:	02050513          	addi	a0,a0,32 # 32020 <__clzdi2+0x11f2>
   132a6:	595130ef          	jal	2703a <printf>
   132aa:	557d                	li	a0,-1
   132ac:	c0afd0ef          	jal	106b6 <exit>

00000000000132b0 <_Z11fit_dotprodPsPKsS1_m>:
   132b0:	47a1                	li	a5,8
   132b2:	02d7e163          	bltu	a5,a3,132d4 <_Z11fit_dotprodPsPKsS1_m+0x24>
   132b6:	872a                	mv	a4,a0
   132b8:	8536                	mv	a0,a3
   132ba:	1805200b          	.insn	4, 0x1805200b
   132be:	852e                	mv	a0,a1
   132c0:	1005208b          	.insn	4, 0x1005208b
   132c4:	8532                	mv	a0,a2
   132c6:	1005210b          	.insn	4, 0x1005210b
   132ca:	1a20c50b          	.insn	4, 0x1a20c50b
   132ce:	00a71023          	sh	a0,0(a4)
   132d2:	8082                	ret
   132d4:	000326b7          	lui	a3,0x32
   132d8:	00032637          	lui	a2,0x32
   132dc:	00032537          	lui	a0,0x32
   132e0:	1141                	addi	sp,sp,-16
   132e2:	22068693          	addi	a3,a3,544 # 32220 <__clzdi2+0x13f2>
   132e6:	23860613          	addi	a2,a2,568 # 32238 <__clzdi2+0x140a>
   132ea:	27850513          	addi	a0,a0,632 # 32278 <__clzdi2+0x144a>
   132ee:	4591                	li	a1,4
   132f0:	e406                	sd	ra,8(sp)
   132f2:	34c110ef          	jal	2463e <__assert_func>

00000000000132f6 <_Z13tiled_dotprodPsPKsS1_m>:
   132f6:	47a1                	li	a5,8
   132f8:	8eaa                	mv	t4,a0
   132fa:	06d7fa63          	bgeu	a5,a3,1336e <_Z13tiled_dotprodPsPKsS1_m+0x78>
   132fe:	0076ff13          	andi	t5,a3,7
   13302:	0036de13          	srli	t3,a3,0x3
   13306:	88ae                	mv	a7,a1
   13308:	8832                	mv	a6,a2
   1330a:	4301                	li	t1,0
   1330c:	4701                	li	a4,0
   1330e:	4521                	li	a0,8
   13310:	1805200b          	.insn	4, 0x1805200b
   13314:	8546                	mv	a0,a7
   13316:	1005208b          	.insn	4, 0x1005208b
   1331a:	8542                	mv	a0,a6
   1331c:	1005210b          	.insn	4, 0x1005210b
   13320:	1a20c50b          	.insn	4, 0x1a20c50b
   13324:	00a307bb          	addw	a5,t1,a0
   13328:	0107931b          	slliw	t1,a5,0x10
   1332c:	0705                	addi	a4,a4,1
   1332e:	08c1                	addi	a7,a7,16
   13330:	0841                	addi	a6,a6,16
   13332:	4103531b          	sraiw	t1,t1,0x10
   13336:	fcee1ce3          	bne	t3,a4,1330e <_Z13tiled_dotprodPsPKsS1_m+0x18>
   1333a:	000f1563          	bnez	t5,13344 <_Z13tiled_dotprodPsPKsS1_m+0x4e>
   1333e:	006e9023          	sh	t1,0(t4)
   13342:	8082                	ret
   13344:	41e686b3          	sub	a3,a3,t5
   13348:	0686                	slli	a3,a3,0x1
   1334a:	857a                	mv	a0,t5
   1334c:	1805200b          	.insn	4, 0x1805200b
   13350:	00d58533          	add	a0,a1,a3
   13354:	1005208b          	.insn	4, 0x1005208b
   13358:	00d60533          	add	a0,a2,a3
   1335c:	1005210b          	.insn	4, 0x1005210b
   13360:	1a20c50b          	.insn	4, 0x1a20c50b
   13364:	00f5033b          	addw	t1,a0,a5
   13368:	006e9023          	sh	t1,0(t4)
   1336c:	8082                	ret
   1336e:	8536                	mv	a0,a3
   13370:	1805200b          	.insn	4, 0x1805200b
   13374:	852e                	mv	a0,a1
   13376:	1005208b          	.insn	4, 0x1005208b
   1337a:	8532                	mv	a0,a2
   1337c:	1005210b          	.insn	4, 0x1005210b
   13380:	1a20c50b          	.insn	4, 0x1a20c50b
   13384:	832a                	mv	t1,a0
   13386:	006e9023          	sh	t1,0(t4)
   1338a:	8082                	ret

000000000001338c <_Z9tiled_mvmPsPKsS1_mm>:
   1338c:	7139                	addi	sp,sp,-64
   1338e:	ec4e                	sd	s3,24(sp)
   13390:	fc06                	sd	ra,56(sp)
   13392:	89b6                	mv	s3,a3
   13394:	c521                	beqz	a0,133dc <_Z9tiled_mvmPsPKsS1_mm+0x50>
   13396:	ce9d                	beqz	a3,133d4 <_Z9tiled_mvmPsPKsS1_mm+0x48>
   13398:	f822                	sd	s0,48(sp)
   1339a:	f426                	sd	s1,40(sp)
   1339c:	f04a                	sd	s2,32(sp)
   1339e:	e852                	sd	s4,16(sp)
   133a0:	e456                	sd	s5,8(sp)
   133a2:	e05a                	sd	s6,0(sp)
   133a4:	8ab2                	mv	s5,a2
   133a6:	8a3a                	mv	s4,a4
   133a8:	842a                	mv	s0,a0
   133aa:	84ae                	mv	s1,a1
   133ac:	00171b13          	slli	s6,a4,0x1
   133b0:	4901                	li	s2,0
   133b2:	85a6                	mv	a1,s1
   133b4:	8522                	mv	a0,s0
   133b6:	86d2                	mv	a3,s4
   133b8:	8656                	mv	a2,s5
   133ba:	0905                	addi	s2,s2,1
   133bc:	f3bff0ef          	jal	132f6 <_Z13tiled_dotprodPsPKsS1_m>
   133c0:	0409                	addi	s0,s0,2
   133c2:	94da                	add	s1,s1,s6
   133c4:	ff2997e3          	bne	s3,s2,133b2 <_Z9tiled_mvmPsPKsS1_mm+0x26>
   133c8:	7442                	ld	s0,48(sp)
   133ca:	74a2                	ld	s1,40(sp)
   133cc:	7902                	ld	s2,32(sp)
   133ce:	6a42                	ld	s4,16(sp)
   133d0:	6aa2                	ld	s5,8(sp)
   133d2:	6b02                	ld	s6,0(sp)
   133d4:	70e2                	ld	ra,56(sp)
   133d6:	69e2                	ld	s3,24(sp)
   133d8:	6121                	addi	sp,sp,64
   133da:	8082                	ret
   133dc:	00032537          	lui	a0,0x32
   133e0:	29050513          	addi	a0,a0,656 # 32290 <__clzdi2+0x1462>
   133e4:	f822                	sd	s0,48(sp)
   133e6:	f426                	sd	s1,40(sp)
   133e8:	f04a                	sd	s2,32(sp)
   133ea:	e852                	sd	s4,16(sp)
   133ec:	e456                	sd	s5,8(sp)
   133ee:	e05a                	sd	s6,0(sp)
   133f0:	627130ef          	jal	27216 <puts>
   133f4:	00032537          	lui	a0,0x32
   133f8:	85ce                	mv	a1,s3
   133fa:	ca050513          	addi	a0,a0,-864 # 31ca0 <__clzdi2+0xe72>
   133fe:	43d130ef          	jal	2703a <printf>
   13402:	557d                	li	a0,-1
   13404:	ab2fd0ef          	jal	106b6 <exit>

0000000000013408 <_Z22tiled_matmul_transposePsPKsS1_mmm>:
   13408:	7159                	addi	sp,sp,-112
   1340a:	e4ce                	sd	s3,72(sp)
   1340c:	f062                	sd	s8,32(sp)
   1340e:	f486                	sd	ra,104(sp)
   13410:	89b6                	mv	s3,a3
   13412:	8c3e                	mv	s8,a5
   13414:	c92d                	beqz	a0,13486 <_Z22tiled_matmul_transposePsPKsS1_mmm+0x7e>
   13416:	c3bd                	beqz	a5,1347c <_Z22tiled_matmul_transposePsPKsS1_mmm+0x74>
   13418:	c2b5                	beqz	a3,1347c <_Z22tiled_matmul_transposePsPKsS1_mmm+0x74>
   1341a:	e8ca                	sd	s2,80(sp)
   1341c:	e0d2                	sd	s4,64(sp)
   1341e:	fc56                	sd	s5,56(sp)
   13420:	f85a                	sd	s6,48(sp)
   13422:	f45e                	sd	s7,40(sp)
   13424:	ec66                	sd	s9,24(sp)
   13426:	e86a                	sd	s10,16(sp)
   13428:	f0a2                	sd	s0,96(sp)
   1342a:	eca6                	sd	s1,88(sp)
   1342c:	e46e                	sd	s11,8(sp)
   1342e:	8caa                	mv	s9,a0
   13430:	8d2e                	mv	s10,a1
   13432:	8aba                	mv	s5,a4
   13434:	8932                	mv	s2,a2
   13436:	00171a13          	slli	s4,a4,0x1
   1343a:	4b81                	li	s7,0
   1343c:	4b01                	li	s6,0
   1343e:	001b9413          	slli	s0,s7,0x1
   13442:	9466                	add	s0,s0,s9
   13444:	8dea                	mv	s11,s10
   13446:	4481                	li	s1,0
   13448:	85ee                	mv	a1,s11
   1344a:	8522                	mv	a0,s0
   1344c:	86d6                	mv	a3,s5
   1344e:	864a                	mv	a2,s2
   13450:	0485                	addi	s1,s1,1
   13452:	ea5ff0ef          	jal	132f6 <_Z13tiled_dotprodPsPKsS1_m>
   13456:	0409                	addi	s0,s0,2
   13458:	9dd2                	add	s11,s11,s4
   1345a:	fe9997e3          	bne	s3,s1,13448 <_Z22tiled_matmul_transposePsPKsS1_mmm+0x40>
   1345e:	0b05                	addi	s6,s6,1
   13460:	9bce                	add	s7,s7,s3
   13462:	9952                	add	s2,s2,s4
   13464:	fd8b1de3          	bne	s6,s8,1343e <_Z22tiled_matmul_transposePsPKsS1_mmm+0x36>
   13468:	7406                	ld	s0,96(sp)
   1346a:	64e6                	ld	s1,88(sp)
   1346c:	6946                	ld	s2,80(sp)
   1346e:	6a06                	ld	s4,64(sp)
   13470:	7ae2                	ld	s5,56(sp)
   13472:	7b42                	ld	s6,48(sp)
   13474:	7ba2                	ld	s7,40(sp)
   13476:	6ce2                	ld	s9,24(sp)
   13478:	6d42                	ld	s10,16(sp)
   1347a:	6da2                	ld	s11,8(sp)
   1347c:	70a6                	ld	ra,104(sp)
   1347e:	69a6                	ld	s3,72(sp)
   13480:	7c02                	ld	s8,32(sp)
   13482:	6165                	addi	sp,sp,112
   13484:	8082                	ret
   13486:	00032537          	lui	a0,0x32
   1348a:	2e050513          	addi	a0,a0,736 # 322e0 <__clzdi2+0x14b2>
   1348e:	f0a2                	sd	s0,96(sp)
   13490:	eca6                	sd	s1,88(sp)
   13492:	e8ca                	sd	s2,80(sp)
   13494:	e0d2                	sd	s4,64(sp)
   13496:	fc56                	sd	s5,56(sp)
   13498:	f85a                	sd	s6,48(sp)
   1349a:	f45e                	sd	s7,40(sp)
   1349c:	ec66                	sd	s9,24(sp)
   1349e:	e86a                	sd	s10,16(sp)
   134a0:	e46e                	sd	s11,8(sp)
   134a2:	575130ef          	jal	27216 <puts>
   134a6:	00032537          	lui	a0,0x32
   134aa:	864e                	mv	a2,s3
   134ac:	85e2                	mv	a1,s8
   134ae:	33850513          	addi	a0,a0,824 # 32338 <__clzdi2+0x150a>
   134b2:	389130ef          	jal	2703a <printf>
   134b6:	557d                	li	a0,-1
   134b8:	9fefd0ef          	jal	106b6 <exit>

00000000000134bc <_Z21tiled_dotprod_stridedPsPKsS1_mm>:
   134bc:	47a1                	li	a5,8
   134be:	8eaa                	mv	t4,a0
   134c0:	06d7f963          	bgeu	a5,a3,13532 <_Z21tiled_dotprod_stridedPsPKsS1_mm+0x76>
   134c4:	0076ff13          	andi	t5,a3,7
   134c8:	0706                	slli	a4,a4,0x1
   134ca:	828d                	srli	a3,a3,0x3
   134cc:	832e                	mv	t1,a1
   134ce:	88b2                	mv	a7,a2
   134d0:	4e01                	li	t3,0
   134d2:	4801                	li	a6,0
   134d4:	4521                	li	a0,8
   134d6:	1805200b          	.insn	4, 0x1805200b
   134da:	851a                	mv	a0,t1
   134dc:	1005208b          	.insn	4, 0x1005208b
   134e0:	8546                	mv	a0,a7
   134e2:	1005210b          	.insn	4, 0x1005210b
   134e6:	1a20c50b          	.insn	4, 0x1a20c50b
   134ea:	00ae07bb          	addw	a5,t3,a0
   134ee:	01079e1b          	slliw	t3,a5,0x10
   134f2:	0805                	addi	a6,a6,1
   134f4:	933a                	add	t1,t1,a4
   134f6:	98ba                	add	a7,a7,a4
   134f8:	410e5e1b          	sraiw	t3,t3,0x10
   134fc:	fd069ce3          	bne	a3,a6,134d4 <_Z21tiled_dotprod_stridedPsPKsS1_mm+0x18>
   13500:	000f1563          	bnez	t5,1350a <_Z21tiled_dotprod_stridedPsPKsS1_mm+0x4e>
   13504:	01ce9023          	sh	t3,0(t4)
   13508:	8082                	ret
   1350a:	02d70733          	mul	a4,a4,a3
   1350e:	857a                	mv	a0,t5
   13510:	1805200b          	.insn	4, 0x1805200b
   13514:	00e58533          	add	a0,a1,a4
   13518:	1005208b          	.insn	4, 0x1005208b
   1351c:	00e60533          	add	a0,a2,a4
   13520:	1005210b          	.insn	4, 0x1005210b
   13524:	1a20c50b          	.insn	4, 0x1a20c50b
   13528:	00f50e3b          	addw	t3,a0,a5
   1352c:	01ce9023          	sh	t3,0(t4)
   13530:	8082                	ret
   13532:	8536                	mv	a0,a3
   13534:	1805200b          	.insn	4, 0x1805200b
   13538:	852e                	mv	a0,a1
   1353a:	1005208b          	.insn	4, 0x1005208b
   1353e:	8532                	mv	a0,a2
   13540:	1005210b          	.insn	4, 0x1005210b
   13544:	1a20c50b          	.insn	4, 0x1a20c50b
   13548:	8e2a                	mv	t3,a0
   1354a:	01ce9023          	sh	t3,0(t4)
   1354e:	8082                	ret

0000000000013550 <_Z17tiled_mvm_stridedPsPKsS1_mmm>:
   13550:	7139                	addi	sp,sp,-64
   13552:	e852                	sd	s4,16(sp)
   13554:	fc06                	sd	ra,56(sp)
   13556:	8a36                	mv	s4,a3
   13558:	c531                	beqz	a0,135a4 <_Z17tiled_mvm_stridedPsPKsS1_mmm+0x54>
   1355a:	c2a9                	beqz	a3,1359c <_Z17tiled_mvm_stridedPsPKsS1_mmm+0x4c>
   1355c:	f822                	sd	s0,48(sp)
   1355e:	f426                	sd	s1,40(sp)
   13560:	f04a                	sd	s2,32(sp)
   13562:	ec4e                	sd	s3,24(sp)
   13564:	e456                	sd	s5,8(sp)
   13566:	e05a                	sd	s6,0(sp)
   13568:	8ab2                	mv	s5,a2
   1356a:	8b3a                	mv	s6,a4
   1356c:	842a                	mv	s0,a0
   1356e:	00179993          	slli	s3,a5,0x1
   13572:	84ae                	mv	s1,a1
   13574:	4901                	li	s2,0
   13576:	85a6                	mv	a1,s1
   13578:	8522                	mv	a0,s0
   1357a:	02000713          	li	a4,32
   1357e:	86da                	mv	a3,s6
   13580:	8656                	mv	a2,s5
   13582:	0905                	addi	s2,s2,1
   13584:	f39ff0ef          	jal	134bc <_Z21tiled_dotprod_stridedPsPKsS1_mm>
   13588:	0409                	addi	s0,s0,2
   1358a:	94ce                	add	s1,s1,s3
   1358c:	ff2a15e3          	bne	s4,s2,13576 <_Z17tiled_mvm_stridedPsPKsS1_mmm+0x26>
   13590:	7442                	ld	s0,48(sp)
   13592:	74a2                	ld	s1,40(sp)
   13594:	7902                	ld	s2,32(sp)
   13596:	69e2                	ld	s3,24(sp)
   13598:	6aa2                	ld	s5,8(sp)
   1359a:	6b02                	ld	s6,0(sp)
   1359c:	70e2                	ld	ra,56(sp)
   1359e:	6a42                	ld	s4,16(sp)
   135a0:	6121                	addi	sp,sp,64
   135a2:	8082                	ret
   135a4:	00032537          	lui	a0,0x32
   135a8:	36050513          	addi	a0,a0,864 # 32360 <__clzdi2+0x1532>
   135ac:	f822                	sd	s0,48(sp)
   135ae:	f426                	sd	s1,40(sp)
   135b0:	f04a                	sd	s2,32(sp)
   135b2:	ec4e                	sd	s3,24(sp)
   135b4:	e456                	sd	s5,8(sp)
   135b6:	e05a                	sd	s6,0(sp)
   135b8:	45f130ef          	jal	27216 <puts>
   135bc:	00032537          	lui	a0,0x32
   135c0:	85d2                	mv	a1,s4
   135c2:	ca050513          	addi	a0,a0,-864 # 31ca0 <__clzdi2+0xe72>
   135c6:	275130ef          	jal	2703a <printf>
   135ca:	557d                	li	a0,-1
   135cc:	8eafd0ef          	jal	106b6 <exit>

00000000000135d0 <_Z30tiled_matmul_transpose_stridedPsPKsS1_mmmmm>:
   135d0:	7119                	addi	sp,sp,-128
   135d2:	f0ca                	sd	s2,96(sp)
   135d4:	f862                	sd	s8,48(sp)
   135d6:	fc86                	sd	ra,120(sp)
   135d8:	e42e                	sd	a1,8(sp)
   135da:	8936                	mv	s2,a3
   135dc:	8c3e                	mv	s8,a5
   135de:	cd25                	beqz	a0,13656 <_Z30tiled_matmul_transpose_stridedPsPKsS1_mmmmm+0x86>
   135e0:	c7b5                	beqz	a5,1364c <_Z30tiled_matmul_transpose_stridedPsPKsS1_mmmmm+0x7c>
   135e2:	c6ad                	beqz	a3,1364c <_Z30tiled_matmul_transpose_stridedPsPKsS1_mmmmm+0x7c>
   135e4:	f4a6                	sd	s1,104(sp)
   135e6:	ecce                	sd	s3,88(sp)
   135e8:	e8d2                	sd	s4,80(sp)
   135ea:	e4d6                	sd	s5,72(sp)
   135ec:	e0da                	sd	s6,64(sp)
   135ee:	fc5e                	sd	s7,56(sp)
   135f0:	f466                	sd	s9,40(sp)
   135f2:	f8a2                	sd	s0,112(sp)
   135f4:	f06a                	sd	s10,32(sp)
   135f6:	ec6e                	sd	s11,24(sp)
   135f8:	8caa                	mv	s9,a0
   135fa:	8a3a                	mv	s4,a4
   135fc:	00189b93          	slli	s7,a7,0x1
   13600:	84b2                	mv	s1,a2
   13602:	00181993          	slli	s3,a6,0x1
   13606:	4b01                	li	s6,0
   13608:	4a81                	li	s5,0
   1360a:	6d22                	ld	s10,8(sp)
   1360c:	001b1413          	slli	s0,s6,0x1
   13610:	9466                	add	s0,s0,s9
   13612:	4d81                	li	s11,0
   13614:	85ea                	mv	a1,s10
   13616:	8522                	mv	a0,s0
   13618:	02000713          	li	a4,32
   1361c:	86d2                	mv	a3,s4
   1361e:	8626                	mv	a2,s1
   13620:	0d85                	addi	s11,s11,1
   13622:	e9bff0ef          	jal	134bc <_Z21tiled_dotprod_stridedPsPKsS1_mm>
   13626:	0409                	addi	s0,s0,2
   13628:	9d4e                	add	s10,s10,s3
   1362a:	ffb915e3          	bne	s2,s11,13614 <_Z30tiled_matmul_transpose_stridedPsPKsS1_mmmmm+0x44>
   1362e:	0a85                	addi	s5,s5,1
   13630:	9b4a                	add	s6,s6,s2
   13632:	94de                	add	s1,s1,s7
   13634:	fd5c1be3          	bne	s8,s5,1360a <_Z30tiled_matmul_transpose_stridedPsPKsS1_mmmmm+0x3a>
   13638:	7446                	ld	s0,112(sp)
   1363a:	74a6                	ld	s1,104(sp)
   1363c:	69e6                	ld	s3,88(sp)
   1363e:	6a46                	ld	s4,80(sp)
   13640:	6aa6                	ld	s5,72(sp)
   13642:	6b06                	ld	s6,64(sp)
   13644:	7be2                	ld	s7,56(sp)
   13646:	7ca2                	ld	s9,40(sp)
   13648:	7d02                	ld	s10,32(sp)
   1364a:	6de2                	ld	s11,24(sp)
   1364c:	70e6                	ld	ra,120(sp)
   1364e:	7906                	ld	s2,96(sp)
   13650:	7c42                	ld	s8,48(sp)
   13652:	6109                	addi	sp,sp,128
   13654:	8082                	ret
   13656:	00032537          	lui	a0,0x32
   1365a:	3b850513          	addi	a0,a0,952 # 323b8 <__clzdi2+0x158a>
   1365e:	f8a2                	sd	s0,112(sp)
   13660:	f4a6                	sd	s1,104(sp)
   13662:	ecce                	sd	s3,88(sp)
   13664:	e8d2                	sd	s4,80(sp)
   13666:	e4d6                	sd	s5,72(sp)
   13668:	e0da                	sd	s6,64(sp)
   1366a:	fc5e                	sd	s7,56(sp)
   1366c:	f466                	sd	s9,40(sp)
   1366e:	f06a                	sd	s10,32(sp)
   13670:	ec6e                	sd	s11,24(sp)
   13672:	3a5130ef          	jal	27216 <puts>
   13676:	00032537          	lui	a0,0x32
   1367a:	864a                	mv	a2,s2
   1367c:	85e2                	mv	a1,s8
   1367e:	33850513          	addi	a0,a0,824 # 32338 <__clzdi2+0x150a>
   13682:	1b9130ef          	jal	2703a <printf>
   13686:	557d                	li	a0,-1
   13688:	82efd0ef          	jal	106b6 <exit>

000000000001368c <_Z35tiled_matmul_transpose_full_stridedPsPKsS1_mmmmmm>:
   1368c:	7119                	addi	sp,sp,-128
   1368e:	f862                	sd	s8,48(sp)
   13690:	fc86                	sd	ra,120(sp)
   13692:	e42e                	sd	a1,8(sp)
   13694:	8c3e                	mv	s8,a5
   13696:	c149                	beqz	a0,13718 <_Z35tiled_matmul_transpose_full_stridedPsPKsS1_mmmmmm+0x8c>
   13698:	cbb5                	beqz	a5,1370c <_Z35tiled_matmul_transpose_full_stridedPsPKsS1_mmmmmm+0x80>
   1369a:	ecce                	sd	s3,88(sp)
   1369c:	89b6                	mv	s3,a3
   1369e:	cabd                	beqz	a3,13714 <_Z35tiled_matmul_transpose_full_stridedPsPKsS1_mmmmmm+0x88>
   136a0:	f4a6                	sd	s1,104(sp)
   136a2:	f0ca                	sd	s2,96(sp)
   136a4:	e8d2                	sd	s4,80(sp)
   136a6:	e4d6                	sd	s5,72(sp)
   136a8:	e0da                	sd	s6,64(sp)
   136aa:	fc5e                	sd	s7,56(sp)
   136ac:	f466                	sd	s9,40(sp)
   136ae:	f8a2                	sd	s0,112(sp)
   136b0:	f06a                	sd	s10,32(sp)
   136b2:	ec6e                	sd	s11,24(sp)
   136b4:	8caa                	mv	s9,a0
   136b6:	8a3a                	mv	s4,a4
   136b8:	00189b93          	slli	s7,a7,0x1
   136bc:	84b2                	mv	s1,a2
   136be:	00181913          	slli	s2,a6,0x1
   136c2:	4b01                	li	s6,0
   136c4:	4a81                	li	s5,0
   136c6:	6da2                	ld	s11,8(sp)
   136c8:	001b1413          	slli	s0,s6,0x1
   136cc:	9466                	add	s0,s0,s9
   136ce:	4d01                	li	s10,0
   136d0:	85ee                	mv	a1,s11
   136d2:	8522                	mv	a0,s0
   136d4:	02000713          	li	a4,32
   136d8:	86d2                	mv	a3,s4
   136da:	8626                	mv	a2,s1
   136dc:	0d05                	addi	s10,s10,1
   136de:	ddfff0ef          	jal	134bc <_Z21tiled_dotprod_stridedPsPKsS1_mm>
   136e2:	0409                	addi	s0,s0,2
   136e4:	9dca                	add	s11,s11,s2
   136e6:	ffa995e3          	bne	s3,s10,136d0 <_Z35tiled_matmul_transpose_full_stridedPsPKsS1_mmmmmm+0x44>
   136ea:	678a                	ld	a5,128(sp)
   136ec:	0a85                	addi	s5,s5,1
   136ee:	94de                	add	s1,s1,s7
   136f0:	9b3e                	add	s6,s6,a5
   136f2:	fd5c1ae3          	bne	s8,s5,136c6 <_Z35tiled_matmul_transpose_full_stridedPsPKsS1_mmmmmm+0x3a>
   136f6:	7446                	ld	s0,112(sp)
   136f8:	74a6                	ld	s1,104(sp)
   136fa:	7906                	ld	s2,96(sp)
   136fc:	69e6                	ld	s3,88(sp)
   136fe:	6a46                	ld	s4,80(sp)
   13700:	6aa6                	ld	s5,72(sp)
   13702:	6b06                	ld	s6,64(sp)
   13704:	7be2                	ld	s7,56(sp)
   13706:	7ca2                	ld	s9,40(sp)
   13708:	7d02                	ld	s10,32(sp)
   1370a:	6de2                	ld	s11,24(sp)
   1370c:	70e6                	ld	ra,120(sp)
   1370e:	7c42                	ld	s8,48(sp)
   13710:	6109                	addi	sp,sp,128
   13712:	8082                	ret
   13714:	69e6                	ld	s3,88(sp)
   13716:	bfdd                	j	1370c <_Z35tiled_matmul_transpose_full_stridedPsPKsS1_mmmmmm+0x80>
   13718:	00032537          	lui	a0,0x32
   1371c:	41850513          	addi	a0,a0,1048 # 32418 <__clzdi2+0x15ea>
   13720:	f8a2                	sd	s0,112(sp)
   13722:	f4a6                	sd	s1,104(sp)
   13724:	f0ca                	sd	s2,96(sp)
   13726:	ecce                	sd	s3,88(sp)
   13728:	e8d2                	sd	s4,80(sp)
   1372a:	e4d6                	sd	s5,72(sp)
   1372c:	e0da                	sd	s6,64(sp)
   1372e:	fc5e                	sd	s7,56(sp)
   13730:	f466                	sd	s9,40(sp)
   13732:	f06a                	sd	s10,32(sp)
   13734:	ec6e                	sd	s11,24(sp)
   13736:	2e1130ef          	jal	27216 <puts>
   1373a:	660a                	ld	a2,128(sp)
   1373c:	00032537          	lui	a0,0x32
   13740:	85e2                	mv	a1,s8
   13742:	48050513          	addi	a0,a0,1152 # 32480 <__clzdi2+0x1652>
   13746:	0f5130ef          	jal	2703a <printf>
   1374a:	557d                	li	a0,-1
   1374c:	f6bfc0ef          	jal	106b6 <exit>

0000000000013750 <_Z10array_initPsms>:
   13750:	c981                	beqz	a1,13760 <_Z10array_initPsms+0x10>
   13752:	0586                	slli	a1,a1,0x1
   13754:	95aa                	add	a1,a1,a0
   13756:	00c51023          	sh	a2,0(a0)
   1375a:	0509                	addi	a0,a0,2
   1375c:	feb51de3          	bne	a0,a1,13756 <_Z10array_initPsms+0x6>
   13760:	8082                	ret

0000000000013762 <_Z12conv2d_shapePmS_S_mmmmmmmm>:
   13762:	6e02                	ld	t3,0(sp)
   13764:	6842                	ld	a6,16(sp)
   13766:	6322                	ld	t1,8(sp)
   13768:	41c70733          	sub	a4,a4,t3
   1376c:	0806                	slli	a6,a6,0x1
   1376e:	9742                	add	a4,a4,a6
   13770:	02675733          	divu	a4,a4,t1
   13774:	41c787b3          	sub	a5,a5,t3
   13778:	97c2                	add	a5,a5,a6
   1377a:	0267d7b3          	divu	a5,a5,t1
   1377e:	0705                	addi	a4,a4,1
   13780:	031686b3          	mul	a3,a3,a7
   13784:	0785                	addi	a5,a5,1
   13786:	02e686b3          	mul	a3,a3,a4
   1378a:	02f686b3          	mul	a3,a3,a5
   1378e:	e114                	sd	a3,0(a0)
   13790:	e198                	sd	a4,0(a1)
   13792:	e21c                	sd	a5,0(a2)
   13794:	8082                	ret

0000000000013796 <_Z15padding2d_shapePmS_S_mmmmm>:
   13796:	03180833          	mul	a6,a6,a7
   1379a:	0686                	slli	a3,a3,0x1
   1379c:	9736                	add	a4,a4,a3
   1379e:	e198                	sd	a4,0(a1)
   137a0:	96be                	add	a3,a3,a5
   137a2:	e214                	sd	a3,0(a2)
   137a4:	619c                	ld	a5,0(a1)
   137a6:	02f80833          	mul	a6,a6,a5
   137aa:	02d80833          	mul	a6,a6,a3
   137ae:	01053023          	sd	a6,0(a0)
   137b2:	8082                	ret

00000000000137b4 <_Z9padding2dPsPKsmsmm>:
   137b4:	7159                	addi	sp,sp,-112
   137b6:	e4ce                	sd	s3,72(sp)
   137b8:	00161993          	slli	s3,a2,0x1
   137bc:	f062                	sd	s8,32(sp)
   137be:	00f98c33          	add	s8,s3,a5
   137c2:	eca6                	sd	s1,88(sp)
   137c4:	02cc04b3          	mul	s1,s8,a2
   137c8:	f0a2                	sd	s0,96(sp)
   137ca:	e8ca                	sd	s2,80(sp)
   137cc:	fc56                	sd	s5,56(sp)
   137ce:	f45e                	sd	s7,40(sp)
   137d0:	f486                	sd	ra,104(sp)
   137d2:	8bb2                	mv	s7,a2
   137d4:	8aaa                	mv	s5,a0
   137d6:	8436                	mv	s0,a3
   137d8:	893a                	mv	s2,a4
   137da:	cce9                	beqz	s1,138b4 <_Z9padding2dPsPKsmsmm+0x100>
   137dc:	00149693          	slli	a3,s1,0x1
   137e0:	96aa                	add	a3,a3,a0
   137e2:	872a                	mv	a4,a0
   137e4:	00871023          	sh	s0,0(a4)
   137e8:	0709                	addi	a4,a4,2
   137ea:	fed71de3          	bne	a4,a3,137e4 <_Z9padding2dPsPKsmsmm+0x30>
   137ee:	8726                	mv	a4,s1
   137f0:	08090263          	beqz	s2,13874 <_Z9padding2dPsPKsmsmm+0xc0>
   137f4:	f85a                	sd	s6,48(sp)
   137f6:	417c0b33          	sub	s6,s8,s7
   137fa:	e0d2                	sd	s4,64(sp)
   137fc:	ec66                	sd	s9,24(sp)
   137fe:	e86a                	sd	s10,16(sp)
   13800:	e46e                	sd	s11,8(sp)
   13802:	00179a13          	slli	s4,a5,0x1
   13806:	8d2e                	mv	s10,a1
   13808:	99d6                	add	s3,s3,s5
   1380a:	9b26                	add	s6,s6,s1
   1380c:	8ca6                	mv	s9,s1
   1380e:	4d81                	li	s11,0
   13810:	001c9793          	slli	a5,s9,0x1
   13814:	00f98533          	add	a0,s3,a5
   13818:	080b8363          	beqz	s7,1389e <_Z9padding2dPsPKsmsmm+0xea>
   1381c:	019b8733          	add	a4,s7,s9
   13820:	0706                	slli	a4,a4,0x1
   13822:	97d6                	add	a5,a5,s5
   13824:	9756                	add	a4,a4,s5
   13826:	00879023          	sh	s0,0(a5)
   1382a:	0789                	addi	a5,a5,2
   1382c:	fee79de3          	bne	a5,a4,13826 <_Z9padding2dPsPKsmsmm+0x72>
   13830:	8652                	mv	a2,s4
   13832:	85ea                	mv	a1,s10
   13834:	48d140ef          	jal	284c0 <memcpy>
   13838:	016b8733          	add	a4,s7,s6
   1383c:	0706                	slli	a4,a4,0x1
   1383e:	001b1793          	slli	a5,s6,0x1
   13842:	9756                	add	a4,a4,s5
   13844:	97d6                	add	a5,a5,s5
   13846:	00879023          	sh	s0,0(a5)
   1384a:	0789                	addi	a5,a5,2
   1384c:	fee79de3          	bne	a5,a4,13846 <_Z9padding2dPsPKsmsmm+0x92>
   13850:	0d85                	addi	s11,s11,1
   13852:	9ce2                	add	s9,s9,s8
   13854:	9d52                	add	s10,s10,s4
   13856:	9b62                	add	s6,s6,s8
   13858:	fb2dece3          	bltu	s11,s2,13810 <_Z9padding2dPsPKsmsmm+0x5c>
   1385c:	ccb1                	beqz	s1,138b8 <_Z9padding2dPsPKsmsmm+0x104>
   1385e:	fff90713          	addi	a4,s2,-1
   13862:	03870733          	mul	a4,a4,s8
   13866:	6a06                	ld	s4,64(sp)
   13868:	7b42                	ld	s6,48(sp)
   1386a:	6ce2                	ld	s9,24(sp)
   1386c:	6d42                	ld	s10,16(sp)
   1386e:	6da2                	ld	s11,8(sp)
   13870:	9c26                	add	s8,s8,s1
   13872:	9762                	add	a4,a4,s8
   13874:	00e487b3          	add	a5,s1,a4
   13878:	0786                	slli	a5,a5,0x1
   1387a:	0706                	slli	a4,a4,0x1
   1387c:	97d6                	add	a5,a5,s5
   1387e:	9aba                	add	s5,s5,a4
   13880:	008a9023          	sh	s0,0(s5)
   13884:	0a89                	addi	s5,s5,2
   13886:	ff579de3          	bne	a5,s5,13880 <_Z9padding2dPsPKsmsmm+0xcc>
   1388a:	70a6                	ld	ra,104(sp)
   1388c:	7406                	ld	s0,96(sp)
   1388e:	64e6                	ld	s1,88(sp)
   13890:	6946                	ld	s2,80(sp)
   13892:	69a6                	ld	s3,72(sp)
   13894:	7ae2                	ld	s5,56(sp)
   13896:	7ba2                	ld	s7,40(sp)
   13898:	7c02                	ld	s8,32(sp)
   1389a:	6165                	addi	sp,sp,112
   1389c:	8082                	ret
   1389e:	85ea                	mv	a1,s10
   138a0:	8652                	mv	a2,s4
   138a2:	0d85                	addi	s11,s11,1
   138a4:	41d140ef          	jal	284c0 <memcpy>
   138a8:	9ce2                	add	s9,s9,s8
   138aa:	9d52                	add	s10,s10,s4
   138ac:	9b62                	add	s6,s6,s8
   138ae:	f72de1e3          	bltu	s11,s2,13810 <_Z9padding2dPsPKsmsmm+0x5c>
   138b2:	b76d                	j	1385c <_Z9padding2dPsPKsmsmm+0xa8>
   138b4:	f321                	bnez	a4,137f4 <_Z9padding2dPsPKsmsmm+0x40>
   138b6:	bfd1                	j	1388a <_Z9padding2dPsPKsmsmm+0xd6>
   138b8:	6a06                	ld	s4,64(sp)
   138ba:	7b42                	ld	s6,48(sp)
   138bc:	6ce2                	ld	s9,24(sp)
   138be:	6d42                	ld	s10,16(sp)
   138c0:	6da2                	ld	s11,8(sp)
   138c2:	b7e1                	j	1388a <_Z9padding2dPsPKsmsmm+0xd6>

00000000000138c4 <_Z9padding2dPsPKsmsmmm>:
   138c4:	06080b63          	beqz	a6,1393a <_Z9padding2dPsPKsmsmmm+0x76>
   138c8:	711d                	addi	sp,sp,-96
   138ca:	fc4e                	sd	s3,56(sp)
   138cc:	89be                	mv	s3,a5
   138ce:	00161793          	slli	a5,a2,0x1
   138d2:	f456                	sd	s5,40(sp)
   138d4:	00e78ab3          	add	s5,a5,a4
   138d8:	97ce                	add	a5,a5,s3
   138da:	02fa8ab3          	mul	s5,s5,a5
   138de:	e466                	sd	s9,8(sp)
   138e0:	e8a2                	sd	s0,80(sp)
   138e2:	e4a6                	sd	s1,72(sp)
   138e4:	e0ca                	sd	s2,64(sp)
   138e6:	f852                	sd	s4,48(sp)
   138e8:	f05a                	sd	s6,32(sp)
   138ea:	ec5e                	sd	s7,24(sp)
   138ec:	e862                	sd	s8,16(sp)
   138ee:	ec86                	sd	ra,88(sp)
   138f0:	03370cb3          	mul	s9,a4,s3
   138f4:	8a3a                	mv	s4,a4
   138f6:	8bb6                	mv	s7,a3
   138f8:	8b32                	mv	s6,a2
   138fa:	8c42                	mv	s8,a6
   138fc:	84aa                	mv	s1,a0
   138fe:	842e                	mv	s0,a1
   13900:	4901                	li	s2,0
   13902:	0a86                	slli	s5,s5,0x1
   13904:	0c86                	slli	s9,s9,0x1
   13906:	85a2                	mv	a1,s0
   13908:	8526                	mv	a0,s1
   1390a:	87ce                	mv	a5,s3
   1390c:	8752                	mv	a4,s4
   1390e:	86de                	mv	a3,s7
   13910:	865a                	mv	a2,s6
   13912:	0905                	addi	s2,s2,1
   13914:	ea1ff0ef          	jal	137b4 <_Z9padding2dPsPKsmsmm>
   13918:	94d6                	add	s1,s1,s5
   1391a:	9466                	add	s0,s0,s9
   1391c:	ff2c15e3          	bne	s8,s2,13906 <_Z9padding2dPsPKsmsmmm+0x42>
   13920:	60e6                	ld	ra,88(sp)
   13922:	6446                	ld	s0,80(sp)
   13924:	64a6                	ld	s1,72(sp)
   13926:	6906                	ld	s2,64(sp)
   13928:	79e2                	ld	s3,56(sp)
   1392a:	7a42                	ld	s4,48(sp)
   1392c:	7aa2                	ld	s5,40(sp)
   1392e:	7b02                	ld	s6,32(sp)
   13930:	6be2                	ld	s7,24(sp)
   13932:	6c42                	ld	s8,16(sp)
   13934:	6ca2                	ld	s9,8(sp)
   13936:	6125                	addi	sp,sp,96
   13938:	8082                	ret
   1393a:	8082                	ret

000000000001393c <_Z9padding2dPsPKsmsmmmm>:
   1393c:	0c088163          	beqz	a7,139fe <_Z9padding2dPsPKsmsmmmm+0xc2>
   13940:	0a080f63          	beqz	a6,139fe <_Z9padding2dPsPKsmsmmmm+0xc2>
   13944:	7135                	addi	sp,sp,-160
   13946:	e526                	sd	s1,136(sp)
   13948:	e14a                	sd	s2,128(sp)
   1394a:	84be                	mv	s1,a5
   1394c:	893a                	mv	s2,a4
   1394e:	00161713          	slli	a4,a2,0x1
   13952:	012707b3          	add	a5,a4,s2
   13956:	9726                	add	a4,a4,s1
   13958:	02e787b3          	mul	a5,a5,a4
   1395c:	f0da                	sd	s6,96(sp)
   1395e:	e922                	sd	s0,144(sp)
   13960:	fcce                	sd	s3,120(sp)
   13962:	f8d2                	sd	s4,112(sp)
   13964:	f4d6                	sd	s5,104(sp)
   13966:	e8e2                	sd	s8,80(sp)
   13968:	e4e6                	sd	s9,72(sp)
   1396a:	ed06                	sd	ra,152(sp)
   1396c:	ecde                	sd	s7,88(sp)
   1396e:	02990733          	mul	a4,s2,s1
   13972:	00179b13          	slli	s6,a5,0x1
   13976:	e0ea                	sd	s10,64(sp)
   13978:	fc6e                	sd	s11,56(sp)
   1397a:	8442                	mv	s0,a6
   1397c:	8a36                	mv	s4,a3
   1397e:	89b2                	mv	s3,a2
   13980:	f42e                	sd	a1,40(sp)
   13982:	f02a                	sd	a0,32(sp)
   13984:	ec46                	sd	a7,24(sp)
   13986:	030787b3          	mul	a5,a5,a6
   1398a:	4c81                	li	s9,0
   1398c:	4c01                	li	s8,0
   1398e:	e002                	sd	zero,0(sp)
   13990:	00171a93          	slli	s5,a4,0x1
   13994:	e43e                	sd	a5,8(sp)
   13996:	030707b3          	mul	a5,a4,a6
   1399a:	e83e                	sd	a5,16(sp)
   1399c:	7782                	ld	a5,32(sp)
   1399e:	001c1513          	slli	a0,s8,0x1
   139a2:	001c9593          	slli	a1,s9,0x1
   139a6:	00a78bb3          	add	s7,a5,a0
   139aa:	77a2                	ld	a5,40(sp)
   139ac:	4d01                	li	s10,0
   139ae:	00b78db3          	add	s11,a5,a1
   139b2:	85ee                	mv	a1,s11
   139b4:	855e                	mv	a0,s7
   139b6:	87a6                	mv	a5,s1
   139b8:	874a                	mv	a4,s2
   139ba:	86d2                	mv	a3,s4
   139bc:	864e                	mv	a2,s3
   139be:	0d05                	addi	s10,s10,1
   139c0:	df5ff0ef          	jal	137b4 <_Z9padding2dPsPKsmsmm>
   139c4:	9bda                	add	s7,s7,s6
   139c6:	9dd6                	add	s11,s11,s5
   139c8:	ffa415e3          	bne	s0,s10,139b2 <_Z9padding2dPsPKsmsmmmm+0x76>
   139cc:	6722                	ld	a4,8(sp)
   139ce:	6782                	ld	a5,0(sp)
   139d0:	9c3a                	add	s8,s8,a4
   139d2:	6742                	ld	a4,16(sp)
   139d4:	0785                	addi	a5,a5,1
   139d6:	e03e                	sd	a5,0(sp)
   139d8:	9cba                	add	s9,s9,a4
   139da:	6762                	ld	a4,24(sp)
   139dc:	fce790e3          	bne	a5,a4,1399c <_Z9padding2dPsPKsmsmmmm+0x60>
   139e0:	60ea                	ld	ra,152(sp)
   139e2:	644a                	ld	s0,144(sp)
   139e4:	64aa                	ld	s1,136(sp)
   139e6:	690a                	ld	s2,128(sp)
   139e8:	79e6                	ld	s3,120(sp)
   139ea:	7a46                	ld	s4,112(sp)
   139ec:	7aa6                	ld	s5,104(sp)
   139ee:	7b06                	ld	s6,96(sp)
   139f0:	6be6                	ld	s7,88(sp)
   139f2:	6c46                	ld	s8,80(sp)
   139f4:	6ca6                	ld	s9,72(sp)
   139f6:	6d06                	ld	s10,64(sp)
   139f8:	7de2                	ld	s11,56(sp)
   139fa:	610d                	addi	sp,sp,160
   139fc:	8082                	ret
   139fe:	8082                	ret

0000000000013a00 <_Z15pooling2d_shapePmS_S_mmmmmmm>:
   13a00:	6e22                	ld	t3,8(sp)
   13a02:	6302                	ld	t1,0(sp)
   13a04:	000e1363          	bnez	t3,13a0a <_Z15pooling2d_shapePmS_S_mmmmmmm+0xa>
   13a08:	8e46                	mv	t3,a7
   13a0a:	0306                	slli	t1,t1,0x1
   13a0c:	969a                	add	a3,a3,t1
   13a0e:	411686b3          	sub	a3,a3,a7
   13a12:	971a                	add	a4,a4,t1
   13a14:	03c6d6b3          	divu	a3,a3,t3
   13a18:	41170733          	sub	a4,a4,a7
   13a1c:	03c75733          	divu	a4,a4,t3
   13a20:	0685                	addi	a3,a3,1
   13a22:	e194                	sd	a3,0(a1)
   13a24:	0705                	addi	a4,a4,1
   13a26:	e218                	sd	a4,0(a2)
   13a28:	6194                	ld	a3,0(a1)
   13a2a:	02d80833          	mul	a6,a6,a3
   13a2e:	02f80833          	mul	a6,a6,a5
   13a32:	02e80833          	mul	a6,a6,a4
   13a36:	01053023          	sd	a6,0(a0)
   13a3a:	8082                	ret

0000000000013a3c <_Z9nn_conv2dPsPKsS1_mmmmmmmm>:
   13a3c:	7109                	addi	sp,sp,-384
   13a3e:	faa2                	sd	s0,368(sp)
   13a40:	f6a6                	sd	s1,360(sp)
   13a42:	0300                	addi	s0,sp,384
