
build-fiona/regression_benchmark.elf:     file format elf64-littleriscv


Disassembly of section .text:

0000000000010120 <__cxa_bad_cast>:
   10120:	1141                	addi	sp,sp,-16
   10122:	4521                	li	a0,8
   10124:	e406                	sd	ra,8(sp)
   10126:	30e060ef          	jal	16434 <__cxa_allocate_exception>
   1012a:	000347b7          	lui	a5,0x34
   1012e:	26078793          	addi	a5,a5,608 # 34260 <_ZTVSt8bad_cast+0x10>
   10132:	6659                	lui	a2,0x16
   10134:	000345b7          	lui	a1,0x34
   10138:	e11c                	sd	a5,0(a0)
   1013a:	30a60613          	addi	a2,a2,778 # 1630a <_ZNSt8bad_castD1Ev>
   1013e:	23858593          	addi	a1,a1,568 # 34238 <_ZTISt8bad_cast>
   10142:	100060ef          	jal	16242 <__cxa_throw>

0000000000010146 <__cxa_bad_typeid>:
   10146:	1141                	addi	sp,sp,-16
   10148:	4521                	li	a0,8
   1014a:	e406                	sd	ra,8(sp)
   1014c:	2e8060ef          	jal	16434 <__cxa_allocate_exception>
   10150:	000347b7          	lui	a5,0x34
   10154:	2b078793          	addi	a5,a5,688 # 342b0 <_ZTVSt10bad_typeid+0x10>
   10158:	6659                	lui	a2,0x16
   1015a:	000345b7          	lui	a1,0x34
   1015e:	e11c                	sd	a5,0(a0)
   10160:	33460613          	addi	a2,a2,820 # 16334 <_ZNSt10bad_typeidD1Ev>
   10164:	28858593          	addi	a1,a1,648 # 34288 <_ZTISt10bad_typeid>
   10168:	0da060ef          	jal	16242 <__cxa_throw>

000000000001016c <__cxa_throw_bad_array_new_length>:
   1016c:	1141                	addi	sp,sp,-16
   1016e:	4521                	li	a0,8
   10170:	e406                	sd	ra,8(sp)
   10172:	2c2060ef          	jal	16434 <__cxa_allocate_exception>
   10176:	000347b7          	lui	a5,0x34
   1017a:	21078793          	addi	a5,a5,528 # 34210 <_ZTVSt20bad_array_new_length+0x10>
   1017e:	6659                	lui	a2,0x16
   10180:	000345b7          	lui	a1,0x34
   10184:	e11c                	sd	a5,0(a0)
   10186:	2de60613          	addi	a2,a2,734 # 162de <_ZNSt20bad_array_new_lengthD1Ev>
   1018a:	1e858593          	addi	a1,a1,488 # 341e8 <_ZTISt20bad_array_new_length>
   1018e:	0b4060ef          	jal	16242 <__cxa_throw>

0000000000010192 <_ZN9__gnu_cxx9__freeresEv>:
   10192:	1141                	addi	sp,sp,-16
   10194:	e022                	sd	s0,0(sp)
   10196:	000fa437          	lui	s0,0xfa
   1019a:	70040413          	addi	s0,s0,1792 # fa700 <_ZN12_GLOBAL__N_1L14emergency_poolE>
   1019e:	6808                	ld	a0,16(s0)
   101a0:	e406                	sd	ra,8(sp)
   101a2:	c509                	beqz	a0,101ac <_ZN9__gnu_cxx9__freeresEv+0x1a>
   101a4:	715130ef          	jal	240b8 <free>
   101a8:	00043823          	sd	zero,16(s0)
   101ac:	60a2                	ld	ra,8(sp)
   101ae:	6402                	ld	s0,0(sp)
   101b0:	0141                	addi	sp,sp,16
   101b2:	8082                	ret

00000000000101b4 <_ZSt9terminatev>:
   101b4:	1141                	addi	sp,sp,-16
   101b6:	e406                	sd	ra,8(sp)
   101b8:	3cf060ef          	jal	16d86 <_ZSt13get_terminatev>
   101bc:	3a7060ef          	jal	16d62 <_ZN10__cxxabiv111__terminateEPFvvE>

00000000000101c0 <_ZSt10unexpectedv>:
   101c0:	1141                	addi	sp,sp,-16
   101c2:	e406                	sd	ra,8(sp)
   101c4:	3eb060ef          	jal	16dae <_ZSt14get_unexpectedv>
   101c8:	3cb060ef          	jal	16d92 <_ZN10__cxxabiv112__unexpectedEPFvvE>

00000000000101cc <_ZSt21__throw_bad_exceptionv>:
   101cc:	1141                	addi	sp,sp,-16
   101ce:	4521                	li	a0,8
   101d0:	e406                	sd	ra,8(sp)
   101d2:	262060ef          	jal	16434 <__cxa_allocate_exception>
   101d6:	000347b7          	lui	a5,0x34
   101da:	3b878793          	addi	a5,a5,952 # 343b8 <_ZTVSt13bad_exception+0x10>
   101de:	6659                	lui	a2,0x16
   101e0:	000345b7          	lui	a1,0x34
   101e4:	e11c                	sd	a5,0(a0)
   101e6:	65260613          	addi	a2,a2,1618 # 16652 <_ZNSt13bad_exceptionD1Ev>
   101ea:	30058593          	addi	a1,a1,768 # 34300 <_ZTISt13bad_exception>
   101ee:	054060ef          	jal	16242 <__cxa_throw>

00000000000101f2 <_ZSt17__throw_bad_allocv>:
   101f2:	1141                	addi	sp,sp,-16
   101f4:	4521                	li	a0,8
   101f6:	e406                	sd	ra,8(sp)
   101f8:	23c060ef          	jal	16434 <__cxa_allocate_exception>
   101fc:	000347b7          	lui	a5,0x34
   10200:	58878793          	addi	a5,a5,1416 # 34588 <_ZTVSt9bad_alloc+0x10>
   10204:	665d                	lui	a2,0x17
   10206:	000345b7          	lui	a1,0x34
   1020a:	e11c                	sd	a5,0(a0)
   1020c:	1e860613          	addi	a2,a2,488 # 171e8 <_ZNSt9bad_allocD1Ev>
   10210:	56058593          	addi	a1,a1,1376 # 34560 <_ZTISt9bad_alloc>
   10214:	02e060ef          	jal	16242 <__cxa_throw>

0000000000010218 <_ZSt28__throw_bad_array_new_lengthv>:
   10218:	1141                	addi	sp,sp,-16
   1021a:	4521                	li	a0,8
   1021c:	e406                	sd	ra,8(sp)
   1021e:	216060ef          	jal	16434 <__cxa_allocate_exception>
   10222:	000347b7          	lui	a5,0x34
   10226:	21078793          	addi	a5,a5,528 # 34210 <_ZTVSt20bad_array_new_length+0x10>
   1022a:	6659                	lui	a2,0x16
   1022c:	000345b7          	lui	a1,0x34
   10230:	e11c                	sd	a5,0(a0)
   10232:	2de60613          	addi	a2,a2,734 # 162de <_ZNSt20bad_array_new_lengthD1Ev>
   10236:	1e858593          	addi	a1,a1,488 # 341e8 <_ZTISt20bad_array_new_length>
   1023a:	008060ef          	jal	16242 <__cxa_throw>

000000000001023e <_ZSt16__throw_bad_castv>:
   1023e:	1141                	addi	sp,sp,-16
   10240:	4521                	li	a0,8
   10242:	e406                	sd	ra,8(sp)
   10244:	1f0060ef          	jal	16434 <__cxa_allocate_exception>
   10248:	000347b7          	lui	a5,0x34
   1024c:	26078793          	addi	a5,a5,608 # 34260 <_ZTVSt8bad_cast+0x10>
   10250:	6659                	lui	a2,0x16
   10252:	000345b7          	lui	a1,0x34
   10256:	e11c                	sd	a5,0(a0)
   10258:	30a60613          	addi	a2,a2,778 # 1630a <_ZNSt8bad_castD1Ev>
   1025c:	23858593          	addi	a1,a1,568 # 34238 <_ZTISt8bad_cast>
   10260:	7e3050ef          	jal	16242 <__cxa_throw>

0000000000010264 <_ZSt18__throw_bad_typeidv>:
   10264:	1141                	addi	sp,sp,-16
   10266:	4521                	li	a0,8
   10268:	e406                	sd	ra,8(sp)
   1026a:	1ca060ef          	jal	16434 <__cxa_allocate_exception>
   1026e:	000347b7          	lui	a5,0x34
   10272:	2b078793          	addi	a5,a5,688 # 342b0 <_ZTVSt10bad_typeid+0x10>
   10276:	6659                	lui	a2,0x16
   10278:	000345b7          	lui	a1,0x34
   1027c:	e11c                	sd	a5,0(a0)
   1027e:	33460613          	addi	a2,a2,820 # 16334 <_ZNSt10bad_typeidD1Ev>
   10282:	28858593          	addi	a1,a1,648 # 34288 <_ZTISt10bad_typeid>
   10286:	7bd050ef          	jal	16242 <__cxa_throw>

000000000001028a <_ZSt19__throw_logic_errorPKc>:
   1028a:	7179                	addi	sp,sp,-48
   1028c:	e42a                	sd	a0,8(sp)
   1028e:	4541                	li	a0,16
   10290:	f022                	sd	s0,32(sp)
   10292:	f406                	sd	ra,40(sp)
   10294:	ec26                	sd	s1,24(sp)
   10296:	19e060ef          	jal	16434 <__cxa_allocate_exception>
   1029a:	65a2                	ld	a1,8(sp)
   1029c:	842a                	mv	s0,a0
   1029e:	24f0b0ef          	jal	1bcec <_ZNSt11logic_errorC1EPKc>
   102a2:	6671                	lui	a2,0x1c
   102a4:	000355b7          	lui	a1,0x35
   102a8:	9c060613          	addi	a2,a2,-1600 # 1b9c0 <_ZNSt11logic_errorD1Ev>
   102ac:	7a858593          	addi	a1,a1,1960 # 357a8 <_ZTISt11logic_error>
   102b0:	8522                	mv	a0,s0
   102b2:	791050ef          	jal	16242 <__cxa_throw>
   102b6:	84aa                	mv	s1,a0
   102b8:	8522                	mv	a0,s0
   102ba:	1b4060ef          	jal	1646e <__cxa_free_exception>
   102be:	8526                	mv	a0,s1
   102c0:	0db120ef          	jal	22b9a <_Unwind_Resume>

00000000000102c4 <_ZSt20__throw_domain_errorPKc>:
   102c4:	7179                	addi	sp,sp,-48
   102c6:	e42a                	sd	a0,8(sp)
   102c8:	4541                	li	a0,16
   102ca:	f022                	sd	s0,32(sp)
   102cc:	f406                	sd	ra,40(sp)
   102ce:	ec26                	sd	s1,24(sp)
   102d0:	164060ef          	jal	16434 <__cxa_allocate_exception>
   102d4:	65a2                	ld	a1,8(sp)
   102d6:	842a                	mv	s0,a0
   102d8:	24b0b0ef          	jal	1bd22 <_ZNSt12domain_errorC1EPKc>
   102dc:	6671                	lui	a2,0x1c
   102de:	000355b7          	lui	a1,0x35
   102e2:	9fc60613          	addi	a2,a2,-1540 # 1b9fc <_ZNSt12domain_errorD1Ev>
   102e6:	7d858593          	addi	a1,a1,2008 # 357d8 <_ZTISt12domain_error>
   102ea:	8522                	mv	a0,s0
   102ec:	757050ef          	jal	16242 <__cxa_throw>
   102f0:	84aa                	mv	s1,a0
   102f2:	8522                	mv	a0,s0
   102f4:	17a060ef          	jal	1646e <__cxa_free_exception>
   102f8:	8526                	mv	a0,s1
   102fa:	0a1120ef          	jal	22b9a <_Unwind_Resume>

00000000000102fe <_ZSt24__throw_invalid_argumentPKc>:
   102fe:	7179                	addi	sp,sp,-48
   10300:	e42a                	sd	a0,8(sp)
   10302:	4541                	li	a0,16
   10304:	f022                	sd	s0,32(sp)
   10306:	f406                	sd	ra,40(sp)
   10308:	ec26                	sd	s1,24(sp)
   1030a:	12a060ef          	jal	16434 <__cxa_allocate_exception>
   1030e:	65a2                	ld	a1,8(sp)
   10310:	842a                	mv	s0,a0
   10312:	22d0b0ef          	jal	1bd3e <_ZNSt16invalid_argumentC1EPKc>
   10316:	6671                	lui	a2,0x1c
   10318:	000365b7          	lui	a1,0x36
   1031c:	a1e60613          	addi	a2,a2,-1506 # 1ba1e <_ZNSt16invalid_argumentD1Ev>
   10320:	80858593          	addi	a1,a1,-2040 # 35808 <_ZTISt16invalid_argument>
   10324:	8522                	mv	a0,s0
   10326:	71d050ef          	jal	16242 <__cxa_throw>
   1032a:	84aa                	mv	s1,a0
   1032c:	8522                	mv	a0,s0
   1032e:	140060ef          	jal	1646e <__cxa_free_exception>
   10332:	8526                	mv	a0,s1
   10334:	067120ef          	jal	22b9a <_Unwind_Resume>

0000000000010338 <_ZSt20__throw_length_errorPKc>:
   10338:	7179                	addi	sp,sp,-48
   1033a:	e42a                	sd	a0,8(sp)
   1033c:	4541                	li	a0,16
   1033e:	f022                	sd	s0,32(sp)
   10340:	f406                	sd	ra,40(sp)
   10342:	ec26                	sd	s1,24(sp)
   10344:	0f0060ef          	jal	16434 <__cxa_allocate_exception>
   10348:	65a2                	ld	a1,8(sp)
   1034a:	842a                	mv	s0,a0
   1034c:	20f0b0ef          	jal	1bd5a <_ZNSt12length_errorC1EPKc>
   10350:	6671                	lui	a2,0x1c
   10352:	000365b7          	lui	a1,0x36
   10356:	a4060613          	addi	a2,a2,-1472 # 1ba40 <_ZNSt12length_errorD1Ev>
   1035a:	83858593          	addi	a1,a1,-1992 # 35838 <_ZTISt12length_error>
   1035e:	8522                	mv	a0,s0
   10360:	6e3050ef          	jal	16242 <__cxa_throw>
   10364:	84aa                	mv	s1,a0
   10366:	8522                	mv	a0,s0
   10368:	106060ef          	jal	1646e <__cxa_free_exception>
   1036c:	8526                	mv	a0,s1
   1036e:	02d120ef          	jal	22b9a <_Unwind_Resume>

0000000000010372 <_ZSt20__throw_out_of_rangePKc>:
   10372:	7179                	addi	sp,sp,-48
   10374:	e42a                	sd	a0,8(sp)
   10376:	4541                	li	a0,16
   10378:	f022                	sd	s0,32(sp)
   1037a:	f406                	sd	ra,40(sp)
   1037c:	ec26                	sd	s1,24(sp)
   1037e:	0b6060ef          	jal	16434 <__cxa_allocate_exception>
   10382:	65a2                	ld	a1,8(sp)
   10384:	842a                	mv	s0,a0
   10386:	1f10b0ef          	jal	1bd76 <_ZNSt12out_of_rangeC1EPKc>
   1038a:	6671                	lui	a2,0x1c
   1038c:	000365b7          	lui	a1,0x36
   10390:	a6260613          	addi	a2,a2,-1438 # 1ba62 <_ZNSt12out_of_rangeD1Ev>
   10394:	86858593          	addi	a1,a1,-1944 # 35868 <_ZTISt12out_of_range>
   10398:	8522                	mv	a0,s0
   1039a:	6a9050ef          	jal	16242 <__cxa_throw>
   1039e:	84aa                	mv	s1,a0
   103a0:	8522                	mv	a0,s0
   103a2:	0cc060ef          	jal	1646e <__cxa_free_exception>
   103a6:	8526                	mv	a0,s1
   103a8:	7f2120ef          	jal	22b9a <_Unwind_Resume>

00000000000103ac <_ZSt24__throw_out_of_range_fmtPKcz>:
   103ac:	7159                	addi	sp,sp,-112
   103ae:	f406                	sd	ra,40(sp)
   103b0:	f022                	sd	s0,32(sp)
   103b2:	ec26                	sd	s1,24(sp)
   103b4:	1800                	addi	s0,sp,48
   103b6:	e84a                	sd	s2,16(sp)
   103b8:	84aa                	mv	s1,a0
   103ba:	f018                	sd	a4,32(s0)
   103bc:	03043823          	sd	a6,48(s0)
   103c0:	03143c23          	sd	a7,56(s0)
   103c4:	e40c                	sd	a1,8(s0)
   103c6:	e810                	sd	a2,16(s0)
   103c8:	ec14                	sd	a3,24(s0)
   103ca:	f41c                	sd	a5,40(s0)
   103cc:	311170ef          	jal	27edc <strlen>
   103d0:	20f50793          	addi	a5,a0,527
   103d4:	9bc1                	andi	a5,a5,-16
   103d6:	40f10133          	sub	sp,sp,a5
   103da:	20050593          	addi	a1,a0,512
   103de:	00840693          	addi	a3,s0,8
   103e2:	8626                	mv	a2,s1
   103e4:	850a                	mv	a0,sp
   103e6:	fcd43c23          	sd	a3,-40(s0)
   103ea:	539060ef          	jal	17122 <_ZN9__gnu_cxx15__snprintf_liteEPcmPKcPv>
   103ee:	4541                	li	a0,16
   103f0:	044060ef          	jal	16434 <__cxa_allocate_exception>
   103f4:	858a                	mv	a1,sp
   103f6:	84aa                	mv	s1,a0
   103f8:	17f0b0ef          	jal	1bd76 <_ZNSt12out_of_rangeC1EPKc>
   103fc:	6671                	lui	a2,0x1c
   103fe:	000365b7          	lui	a1,0x36
   10402:	a6260613          	addi	a2,a2,-1438 # 1ba62 <_ZNSt12out_of_rangeD1Ev>
   10406:	86858593          	addi	a1,a1,-1944 # 35868 <_ZTISt12out_of_range>
   1040a:	8526                	mv	a0,s1
   1040c:	637050ef          	jal	16242 <__cxa_throw>
   10410:	892a                	mv	s2,a0
   10412:	8526                	mv	a0,s1
   10414:	05a060ef          	jal	1646e <__cxa_free_exception>
   10418:	854a                	mv	a0,s2
   1041a:	780120ef          	jal	22b9a <_Unwind_Resume>

000000000001041e <_ZSt21__throw_runtime_errorPKc>:
   1041e:	7179                	addi	sp,sp,-48
   10420:	e42a                	sd	a0,8(sp)
   10422:	4541                	li	a0,16
   10424:	f022                	sd	s0,32(sp)
   10426:	f406                	sd	ra,40(sp)
   10428:	ec26                	sd	s1,24(sp)
   1042a:	00a060ef          	jal	16434 <__cxa_allocate_exception>
   1042e:	65a2                	ld	a1,8(sp)
   10430:	842a                	mv	s0,a0
   10432:	1610b0ef          	jal	1bd92 <_ZNSt13runtime_errorC1EPKc>
   10436:	6671                	lui	a2,0x1c
   10438:	000365b7          	lui	a1,0x36
   1043c:	91e60613          	addi	a2,a2,-1762 # 1b91e <_ZNSt13runtime_errorD1Ev>
   10440:	89858593          	addi	a1,a1,-1896 # 35898 <_ZTISt13runtime_error>
   10444:	8522                	mv	a0,s0
   10446:	5fd050ef          	jal	16242 <__cxa_throw>
   1044a:	84aa                	mv	s1,a0
   1044c:	8522                	mv	a0,s0
   1044e:	020060ef          	jal	1646e <__cxa_free_exception>
   10452:	8526                	mv	a0,s1
   10454:	746120ef          	jal	22b9a <_Unwind_Resume>

0000000000010458 <_ZSt19__throw_range_errorPKc>:
   10458:	7179                	addi	sp,sp,-48
   1045a:	e42a                	sd	a0,8(sp)
   1045c:	4541                	li	a0,16
   1045e:	f022                	sd	s0,32(sp)
   10460:	f406                	sd	ra,40(sp)
   10462:	ec26                	sd	s1,24(sp)
   10464:	7d1050ef          	jal	16434 <__cxa_allocate_exception>
   10468:	65a2                	ld	a1,8(sp)
   1046a:	842a                	mv	s0,a0
   1046c:	15d0b0ef          	jal	1bdc8 <_ZNSt11range_errorC1EPKc>
   10470:	6671                	lui	a2,0x1c
   10472:	000365b7          	lui	a1,0x36
   10476:	95a60613          	addi	a2,a2,-1702 # 1b95a <_ZNSt11range_errorD1Ev>
   1047a:	8c058593          	addi	a1,a1,-1856 # 358c0 <_ZTISt11range_error>
   1047e:	8522                	mv	a0,s0
   10480:	5c3050ef          	jal	16242 <__cxa_throw>
   10484:	84aa                	mv	s1,a0
   10486:	8522                	mv	a0,s0
   10488:	7e7050ef          	jal	1646e <__cxa_free_exception>
   1048c:	8526                	mv	a0,s1
   1048e:	70c120ef          	jal	22b9a <_Unwind_Resume>

0000000000010492 <_ZSt22__throw_overflow_errorPKc>:
   10492:	7179                	addi	sp,sp,-48
   10494:	e42a                	sd	a0,8(sp)
   10496:	4541                	li	a0,16
   10498:	f022                	sd	s0,32(sp)
   1049a:	f406                	sd	ra,40(sp)
   1049c:	ec26                	sd	s1,24(sp)
   1049e:	797050ef          	jal	16434 <__cxa_allocate_exception>
   104a2:	65a2                	ld	a1,8(sp)
   104a4:	842a                	mv	s0,a0
   104a6:	13f0b0ef          	jal	1bde4 <_ZNSt14overflow_errorC1EPKc>
   104aa:	6671                	lui	a2,0x1c
   104ac:	000365b7          	lui	a1,0x36
   104b0:	97c60613          	addi	a2,a2,-1668 # 1b97c <_ZNSt14overflow_errorD1Ev>
   104b4:	8f058593          	addi	a1,a1,-1808 # 358f0 <_ZTISt14overflow_error>
   104b8:	8522                	mv	a0,s0
   104ba:	589050ef          	jal	16242 <__cxa_throw>
   104be:	84aa                	mv	s1,a0
   104c0:	8522                	mv	a0,s0
   104c2:	7ad050ef          	jal	1646e <__cxa_free_exception>
   104c6:	8526                	mv	a0,s1
   104c8:	6d2120ef          	jal	22b9a <_Unwind_Resume>

00000000000104cc <_ZSt23__throw_underflow_errorPKc>:
   104cc:	7179                	addi	sp,sp,-48
   104ce:	e42a                	sd	a0,8(sp)
   104d0:	4541                	li	a0,16
   104d2:	f022                	sd	s0,32(sp)
   104d4:	f406                	sd	ra,40(sp)
   104d6:	ec26                	sd	s1,24(sp)
   104d8:	75d050ef          	jal	16434 <__cxa_allocate_exception>
   104dc:	65a2                	ld	a1,8(sp)
   104de:	842a                	mv	s0,a0
   104e0:	1210b0ef          	jal	1be00 <_ZNSt15underflow_errorC1EPKc>
   104e4:	6671                	lui	a2,0x1c
   104e6:	000365b7          	lui	a1,0x36
   104ea:	99e60613          	addi	a2,a2,-1634 # 1b99e <_ZNSt15underflow_errorD1Ev>
   104ee:	92058593          	addi	a1,a1,-1760 # 35920 <_ZTISt15underflow_error>
   104f2:	8522                	mv	a0,s0
   104f4:	54f050ef          	jal	16242 <__cxa_throw>
   104f8:	84aa                	mv	s1,a0
   104fa:	8522                	mv	a0,s0
   104fc:	773050ef          	jal	1646e <__cxa_free_exception>
   10500:	8526                	mv	a0,s1
   10502:	698120ef          	jal	22b9a <_Unwind_Resume>

0000000000010506 <_ZN9__gnu_cxx26__throw_insufficient_spaceEPKcS1_>:
   10506:	7175                	addi	sp,sp,-144
   10508:	e122                	sd	s0,128(sp)
   1050a:	fca6                	sd	s1,120(sp)
   1050c:	0900                	addi	s0,sp,144
   1050e:	84ae                	mv	s1,a1
   10510:	000335b7          	lui	a1,0x33
   10514:	e506                	sd	ra,136(sp)
   10516:	f8ca                	sd	s2,112(sp)
   10518:	06900613          	li	a2,105
   1051c:	892a                	mv	s2,a0
   1051e:	93058593          	addi	a1,a1,-1744 # 32930 <__clzdi2+0x21ce>
   10522:	f7040513          	addi	a0,s0,-144
   10526:	412484b3          	sub	s1,s1,s2
   1052a:	0cb170ef          	jal	27df4 <memcpy>
   1052e:	07848793          	addi	a5,s1,120
   10532:	9bc1                	andi	a5,a5,-16
   10534:	40f10133          	sub	sp,sp,a5
   10538:	06800613          	li	a2,104
   1053c:	f7040593          	addi	a1,s0,-144
   10540:	850a                	mv	a0,sp
   10542:	0b3170ef          	jal	27df4 <memcpy>
   10546:	8626                	mv	a2,s1
   10548:	85ca                	mv	a1,s2
   1054a:	10a8                	addi	a0,sp,104
   1054c:	0a9170ef          	jal	27df4 <memcpy>
   10550:	948a                	add	s1,s1,sp
   10552:	06048423          	sb	zero,104(s1)
   10556:	850a                	mv	a0,sp
   10558:	d33ff0ef          	jal	1028a <_ZSt19__throw_logic_errorPKc>

000000000001055c <__cxa_call_terminate>:
   1055c:	1141                	addi	sp,sp,-16
   1055e:	e406                	sd	ra,8(sp)
   10560:	e022                	sd	s0,0(sp)
   10562:	c905                	beqz	a0,10592 <__cxa_call_terminate+0x36>
   10564:	842a                	mv	s0,a0
   10566:	7ef050ef          	jal	16554 <__cxa_begin_catch>
   1056a:	b8b1b7b7          	lui	a5,0xb8b1b
   1056e:	abd78793          	addi	a5,a5,-1347 # ffffffffb8b1aabd <__BSS_END__+0xffffffffb8a1fd95>
   10572:	07b2                	slli	a5,a5,0xc
   10574:	bcd78793          	addi	a5,a5,-1075
   10578:	6018                	ld	a4,0(s0)
   1057a:	07b2                	slli	a5,a5,0xc
   1057c:	4d578793          	addi	a5,a5,1237
   10580:	07a2                	slli	a5,a5,0x8
   10582:	97ba                	add	a5,a5,a4
   10584:	4705                	li	a4,1
   10586:	00f76663          	bltu	a4,a5,10592 <__cxa_call_terminate+0x36>
   1058a:	fc843503          	ld	a0,-56(s0)
   1058e:	7d4060ef          	jal	16d62 <_ZN10__cxxabiv111__terminateEPFvvE>
   10592:	c23ff0ef          	jal	101b4 <_ZSt9terminatev>

0000000000010596 <_ZNSt7__cxx1112basic_stringIcSt11char_traitsIcESaIcEE15_M_replace_coldEPcmPKcmm>:
   10596:	7139                	addi	sp,sp,-64
   10598:	f822                	sd	s0,48(sp)
   1059a:	f426                	sd	s1,40(sp)
   1059c:	f04a                	sd	s2,32(sp)
   1059e:	ec4e                	sd	s3,24(sp)
   105a0:	843a                	mv	s0,a4
   105a2:	fc06                	sd	ra,56(sp)
   105a4:	177d                	addi	a4,a4,-1
   105a6:	84ae                	mv	s1,a1
   105a8:	8932                	mv	s2,a2
   105aa:	89b6                	mv	s3,a3
   105ac:	00c77963          	bgeu	a4,a2,105be <_ZNSt7__cxx1112basic_stringIcSt11char_traitsIcESaIcEE15_M_replace_coldEPcmPKcmm+0x28>
   105b0:	8622                	mv	a2,s0
   105b2:	85b6                	mv	a1,a3
   105b4:	8526                	mv	a0,s1
   105b6:	e43e                	sd	a5,8(sp)
   105b8:	22a0e0ef          	jal	1e7e2 <_ZNSt7__cxx1112basic_stringIcSt11char_traitsIcESaIcEE7_S_moveEPcPKcm>
   105bc:	67a2                	ld	a5,8(sp)
   105be:	cb91                	beqz	a5,105d2 <_ZNSt7__cxx1112basic_stringIcSt11char_traitsIcESaIcEE15_M_replace_coldEPcmPKcmm+0x3c>
   105c0:	07240963          	beq	s0,s2,10632 <_ZNSt7__cxx1112basic_stringIcSt11char_traitsIcESaIcEE15_M_replace_coldEPcmPKcmm+0x9c>
   105c4:	863e                	mv	a2,a5
   105c6:	012485b3          	add	a1,s1,s2
   105ca:	00848533          	add	a0,s1,s0
   105ce:	2140e0ef          	jal	1e7e2 <_ZNSt7__cxx1112basic_stringIcSt11char_traitsIcESaIcEE7_S_moveEPcPKcm>
   105d2:	06897063          	bgeu	s2,s0,10632 <_ZNSt7__cxx1112basic_stringIcSt11char_traitsIcESaIcEE15_M_replace_coldEPcmPKcmm+0x9c>
   105d6:	012487b3          	add	a5,s1,s2
   105da:	00898733          	add	a4,s3,s0
   105de:	00e7ed63          	bltu	a5,a4,105f8 <_ZNSt7__cxx1112basic_stringIcSt11char_traitsIcESaIcEE15_M_replace_coldEPcmPKcmm+0x62>
   105e2:	8622                	mv	a2,s0
   105e4:	7442                	ld	s0,48(sp)
   105e6:	70e2                	ld	ra,56(sp)
   105e8:	7902                	ld	s2,32(sp)
   105ea:	85ce                	mv	a1,s3
   105ec:	8526                	mv	a0,s1
   105ee:	69e2                	ld	s3,24(sp)
   105f0:	74a2                	ld	s1,40(sp)
   105f2:	6121                	addi	sp,sp,64
   105f4:	1ee0e06f          	j	1e7e2 <_ZNSt7__cxx1112basic_stringIcSt11char_traitsIcESaIcEE7_S_moveEPcPKcm>
   105f8:	00f9ef63          	bltu	s3,a5,10616 <_ZNSt7__cxx1112basic_stringIcSt11char_traitsIcESaIcEE15_M_replace_coldEPcmPKcmm+0x80>
   105fc:	412405b3          	sub	a1,s0,s2
   10600:	8622                	mv	a2,s0
   10602:	95ce                	add	a1,a1,s3
   10604:	8526                	mv	a0,s1
   10606:	7442                	ld	s0,48(sp)
   10608:	70e2                	ld	ra,56(sp)
   1060a:	74a2                	ld	s1,40(sp)
   1060c:	7902                	ld	s2,32(sp)
   1060e:	69e2                	ld	s3,24(sp)
   10610:	6121                	addi	sp,sp,64
   10612:	1bc0e06f          	j	1e7ce <_ZNSt7__cxx1112basic_stringIcSt11char_traitsIcESaIcEE7_S_copyEPcPKcm>
   10616:	41378933          	sub	s2,a5,s3
   1061a:	864a                	mv	a2,s2
   1061c:	85ce                	mv	a1,s3
   1061e:	8526                	mv	a0,s1
   10620:	1c20e0ef          	jal	1e7e2 <_ZNSt7__cxx1112basic_stringIcSt11char_traitsIcESaIcEE7_S_moveEPcPKcm>
   10624:	41240633          	sub	a2,s0,s2
   10628:	008485b3          	add	a1,s1,s0
   1062c:	01248533          	add	a0,s1,s2
   10630:	bfd9                	j	10606 <_ZNSt7__cxx1112basic_stringIcSt11char_traitsIcESaIcEE15_M_replace_coldEPcmPKcmm+0x70>
   10632:	70e2                	ld	ra,56(sp)
   10634:	7442                	ld	s0,48(sp)
   10636:	74a2                	ld	s1,40(sp)
   10638:	7902                	ld	s2,32(sp)
   1063a:	69e2                	ld	s3,24(sp)
   1063c:	6121                	addi	sp,sp,64
   1063e:	8082                	ret

0000000000010640 <_ZSt20__throw_system_errori>:
   10640:	7139                	addi	sp,sp,-64
   10642:	f04a                	sd	s2,32(sp)
   10644:	892a                	mv	s2,a0
   10646:	02000513          	li	a0,32
   1064a:	f822                	sd	s0,48(sp)
   1064c:	f426                	sd	s1,40(sp)
   1064e:	fc06                	sd	ra,56(sp)
   10650:	5e5050ef          	jal	16434 <__cxa_allocate_exception>
   10654:	a201b783          	ld	a5,-1504(gp) # 41580 <_ZN12_GLOBAL__N_1L25generic_category_instanceE>
   10658:	84aa                	mv	s1,a0
   1065a:	864a                	mv	a2,s2
   1065c:	739c                	ld	a5,32(a5)
   1065e:	a2018593          	addi	a1,gp,-1504 # 41580 <_ZN12_GLOBAL__N_1L25generic_category_instanceE>
   10662:	850a                	mv	a0,sp
   10664:	9782                	jalr	a5
   10666:	858a                	mv	a1,sp
   10668:	8526                	mv	a0,s1
   1066a:	50d0f0ef          	jal	20376 <_ZNSt13runtime_errorC1ERKNSt7__cxx1112basic_stringIcSt11char_traitsIcESaIcEEE>
   1066e:	850a                	mv	a0,sp
   10670:	0e40e0ef          	jal	1e754 <_ZNSt7__cxx1112basic_stringIcSt11char_traitsIcESaIcEE10_M_disposeEv>
   10674:	000367b7          	lui	a5,0x36
   10678:	c9078793          	addi	a5,a5,-880 # 35c90 <_ZTVSt12system_error+0x10>
   1067c:	a2018413          	addi	s0,gp,-1504 # 41580 <_ZN12_GLOBAL__N_1L25generic_category_instanceE>
   10680:	00020637          	lui	a2,0x20
   10684:	000365b7          	lui	a1,0x36
   10688:	e09c                	sd	a5,0(s1)
   1068a:	0124a823          	sw	s2,16(s1)
   1068e:	ec80                	sd	s0,24(s1)
   10690:	17660613          	addi	a2,a2,374 # 20176 <_ZNSt12system_errorD1Ev>
   10694:	ae858593          	addi	a1,a1,-1304 # 35ae8 <_ZTISt12system_error>
   10698:	8526                	mv	a0,s1
   1069a:	3a9050ef          	jal	16242 <__cxa_throw>
   1069e:	842a                	mv	s0,a0
   106a0:	850a                	mv	a0,sp
   106a2:	0b20e0ef          	jal	1e754 <_ZNSt7__cxx1112basic_stringIcSt11char_traitsIcESaIcEE10_M_disposeEv>
   106a6:	8526                	mv	a0,s1
   106a8:	5c7050ef          	jal	1646e <__cxa_free_exception>
   106ac:	8522                	mv	a0,s0
   106ae:	4ec120ef          	jal	22b9a <_Unwind_Resume>
   106b2:	842a                	mv	s0,a0
   106b4:	bfcd                	j	106a6 <_ZSt20__throw_system_errori+0x66>

00000000000106b6 <exit>:
   106b6:	1141                	addi	sp,sp,-16
   106b8:	4581                	li	a1,0
   106ba:	e022                	sd	s0,0(sp)
   106bc:	e406                	sd	ra,8(sp)
   106be:	842a                	mv	s0,a0
   106c0:	245170ef          	jal	28104 <__call_exitprocs>
   106c4:	a801b783          	ld	a5,-1408(gp) # 415e0 <__stdio_exit_handler>
   106c8:	c391                	beqz	a5,106cc <exit+0x16>
   106ca:	9782                	jalr	a5
   106cc:	8522                	mv	a0,s0
   106ce:	4711e0ef          	jal	2f33e <_exit>

00000000000106d2 <main>:
   106d2:	1141                	addi	sp,sp,-16
   106d4:	e022                	sd	s0,0(sp)
   106d6:	00031437          	lui	s0,0x31
   106da:	ae840513          	addi	a0,s0,-1304 # 30ae8 <__clzdi2+0x386>
   106de:	e406                	sd	ra,8(sp)
   106e0:	46a160ef          	jal	26b4a <puts>
   106e4:	00031537          	lui	a0,0x31
   106e8:	b3050513          	addi	a0,a0,-1232 # 30b30 <__clzdi2+0x3ce>
   106ec:	45e160ef          	jal	26b4a <puts>
   106f0:	ae840513          	addi	a0,s0,-1304
   106f4:	456160ef          	jal	26b4a <puts>
   106f8:	08000713          	li	a4,128
   106fc:	10000693          	li	a3,256
   10700:	00031537          	lui	a0,0x31
   10704:	85ba                	mv	a1,a4
   10706:	8636                	mv	a2,a3
   10708:	02000793          	li	a5,32
   1070c:	b7050513          	addi	a0,a0,-1168 # 30b70 <__clzdi2+0x40e>
   10710:	25e160ef          	jal	2696e <printf>
   10714:	00031537          	lui	a0,0x31
   10718:	02000593          	li	a1,32
   1071c:	ba050513          	addi	a0,a0,-1120 # 30ba0 <__clzdi2+0x43e>
   10720:	24e160ef          	jal	2696e <printf>
   10724:	00031537          	lui	a0,0x31
   10728:	bb850513          	addi	a0,a0,-1096 # 30bb8 <__clzdi2+0x456>
   1072c:	41e160ef          	jal	26b4a <puts>
   10730:	00031537          	lui	a0,0x31
   10734:	be050513          	addi	a0,a0,-1056 # 30be0 <__clzdi2+0x47e>
   10738:	412160ef          	jal	26b4a <puts>
   1073c:	00031537          	lui	a0,0x31
   10740:	c2850513          	addi	a0,a0,-984 # 30c28 <__clzdi2+0x4c6>
   10744:	083130ef          	jal	23fc6 <getenv>
   10748:	c141                	beqz	a0,107c8 <main+0xf6>
   1074a:	000317b7          	lui	a5,0x31
   1074e:	85aa                	mv	a1,a0
   10750:	c4078513          	addi	a0,a5,-960 # 30c40 <__clzdi2+0x4de>
   10754:	21a160ef          	jal	2696e <printf>
   10758:	00031537          	lui	a0,0x31
   1075c:	c8050513          	addi	a0,a0,-896 # 30c80 <__clzdi2+0x51e>
   10760:	067130ef          	jal	23fc6 <getenv>
   10764:	c901                	beqz	a0,10774 <main+0xa2>
   10766:	000317b7          	lui	a5,0x31
   1076a:	85aa                	mv	a1,a0
   1076c:	c9878513          	addi	a0,a5,-872 # 30c98 <__clzdi2+0x536>
   10770:	1fe160ef          	jal	2696e <printf>
   10774:	4529                	li	a0,10
   10776:	340160ef          	jal	26ab6 <putchar>
   1077a:	00031537          	lui	a0,0x31
   1077e:	cb050513          	addi	a0,a0,-848 # 30cb0 <__clzdi2+0x54e>
   10782:	3c8160ef          	jal	26b4a <puts>
   10786:	298000ef          	jal	10a1e <_Z12init_weightsv>
   1078a:	4da000ef          	jal	10c64 <_Z15init_input_datav>
   1078e:	56e000ef          	jal	10cfc <_Z32compute_expected_output_softwarev>
   10792:	1c3000ef          	jal	11154 <_Z21forward_pass_photonicv>
   10796:	39d000ef          	jal	11332 <_Z15compute_metricsv>
   1079a:	00031537          	lui	a0,0x31
   1079e:	cc850513          	addi	a0,a0,-824 # 30cc8 <__clzdi2+0x566>
   107a2:	3a8160ef          	jal	26b4a <puts>
   107a6:	00031537          	lui	a0,0x31
   107aa:	d1050513          	addi	a0,a0,-752 # 30d10 <__clzdi2+0x5ae>
   107ae:	39c160ef          	jal	26b4a <puts>
   107b2:	ae840513          	addi	a0,s0,-1304
   107b6:	394160ef          	jal	26b4a <puts>
   107ba:	1e00000b          	.insn	4, 0x1e00000b
   107be:	60a2                	ld	ra,8(sp)
   107c0:	6402                	ld	s0,0(sp)
   107c2:	4501                	li	a0,0
   107c4:	0141                	addi	sp,sp,16
   107c6:	8082                	ret
   107c8:	00031537          	lui	a0,0x31
   107cc:	c5850513          	addi	a0,a0,-936 # 30c58 <__clzdi2+0x4f6>
   107d0:	37a160ef          	jal	26b4a <puts>
   107d4:	b751                	j	10758 <main+0x86>

00000000000107d6 <_GLOBAL__sub_I__ZN9__gnu_cxx9__freeresEv>:
   107d6:	7175                	addi	sp,sp,-144
   107d8:	fca6                	sd	s1,120(sp)
   107da:	00033537          	lui	a0,0x33
   107de:	000fa4b7          	lui	s1,0xfa
   107e2:	e122                	sd	s0,128(sp)
   107e4:	f4ce                	sd	s3,104(sp)
   107e6:	f0d2                	sd	s4,96(sp)
   107e8:	e506                	sd	ra,136(sp)
   107ea:	f8ca                	sd	s2,112(sp)
   107ec:	70048493          	addi	s1,s1,1792 # fa700 <_ZN12_GLOBAL__N_1L14emergency_poolE>
   107f0:	82050513          	addi	a0,a0,-2016 # 32820 <__clzdi2+0x20be>
   107f4:	0004b423          	sd	zero,8(s1)
   107f8:	0004b823          	sd	zero,16(s1)
   107fc:	0004bc23          	sd	zero,24(s1)
   10800:	7c6130ef          	jal	23fc6 <getenv>
   10804:	47bd                	li	a5,15
   10806:	f03e                	sd	a5,32(sp)
   10808:	000337b7          	lui	a5,0x33
   1080c:	83878793          	addi	a5,a5,-1992 # 32838 <__clzdi2+0x20d6>
   10810:	f43e                	sd	a5,40(sp)
   10812:	47a1                	li	a5,8
   10814:	f83e                	sd	a5,48(sp)
   10816:	000337b7          	lui	a5,0x33
   1081a:	84878793          	addi	a5,a5,-1976 # 32848 <__clzdi2+0x20e6>
   1081e:	fc3e                	sd	a5,56(sp)
   10820:	47a5                	li	a5,9
   10822:	e4be                	sd	a5,72(sp)
   10824:	000337b7          	lui	a5,0x33
   10828:	85878793          	addi	a5,a5,-1960 # 32858 <__clzdi2+0x20f6>
   1082c:	e8be                	sd	a5,80(sp)
   1082e:	4791                	li	a5,4
   10830:	842a                	mv	s0,a0
   10832:	e082                	sd	zero,64(sp)
   10834:	ccbe                	sw	a5,88(sp)
   10836:	03a00993          	li	s3,58
   1083a:	02e00a13          	li	s4,46
   1083e:	e031                	bnez	s0,10882 <_GLOBAL__sub_I__ZN9__gnu_cxx9__freeresEv+0xac>
   10840:	46e6                	lw	a3,88(sp)
   10842:	04000713          	li	a4,64
   10846:	0006879b          	sext.w	a5,a3
   1084a:	00d75463          	bge	a4,a3,10852 <_GLOBAL__sub_I__ZN9__gnu_cxx9__freeresEv+0x7c>
   1084e:	0007079b          	sext.w	a5,a4
   10852:	4406                	lw	s0,64(sp)
   10854:	e011                	bnez	s0,10858 <_GLOBAL__sub_I__ZN9__gnu_cxx9__freeresEv+0x82>
   10856:	4419                	li	s0,6
   10858:	0479                	addi	s0,s0,30
   1085a:	02f40433          	mul	s0,s0,a5
   1085e:	040e                	slli	s0,s0,0x3
   10860:	ec80                	sd	s0,24(s1)
   10862:	c801                	beqz	s0,10872 <_GLOBAL__sub_I__ZN9__gnu_cxx9__freeresEv+0x9c>
   10864:	8522                	mv	a0,s0
   10866:	04b130ef          	jal	240b0 <malloc>
   1086a:	e888                	sd	a0,16(s1)
   1086c:	e555                	bnez	a0,10918 <_GLOBAL__sub_I__ZN9__gnu_cxx9__freeresEv+0x142>
   1086e:	0004bc23          	sd	zero,24(s1)
   10872:	60aa                	ld	ra,136(sp)
   10874:	640a                	ld	s0,128(sp)
   10876:	74e6                	ld	s1,120(sp)
   10878:	7946                	ld	s2,112(sp)
   1087a:	79a6                	ld	s3,104(sp)
   1087c:	7a06                	ld	s4,96(sp)
   1087e:	6149                	addi	sp,sp,144
   10880:	8082                	ret
   10882:	00044783          	lbu	a5,0(s0)
   10886:	01379363          	bne	a5,s3,1088c <_GLOBAL__sub_I__ZN9__gnu_cxx9__freeresEv+0xb6>
   1088a:	0405                	addi	s0,s0,1
   1088c:	473d                	li	a4,15
   1088e:	86a2                	mv	a3,s0
   10890:	863a                	mv	a2,a4
   10892:	4581                	li	a1,0
   10894:	1008                	addi	a0,sp,32
   10896:	44f050ef          	jal	164e4 <_ZNKSt17basic_string_viewIcSt11char_traitsIcEE7compareEmmPKcm>
   1089a:	ed1d                	bnez	a0,108d8 <_GLOBAL__sub_I__ZN9__gnu_cxx9__freeresEv+0x102>
   1089c:	00f44783          	lbu	a5,15(s0)
   108a0:	03479c63          	bne	a5,s4,108d8 <_GLOBAL__sub_I__ZN9__gnu_cxx9__freeresEv+0x102>
   108a4:	0441                	addi	s0,s0,16
   108a6:	03010913          	addi	s2,sp,48
   108aa:	00093703          	ld	a4,0(s2)
   108ae:	86a2                	mv	a3,s0
   108b0:	4581                	li	a1,0
   108b2:	863a                	mv	a2,a4
   108b4:	854a                	mv	a0,s2
   108b6:	e43a                	sd	a4,8(sp)
   108b8:	42d050ef          	jal	164e4 <_ZNKSt17basic_string_viewIcSt11char_traitsIcEE7compareEmmPKcm>
   108bc:	e911                	bnez	a0,108d0 <_GLOBAL__sub_I__ZN9__gnu_cxx9__freeresEv+0xfa>
   108be:	6722                	ld	a4,8(sp)
   108c0:	00e407b3          	add	a5,s0,a4
   108c4:	0007c683          	lbu	a3,0(a5)
   108c8:	03d00793          	li	a5,61
   108cc:	00f68d63          	beq	a3,a5,108e6 <_GLOBAL__sub_I__ZN9__gnu_cxx9__freeresEv+0x110>
   108d0:	0961                	addi	s2,s2,24
   108d2:	109c                	addi	a5,sp,96
   108d4:	fcf91be3          	bne	s2,a5,108aa <_GLOBAL__sub_I__ZN9__gnu_cxx9__freeresEv+0xd4>
   108d8:	8522                	mv	a0,s0
   108da:	03a00593          	li	a1,58
   108de:	2ff160ef          	jal	273dc <strchr>
   108e2:	842a                	mv	s0,a0
   108e4:	bfa9                	j	1083e <_GLOBAL__sub_I__ZN9__gnu_cxx9__freeresEv+0x68>
   108e6:	0705                	addi	a4,a4,1
   108e8:	00e40533          	add	a0,s0,a4
   108ec:	4601                	li	a2,0
   108ee:	082c                	addi	a1,sp,24
   108f0:	458140ef          	jal	24d48 <strtoul>
   108f4:	6462                	ld	s0,24(sp)
   108f6:	00044703          	lbu	a4,0(s0)
   108fa:	fc670793          	addi	a5,a4,-58
   108fe:	0017b793          	seqz	a5,a5
   10902:	00173713          	seqz	a4,a4
   10906:	8fd9                	or	a5,a5,a4
   10908:	dbe1                	beqz	a5,108d8 <_GLOBAL__sub_I__ZN9__gnu_cxx9__freeresEv+0x102>
   1090a:	4785                	li	a5,1
   1090c:	07fe                	slli	a5,a5,0x1f
   1090e:	fcf575e3          	bgeu	a0,a5,108d8 <_GLOBAL__sub_I__ZN9__gnu_cxx9__freeresEv+0x102>
   10912:	00a92823          	sw	a0,16(s2)
   10916:	b7c9                	j	108d8 <_GLOBAL__sub_I__ZN9__gnu_cxx9__freeresEv+0x102>
   10918:	e488                	sd	a0,8(s1)
   1091a:	e100                	sd	s0,0(a0)
   1091c:	00053423          	sd	zero,8(a0)
   10920:	bf89                	j	10872 <_GLOBAL__sub_I__ZN9__gnu_cxx9__freeresEv+0x9c>

0000000000010922 <_GLOBAL__sub_I__ZSt20__throw_system_errori>:
   10922:	8082                	ret

0000000000010924 <register_fini>:
   10924:	00000793          	li	a5,0
   10928:	c799                	beqz	a5,10936 <register_fini+0x12>
   1092a:	0002d537          	lui	a0,0x2d
   1092e:	c7250513          	addi	a0,a0,-910 # 2cc72 <__libc_fini_array>
   10932:	0a51706f          	j	281d6 <atexit>
   10936:	8082                	ret

0000000000010938 <_start>:
   10938:	00031197          	auipc	gp,0x31
   1093c:	22818193          	addi	gp,gp,552 # 41b60 <__global_pointer$>
   10940:	00031517          	auipc	a0,0x31
   10944:	c6850513          	addi	a0,a0,-920 # 415a8 <_ZZN9__gnu_cxx27__verbose_terminate_handlerEvE11terminating>
   10948:	000ea617          	auipc	a2,0xea
   1094c:	3e060613          	addi	a2,a2,992 # fad28 <__BSS_END__>
   10950:	8e09                	sub	a2,a2,a0
   10952:	4581                	li	a1,0
   10954:	3f6170ef          	jal	27d4a <memset>
   10958:	00018517          	auipc	a0,0x18
   1095c:	87e50513          	addi	a0,a0,-1922 # 281d6 <atexit>
   10960:	c519                	beqz	a0,1096e <_start+0x36>
   10962:	0001c517          	auipc	a0,0x1c
   10966:	31050513          	addi	a0,a0,784 # 2cc72 <__libc_fini_array>
   1096a:	06d170ef          	jal	281d6 <atexit>
   1096e:	290170ef          	jal	27bfe <__libc_init_array>
   10972:	4502                	lw	a0,0(sp)
   10974:	002c                	addi	a1,sp,8
   10976:	4601                	li	a2,0
   10978:	d5bff0ef          	jal	106d2 <main>
   1097c:	bb2d                	j	106b6 <exit>

000000000001097e <__do_global_dtors_aux>:
   1097e:	1141                	addi	sp,sp,-16
   10980:	e022                	sd	s0,0(sp)
   10982:	ae01c783          	lbu	a5,-1312(gp) # 41640 <completed.1>
   10986:	e406                	sd	ra,8(sp)
   10988:	ef99                	bnez	a5,109a6 <__do_global_dtors_aux+0x28>
   1098a:	000247b7          	lui	a5,0x24
   1098e:	e8e78793          	addi	a5,a5,-370 # 23e8e <__deregister_frame_info>
   10992:	c799                	beqz	a5,109a0 <__do_global_dtors_aux+0x22>
   10994:	00037537          	lui	a0,0x37
   10998:	35050513          	addi	a0,a0,848 # 37350 <__EH_FRAME_BEGIN__>
   1099c:	4f2130ef          	jal	23e8e <__deregister_frame_info>
   109a0:	4785                	li	a5,1
   109a2:	aef18023          	sb	a5,-1312(gp) # 41640 <completed.1>
   109a6:	60a2                	ld	ra,8(sp)
   109a8:	6402                	ld	s0,0(sp)
   109aa:	0141                	addi	sp,sp,16
   109ac:	8082                	ret

00000000000109ae <frame_dummy>:
   109ae:	000247b7          	lui	a5,0x24
   109b2:	db078793          	addi	a5,a5,-592 # 23db0 <__register_frame_info>
   109b6:	cb89                	beqz	a5,109c8 <frame_dummy+0x1a>
   109b8:	00037537          	lui	a0,0x37
   109bc:	ae818593          	addi	a1,gp,-1304 # 41648 <object.0>
   109c0:	35050513          	addi	a0,a0,848 # 37350 <__EH_FRAME_BEGIN__>
   109c4:	3ec1306f          	j	23db0 <__register_frame_info>
   109c8:	8082                	ret

00000000000109ca <_Z13pseudo_randomv>:
   109ca:	9e81a783          	lw	a5,-1560(gp) # 41548 <_ZL9rand_seed>
   109ce:	41c65637          	lui	a2,0x41c65
   109d2:	e6d6061b          	addiw	a2,a2,-403 # 41c64e6d <__BSS_END__+0x41b6a145>
   109d6:	02f6063b          	mulw	a2,a2,a5
   109da:	678d                	lui	a5,0x3
   109dc:	0397879b          	addiw	a5,a5,57 # 3039 <__cxa_bad_cast-0xd0e7>
   109e0:	000d2737          	lui	a4,0xd2
   109e4:	b7170713          	addi	a4,a4,-1167 # d1b71 <_ZL2w2+0x3d3f9>
   109e8:	0732                	slli	a4,a4,0xc
   109ea:	75970713          	addi	a4,a4,1881
   109ee:	6689                	lui	a3,0x2
   109f0:	7106869b          	addiw	a3,a3,1808 # 2710 <__cxa_bad_cast-0xda10>
   109f4:	9fb1                	addw	a5,a5,a2
   109f6:	02079613          	slli	a2,a5,0x20
   109fa:	9201                	srli	a2,a2,0x20
   109fc:	02e60733          	mul	a4,a2,a4
   10a00:	9ef1a423          	sw	a5,-1560(gp) # 41548 <_ZL9rand_seed>
   10a04:	8b01a707          	flw	fa4,-1872(gp) # 41410 <mask+0x68>
   10a08:	8b41a787          	flw	fa5,-1868(gp) # 41414 <mask+0x6c>
   10a0c:	9335                	srli	a4,a4,0x2d
   10a0e:	02e6873b          	mulw	a4,a3,a4
   10a12:	9f99                	subw	a5,a5,a4
   10a14:	d007f553          	fcvt.s.w	fa0,a5
   10a18:	78e57543          	fmadd.s	fa0,fa0,fa4,fa5
   10a1c:	8082                	ret

0000000000010a1e <_Z12init_weightsv>:
   10a1e:	00030537          	lui	a0,0x30
   10a22:	1141                	addi	sp,sp,-16
   10a24:	7a050513          	addi	a0,a0,1952 # 307a0 <__clzdi2+0x3e>
   10a28:	e406                	sd	ra,8(sp)
   10a2a:	120160ef          	jal	26b4a <puts>
   10a2e:	000d28b7          	lui	a7,0xd2
   10a32:	000d4f37          	lui	t5,0xd4
   10a36:	000207b7          	lui	a5,0x20
   10a3a:	b7188893          	addi	a7,a7,-1167 # d1b71 <_ZL2w2+0x3d3f9>
   10a3e:	8b01a607          	flw	fa2,-1872(gp) # 41410 <mask+0x68>
   10a42:	8b41a687          	flw	fa3,-1868(gp) # 41414 <mask+0x6c>
   10a46:	8b81a707          	flw	fa4,-1864(gp) # 41418 <mask+0x70>
   10a4a:	778f0f13          	addi	t5,t5,1912 # d4778 <_ZL2w1>
   10a4e:	20078793          	addi	a5,a5,512 # 20200 <_ZNK12_GLOBAL__N_121system_error_category7messageB5cxx11Ei+0x8>
   10a52:	08b2                	slli	a7,a7,0xc
   10a54:	670d                	lui	a4,0x3
   10a56:	41c65eb7          	lui	t4,0x41c65
   10a5a:	6e0d                	lui	t3,0x3
   10a5c:	6309                	lui	t1,0x2
   10a5e:	200f0813          	addi	a6,t5,512
   10a62:	75988893          	addi	a7,a7,1881
   10a66:	9f3e                	add	t5,t5,a5
   10a68:	b6770713          	addi	a4,a4,-1177 # 2b67 <__cxa_bad_cast-0xd5b9>
   10a6c:	e6de8e9b          	addiw	t4,t4,-403 # 41c64e6d <__BSS_END__+0x41b6a145>
   10a70:	039e0e1b          	addiw	t3,t3,57 # 3039 <__cxa_bad_cast-0xd0e7>
   10a74:	7103031b          	addiw	t1,t1,1808 # 2710 <__cxa_bad_cast-0xda10>
   10a78:	e0080513          	addi	a0,a6,-512
   10a7c:	03d7073b          	mulw	a4,a4,t4
   10a80:	0511                	addi	a0,a0,4
   10a82:	00ee073b          	addw	a4,t3,a4
   10a86:	02071793          	slli	a5,a4,0x20
   10a8a:	9381                	srli	a5,a5,0x20
   10a8c:	031787b3          	mul	a5,a5,a7
   10a90:	93b5                	srli	a5,a5,0x2d
   10a92:	02f307bb          	mulw	a5,t1,a5
   10a96:	40f707bb          	subw	a5,a4,a5
   10a9a:	d007f7d3          	fcvt.s.w	fa5,a5
   10a9e:	68c7f7c3          	fmadd.s	fa5,fa5,fa2,fa3
   10aa2:	10e7f7d3          	fmul.s	fa5,fa5,fa4
   10aa6:	fef52e27          	fsw	fa5,-4(a0)
   10aaa:	fd0519e3          	bne	a0,a6,10a7c <_Z12init_weightsv+0x5e>
   10aae:	20050813          	addi	a6,a0,512
   10ab2:	fd0f13e3          	bne	t5,a6,10a78 <_Z12init_weightsv+0x5a>
   10ab6:	000d28b7          	lui	a7,0xd2
   10aba:	00094f37          	lui	t5,0x94
   10abe:	000407b7          	lui	a5,0x40
   10ac2:	b7188893          	addi	a7,a7,-1167 # d1b71 <_ZL2w2+0x3d3f9>
   10ac6:	8b01a607          	flw	fa2,-1872(gp) # 41410 <mask+0x68>
   10aca:	8b41a687          	flw	fa3,-1868(gp) # 41414 <mask+0x6c>
   10ace:	8b81a707          	flw	fa4,-1864(gp) # 41418 <mask+0x70>
   10ad2:	778f0f13          	addi	t5,t5,1912 # 94778 <_ZL2w2>
   10ad6:	40078793          	addi	a5,a5,1024 # 40400 <perf_state+0x6e0>
   10ada:	08b2                	slli	a7,a7,0xc
   10adc:	6715                	lui	a4,0x5
   10ade:	41c65eb7          	lui	t4,0x41c65
   10ae2:	6e0d                	lui	t3,0x3
   10ae4:	6309                	lui	t1,0x2
   10ae6:	400f0813          	addi	a6,t5,1024
   10aea:	75988893          	addi	a7,a7,1881
   10aee:	9f3e                	add	t5,t5,a5
   10af0:	6ce70713          	addi	a4,a4,1742 # 56ce <__cxa_bad_cast-0xaa52>
   10af4:	e6de8e9b          	addiw	t4,t4,-403 # 41c64e6d <__BSS_END__+0x41b6a145>
   10af8:	039e0e1b          	addiw	t3,t3,57 # 3039 <__cxa_bad_cast-0xd0e7>
   10afc:	7103031b          	addiw	t1,t1,1808 # 2710 <__cxa_bad_cast-0xda10>
   10b00:	c0080513          	addi	a0,a6,-1024
   10b04:	03d7073b          	mulw	a4,a4,t4
   10b08:	0511                	addi	a0,a0,4
   10b0a:	00ee073b          	addw	a4,t3,a4
   10b0e:	02071793          	slli	a5,a4,0x20
   10b12:	9381                	srli	a5,a5,0x20
   10b14:	031787b3          	mul	a5,a5,a7
   10b18:	93b5                	srli	a5,a5,0x2d
   10b1a:	02f307bb          	mulw	a5,t1,a5
   10b1e:	40f707bb          	subw	a5,a4,a5
   10b22:	d007f7d3          	fcvt.s.w	fa5,a5
   10b26:	68c7f7c3          	fmadd.s	fa5,fa5,fa2,fa3
   10b2a:	10e7f7d3          	fmul.s	fa5,fa5,fa4
   10b2e:	fef52e27          	fsw	fa5,-4(a0)
   10b32:	fca819e3          	bne	a6,a0,10b04 <_Z12init_weightsv+0xe6>
   10b36:	40080813          	addi	a6,a6,1024
   10b3a:	fd0f13e3          	bne	t5,a6,10b00 <_Z12init_weightsv+0xe2>
   10b3e:	000d28b7          	lui	a7,0xd2
   10b42:	00074f37          	lui	t5,0x74
   10b46:	000207b7          	lui	a5,0x20
   10b4a:	b7188893          	addi	a7,a7,-1167 # d1b71 <_ZL2w2+0x3d3f9>
   10b4e:	8b01a607          	flw	fa2,-1872(gp) # 41410 <mask+0x68>
   10b52:	8b41a687          	flw	fa3,-1868(gp) # 41414 <mask+0x6c>
   10b56:	8b81a707          	flw	fa4,-1864(gp) # 41418 <mask+0x70>
   10b5a:	778f0f13          	addi	t5,t5,1912 # 74778 <_ZL2w3>
   10b5e:	40078793          	addi	a5,a5,1024 # 20400 <tanhf+0x2>
   10b62:	08b2                	slli	a7,a7,0xc
   10b64:	6721                	lui	a4,0x8
   10b66:	41c65eb7          	lui	t4,0x41c65
   10b6a:	6e0d                	lui	t3,0x3
   10b6c:	6309                	lui	t1,0x2
   10b6e:	400f0813          	addi	a6,t5,1024
   10b72:	75988893          	addi	a7,a7,1881
   10b76:	9f3e                	add	t5,t5,a5
   10b78:	23570713          	addi	a4,a4,565 # 8235 <__cxa_bad_cast-0x7eeb>
   10b7c:	e6de8e9b          	addiw	t4,t4,-403 # 41c64e6d <__BSS_END__+0x41b6a145>
   10b80:	039e0e1b          	addiw	t3,t3,57 # 3039 <__cxa_bad_cast-0xd0e7>
   10b84:	7103031b          	addiw	t1,t1,1808 # 2710 <__cxa_bad_cast-0xda10>
   10b88:	c0080513          	addi	a0,a6,-1024
   10b8c:	03d7073b          	mulw	a4,a4,t4
   10b90:	0511                	addi	a0,a0,4
   10b92:	00ee073b          	addw	a4,t3,a4
   10b96:	02071793          	slli	a5,a4,0x20
   10b9a:	9381                	srli	a5,a5,0x20
   10b9c:	031787b3          	mul	a5,a5,a7
   10ba0:	93b5                	srli	a5,a5,0x2d
   10ba2:	02f307bb          	mulw	a5,t1,a5
   10ba6:	40f707bb          	subw	a5,a4,a5
   10baa:	d007f7d3          	fcvt.s.w	fa5,a5
   10bae:	68c7f7c3          	fmadd.s	fa5,fa5,fa2,fa3
   10bb2:	10e7f7d3          	fmul.s	fa5,fa5,fa4
   10bb6:	fef52e27          	fsw	fa5,-4(a0)
   10bba:	fca819e3          	bne	a6,a0,10b8c <_Z12init_weightsv+0x16e>
   10bbe:	40080813          	addi	a6,a6,1024
   10bc2:	fd0f13e3          	bne	t5,a6,10b88 <_Z12init_weightsv+0x16a>
   10bc6:	000d2837          	lui	a6,0xd2
   10bca:	00070eb7          	lui	t4,0x70
   10bce:	6791                	lui	a5,0x4
   10bd0:	b7180813          	addi	a6,a6,-1167 # d1b71 <_ZL2w2+0x3d3f9>
   10bd4:	8b01a607          	flw	fa2,-1872(gp) # 41410 <mask+0x68>
   10bd8:	8b41a687          	flw	fa3,-1868(gp) # 41414 <mask+0x6c>
   10bdc:	8b81a707          	flw	fa4,-1864(gp) # 41418 <mask+0x70>
   10be0:	778e8e93          	addi	t4,t4,1912 # 70778 <_ZL2w4>
   10be4:	20078793          	addi	a5,a5,512 # 4200 <__cxa_bad_cast-0xbf20>
   10be8:	0832                	slli	a6,a6,0xc
   10bea:	672d                	lui	a4,0xb
   10bec:	41c65e37          	lui	t3,0x41c65
   10bf0:	630d                	lui	t1,0x3
   10bf2:	6889                	lui	a7,0x2
   10bf4:	200e8513          	addi	a0,t4,512
   10bf8:	75980813          	addi	a6,a6,1881
   10bfc:	9ebe                	add	t4,t4,a5
   10bfe:	d9c70713          	addi	a4,a4,-612 # ad9c <__cxa_bad_cast-0x5384>
   10c02:	e6de0e1b          	addiw	t3,t3,-403 # 41c64e6d <__BSS_END__+0x41b6a145>
   10c06:	0393031b          	addiw	t1,t1,57 # 3039 <__cxa_bad_cast-0xd0e7>
   10c0a:	7108889b          	addiw	a7,a7,1808 # 2710 <__cxa_bad_cast-0xda10>
   10c0e:	e0050693          	addi	a3,a0,-512
   10c12:	03c7073b          	mulw	a4,a4,t3
   10c16:	0691                	addi	a3,a3,4
   10c18:	00e3073b          	addw	a4,t1,a4
   10c1c:	02071793          	slli	a5,a4,0x20
   10c20:	9381                	srli	a5,a5,0x20
   10c22:	030787b3          	mul	a5,a5,a6
   10c26:	93b5                	srli	a5,a5,0x2d
   10c28:	02f887bb          	mulw	a5,a7,a5
   10c2c:	40f707bb          	subw	a5,a4,a5
   10c30:	d007f7d3          	fcvt.s.w	fa5,a5
   10c34:	68c7f7c3          	fmadd.s	fa5,fa5,fa2,fa3
   10c38:	10e7f7d3          	fmul.s	fa5,fa5,fa4
   10c3c:	fef6ae27          	fsw	fa5,-4(a3)
   10c40:	fcd519e3          	bne	a0,a3,10c12 <_Z12init_weightsv+0x1f4>
   10c44:	20050513          	addi	a0,a0,512
   10c48:	fcae93e3          	bne	t4,a0,10c0e <_Z12init_weightsv+0x1f0>
   10c4c:	60a2                	ld	ra,8(sp)
   10c4e:	00030537          	lui	a0,0x30
   10c52:	9ee1a423          	sw	a4,-1560(gp) # 41548 <_ZL9rand_seed>
   10c56:	7e050513          	addi	a0,a0,2016 # 307e0 <__clzdi2+0x7e>
   10c5a:	000215b7          	lui	a1,0x21
   10c5e:	0141                	addi	sp,sp,16
   10c60:	50f1506f          	j	2696e <printf>

0000000000010c64 <_Z15init_input_datav>:
   10c64:	00030537          	lui	a0,0x30
   10c68:	1141                	addi	sp,sp,-16
   10c6a:	7f850513          	addi	a0,a0,2040 # 307f8 <__clzdi2+0x96>
   10c6e:	e406                	sd	ra,8(sp)
   10c70:	6db150ef          	jal	26b4a <puts>
   10c74:	8b01a687          	flw	fa3,-1872(gp) # 41410 <mask+0x68>
   10c78:	000d25b7          	lui	a1,0xd2
   10c7c:	0006c337          	lui	t1,0x6c
   10c80:	6791                	lui	a5,0x4
   10c82:	b7158593          	addi	a1,a1,-1167 # d1b71 <_ZL2w2+0x3d3f9>
   10c86:	8b41a707          	flw	fa4,-1868(gp) # 41414 <mask+0x6c>
   10c8a:	77830313          	addi	t1,t1,1912 # 6c778 <_ZL10input_data>
   10c8e:	20078793          	addi	a5,a5,512 # 4200 <__cxa_bad_cast-0xbf20>
   10c92:	05b2                	slli	a1,a1,0xc
   10c94:	6739                	lui	a4,0xe
   10c96:	41c658b7          	lui	a7,0x41c65
   10c9a:	680d                	lui	a6,0x3
   10c9c:	6509                	lui	a0,0x2
   10c9e:	20030613          	addi	a2,t1,512
   10ca2:	75958593          	addi	a1,a1,1881
   10ca6:	933e                	add	t1,t1,a5
   10ca8:	90370713          	addi	a4,a4,-1789 # d903 <__cxa_bad_cast-0x281d>
   10cac:	e6d8889b          	addiw	a7,a7,-403 # 41c64e6d <__BSS_END__+0x41b6a145>
   10cb0:	0398081b          	addiw	a6,a6,57 # 3039 <__cxa_bad_cast-0xd0e7>
   10cb4:	7105051b          	addiw	a0,a0,1808 # 2710 <__cxa_bad_cast-0xda10>
   10cb8:	e0060693          	addi	a3,a2,-512
   10cbc:	0317073b          	mulw	a4,a4,a7
   10cc0:	0691                	addi	a3,a3,4
   10cc2:	00e8073b          	addw	a4,a6,a4
   10cc6:	02071793          	slli	a5,a4,0x20
   10cca:	9381                	srli	a5,a5,0x20
   10ccc:	02b787b3          	mul	a5,a5,a1
   10cd0:	93b5                	srli	a5,a5,0x2d
   10cd2:	02f507bb          	mulw	a5,a0,a5
   10cd6:	40f707bb          	subw	a5,a4,a5
   10cda:	d007f7d3          	fcvt.s.w	fa5,a5
   10cde:	70d7f7c3          	fmadd.s	fa5,fa5,fa3,fa4
   10ce2:	fef6ae27          	fsw	fa5,-4(a3)
   10ce6:	fcd61be3          	bne	a2,a3,10cbc <_Z15init_input_datav+0x58>
   10cea:	20060613          	addi	a2,a2,512
   10cee:	fc6615e3          	bne	a2,t1,10cb8 <_Z15init_input_datav+0x54>
   10cf2:	60a2                	ld	ra,8(sp)
   10cf4:	9ee1a423          	sw	a4,-1560(gp) # 41548 <_ZL9rand_seed>
   10cf8:	0141                	addi	sp,sp,16
   10cfa:	8082                	ret

0000000000010cfc <_Z32compute_expected_output_softwarev>:
   10cfc:	00031537          	lui	a0,0x31
   10d00:	1141                	addi	sp,sp,-16
   10d02:	81850513          	addi	a0,a0,-2024 # 30818 <__clzdi2+0xb6>
   10d06:	e406                	sd	ra,8(sp)
   10d08:	643150ef          	jal	26b4a <puts>
   10d0c:	0004d8b7          	lui	a7,0x4d
   10d10:	f0000653          	fmv.w.x	fa2,zero
   10d14:	77888893          	addi	a7,a7,1912 # 4d778 <_ZZ32compute_expected_output_softwarevE5sw_y1>
   10d18:	000f55b7          	lui	a1,0xf5
   10d1c:	0006c337          	lui	t1,0x6c
   10d20:	8e46                	mv	t3,a7
   10d22:	97858593          	addi	a1,a1,-1672 # f4978 <_ZL12pho_temp_mat+0x100>
   10d26:	77830313          	addi	t1,t1,1912 # 6c778 <_ZL10input_data>
   10d2a:	4801                	li	a6,0
   10d2c:	000d5f37          	lui	t5,0xd5
   10d30:	02000e93          	li	t4,32
   10d34:	00981513          	slli	a0,a6,0x9
   10d38:	951a                	add	a0,a0,t1
   10d3a:	978f0693          	addi	a3,t5,-1672 # d4978 <_ZL2w1+0x200>
   10d3e:	8672                	mv	a2,t3
   10d40:	f00007d3          	fmv.w.x	fa5,zero
   10d44:	e0068793          	addi	a5,a3,-512
   10d48:	872a                	mv	a4,a0
   10d4a:	0007a687          	flw	fa3,0(a5)
   10d4e:	00072707          	flw	fa4,0(a4)
   10d52:	0791                	addi	a5,a5,4
   10d54:	0711                	addi	a4,a4,4
   10d56:	78e6f7c3          	fmadd.s	fa5,fa3,fa4,fa5
   10d5a:	fed798e3          	bne	a5,a3,10d4a <_Z32compute_expected_output_softwarev+0x4e>
   10d5e:	28c797d3          	fmax.s	fa5,fa5,fa2
   10d62:	20078693          	addi	a3,a5,512
   10d66:	0611                	addi	a2,a2,4
   10d68:	fef62e27          	fsw	fa5,-4(a2)
   10d6c:	fcb69ae3          	bne	a3,a1,10d40 <_Z32compute_expected_output_softwarev+0x44>
   10d70:	0805                	addi	a6,a6,1
   10d72:	400e0e13          	addi	t3,t3,1024
   10d76:	fbd81fe3          	bne	a6,t4,10d34 <_Z32compute_expected_output_softwarev+0x38>
   10d7a:	00045337          	lui	t1,0x45
   10d7e:	f0000653          	fmv.w.x	fa2,zero
   10d82:	77830313          	addi	t1,t1,1912 # 45778 <_ZZ32compute_expected_output_softwarevE5sw_y2>
   10d86:	000d55b7          	lui	a1,0xd5
   10d8a:	8e1a                	mv	t3,t1
   10d8c:	b7858593          	addi	a1,a1,-1160 # d4b78 <_ZL2w1+0x400>
   10d90:	4801                	li	a6,0
   10d92:	00095f37          	lui	t5,0x95
   10d96:	02000e93          	li	t4,32
   10d9a:	00a81513          	slli	a0,a6,0xa
   10d9e:	9546                	add	a0,a0,a7
   10da0:	b78f0693          	addi	a3,t5,-1160 # 94b78 <_ZL2w2+0x400>
   10da4:	8672                	mv	a2,t3
   10da6:	f00007d3          	fmv.w.x	fa5,zero
   10daa:	c0068793          	addi	a5,a3,-1024
   10dae:	872a                	mv	a4,a0
   10db0:	0007a687          	flw	fa3,0(a5)
   10db4:	00072707          	flw	fa4,0(a4)
   10db8:	0791                	addi	a5,a5,4
   10dba:	0711                	addi	a4,a4,4
   10dbc:	78e6f7c3          	fmadd.s	fa5,fa3,fa4,fa5
   10dc0:	fed798e3          	bne	a5,a3,10db0 <_Z32compute_expected_output_softwarev+0xb4>
   10dc4:	28c797d3          	fmax.s	fa5,fa5,fa2
   10dc8:	40078693          	addi	a3,a5,1024
   10dcc:	0611                	addi	a2,a2,4
   10dce:	fef62e27          	fsw	fa5,-4(a2)
   10dd2:	fcb69ae3          	bne	a3,a1,10da6 <_Z32compute_expected_output_softwarev+0xaa>
   10dd6:	0805                	addi	a6,a6,1
   10dd8:	400e0e13          	addi	t3,t3,1024
   10ddc:	fbd81fe3          	bne	a6,t4,10d9a <_Z32compute_expected_output_softwarev+0x9e>
   10de0:	000418b7          	lui	a7,0x41
   10de4:	f0000653          	fmv.w.x	fa2,zero
   10de8:	77888893          	addi	a7,a7,1912 # 41778 <_ZZ32compute_expected_output_softwarevE5sw_y3>
   10dec:	000955b7          	lui	a1,0x95
   10df0:	8e46                	mv	t3,a7
   10df2:	b7858593          	addi	a1,a1,-1160 # 94b78 <_ZL2w2+0x400>
   10df6:	4801                	li	a6,0
   10df8:	00075f37          	lui	t5,0x75
   10dfc:	02000e93          	li	t4,32
   10e00:	00a81513          	slli	a0,a6,0xa
   10e04:	951a                	add	a0,a0,t1
   10e06:	b78f0693          	addi	a3,t5,-1160 # 74b78 <_ZL2w3+0x400>
   10e0a:	8672                	mv	a2,t3
   10e0c:	f00007d3          	fmv.w.x	fa5,zero
   10e10:	c0068793          	addi	a5,a3,-1024
   10e14:	872a                	mv	a4,a0
   10e16:	0007a687          	flw	fa3,0(a5)
   10e1a:	00072707          	flw	fa4,0(a4)
   10e1e:	0791                	addi	a5,a5,4
   10e20:	0711                	addi	a4,a4,4
   10e22:	78e6f7c3          	fmadd.s	fa5,fa3,fa4,fa5
   10e26:	fed798e3          	bne	a5,a3,10e16 <_Z32compute_expected_output_softwarev+0x11a>
   10e2a:	28c797d3          	fmax.s	fa5,fa5,fa2
   10e2e:	40078693          	addi	a3,a5,1024
   10e32:	0611                	addi	a2,a2,4
   10e34:	fef62e27          	fsw	fa5,-4(a2)
   10e38:	fcb69ae3          	bne	a3,a1,10e0c <_Z32compute_expected_output_softwarev+0x110>
   10e3c:	0805                	addi	a6,a6,1
   10e3e:	200e0e13          	addi	t3,t3,512
   10e42:	fbd81fe3          	bne	a6,t4,10e00 <_Z32compute_expected_output_softwarev+0x104>
   10e46:	0006b537          	lui	a0,0x6b
   10e4a:	000755b7          	lui	a1,0x75
   10e4e:	77850513          	addi	a0,a0,1912 # 6b778 <_ZL15expected_output>
   10e52:	97858593          	addi	a1,a1,-1672 # 74978 <_ZL2w3+0x200>
   10e56:	4301                	li	t1,0
   10e58:	00071eb7          	lui	t4,0x71
   10e5c:	02000e13          	li	t3,32
   10e60:	00931813          	slli	a6,t1,0x9
   10e64:	9846                	add	a6,a6,a7
   10e66:	978e8693          	addi	a3,t4,-1672 # 70978 <_ZL2w4+0x200>
   10e6a:	862a                	mv	a2,a0
   10e6c:	f00007d3          	fmv.w.x	fa5,zero
   10e70:	e0068793          	addi	a5,a3,-512
   10e74:	8742                	mv	a4,a6
   10e76:	0007a687          	flw	fa3,0(a5)
   10e7a:	00072707          	flw	fa4,0(a4)
   10e7e:	0791                	addi	a5,a5,4
   10e80:	0711                	addi	a4,a4,4
   10e82:	78e6f7c3          	fmadd.s	fa5,fa3,fa4,fa5
   10e86:	fed798e3          	bne	a5,a3,10e76 <_Z32compute_expected_output_softwarev+0x17a>
   10e8a:	00f62027          	fsw	fa5,0(a2)
   10e8e:	20078693          	addi	a3,a5,512
   10e92:	0611                	addi	a2,a2,4
   10e94:	fcb69ce3          	bne	a3,a1,10e6c <_Z32compute_expected_output_softwarev+0x170>
   10e98:	0305                	addi	t1,t1,1
   10e9a:	08050513          	addi	a0,a0,128
   10e9e:	fdc311e3          	bne	t1,t3,10e60 <_Z32compute_expected_output_softwarev+0x164>
   10ea2:	60a2                	ld	ra,8(sp)
   10ea4:	0141                	addi	sp,sp,16
   10ea6:	8082                	ret

0000000000010ea8 <_Z17photonic_mvm_tilePfPKfS1_ii>:
   10ea8:	b1818f93          	addi	t6,gp,-1256 # 41678 <_ZL8temp_vec>
   10eac:	8832                	mv	a6,a2
   10eae:	8f2a                	mv	t5,a0
   10eb0:	867e                	mv	a2,t6
   10eb2:	4781                	li	a5,0
   10eb4:	02000513          	li	a0,32
   10eb8:	f00007d3          	fmv.w.x	fa5,zero
   10ebc:	00e7d463          	bge	a5,a4,10ec4 <_Z17photonic_mvm_tilePfPKfS1_ii+0x1c>
   10ec0:	00082787          	flw	fa5,0(a6)
   10ec4:	00f62027          	fsw	fa5,0(a2)
   10ec8:	2785                	addiw	a5,a5,1
   10eca:	0811                	addi	a6,a6,4
   10ecc:	0611                	addi	a2,a2,4
   10ece:	fea795e3          	bne	a5,a0,10eb8 <_Z17photonic_mvm_tilePfPKfS1_ii+0x10>
   10ed2:	000552b7          	lui	t0,0x55
   10ed6:	77828e93          	addi	t4,t0,1912 # 55778 <_ZL8temp_mat>
   10eda:	4881                	li	a7,0
   10edc:	4501                	li	a0,0
   10ede:	02000313          	li	t1,32
   10ee2:	00d52e33          	slt	t3,a0,a3
   10ee6:	8876                	mv	a6,t4
   10ee8:	4601                	li	a2,0
   10eea:	011607bb          	addw	a5,a2,a7
   10eee:	078a                	slli	a5,a5,0x2
   10ef0:	f00007d3          	fmv.w.x	fa5,zero
   10ef4:	97ae                	add	a5,a5,a1
   10ef6:	00e65663          	bge	a2,a4,10f02 <_Z17photonic_mvm_tilePfPKfS1_ii+0x5a>
   10efa:	000e0463          	beqz	t3,10f02 <_Z17photonic_mvm_tilePfPKfS1_ii+0x5a>
   10efe:	0007a787          	flw	fa5,0(a5)
   10f02:	00f82027          	fsw	fa5,0(a6)
   10f06:	2605                	addiw	a2,a2,1
   10f08:	0811                	addi	a6,a6,4
   10f0a:	fe6610e3          	bne	a2,t1,10eea <_Z17photonic_mvm_tilePfPKfS1_ii+0x42>
   10f0e:	2505                	addiw	a0,a0,1
   10f10:	011708bb          	addw	a7,a4,a7
   10f14:	080e8e93          	addi	t4,t4,128
   10f18:	fcc515e3          	bne	a0,a2,10ee2 <_Z17photonic_mvm_tilePfPKfS1_ii+0x3a>
   10f1c:	2605200b          	.insn	4, 0x2605200b
   10f20:	857e                	mv	a0,t6
   10f22:	2005208b          	.insn	4, 0x2005208b
   10f26:	77828513          	addi	a0,t0,1912
   10f2a:	2605210b          	.insn	4, 0x2605210b
   10f2e:	2400800b          	.insn	4, 0x2400800b
   10f32:	080f8513          	addi	a0,t6,128
   10f36:	2205200b          	.insn	4, 0x2205200b
   10f3a:	00269713          	slli	a4,a3,0x2
   10f3e:	87fa                	mv	a5,t5
   10f40:	977a                	add	a4,a4,t5
   10f42:	00d05a63          	blez	a3,10f56 <_Z17photonic_mvm_tilePfPKfS1_ii+0xae>
   10f46:	00052787          	flw	fa5,0(a0)
   10f4a:	0791                	addi	a5,a5,4
   10f4c:	0511                	addi	a0,a0,4
   10f4e:	fef7ae27          	fsw	fa5,-4(a5)
   10f52:	fee79ae3          	bne	a5,a4,10f46 <_Z17photonic_mvm_tilePfPKfS1_ii+0x9e>
   10f56:	8082                	ret

0000000000010f58 <_Z18photonic_mvm_tiledPfPKfS1_ii>:
   10f58:	1cd05c63          	blez	a3,11130 <_Z18photonic_mvm_tiledPfPKfS1_ii+0x1d8>
   10f5c:	7121                	addi	sp,sp,-448
   10f5e:	ff06                	sd	ra,440(sp)
   10f60:	fb22                	sd	s0,432(sp)
   10f62:	f726                	sd	s1,424(sp)
   10f64:	f34a                	sd	s2,416(sp)
   10f66:	ef4e                	sd	s3,408(sp)
   10f68:	eb52                	sd	s4,400(sp)
   10f6a:	e756                	sd	s5,392(sp)
   10f6c:	e35a                	sd	s6,384(sp)
   10f6e:	fede                	sd	s7,376(sp)
   10f70:	fae2                	sd	s8,368(sp)
   10f72:	f6e6                	sd	s9,360(sp)
   10f74:	f2ea                	sd	s10,352(sp)
   10f76:	eeee                	sd	s11,344(sp)
   10f78:	00269813          	slli	a6,a3,0x2
   10f7c:	80010113          	addi	sp,sp,-2048
   10f80:	80010113          	addi	sp,sp,-2048
   10f84:	982a                	add	a6,a6,a0
   10f86:	87aa                	mv	a5,a0
   10f88:	0007a023          	sw	zero,0(a5)
   10f8c:	0791                	addi	a5,a5,4
   10f8e:	ff079de3          	bne	a5,a6,10f88 <_Z18photonic_mvm_tiledPfPKfS1_ii+0x30>
   10f92:	fff7091b          	addiw	s2,a4,-1
   10f96:	8e2e                	mv	t3,a1
   10f98:	0059591b          	srliw	s2,s2,0x5
   10f9c:	fff6859b          	addiw	a1,a3,-1
   10fa0:	0055d59b          	srliw	a1,a1,0x5
   10fa4:	0916                	slli	s2,s2,0x5
   10fa6:	0596                	slli	a1,a1,0x5
   10fa8:	02090913          	addi	s2,s2,32
   10fac:	e432                	sd	a2,8(sp)
   10fae:	02058593          	addi	a1,a1,32
   10fb2:	8636                	mv	a2,a3
   10fb4:	0057131b          	slliw	t1,a4,0x5
   10fb8:	00271c93          	slli	s9,a4,0x2
   10fbc:	4801                	li	a6,0
   10fbe:	8bba                	mv	s7,a4
   10fc0:	8aca                	mv	s5,s2
   10fc2:	4b01                	li	s6,0
   10fc4:	01fb071b          	addiw	a4,s6,31
   10fc8:	000b089b          	sext.w	a7,s6
   10fcc:	02000693          	li	a3,32
   10fd0:	12c75663          	bge	a4,a2,110fc <_Z18photonic_mvm_tiledPfPKfS1_ii+0x1a4>
   10fd4:	13705863          	blez	s7,11104 <_Z18photonic_mvm_tiledPfPKfS1_ii+0x1ac>
   10fd8:	8c5e                	mv	s8,s7
   10fda:	87b6                	mv	a5,a3
   10fdc:	8bda                	mv	s7,s6
   10fde:	8d56                	mv	s10,s5
   10fe0:	15010b13          	addi	s6,sp,336
   10fe4:	01778db3          	add	s11,a5,s7
   10fe8:	0008041b          	sext.w	s0,a6
   10fec:	0d8a                	slli	s11,s11,0x2
   10fee:	002b9993          	slli	s3,s7,0x2
   10ff2:	040a                	slli	s0,s0,0x2
   10ff4:	ec5e                	sd	s7,24(sp)
   10ff6:	01b50ab3          	add	s5,a0,s11
   10ffa:	9472                	add	s0,s0,t3
   10ffc:	99aa                	add	s3,s3,a0
   10ffe:	f00b0a13          	addi	s4,s6,-256
   11002:	e83e                	sd	a5,16(sp)
   11004:	f042                	sd	a6,32(sp)
   11006:	00579b9b          	slliw	s7,a5,0x5
   1100a:	f42e                	sd	a1,40(sp)
   1100c:	f81a                	sd	t1,48(sp)
   1100e:	fc32                	sd	a2,56(sp)
   11010:	e0aa                	sd	a0,64(sp)
   11012:	e4f2                	sd	t3,72(sp)
   11014:	4d81                	li	s11,0
   11016:	01fd879b          	addiw	a5,s11,31
   1101a:	02000913          	li	s2,32
   1101e:	0187c463          	blt	a5,s8,11026 <_Z18photonic_mvm_tiledPfPKfS1_ii+0xce>
   11022:	41bc093b          	subw	s2,s8,s11
   11026:	08000613          	li	a2,128
   1102a:	4581                	li	a1,0
   1102c:	8552                	mv	a0,s4
   1102e:	51d160ef          	jal	27d4a <memset>
   11032:	6605                	lui	a2,0x1
   11034:	4581                	li	a1,0
   11036:	855a                	mv	a0,s6
   11038:	513160ef          	jal	27d4a <memset>
   1103c:	08000613          	li	a2,128
   11040:	f80b0513          	addi	a0,s6,-128
   11044:	4581                	li	a1,0
   11046:	505160ef          	jal	27d4a <memset>
   1104a:	6722                	ld	a4,8(sp)
   1104c:	002d9693          	slli	a3,s11,0x2
   11050:	089c                	addi	a5,sp,80
   11052:	00291e93          	slli	t4,s2,0x2
   11056:	96ba                	add	a3,a3,a4
   11058:	01d78633          	add	a2,a5,t4
   1105c:	0006a787          	flw	fa5,0(a3)
   11060:	0791                	addi	a5,a5,4
   11062:	0691                	addi	a3,a3,4
   11064:	fef7ae27          	fsw	fa5,-4(a5)
   11068:	fec79ae3          	bne	a5,a2,1105c <_Z18photonic_mvm_tiledPfPKfS1_ii+0x104>
   1106c:	01db0633          	add	a2,s6,t4
   11070:	8522                	mv	a0,s0
   11072:	4581                	li	a1,0
   11074:	41d607b3          	sub	a5,a2,t4
   11078:	872a                	mv	a4,a0
   1107a:	00072787          	flw	fa5,0(a4)
   1107e:	0791                	addi	a5,a5,4
   11080:	0711                	addi	a4,a4,4
   11082:	fef7ae27          	fsw	fa5,-4(a5)
   11086:	fec79ae3          	bne	a5,a2,1107a <_Z18photonic_mvm_tiledPfPKfS1_ii+0x122>
   1108a:	0205859b          	addiw	a1,a1,32
   1108e:	9566                	add	a0,a0,s9
   11090:	08078613          	addi	a2,a5,128
   11094:	ff7590e3          	bne	a1,s7,11074 <_Z18photonic_mvm_tiledPfPKfS1_ii+0x11c>
   11098:	66c2                	ld	a3,16(sp)
   1109a:	874a                	mv	a4,s2
   1109c:	0890                	addi	a2,sp,80
   1109e:	85da                	mv	a1,s6
   110a0:	0988                	addi	a0,sp,208
   110a2:	e07ff0ef          	jal	10ea8 <_Z17photonic_mvm_tilePfPKfS1_ii>
   110a6:	0998                	addi	a4,sp,208
   110a8:	87ce                	mv	a5,s3
   110aa:	0007a787          	flw	fa5,0(a5)
   110ae:	00072707          	flw	fa4,0(a4)
   110b2:	0791                	addi	a5,a5,4
   110b4:	0711                	addi	a4,a4,4
   110b6:	00e7f7d3          	fadd.s	fa5,fa5,fa4
   110ba:	fef7ae27          	fsw	fa5,-4(a5)
   110be:	fefa96e3          	bne	s5,a5,110aa <_Z18photonic_mvm_tiledPfPKfS1_ii+0x152>
   110c2:	020d8d93          	addi	s11,s11,32
   110c6:	08040413          	addi	s0,s0,128
   110ca:	f5ad96e3          	bne	s11,s10,11016 <_Z18photonic_mvm_tiledPfPKfS1_ii+0xbe>
   110ce:	6be2                	ld	s7,24(sp)
   110d0:	75a2                	ld	a1,40(sp)
   110d2:	7802                	ld	a6,32(sp)
   110d4:	020b8b93          	addi	s7,s7,32
   110d8:	7342                	ld	t1,48(sp)
   110da:	7662                	ld	a2,56(sp)
   110dc:	6506                	ld	a0,64(sp)
   110de:	6e26                	ld	t3,72(sp)
   110e0:	03758763          	beq	a1,s7,1110e <_Z18photonic_mvm_tiledPfPKfS1_ii+0x1b6>
   110e4:	01fb8e9b          	addiw	t4,s7,31
   110e8:	981a                	add	a6,a6,t1
   110ea:	000b889b          	sext.w	a7,s7
   110ee:	02000793          	li	a5,32
   110f2:	eecec9e3          	blt	t4,a2,10fe4 <_Z18photonic_mvm_tiledPfPKfS1_ii+0x8c>
   110f6:	8b5e                	mv	s6,s7
   110f8:	8aea                	mv	s5,s10
   110fa:	8be2                	mv	s7,s8
   110fc:	411606bb          	subw	a3,a2,a7
   11100:	ed704ce3          	bgtz	s7,10fd8 <_Z18photonic_mvm_tiledPfPKfS1_ii+0x80>
   11104:	020b0b13          	addi	s6,s6,32
   11108:	981a                	add	a6,a6,t1
   1110a:	eabb1de3          	bne	s6,a1,10fc4 <_Z18photonic_mvm_tiledPfPKfS1_ii+0x6c>
   1110e:	6285                	lui	t0,0x1
   11110:	9116                	add	sp,sp,t0
   11112:	70fa                	ld	ra,440(sp)
   11114:	745a                	ld	s0,432(sp)
   11116:	74ba                	ld	s1,424(sp)
   11118:	791a                	ld	s2,416(sp)
   1111a:	69fa                	ld	s3,408(sp)
   1111c:	6a5a                	ld	s4,400(sp)
   1111e:	6aba                	ld	s5,392(sp)
   11120:	6b1a                	ld	s6,384(sp)
   11122:	7bf6                	ld	s7,376(sp)
   11124:	7c56                	ld	s8,368(sp)
   11126:	7cb6                	ld	s9,360(sp)
   11128:	7d16                	ld	s10,352(sp)
   1112a:	6df6                	ld	s11,344(sp)
   1112c:	6139                	addi	sp,sp,448
   1112e:	8082                	ret
   11130:	8082                	ret

0000000000011132 <_Z9relu_fp32PfPKfi>:
   11132:	02c05063          	blez	a2,11152 <_Z9relu_fp32PfPKfi+0x20>
   11136:	f0000753          	fmv.w.x	fa4,zero
   1113a:	060a                	slli	a2,a2,0x2
   1113c:	962e                	add	a2,a2,a1
   1113e:	0005a787          	flw	fa5,0(a1)
   11142:	0591                	addi	a1,a1,4
   11144:	0511                	addi	a0,a0,4
   11146:	28e797d3          	fmax.s	fa5,fa5,fa4
   1114a:	fef52e27          	fsw	fa5,-4(a0)
   1114e:	fec598e3          	bne	a1,a2,1113e <_Z9relu_fp32PfPKfi+0xc>
   11152:	8082                	ret

0000000000011154 <_Z21forward_pass_photonicv>:
   11154:	00031537          	lui	a0,0x31
   11158:	bb010113          	addi	sp,sp,-1104
   1115c:	85050513          	addi	a0,a0,-1968 # 30850 <__clzdi2+0xee>
   11160:	44113423          	sd	ra,1096(sp)
   11164:	44813023          	sd	s0,1088(sp)
   11168:	42913c23          	sd	s1,1080(sp)
   1116c:	43213823          	sd	s2,1072(sp)
   11170:	43313423          	sd	s3,1064(sp)
   11174:	43413023          	sd	s4,1056(sp)
   11178:	40813427          	fsd	fs0,1032(sp)
   1117c:	41513c23          	sd	s5,1048(sp)
   11180:	1cb150ef          	jal	26b4a <puts>
   11184:	10000693          	li	a3,256
   11188:	00031537          	lui	a0,0x31
   1118c:	000634b7          	lui	s1,0x63
   11190:	f0000453          	fmv.w.x	fs0,zero
   11194:	77848493          	addi	s1,s1,1912 # 63778 <_ZL4act1>
   11198:	8636                	mv	a2,a3
   1119a:	88050513          	addi	a0,a0,-1920 # 30880 <__clzdi2+0x11e>
   1119e:	08000593          	li	a1,128
   111a2:	6a21                	lui	s4,0x8
   111a4:	0006c937          	lui	s2,0x6c
   111a8:	000d49b7          	lui	s3,0xd4
   111ac:	7c2150ef          	jal	2696e <printf>
   111b0:	9a26                	add	s4,s4,s1
   111b2:	8426                	mv	s0,s1
   111b4:	77890913          	addi	s2,s2,1912 # 6c778 <_ZL10input_data>
   111b8:	77898993          	addi	s3,s3,1912 # d4778 <_ZL2w1>
   111bc:	08000713          	li	a4,128
   111c0:	10000693          	li	a3,256
   111c4:	864a                	mv	a2,s2
   111c6:	85ce                	mv	a1,s3
   111c8:	850a                	mv	a0,sp
   111ca:	d8fff0ef          	jal	10f58 <_Z18photonic_mvm_tiledPfPKfS1_ii>
   111ce:	878a                	mv	a5,sp
   111d0:	8722                	mv	a4,s0
   111d2:	0007a787          	flw	fa5,0(a5)
   111d6:	40010693          	addi	a3,sp,1024
   111da:	0791                	addi	a5,a5,4
   111dc:	288797d3          	fmax.s	fa5,fa5,fs0
   111e0:	0711                	addi	a4,a4,4
   111e2:	fef72e27          	fsw	fa5,-4(a4)
   111e6:	fed796e3          	bne	a5,a3,111d2 <_Z21forward_pass_photonicv+0x7e>
   111ea:	40040413          	addi	s0,s0,1024
   111ee:	20090913          	addi	s2,s2,512
   111f2:	fd4415e3          	bne	s0,s4,111bc <_Z21forward_pass_photonicv+0x68>
   111f6:	10000693          	li	a3,256
   111fa:	00031537          	lui	a0,0x31
   111fe:	0005b9b7          	lui	s3,0x5b
   11202:	f0000453          	fmv.w.x	fs0,zero
   11206:	77898993          	addi	s3,s3,1912 # 5b778 <_ZL4act2>
   1120a:	8636                	mv	a2,a3
   1120c:	85b6                	mv	a1,a3
   1120e:	89850513          	addi	a0,a0,-1896 # 30898 <__clzdi2+0x136>
   11212:	6a21                	lui	s4,0x8
   11214:	00094937          	lui	s2,0x94
   11218:	756150ef          	jal	2696e <printf>
   1121c:	9a4e                	add	s4,s4,s3
   1121e:	844e                	mv	s0,s3
   11220:	77890913          	addi	s2,s2,1912 # 94778 <_ZL2w2>
   11224:	10000713          	li	a4,256
   11228:	86ba                	mv	a3,a4
   1122a:	8626                	mv	a2,s1
   1122c:	85ca                	mv	a1,s2
   1122e:	850a                	mv	a0,sp
   11230:	d29ff0ef          	jal	10f58 <_Z18photonic_mvm_tiledPfPKfS1_ii>
   11234:	878a                	mv	a5,sp
   11236:	8722                	mv	a4,s0
   11238:	0007a787          	flw	fa5,0(a5)
   1123c:	40010693          	addi	a3,sp,1024
   11240:	0791                	addi	a5,a5,4
   11242:	288797d3          	fmax.s	fa5,fa5,fs0
   11246:	0711                	addi	a4,a4,4
   11248:	fef72e27          	fsw	fa5,-4(a4)
   1124c:	fed796e3          	bne	a5,a3,11238 <_Z21forward_pass_photonicv+0xe4>
   11250:	40040413          	addi	s0,s0,1024
   11254:	40048493          	addi	s1,s1,1024
   11258:	fd4416e3          	bne	s0,s4,11224 <_Z21forward_pass_photonicv+0xd0>
   1125c:	08000693          	li	a3,128
   11260:	00031537          	lui	a0,0x31
   11264:	00057937          	lui	s2,0x57
   11268:	f0000453          	fmv.w.x	fs0,zero
   1126c:	77890913          	addi	s2,s2,1912 # 57778 <_ZL4act3>
   11270:	8636                	mv	a2,a3
   11272:	8b050513          	addi	a0,a0,-1872 # 308b0 <__clzdi2+0x14e>
   11276:	10000593          	li	a1,256
   1127a:	6a91                	lui	s5,0x4
   1127c:	00074a37          	lui	s4,0x74
   11280:	6ee150ef          	jal	2696e <printf>
   11284:	0400                	addi	s0,sp,512
   11286:	9aca                	add	s5,s5,s2
   11288:	84ca                	mv	s1,s2
   1128a:	778a0a13          	addi	s4,s4,1912 # 74778 <_ZL2w3>
   1128e:	10000713          	li	a4,256
   11292:	08000693          	li	a3,128
   11296:	864e                	mv	a2,s3
   11298:	85d2                	mv	a1,s4
   1129a:	850a                	mv	a0,sp
   1129c:	cbdff0ef          	jal	10f58 <_Z18photonic_mvm_tiledPfPKfS1_ii>
   112a0:	878a                	mv	a5,sp
   112a2:	8726                	mv	a4,s1
   112a4:	0007a787          	flw	fa5,0(a5)
   112a8:	0791                	addi	a5,a5,4
   112aa:	0711                	addi	a4,a4,4
   112ac:	288797d3          	fmax.s	fa5,fa5,fs0
   112b0:	fef72e27          	fsw	fa5,-4(a4)
   112b4:	fe8798e3          	bne	a5,s0,112a4 <_Z21forward_pass_photonicv+0x150>
   112b8:	20048493          	addi	s1,s1,512
   112bc:	40098993          	addi	s3,s3,1024
   112c0:	fd5497e3          	bne	s1,s5,1128e <_Z21forward_pass_photonicv+0x13a>
   112c4:	02000693          	li	a3,32
   112c8:	00031537          	lui	a0,0x31
   112cc:	00056437          	lui	s0,0x56
   112d0:	8636                	mv	a2,a3
   112d2:	8c850513          	addi	a0,a0,-1848 # 308c8 <__clzdi2+0x166>
   112d6:	08000593          	li	a1,128
   112da:	77840413          	addi	s0,s0,1912 # 56778 <_ZL4act4>
   112de:	6985                	lui	s3,0x1
   112e0:	000704b7          	lui	s1,0x70
   112e4:	68a150ef          	jal	2696e <printf>
   112e8:	99a2                	add	s3,s3,s0
   112ea:	77848493          	addi	s1,s1,1912 # 70778 <_ZL2w4>
   112ee:	864a                	mv	a2,s2
   112f0:	8522                	mv	a0,s0
   112f2:	08000713          	li	a4,128
   112f6:	02000693          	li	a3,32
   112fa:	85a6                	mv	a1,s1
   112fc:	08040413          	addi	s0,s0,128
   11300:	c59ff0ef          	jal	10f58 <_Z18photonic_mvm_tiledPfPKfS1_ii>
   11304:	20090913          	addi	s2,s2,512
   11308:	ff3413e3          	bne	s0,s3,112ee <_Z21forward_pass_photonicv+0x19a>
   1130c:	44813083          	ld	ra,1096(sp)
   11310:	44013403          	ld	s0,1088(sp)
   11314:	43813483          	ld	s1,1080(sp)
   11318:	43013903          	ld	s2,1072(sp)
   1131c:	42813983          	ld	s3,1064(sp)
   11320:	42013a03          	ld	s4,1056(sp)
   11324:	41813a83          	ld	s5,1048(sp)
   11328:	40813407          	fld	fs0,1032(sp)
   1132c:	45010113          	addi	sp,sp,1104
   11330:	8082                	ret

0000000000011332 <_Z15compute_metricsv>:
   11332:	7135                	addi	sp,sp,-160
   11334:	b44a                	fsd	fs2,40(sp)
   11336:	00031537          	lui	a0,0x31
   1133a:	f2000953          	fmv.d.x	fs2,zero
   1133e:	8e050513          	addi	a0,a0,-1824 # 308e0 <__clzdi2+0x17e>
   11342:	e922                	sd	s0,144(sp)
   11344:	e526                	sd	s1,136(sp)
   11346:	e14a                	sd	s2,128(sp)
   11348:	f4d6                	sd	s5,104(sp)
   1134a:	b04e                	fsd	fs3,32(sp)
   1134c:	ac52                	fsd	fs4,24(sp)
   1134e:	ed06                	sd	ra,152(sp)
   11350:	fcce                	sd	s3,120(sp)
   11352:	f8d2                	sd	s4,112(sp)
   11354:	f0da                	sd	s6,96(sp)
   11356:	ecde                	sd	s7,88(sp)
   11358:	e8e2                	sd	s8,80(sp)
   1135a:	e4e6                	sd	s9,72(sp)
   1135c:	bc22                	fsd	fs0,56(sp)
   1135e:	b826                	fsd	fs1,48(sp)
   11360:	a856                	fsd	fs5,16(sp)
   11362:	a45a                	fsd	fs6,8(sp)
   11364:	0006b937          	lui	s2,0x6b
   11368:	7e2150ef          	jal	26b4a <puts>
   1136c:	77890913          	addi	s2,s2,1912 # 6b778 <_ZL15expected_output>
   11370:	00056ab7          	lui	s5,0x56
   11374:	6485                	lui	s1,0x1
   11376:	23290a53          	fmv.d	fs4,fs2
   1137a:	232909d3          	fmv.d	fs3,fs2
   1137e:	23290653          	fmv.d	fa2,fs2
   11382:	232906d3          	fmv.d	fa3,fs2
   11386:	08090413          	addi	s0,s2,128
   1138a:	08048493          	addi	s1,s1,128 # 1080 <__cxa_bad_cast-0xf0a0>
   1138e:	778a8a93          	addi	s5,s5,1912 # 56778 <_ZL4act4>
   11392:	86a2                	mv	a3,s0
   11394:	94ca                	add	s1,s1,s2
   11396:	8656                	mv	a2,s5
   11398:	f8068793          	addi	a5,a3,-128
   1139c:	8732                	mv	a4,a2
   1139e:	0007a787          	flw	fa5,0(a5)
   113a2:	00072707          	flw	fa4,0(a4)
   113a6:	0791                	addi	a5,a5,4
   113a8:	420785d3          	fcvt.d.s	fa1,fa5
   113ac:	08f777d3          	fsub.s	fa5,fa4,fa5
   113b0:	42070753          	fcvt.d.s	fa4,fa4
   113b4:	02ba7a53          	fadd.d	fs4,fs4,fa1
   113b8:	0711                	addi	a4,a4,4
   113ba:	02e97953          	fadd.d	fs2,fs2,fa4
   113be:	10f7f753          	fmul.s	fa4,fa5,fa5
   113c2:	20f7a7d3          	fabs.s	fa5,fa5
   113c6:	420787d3          	fcvt.d.s	fa5,fa5
   113ca:	42070753          	fcvt.d.s	fa4,fa4
   113ce:	02f67653          	fadd.d	fa2,fa2,fa5
   113d2:	02e6f6d3          	fadd.d	fa3,fa3,fa4
   113d6:	2af999d3          	fmax.d	fs3,fs3,fa5
   113da:	fcd792e3          	bne	a5,a3,1139e <_Z15compute_metricsv+0x6c>
   113de:	08078693          	addi	a3,a5,128
   113e2:	08060613          	addi	a2,a2,128 # 1080 <__cxa_bad_cast-0xf0a0>
   113e6:	fa9699e3          	bne	a3,s1,11398 <_Z15compute_metricsv+0x66>
   113ea:	000419b7          	lui	s3,0x41
   113ee:	3609ba87          	fld	fs5,864(s3) # 41360 <__SDATA_BEGIN__>
   113f2:	00031537          	lui	a0,0x31
   113f6:	40000593          	li	a1,1024
   113fa:	1356f453          	fmul.d	fs0,fa3,fs5
   113fe:	90050513          	addi	a0,a0,-1792 # 30900 <__clzdi2+0x19e>
   11402:	135674d3          	fmul.d	fs1,fa2,fs5
   11406:	568150ef          	jal	2696e <printf>
   1140a:	00031537          	lui	a0,0x31
   1140e:	92050513          	addi	a0,a0,-1760 # 30920 <__clzdi2+0x1be>
   11412:	5a047b53          	fsqrt.d	fs6,fs0
   11416:	e20405d3          	fmv.x.d	a1,fs0
   1141a:	554150ef          	jal	2696e <printf>
   1141e:	00031537          	lui	a0,0x31
   11422:	94850513          	addi	a0,a0,-1720 # 30948 <__clzdi2+0x1e6>
   11426:	e20b05d3          	fmv.x.d	a1,fs6
   1142a:	544150ef          	jal	2696e <printf>
   1142e:	e20485d3          	fmv.x.d	a1,fs1
   11432:	00031537          	lui	a0,0x31
   11436:	97050513          	addi	a0,a0,-1680 # 30970 <__clzdi2+0x20e>
   1143a:	534150ef          	jal	2696e <printf>
   1143e:	e20985d3          	fmv.x.d	a1,fs3
   11442:	00031537          	lui	a0,0x31
   11446:	99850513          	addi	a0,a0,-1640 # 30998 <__clzdi2+0x236>
   1144a:	524150ef          	jal	2696e <printf>
   1144e:	135a77d3          	fmul.d	fa5,fs4,fs5
   11452:	00031537          	lui	a0,0x31
   11456:	9b850513          	addi	a0,a0,-1608 # 309b8 <__clzdi2+0x256>
   1145a:	e20785d3          	fmv.x.d	a1,fa5
   1145e:	510150ef          	jal	2696e <printf>
   11462:	135977d3          	fmul.d	fa5,fs2,fs5
   11466:	00031537          	lui	a0,0x31
   1146a:	9d850513          	addi	a0,a0,-1576 # 309d8 <__clzdi2+0x276>
   1146e:	e20785d3          	fmv.x.d	a1,fa5
   11472:	4fc150ef          	jal	2696e <printf>
   11476:	f2000753          	fmv.d.x	fa4,zero
   1147a:	f8040793          	addi	a5,s0,-128
   1147e:	0007a787          	flw	fa5,0(a5)
   11482:	0791                	addi	a5,a5,4
   11484:	20f7a7d3          	fabs.s	fa5,fa5
   11488:	420787d3          	fcvt.d.s	fa5,fa5
   1148c:	02f77753          	fadd.d	fa4,fa4,fa5
   11490:	fe8797e3          	bne	a5,s0,1147e <_Z15compute_metricsv+0x14c>
   11494:	08078413          	addi	s0,a5,128
   11498:	fe9411e3          	bne	s0,s1,1147a <_Z15compute_metricsv+0x148>
   1149c:	3609b687          	fld	fa3,864(s3)
   114a0:	f20007d3          	fmv.d.x	fa5,zero
   114a4:	12d77753          	fmul.d	fa4,fa4,fa3
   114a8:	22f78953          	fmv.d	fs2,fa5
   114ac:	a2f707d3          	fle.d	a5,fa4,fa5
   114b0:	eb89                	bnez	a5,114c2 <_Z15compute_metricsv+0x190>
   114b2:	1ae4f753          	fdiv.d	fa4,fs1,fa4
   114b6:	000417b7          	lui	a5,0x41
   114ba:	3687b787          	fld	fa5,872(a5) # 41368 <__SDATA_BEGIN__+0x8>
   114be:	12f77953          	fmul.d	fs2,fa4,fa5
   114c2:	e20905d3          	fmv.x.d	a1,fs2
   114c6:	00031537          	lui	a0,0x31
   114ca:	9f850513          	addi	a0,a0,-1544 # 309f8 <__clzdi2+0x296>
   114ce:	4a0150ef          	jal	2696e <printf>
   114d2:	00031537          	lui	a0,0x31
   114d6:	a1850513          	addi	a0,a0,-1512 # 30a18 <__clzdi2+0x2b6>
   114da:	00031c37          	lui	s8,0x31
   114de:	00031bb7          	lui	s7,0x31
   114e2:	00031a37          	lui	s4,0x31
   114e6:	00031b37          	lui	s6,0x31
   114ea:	000319b7          	lui	s3,0x31
   114ee:	010a8493          	addi	s1,s5,16
   114f2:	658150ef          	jal	26b4a <puts>
   114f6:	0941                	addi	s2,s2,16
   114f8:	a58c0c13          	addi	s8,s8,-1448 # 30a58 <__clzdi2+0x2f6>
   114fc:	a68b8b93          	addi	s7,s7,-1432 # 30a68 <__clzdi2+0x306>
   11500:	a78a0a13          	addi	s4,s4,-1416 # 30a78 <__clzdi2+0x316>
   11504:	a80b0b13          	addi	s6,s6,-1408 # 30a80 <__clzdi2+0x31e>
   11508:	a9898993          	addi	s3,s3,-1384 # 30a98 <__clzdi2+0x336>
   1150c:	4a81                	li	s5,0
   1150e:	00031cb7          	lui	s9,0x31
   11512:	85d6                	mv	a1,s5
   11514:	8562                	mv	a0,s8
   11516:	458150ef          	jal	2696e <printf>
   1151a:	855e                	mv	a0,s7
   1151c:	452150ef          	jal	2696e <printf>
   11520:	ff090413          	addi	s0,s2,-16
   11524:	00042787          	flw	fa5,0(s0)
   11528:	8552                	mv	a0,s4
   1152a:	0411                	addi	s0,s0,4
   1152c:	420787d3          	fcvt.d.s	fa5,fa5
   11530:	e20785d3          	fmv.x.d	a1,fa5
   11534:	43a150ef          	jal	2696e <printf>
   11538:	854e                	mv	a0,s3
   1153a:	00890563          	beq	s2,s0,11544 <_Z15compute_metricsv+0x212>
   1153e:	430150ef          	jal	2696e <printf>
   11542:	b7cd                	j	11524 <_Z15compute_metricsv+0x1f2>
   11544:	855a                	mv	a0,s6
   11546:	604150ef          	jal	26b4a <puts>
   1154a:	a88c8513          	addi	a0,s9,-1400 # 30a88 <__clzdi2+0x326>
   1154e:	420150ef          	jal	2696e <printf>
   11552:	ff048413          	addi	s0,s1,-16
   11556:	00042787          	flw	fa5,0(s0)
   1155a:	8552                	mv	a0,s4
   1155c:	0411                	addi	s0,s0,4
   1155e:	420787d3          	fcvt.d.s	fa5,fa5
   11562:	e20785d3          	fmv.x.d	a1,fa5
   11566:	408150ef          	jal	2696e <printf>
   1156a:	854e                	mv	a0,s3
   1156c:	00848563          	beq	s1,s0,11576 <_Z15compute_metricsv+0x244>
   11570:	3fe150ef          	jal	2696e <printf>
   11574:	b7cd                	j	11556 <_Z15compute_metricsv+0x224>
   11576:	855a                	mv	a0,s6
   11578:	5d2150ef          	jal	26b4a <puts>
   1157c:	2a85                	addiw	s5,s5,1
   1157e:	4795                	li	a5,5
   11580:	08048493          	addi	s1,s1,128
   11584:	08090913          	addi	s2,s2,128
   11588:	f8fa95e3          	bne	s5,a5,11512 <_Z15compute_metricsv+0x1e0>
   1158c:	644a                	ld	s0,144(sp)
   1158e:	60ea                	ld	ra,152(sp)
   11590:	64aa                	ld	s1,136(sp)
   11592:	690a                	ld	s2,128(sp)
   11594:	79e6                	ld	s3,120(sp)
   11596:	7a46                	ld	s4,112(sp)
   11598:	7aa6                	ld	s5,104(sp)
   1159a:	7b06                	ld	s6,96(sp)
   1159c:	6be6                	ld	s7,88(sp)
   1159e:	6c46                	ld	s8,80(sp)
   115a0:	6ca6                	ld	s9,72(sp)
   115a2:	2a62                	fld	fs4,24(sp)
   115a4:	2ac2                	fld	fs5,16(sp)
   115a6:	e20907d3          	fmv.x.d	a5,fs2
   115aa:	e20486d3          	fmv.x.d	a3,fs1
   115ae:	3922                	fld	fs2,40(sp)
   115b0:	34c2                	fld	fs1,48(sp)
   115b2:	e20b0653          	fmv.x.d	a2,fs6
   115b6:	e20405d3          	fmv.x.d	a1,fs0
   115ba:	2b22                	fld	fs6,8(sp)
   115bc:	3462                	fld	fs0,56(sp)
   115be:	e2098753          	fmv.x.d	a4,fs3
   115c2:	3982                	fld	fs3,32(sp)
   115c4:	00031537          	lui	a0,0x31
   115c8:	aa050513          	addi	a0,a0,-1376 # 30aa0 <__clzdi2+0x33e>
   115cc:	610d                	addi	sp,sp,160
   115ce:	3a01506f          	j	2696e <printf>

00000000000115d2 <_Z10matrix_sumPsPKsmm.part.0>:
   115d2:	00031537          	lui	a0,0x31
   115d6:	1141                	addi	sp,sp,-16
   115d8:	d3050513          	addi	a0,a0,-720 # 30d30 <__clzdi2+0x5ce>
   115dc:	e406                	sd	ra,8(sp)
   115de:	56c150ef          	jal	26b4a <puts>
   115e2:	00031537          	lui	a0,0x31
   115e6:	d8050513          	addi	a0,a0,-640 # 30d80 <__clzdi2+0x61e>
   115ea:	560150ef          	jal	26b4a <puts>
   115ee:	557d                	li	a0,-1
   115f0:	8c6ff0ef          	jal	106b6 <exit>

00000000000115f4 <_Z12vector_equalPsPKsS1_m>:
   115f4:	c505                	beqz	a0,1161c <_Z12vector_equalPsPKsS1_m+0x28>
   115f6:	c295                	beqz	a3,1161a <_Z12vector_equalPsPKsS1_m+0x26>
   115f8:	0686                	slli	a3,a3,0x1
   115fa:	96ae                	add	a3,a3,a1
   115fc:	00059783          	lh	a5,0(a1)
   11600:	00061703          	lh	a4,0(a2)
   11604:	0589                	addi	a1,a1,2
   11606:	0609                	addi	a2,a2,2
   11608:	8f99                	sub	a5,a5,a4
   1160a:	0017b793          	seqz	a5,a5
   1160e:	00f51023          	sh	a5,0(a0)
   11612:	0509                	addi	a0,a0,2
   11614:	fed594e3          	bne	a1,a3,115fc <_Z12vector_equalPsPKsS1_m+0x8>
   11618:	8082                	ret
   1161a:	8082                	ret
   1161c:	00031537          	lui	a0,0x31
   11620:	1101                	addi	sp,sp,-32
   11622:	d9850513          	addi	a0,a0,-616 # 30d98 <__clzdi2+0x636>
   11626:	ec06                	sd	ra,24(sp)
   11628:	e436                	sd	a3,8(sp)
   1162a:	520150ef          	jal	26b4a <puts>
   1162e:	65a2                	ld	a1,8(sp)
   11630:	00031537          	lui	a0,0x31
   11634:	de850513          	addi	a0,a0,-536 # 30de8 <__clzdi2+0x686>
   11638:	336150ef          	jal	2696e <printf>
   1163c:	557d                	li	a0,-1
   1163e:	878ff0ef          	jal	106b6 <exit>

0000000000011642 <_Z10vector_sumPsPKsm>:
   11642:	c11d                	beqz	a0,11668 <_Z10vector_sumPsPKsm+0x26>
   11644:	4781                	li	a5,0
   11646:	ce11                	beqz	a2,11662 <_Z10vector_sumPsPKsm+0x20>
   11648:	0606                	slli	a2,a2,0x1
   1164a:	962e                	add	a2,a2,a1
   1164c:	4781                	li	a5,0
   1164e:	0005d703          	lhu	a4,0(a1)
   11652:	0589                	addi	a1,a1,2
   11654:	9fb9                	addw	a5,a5,a4
   11656:	0107979b          	slliw	a5,a5,0x10
   1165a:	4107d79b          	sraiw	a5,a5,0x10
   1165e:	feb618e3          	bne	a2,a1,1164e <_Z10vector_sumPsPKsm+0xc>
   11662:	00f51023          	sh	a5,0(a0)
   11666:	8082                	ret
   11668:	00031537          	lui	a0,0x31
   1166c:	1141                	addi	sp,sp,-16
   1166e:	e1050513          	addi	a0,a0,-496 # 30e10 <__clzdi2+0x6ae>
   11672:	e406                	sd	ra,8(sp)
   11674:	4d6150ef          	jal	26b4a <puts>
   11678:	00031537          	lui	a0,0x31
   1167c:	d8050513          	addi	a0,a0,-640 # 30d80 <__clzdi2+0x61e>
   11680:	4ca150ef          	jal	26b4a <puts>
   11684:	557d                	li	a0,-1
   11686:	830ff0ef          	jal	106b6 <exit>

000000000001168a <_Z11vector_meanPsPKsm>:
   1168a:	c515                	beqz	a0,116b6 <_Z11vector_meanPsPKsm+0x2c>
   1168c:	4781                	li	a5,0
   1168e:	c20d                	beqz	a2,116b0 <_Z11vector_meanPsPKsm+0x26>
   11690:	00161693          	slli	a3,a2,0x1
   11694:	96ae                	add	a3,a3,a1
   11696:	4781                	li	a5,0
   11698:	0005d703          	lhu	a4,0(a1)
   1169c:	0589                	addi	a1,a1,2
   1169e:	9fb9                	addw	a5,a5,a4
   116a0:	0107979b          	slliw	a5,a5,0x10
   116a4:	4107d79b          	sraiw	a5,a5,0x10
   116a8:	feb698e3          	bne	a3,a1,11698 <_Z11vector_meanPsPKsm+0xe>
   116ac:	02c7d7b3          	divu	a5,a5,a2
   116b0:	00f51023          	sh	a5,0(a0)
   116b4:	8082                	ret
   116b6:	00031537          	lui	a0,0x31
   116ba:	1141                	addi	sp,sp,-16
   116bc:	e6050513          	addi	a0,a0,-416 # 30e60 <__clzdi2+0x6fe>
   116c0:	e406                	sd	ra,8(sp)
   116c2:	488150ef          	jal	26b4a <puts>
   116c6:	00031537          	lui	a0,0x31
   116ca:	d8050513          	addi	a0,a0,-640 # 30d80 <__clzdi2+0x61e>
   116ce:	47c150ef          	jal	26b4a <puts>
   116d2:	557d                	li	a0,-1
   116d4:	fe3fe0ef          	jal	106b6 <exit>

00000000000116d8 <_Z10vector_varPsPKsm>:
   116d8:	7179                	addi	sp,sp,-48
   116da:	f406                	sd	ra,40(sp)
   116dc:	f022                	sd	s0,32(sp)
   116de:	ec26                	sd	s1,24(sp)
   116e0:	e84a                	sd	s2,16(sp)
   116e2:	c525                	beqz	a0,1174a <_Z10vector_varPsPKsm+0x72>
   116e4:	57cd                	li	a5,-13
   116e6:	8389                	srli	a5,a5,0x2
   116e8:	84b2                	mv	s1,a2
   116ea:	06c7ef63          	bltu	a5,a2,11768 <_Z10vector_varPsPKsm+0x90>
   116ee:	00161413          	slli	s0,a2,0x1
   116f2:	892a                	mv	s2,a0
   116f4:	8522                	mv	a0,s0
   116f6:	e42e                	sd	a1,8(sp)
   116f8:	3d9040ef          	jal	162d0 <_Znam>
   116fc:	65a2                	ld	a1,8(sp)
   116fe:	c4a1                	beqz	s1,11746 <_Z10vector_varPsPKsm+0x6e>
   11700:	00858833          	add	a6,a1,s0
   11704:	87ae                	mv	a5,a1
   11706:	4601                	li	a2,0
   11708:	0007d703          	lhu	a4,0(a5)
   1170c:	0789                	addi	a5,a5,2
   1170e:	9e39                	addw	a2,a2,a4
   11710:	0106161b          	slliw	a2,a2,0x10
   11714:	4106561b          	sraiw	a2,a2,0x10
   11718:	fef818e3          	bne	a6,a5,11708 <_Z10vector_varPsPKsm+0x30>
   1171c:	02965633          	divu	a2,a2,s1
   11720:	0106161b          	slliw	a2,a2,0x10
   11724:	4106561b          	sraiw	a2,a2,0x10
   11728:	86a6                	mv	a3,s1
   1172a:	e42a                	sd	a0,8(sp)
   1172c:	7a0000ef          	jal	11ecc <_Z23tiled_vector_sub_scalarPsPKssm>
   11730:	6622                	ld	a2,8(sp)
   11732:	7402                	ld	s0,32(sp)
   11734:	70a2                	ld	ra,40(sp)
   11736:	86a6                	mv	a3,s1
   11738:	854a                	mv	a0,s2
   1173a:	64e2                	ld	s1,24(sp)
   1173c:	6942                	ld	s2,16(sp)
   1173e:	85b2                	mv	a1,a2
   11740:	6145                	addi	sp,sp,48
   11742:	4e80106f          	j	12c2a <_Z13tiled_dotprodPsPKsS1_m>
   11746:	4601                	li	a2,0
   11748:	b7c5                	j	11728 <_Z10vector_varPsPKsm+0x50>
   1174a:	00031537          	lui	a0,0x31
   1174e:	eb050513          	addi	a0,a0,-336 # 30eb0 <__clzdi2+0x74e>
   11752:	3f8150ef          	jal	26b4a <puts>
   11756:	00031537          	lui	a0,0x31
   1175a:	d8050513          	addi	a0,a0,-640 # 30d80 <__clzdi2+0x61e>
   1175e:	3ec150ef          	jal	26b4a <puts>
   11762:	557d                	li	a0,-1
   11764:	f53fe0ef          	jal	106b6 <exit>
   11768:	a05fe0ef          	jal	1016c <__cxa_throw_bad_array_new_length>

000000000001176c <_Z14vector_softmaxPsPKsms>:
   1176c:	715d                	addi	sp,sp,-80
   1176e:	e486                	sd	ra,72(sp)
   11770:	e0a2                	sd	s0,64(sp)
   11772:	fc26                	sd	s1,56(sp)
   11774:	f84a                	sd	s2,48(sp)
   11776:	f44e                	sd	s3,40(sp)
   11778:	c141                	beqz	a0,117f8 <_Z14vector_softmaxPsPKsms+0x8c>
   1177a:	842a                	mv	s0,a0
   1177c:	00e10513          	addi	a0,sp,14
   11780:	8932                	mv	s2,a2
   11782:	89b6                	mv	s3,a3
   11784:	84ae                	mv	s1,a1
   11786:	391000ef          	jal	12316 <_Z16tiled_vector_maxPsPKsm>
   1178a:	00e11603          	lh	a2,14(sp)
   1178e:	86ca                	mv	a3,s2
   11790:	85a6                	mv	a1,s1
   11792:	8522                	mv	a0,s0
   11794:	738000ef          	jal	11ecc <_Z23tiled_vector_sub_scalarPsPKssm>
   11798:	04090963          	beqz	s2,117ea <_Z14vector_softmaxPsPKsms+0x7e>
   1179c:	ac22                	fsd	fs0,24(sp)
   1179e:	f2000453          	fmv.d.x	fs0,zero
   117a2:	0906                	slli	s2,s2,0x1
   117a4:	9922                	add	s2,s2,s0
   117a6:	84a2                	mv	s1,s0
   117a8:	00049783          	lh	a5,0(s1)
   117ac:	0489                	addi	s1,s1,2
   117ae:	d2078553          	fcvt.d.w	fa0,a5
   117b2:	5350e0ef          	jal	204e6 <exp>
   117b6:	02a47453          	fadd.d	fs0,fs0,fa0
   117ba:	fe9917e3          	bne	s2,s1,117a8 <_Z14vector_softmaxPsPKsms+0x3c>
   117be:	000417b7          	lui	a5,0x41
   117c2:	3707b707          	fld	fa4,880(a5) # 41370 <__SDATA_BEGIN__+0x10>
   117c6:	1a877753          	fdiv.d	fa4,fa4,fs0
   117ca:	00041783          	lh	a5,0(s0)
   117ce:	0409                	addi	s0,s0,2
   117d0:	033787bb          	mulw	a5,a5,s3
   117d4:	d20787d3          	fcvt.d.w	fa5,a5
   117d8:	12e7f7d3          	fmul.d	fa5,fa5,fa4
   117dc:	c20797d3          	fcvt.w.d	a5,fa5,rtz
   117e0:	fef41f23          	sh	a5,-2(s0)
   117e4:	fe8913e3          	bne	s2,s0,117ca <_Z14vector_softmaxPsPKsms+0x5e>
   117e8:	2462                	fld	fs0,24(sp)
   117ea:	6406                	ld	s0,64(sp)
   117ec:	60a6                	ld	ra,72(sp)
   117ee:	74e2                	ld	s1,56(sp)
   117f0:	7942                	ld	s2,48(sp)
   117f2:	79a2                	ld	s3,40(sp)
   117f4:	6161                	addi	sp,sp,80
   117f6:	8082                	ret
   117f8:	00031537          	lui	a0,0x31
   117fc:	f0050513          	addi	a0,a0,-256 # 30f00 <__clzdi2+0x79e>
   11800:	ac22                	fsd	fs0,24(sp)
   11802:	348150ef          	jal	26b4a <puts>
   11806:	00031537          	lui	a0,0x31
   1180a:	d8050513          	addi	a0,a0,-640 # 30d80 <__clzdi2+0x61e>
   1180e:	33c150ef          	jal	26b4a <puts>
   11812:	557d                	li	a0,-1
   11814:	ea3fe0ef          	jal	106b6 <exit>

0000000000011818 <_Z10matrix_sumPsPKsmm>:
   11818:	cd31                	beqz	a0,11874 <_Z10matrix_sumPsPKsmm+0x5c>
   1181a:	ca19                	beqz	a2,11830 <_Z10matrix_sumPsPKsmm+0x18>
   1181c:	00169313          	slli	t1,a3,0x1
   11820:	959a                	add	a1,a1,t1
   11822:	00161e13          	slli	t3,a2,0x1
   11826:	4881                	li	a7,0
   11828:	ea81                	bnez	a3,11838 <_Z10matrix_sumPsPKsmm+0x20>
   1182a:	0885                	addi	a7,a7,1
   1182c:	ff161fe3          	bne	a2,a7,1182a <_Z10matrix_sumPsPKsmm+0x12>
   11830:	4801                	li	a6,0
   11832:	01051023          	sh	a6,0(a0)
   11836:	8082                	ret
   11838:	4801                	li	a6,0
   1183a:	40658733          	sub	a4,a1,t1
   1183e:	4781                	li	a5,0
   11840:	00075683          	lhu	a3,0(a4)
   11844:	0709                	addi	a4,a4,2
   11846:	9fb5                	addw	a5,a5,a3
   11848:	03079693          	slli	a3,a5,0x30
   1184c:	0107979b          	slliw	a5,a5,0x10
   11850:	92c1                	srli	a3,a3,0x30
   11852:	4107d79b          	sraiw	a5,a5,0x10
   11856:	fee595e3          	bne	a1,a4,11840 <_Z10matrix_sumPsPKsmm+0x28>
   1185a:	00d8083b          	addw	a6,a6,a3
   1185e:	0108181b          	slliw	a6,a6,0x10
   11862:	0885                	addi	a7,a7,1
   11864:	4108581b          	sraiw	a6,a6,0x10
   11868:	95f2                	add	a1,a1,t3
   1186a:	fcc898e3          	bne	a7,a2,1183a <_Z10matrix_sumPsPKsmm+0x22>
   1186e:	01051023          	sh	a6,0(a0)
   11872:	8082                	ret
   11874:	1141                	addi	sp,sp,-16
   11876:	e406                	sd	ra,8(sp)
   11878:	d5bff0ef          	jal	115d2 <_Z10matrix_sumPsPKsmm.part.0>

000000000001187c <_Z10matrix_sumPsPKsmmm>:
   1187c:	1141                	addi	sp,sp,-16
   1187e:	e406                	sd	ra,8(sp)
   11880:	e022                	sd	s0,0(sp)
   11882:	cd49                	beqz	a0,1191c <_Z10matrix_sumPsPKsmmm+0xa0>
   11884:	842a                	mv	s0,a0
   11886:	c741                	beqz	a4,1190e <_Z10matrix_sumPsPKsmmm+0x92>
   11888:	c259                	beqz	a2,1190e <_Z10matrix_sumPsPKsmmm+0x92>
   1188a:	00169e93          	slli	t4,a3,0x1
   1188e:	01d582b3          	add	t0,a1,t4
   11892:	00171513          	slli	a0,a4,0x1
   11896:	00161f13          	slli	t5,a2,0x1
   1189a:	4f81                	li	t6,0
   1189c:	4381                	li	t2,0
   1189e:	8896                	mv	a7,t0
   118a0:	4e01                	li	t3,0
   118a2:	e68d                	bnez	a3,118cc <_Z10matrix_sumPsPKsmmm+0x50>
   118a4:	0e05                	addi	t3,t3,1
   118a6:	ffc61fe3          	bne	a2,t3,118a4 <_Z10matrix_sumPsPKsmmm+0x28>
   118aa:	4581                	li	a1,0
   118ac:	00bf8fbb          	addw	t6,t6,a1
   118b0:	010f9f9b          	slliw	t6,t6,0x10
   118b4:	0385                	addi	t2,t2,1
   118b6:	410fdf9b          	sraiw	t6,t6,0x10
   118ba:	92aa                	add	t0,t0,a0
   118bc:	fee391e3          	bne	t2,a4,1189e <_Z10matrix_sumPsPKsmmm+0x22>
   118c0:	60a2                	ld	ra,8(sp)
   118c2:	01f41023          	sh	t6,0(s0)
   118c6:	6402                	ld	s0,0(sp)
   118c8:	0141                	addi	sp,sp,16
   118ca:	8082                	ret
   118cc:	4301                	li	t1,0
   118ce:	41d885b3          	sub	a1,a7,t4
   118d2:	4781                	li	a5,0
   118d4:	0005d803          	lhu	a6,0(a1)
   118d8:	0589                	addi	a1,a1,2
   118da:	00f807bb          	addw	a5,a6,a5
   118de:	03079813          	slli	a6,a5,0x30
   118e2:	0107979b          	slliw	a5,a5,0x10
   118e6:	03085813          	srli	a6,a6,0x30
   118ea:	4107d79b          	sraiw	a5,a5,0x10
   118ee:	ff1593e3          	bne	a1,a7,118d4 <_Z10matrix_sumPsPKsmmm+0x58>
   118f2:	010307bb          	addw	a5,t1,a6
   118f6:	03079593          	slli	a1,a5,0x30
   118fa:	0107931b          	slliw	t1,a5,0x10
   118fe:	0e05                	addi	t3,t3,1
   11900:	98fa                	add	a7,a7,t5
   11902:	91c1                	srli	a1,a1,0x30
   11904:	4103531b          	sraiw	t1,t1,0x10
   11908:	fdc613e3          	bne	a2,t3,118ce <_Z10matrix_sumPsPKsmmm+0x52>
   1190c:	b745                	j	118ac <_Z10matrix_sumPsPKsmmm+0x30>
   1190e:	4f81                	li	t6,0
   11910:	60a2                	ld	ra,8(sp)
   11912:	01f41023          	sh	t6,0(s0)
   11916:	6402                	ld	s0,0(sp)
   11918:	0141                	addi	sp,sp,16
   1191a:	8082                	ret
   1191c:	cb7ff0ef          	jal	115d2 <_Z10matrix_sumPsPKsmm.part.0>

0000000000011920 <_Z11matrix_meanPsPKsmm>:
   11920:	c12d                	beqz	a0,11982 <_Z11matrix_meanPsPKsmm+0x62>
   11922:	4801                	li	a6,0
   11924:	c205                	beqz	a2,11944 <_Z11matrix_meanPsPKsmm+0x24>
   11926:	00169313          	slli	t1,a3,0x1
   1192a:	02d60eb3          	mul	t4,a2,a3
   1192e:	959a                	add	a1,a1,t1
   11930:	00161e13          	slli	t3,a2,0x1
   11934:	4881                	li	a7,0
   11936:	ea91                	bnez	a3,1194a <_Z11matrix_meanPsPKsmm+0x2a>
   11938:	0885                	addi	a7,a7,1
   1193a:	ff161fe3          	bne	a2,a7,11938 <_Z11matrix_meanPsPKsmm+0x18>
   1193e:	4801                	li	a6,0
   11940:	03d85833          	divu	a6,a6,t4
   11944:	01051023          	sh	a6,0(a0)
   11948:	8082                	ret
   1194a:	4801                	li	a6,0
   1194c:	40658733          	sub	a4,a1,t1
   11950:	4781                	li	a5,0
   11952:	00075683          	lhu	a3,0(a4)
   11956:	0709                	addi	a4,a4,2
   11958:	9fb5                	addw	a5,a5,a3
   1195a:	03079693          	slli	a3,a5,0x30
   1195e:	0107979b          	slliw	a5,a5,0x10
   11962:	92c1                	srli	a3,a3,0x30
   11964:	4107d79b          	sraiw	a5,a5,0x10
   11968:	fee595e3          	bne	a1,a4,11952 <_Z11matrix_meanPsPKsmm+0x32>
   1196c:	00d8083b          	addw	a6,a6,a3
   11970:	0108181b          	slliw	a6,a6,0x10
   11974:	0885                	addi	a7,a7,1
   11976:	4108581b          	sraiw	a6,a6,0x10
   1197a:	95f2                	add	a1,a1,t3
   1197c:	fd1618e3          	bne	a2,a7,1194c <_Z11matrix_meanPsPKsmm+0x2c>
   11980:	b7c1                	j	11940 <_Z11matrix_meanPsPKsmm+0x20>
   11982:	00031537          	lui	a0,0x31
   11986:	1141                	addi	sp,sp,-16
   11988:	f5050513          	addi	a0,a0,-176 # 30f50 <__clzdi2+0x7ee>
   1198c:	e406                	sd	ra,8(sp)
   1198e:	1bc150ef          	jal	26b4a <puts>
   11992:	00031537          	lui	a0,0x31
   11996:	d8050513          	addi	a0,a0,-640 # 30d80 <__clzdi2+0x61e>
   1199a:	1b0150ef          	jal	26b4a <puts>
   1199e:	557d                	li	a0,-1
   119a0:	d17fe0ef          	jal	106b6 <exit>

00000000000119a4 <_Z11matrix_meanPsPKsmmm>:
   119a4:	7139                	addi	sp,sp,-64
   119a6:	fc06                	sd	ra,56(sp)
   119a8:	f822                	sd	s0,48(sp)
   119aa:	f426                	sd	s1,40(sp)
   119ac:	f04a                	sd	s2,32(sp)
   119ae:	ec4e                	sd	s3,24(sp)
   119b0:	cd05                	beqz	a0,119e8 <_Z11matrix_meanPsPKsmmm+0x44>
   119b2:	842a                	mv	s0,a0
   119b4:	00e10513          	addi	a0,sp,14
   119b8:	84b2                	mv	s1,a2
   119ba:	8936                	mv	s2,a3
   119bc:	89ba                	mv	s3,a4
   119be:	00011723          	sh	zero,14(sp)
   119c2:	ebbff0ef          	jal	1187c <_Z10matrix_sumPsPKsmmm>
   119c6:	03390633          	mul	a2,s2,s3
   119ca:	00e11783          	lh	a5,14(sp)
   119ce:	70e2                	ld	ra,56(sp)
   119d0:	7902                	ld	s2,32(sp)
   119d2:	69e2                	ld	s3,24(sp)
   119d4:	02960633          	mul	a2,a2,s1
   119d8:	74a2                	ld	s1,40(sp)
   119da:	02c7d7b3          	divu	a5,a5,a2
   119de:	00f41023          	sh	a5,0(s0)
   119e2:	7442                	ld	s0,48(sp)
   119e4:	6121                	addi	sp,sp,64
   119e6:	8082                	ret
   119e8:	00031537          	lui	a0,0x31
   119ec:	f5050513          	addi	a0,a0,-176 # 30f50 <__clzdi2+0x7ee>
   119f0:	15a150ef          	jal	26b4a <puts>
   119f4:	00031537          	lui	a0,0x31
   119f8:	d8050513          	addi	a0,a0,-640 # 30d80 <__clzdi2+0x61e>
   119fc:	14e150ef          	jal	26b4a <puts>
   11a00:	557d                	li	a0,-1
   11a02:	cb5fe0ef          	jal	106b6 <exit>

0000000000011a06 <_Z14fit_vector_addPsPKsS1_m>:
   11a06:	02000793          	li	a5,32
   11a0a:	02d7e263          	bltu	a5,a3,11a2e <_Z14fit_vector_addPsPKsS1_m+0x28>
   11a0e:	872a                	mv	a4,a0
   11a10:	8536                	mv	a0,a3
   11a12:	1805200b          	.insn	4, 0x1805200b
   11a16:	852e                	mv	a0,a1
   11a18:	1005208b          	.insn	4, 0x1005208b
   11a1c:	8532                	mv	a0,a2
   11a1e:	1005210b          	.insn	4, 0x1005210b
   11a22:	0220818b          	.insn	4, 0x0220818b
   11a26:	853a                	mv	a0,a4
   11a28:	1235200b          	.insn	4, 0x1235200b
   11a2c:	8082                	ret
   11a2e:	000316b7          	lui	a3,0x31
   11a32:	00031637          	lui	a2,0x31
   11a36:	00031537          	lui	a0,0x31
   11a3a:	1141                	addi	sp,sp,-16
   11a3c:	fa068693          	addi	a3,a3,-96 # 30fa0 <__clzdi2+0x83e>
   11a40:	fb860613          	addi	a2,a2,-72 # 30fb8 <__clzdi2+0x856>
   11a44:	00050513          	mv	a0,a0
   11a48:	4599                	li	a1,6
   11a4a:	e406                	sd	ra,8(sp)
   11a4c:	526120ef          	jal	23f72 <__assert_func>

0000000000011a50 <_Z16tiled_vector_addPsPKsS1_m>:
   11a50:	cd49                	beqz	a0,11aea <_Z16tiled_vector_addPsPKsS1_m+0x9a>
   11a52:	02000793          	li	a5,32
   11a56:	8e2a                	mv	t3,a0
   11a58:	06d7fa63          	bgeu	a5,a3,11acc <_Z16tiled_vector_addPsPKsS1_m+0x7c>
   11a5c:	01f6fe93          	andi	t4,a3,31
   11a60:	0056d313          	srli	t1,a3,0x5
   11a64:	88ae                	mv	a7,a1
   11a66:	8832                	mv	a6,a2
   11a68:	872a                	mv	a4,a0
   11a6a:	4781                	li	a5,0
   11a6c:	02000513          	li	a0,32
   11a70:	1805200b          	.insn	4, 0x1805200b
   11a74:	8546                	mv	a0,a7
   11a76:	1005208b          	.insn	4, 0x1005208b
   11a7a:	8542                	mv	a0,a6
   11a7c:	1005210b          	.insn	4, 0x1005210b
   11a80:	0220818b          	.insn	4, 0x0220818b
   11a84:	853a                	mv	a0,a4
   11a86:	1235200b          	.insn	4, 0x1235200b
   11a8a:	0785                	addi	a5,a5,1
   11a8c:	04088893          	addi	a7,a7,64
   11a90:	04080813          	addi	a6,a6,64
   11a94:	04070713          	addi	a4,a4,64
   11a98:	fcf31ae3          	bne	t1,a5,11a6c <_Z16tiled_vector_addPsPKsS1_m+0x1c>
   11a9c:	000e9363          	bnez	t4,11aa2 <_Z16tiled_vector_addPsPKsS1_m+0x52>
   11aa0:	8082                	ret
   11aa2:	41d686b3          	sub	a3,a3,t4
   11aa6:	0686                	slli	a3,a3,0x1
   11aa8:	8576                	mv	a0,t4
   11aaa:	1805200b          	.insn	4, 0x1805200b
   11aae:	00d58533          	add	a0,a1,a3
   11ab2:	1005208b          	.insn	4, 0x1005208b
   11ab6:	00d60533          	add	a0,a2,a3
   11aba:	1005210b          	.insn	4, 0x1005210b
   11abe:	0220818b          	.insn	4, 0x0220818b
   11ac2:	00de0533          	add	a0,t3,a3
   11ac6:	1235200b          	.insn	4, 0x1235200b
   11aca:	8082                	ret
   11acc:	8536                	mv	a0,a3
   11ace:	1805200b          	.insn	4, 0x1805200b
   11ad2:	852e                	mv	a0,a1
   11ad4:	1005208b          	.insn	4, 0x1005208b
   11ad8:	8532                	mv	a0,a2
   11ada:	1005210b          	.insn	4, 0x1005210b
   11ade:	0220818b          	.insn	4, 0x0220818b
   11ae2:	8572                	mv	a0,t3
   11ae4:	1235200b          	.insn	4, 0x1235200b
   11ae8:	8082                	ret
   11aea:	00031537          	lui	a0,0x31
   11aee:	1101                	addi	sp,sp,-32
   11af0:	01850513          	addi	a0,a0,24 # 31018 <__clzdi2+0x8b6>
   11af4:	ec06                	sd	ra,24(sp)
   11af6:	e436                	sd	a3,8(sp)
   11af8:	052150ef          	jal	26b4a <puts>
   11afc:	65a2                	ld	a1,8(sp)
   11afe:	00031537          	lui	a0,0x31
   11b02:	06850513          	addi	a0,a0,104 # 31068 <__clzdi2+0x906>
   11b06:	669140ef          	jal	2696e <printf>
   11b0a:	557d                	li	a0,-1
   11b0c:	babfe0ef          	jal	106b6 <exit>

0000000000011b10 <_Z23tiled_matrix_vector_addPsPKsS1_mm>:
   11b10:	7139                	addi	sp,sp,-64
   11b12:	e852                	sd	s4,16(sp)
   11b14:	e456                	sd	s5,8(sp)
   11b16:	fc06                	sd	ra,56(sp)
   11b18:	8a36                	mv	s4,a3
   11b1a:	8aba                	mv	s5,a4
   11b1c:	c131                	beqz	a0,11b60 <_Z23tiled_matrix_vector_addPsPKsS1_mm+0x50>
   11b1e:	ce85                	beqz	a3,11b56 <_Z23tiled_matrix_vector_addPsPKsS1_mm+0x46>
   11b20:	f822                	sd	s0,48(sp)
   11b22:	f426                	sd	s1,40(sp)
   11b24:	f04a                	sd	s2,32(sp)
   11b26:	ec4e                	sd	s3,24(sp)
   11b28:	e05a                	sd	s6,0(sp)
   11b2a:	842a                	mv	s0,a0
   11b2c:	8b32                	mv	s6,a2
   11b2e:	84ae                	mv	s1,a1
   11b30:	00171993          	slli	s3,a4,0x1
   11b34:	4901                	li	s2,0
   11b36:	85a6                	mv	a1,s1
   11b38:	8522                	mv	a0,s0
   11b3a:	86d6                	mv	a3,s5
   11b3c:	865a                	mv	a2,s6
   11b3e:	0905                	addi	s2,s2,1
   11b40:	f11ff0ef          	jal	11a50 <_Z16tiled_vector_addPsPKsS1_m>
   11b44:	944e                	add	s0,s0,s3
   11b46:	94ce                	add	s1,s1,s3
   11b48:	ff2a17e3          	bne	s4,s2,11b36 <_Z23tiled_matrix_vector_addPsPKsS1_mm+0x26>
   11b4c:	7442                	ld	s0,48(sp)
   11b4e:	74a2                	ld	s1,40(sp)
   11b50:	7902                	ld	s2,32(sp)
   11b52:	69e2                	ld	s3,24(sp)
   11b54:	6b02                	ld	s6,0(sp)
   11b56:	70e2                	ld	ra,56(sp)
   11b58:	6a42                	ld	s4,16(sp)
   11b5a:	6aa2                	ld	s5,8(sp)
   11b5c:	6121                	addi	sp,sp,64
   11b5e:	8082                	ret
   11b60:	00031537          	lui	a0,0x31
   11b64:	08850513          	addi	a0,a0,136 # 31088 <__clzdi2+0x926>
   11b68:	f822                	sd	s0,48(sp)
   11b6a:	f426                	sd	s1,40(sp)
   11b6c:	f04a                	sd	s2,32(sp)
   11b6e:	ec4e                	sd	s3,24(sp)
   11b70:	e05a                	sd	s6,0(sp)
   11b72:	7d9140ef          	jal	26b4a <puts>
   11b76:	00031537          	lui	a0,0x31
   11b7a:	8656                	mv	a2,s5
   11b7c:	85d2                	mv	a1,s4
   11b7e:	0e050513          	addi	a0,a0,224 # 310e0 <__clzdi2+0x97e>
   11b82:	5ed140ef          	jal	2696e <printf>
   11b86:	557d                	li	a0,-1
   11b88:	b2ffe0ef          	jal	106b6 <exit>

0000000000011b8c <_Z14fit_vector_subPsPKsS1_m>:
   11b8c:	02000793          	li	a5,32
   11b90:	02d7e263          	bltu	a5,a3,11bb4 <_Z14fit_vector_subPsPKsS1_m+0x28>
   11b94:	872a                	mv	a4,a0
   11b96:	8536                	mv	a0,a3
   11b98:	1805200b          	.insn	4, 0x1805200b
   11b9c:	852e                	mv	a0,a1
   11b9e:	1005208b          	.insn	4, 0x1005208b
   11ba2:	8532                	mv	a0,a2
   11ba4:	1005210b          	.insn	4, 0x1005210b
   11ba8:	0420818b          	.insn	4, 0x0420818b
   11bac:	853a                	mv	a0,a4
   11bae:	1235200b          	.insn	4, 0x1235200b
   11bb2:	8082                	ret
   11bb4:	000316b7          	lui	a3,0x31
   11bb8:	00031637          	lui	a2,0x31
   11bbc:	00031537          	lui	a0,0x31
   11bc0:	1141                	addi	sp,sp,-16
   11bc2:	fa068693          	addi	a3,a3,-96 # 30fa0 <__clzdi2+0x83e>
   11bc6:	11060613          	addi	a2,a2,272 # 31110 <__clzdi2+0x9ae>
   11bca:	00050513          	mv	a0,a0
   11bce:	03600593          	li	a1,54
   11bd2:	e406                	sd	ra,8(sp)
   11bd4:	39e120ef          	jal	23f72 <__assert_func>

0000000000011bd8 <_Z16tiled_vector_subPsPKsS1_m>:
   11bd8:	cd49                	beqz	a0,11c72 <_Z16tiled_vector_subPsPKsS1_m+0x9a>
   11bda:	02000793          	li	a5,32
   11bde:	8e2a                	mv	t3,a0
   11be0:	06d7fa63          	bgeu	a5,a3,11c54 <_Z16tiled_vector_subPsPKsS1_m+0x7c>
   11be4:	01f6fe93          	andi	t4,a3,31
   11be8:	0056d313          	srli	t1,a3,0x5
   11bec:	88ae                	mv	a7,a1
   11bee:	8832                	mv	a6,a2
   11bf0:	872a                	mv	a4,a0
   11bf2:	4781                	li	a5,0
   11bf4:	02000513          	li	a0,32
   11bf8:	1805200b          	.insn	4, 0x1805200b
   11bfc:	8546                	mv	a0,a7
   11bfe:	1005208b          	.insn	4, 0x1005208b
   11c02:	8542                	mv	a0,a6
   11c04:	1005210b          	.insn	4, 0x1005210b
   11c08:	0420818b          	.insn	4, 0x0420818b
   11c0c:	853a                	mv	a0,a4
   11c0e:	1235200b          	.insn	4, 0x1235200b
   11c12:	0785                	addi	a5,a5,1
   11c14:	04088893          	addi	a7,a7,64
   11c18:	04080813          	addi	a6,a6,64
   11c1c:	04070713          	addi	a4,a4,64
   11c20:	fcf31ae3          	bne	t1,a5,11bf4 <_Z16tiled_vector_subPsPKsS1_m+0x1c>
   11c24:	000e9363          	bnez	t4,11c2a <_Z16tiled_vector_subPsPKsS1_m+0x52>
   11c28:	8082                	ret
   11c2a:	41d686b3          	sub	a3,a3,t4
   11c2e:	0686                	slli	a3,a3,0x1
   11c30:	8576                	mv	a0,t4
   11c32:	1805200b          	.insn	4, 0x1805200b
   11c36:	00d58533          	add	a0,a1,a3
   11c3a:	1005208b          	.insn	4, 0x1005208b
   11c3e:	00d60533          	add	a0,a2,a3
   11c42:	1005210b          	.insn	4, 0x1005210b
   11c46:	0420818b          	.insn	4, 0x0420818b
   11c4a:	00de0533          	add	a0,t3,a3
   11c4e:	1235200b          	.insn	4, 0x1235200b
   11c52:	8082                	ret
   11c54:	8536                	mv	a0,a3
   11c56:	1805200b          	.insn	4, 0x1805200b
   11c5a:	852e                	mv	a0,a1
   11c5c:	1005208b          	.insn	4, 0x1005208b
   11c60:	8532                	mv	a0,a2
   11c62:	1005210b          	.insn	4, 0x1005210b
   11c66:	0420818b          	.insn	4, 0x0420818b
   11c6a:	8572                	mv	a0,t3
   11c6c:	1235200b          	.insn	4, 0x1235200b
   11c70:	8082                	ret
   11c72:	00031537          	lui	a0,0x31
   11c76:	1101                	addi	sp,sp,-32
   11c78:	15850513          	addi	a0,a0,344 # 31158 <__clzdi2+0x9f6>
   11c7c:	ec06                	sd	ra,24(sp)
   11c7e:	e436                	sd	a3,8(sp)
   11c80:	6cb140ef          	jal	26b4a <puts>
   11c84:	65a2                	ld	a1,8(sp)
   11c86:	00031537          	lui	a0,0x31
   11c8a:	06850513          	addi	a0,a0,104 # 31068 <__clzdi2+0x906>
   11c8e:	4e1140ef          	jal	2696e <printf>
   11c92:	557d                	li	a0,-1
   11c94:	a23fe0ef          	jal	106b6 <exit>

0000000000011c98 <_Z23tiled_matrix_vector_subPsPKsS1_mm>:
   11c98:	7139                	addi	sp,sp,-64
   11c9a:	e852                	sd	s4,16(sp)
   11c9c:	e456                	sd	s5,8(sp)
   11c9e:	fc06                	sd	ra,56(sp)
   11ca0:	8a36                	mv	s4,a3
   11ca2:	8aba                	mv	s5,a4
   11ca4:	c131                	beqz	a0,11ce8 <_Z23tiled_matrix_vector_subPsPKsS1_mm+0x50>
   11ca6:	ce85                	beqz	a3,11cde <_Z23tiled_matrix_vector_subPsPKsS1_mm+0x46>
   11ca8:	f822                	sd	s0,48(sp)
   11caa:	f426                	sd	s1,40(sp)
   11cac:	f04a                	sd	s2,32(sp)
   11cae:	ec4e                	sd	s3,24(sp)
   11cb0:	e05a                	sd	s6,0(sp)
   11cb2:	842a                	mv	s0,a0
   11cb4:	8b32                	mv	s6,a2
   11cb6:	84ae                	mv	s1,a1
   11cb8:	00171993          	slli	s3,a4,0x1
   11cbc:	4901                	li	s2,0
   11cbe:	85a6                	mv	a1,s1
   11cc0:	8522                	mv	a0,s0
   11cc2:	86d6                	mv	a3,s5
   11cc4:	865a                	mv	a2,s6
   11cc6:	0905                	addi	s2,s2,1
   11cc8:	f11ff0ef          	jal	11bd8 <_Z16tiled_vector_subPsPKsS1_m>
   11ccc:	944e                	add	s0,s0,s3
   11cce:	94ce                	add	s1,s1,s3
   11cd0:	ff2a17e3          	bne	s4,s2,11cbe <_Z23tiled_matrix_vector_subPsPKsS1_mm+0x26>
   11cd4:	7442                	ld	s0,48(sp)
   11cd6:	74a2                	ld	s1,40(sp)
   11cd8:	7902                	ld	s2,32(sp)
   11cda:	69e2                	ld	s3,24(sp)
   11cdc:	6b02                	ld	s6,0(sp)
   11cde:	70e2                	ld	ra,56(sp)
   11ce0:	6a42                	ld	s4,16(sp)
   11ce2:	6aa2                	ld	s5,8(sp)
   11ce4:	6121                	addi	sp,sp,64
   11ce6:	8082                	ret
   11ce8:	00031537          	lui	a0,0x31
   11cec:	1a850513          	addi	a0,a0,424 # 311a8 <__clzdi2+0xa46>
   11cf0:	f822                	sd	s0,48(sp)
   11cf2:	f426                	sd	s1,40(sp)
   11cf4:	f04a                	sd	s2,32(sp)
   11cf6:	ec4e                	sd	s3,24(sp)
   11cf8:	e05a                	sd	s6,0(sp)
   11cfa:	651140ef          	jal	26b4a <puts>
   11cfe:	00031537          	lui	a0,0x31
   11d02:	8656                	mv	a2,s5
   11d04:	85d2                	mv	a1,s4
   11d06:	0e050513          	addi	a0,a0,224 # 310e0 <__clzdi2+0x97e>
   11d0a:	465140ef          	jal	2696e <printf>
   11d0e:	557d                	li	a0,-1
   11d10:	9a7fe0ef          	jal	106b6 <exit>

0000000000011d14 <_Z21fit_vector_add_scalarPsPKssm>:
   11d14:	02000793          	li	a5,32
   11d18:	02d7e063          	bltu	a5,a3,11d38 <_Z21fit_vector_add_scalarPsPKssm+0x24>
   11d1c:	872a                	mv	a4,a0
   11d1e:	8536                	mv	a0,a3
   11d20:	1805200b          	.insn	4, 0x1805200b
   11d24:	852e                	mv	a0,a1
   11d26:	1005208b          	.insn	4, 0x1005208b
   11d2a:	8532                	mv	a0,a2
   11d2c:	0615210b          	.insn	4, 0x0615210b
   11d30:	853a                	mv	a0,a4
   11d32:	1235200b          	.insn	4, 0x1235200b
   11d36:	8082                	ret
   11d38:	000316b7          	lui	a3,0x31
   11d3c:	00031637          	lui	a2,0x31
   11d40:	00031537          	lui	a0,0x31
   11d44:	1141                	addi	sp,sp,-16
   11d46:	fa068693          	addi	a3,a3,-96 # 30fa0 <__clzdi2+0x83e>
   11d4a:	20060613          	addi	a2,a2,512 # 31200 <__clzdi2+0xa9e>
   11d4e:	00050513          	mv	a0,a0
   11d52:	06600593          	li	a1,102
   11d56:	e406                	sd	ra,8(sp)
   11d58:	21a120ef          	jal	23f72 <__assert_func>

0000000000011d5c <_Z23tiled_vector_add_scalarPsPKssm>:
   11d5c:	c159                	beqz	a0,11de2 <_Z23tiled_vector_add_scalarPsPKssm+0x86>
   11d5e:	02000793          	li	a5,32
   11d62:	832a                	mv	t1,a0
   11d64:	06d7f263          	bgeu	a5,a3,11dc8 <_Z23tiled_vector_add_scalarPsPKssm+0x6c>
   11d68:	01f6fe13          	andi	t3,a3,31
   11d6c:	0056d893          	srli	a7,a3,0x5
   11d70:	882e                	mv	a6,a1
   11d72:	872a                	mv	a4,a0
   11d74:	4781                	li	a5,0
   11d76:	02000513          	li	a0,32
   11d7a:	1805200b          	.insn	4, 0x1805200b
   11d7e:	8542                	mv	a0,a6
   11d80:	1005208b          	.insn	4, 0x1005208b
   11d84:	8532                	mv	a0,a2
   11d86:	0615210b          	.insn	4, 0x0615210b
   11d8a:	853a                	mv	a0,a4
   11d8c:	1235200b          	.insn	4, 0x1235200b
   11d90:	0785                	addi	a5,a5,1
   11d92:	04080813          	addi	a6,a6,64
   11d96:	04070713          	addi	a4,a4,64
   11d9a:	fcf89ee3          	bne	a7,a5,11d76 <_Z23tiled_vector_add_scalarPsPKssm+0x1a>
   11d9e:	000e1363          	bnez	t3,11da4 <_Z23tiled_vector_add_scalarPsPKssm+0x48>
   11da2:	8082                	ret
   11da4:	41c686b3          	sub	a3,a3,t3
   11da8:	0686                	slli	a3,a3,0x1
   11daa:	8572                	mv	a0,t3
   11dac:	1805200b          	.insn	4, 0x1805200b
   11db0:	00d58533          	add	a0,a1,a3
   11db4:	1005208b          	.insn	4, 0x1005208b
   11db8:	8532                	mv	a0,a2
   11dba:	0615210b          	.insn	4, 0x0615210b
   11dbe:	00d30533          	add	a0,t1,a3
   11dc2:	1235200b          	.insn	4, 0x1235200b
   11dc6:	8082                	ret
   11dc8:	8536                	mv	a0,a3
   11dca:	1805200b          	.insn	4, 0x1805200b
   11dce:	852e                	mv	a0,a1
   11dd0:	1005208b          	.insn	4, 0x1005208b
   11dd4:	8532                	mv	a0,a2
   11dd6:	0615210b          	.insn	4, 0x0615210b
   11dda:	851a                	mv	a0,t1
   11ddc:	1235200b          	.insn	4, 0x1235200b
   11de0:	8082                	ret
   11de2:	00031537          	lui	a0,0x31
   11de6:	1101                	addi	sp,sp,-32
   11de8:	24850513          	addi	a0,a0,584 # 31248 <__clzdi2+0xae6>
   11dec:	ec06                	sd	ra,24(sp)
   11dee:	e436                	sd	a3,8(sp)
   11df0:	55b140ef          	jal	26b4a <puts>
   11df4:	65a2                	ld	a1,8(sp)
   11df6:	00031537          	lui	a0,0x31
   11dfa:	06850513          	addi	a0,a0,104 # 31068 <__clzdi2+0x906>
   11dfe:	371140ef          	jal	2696e <printf>
   11e02:	557d                	li	a0,-1
   11e04:	8b3fe0ef          	jal	106b6 <exit>

0000000000011e08 <_Z23tiled_matrix_add_scalarPsPKssmm>:
   11e08:	7139                	addi	sp,sp,-64
   11e0a:	e852                	sd	s4,16(sp)
   11e0c:	e456                	sd	s5,8(sp)
   11e0e:	fc06                	sd	ra,56(sp)
   11e10:	8a36                	mv	s4,a3
   11e12:	8aba                	mv	s5,a4
   11e14:	c131                	beqz	a0,11e58 <_Z23tiled_matrix_add_scalarPsPKssmm+0x50>
   11e16:	ce85                	beqz	a3,11e4e <_Z23tiled_matrix_add_scalarPsPKssmm+0x46>
   11e18:	f822                	sd	s0,48(sp)
   11e1a:	f426                	sd	s1,40(sp)
   11e1c:	f04a                	sd	s2,32(sp)
   11e1e:	ec4e                	sd	s3,24(sp)
   11e20:	e05a                	sd	s6,0(sp)
   11e22:	842a                	mv	s0,a0
   11e24:	8b32                	mv	s6,a2
   11e26:	84ae                	mv	s1,a1
   11e28:	00171993          	slli	s3,a4,0x1
   11e2c:	4901                	li	s2,0
   11e2e:	85a6                	mv	a1,s1
   11e30:	8522                	mv	a0,s0
   11e32:	86d6                	mv	a3,s5
   11e34:	865a                	mv	a2,s6
   11e36:	0905                	addi	s2,s2,1
   11e38:	f25ff0ef          	jal	11d5c <_Z23tiled_vector_add_scalarPsPKssm>
   11e3c:	944e                	add	s0,s0,s3
   11e3e:	94ce                	add	s1,s1,s3
   11e40:	ff2a17e3          	bne	s4,s2,11e2e <_Z23tiled_matrix_add_scalarPsPKssmm+0x26>
   11e44:	7442                	ld	s0,48(sp)
   11e46:	74a2                	ld	s1,40(sp)
   11e48:	7902                	ld	s2,32(sp)
   11e4a:	69e2                	ld	s3,24(sp)
   11e4c:	6b02                	ld	s6,0(sp)
   11e4e:	70e2                	ld	ra,56(sp)
   11e50:	6a42                	ld	s4,16(sp)
   11e52:	6aa2                	ld	s5,8(sp)
   11e54:	6121                	addi	sp,sp,64
   11e56:	8082                	ret
   11e58:	00031537          	lui	a0,0x31
   11e5c:	2a050513          	addi	a0,a0,672 # 312a0 <__clzdi2+0xb3e>
   11e60:	f822                	sd	s0,48(sp)
   11e62:	f426                	sd	s1,40(sp)
   11e64:	f04a                	sd	s2,32(sp)
   11e66:	ec4e                	sd	s3,24(sp)
   11e68:	e05a                	sd	s6,0(sp)
   11e6a:	4e1140ef          	jal	26b4a <puts>
   11e6e:	00031537          	lui	a0,0x31
   11e72:	8656                	mv	a2,s5
   11e74:	85d2                	mv	a1,s4
   11e76:	0e050513          	addi	a0,a0,224 # 310e0 <__clzdi2+0x97e>
   11e7a:	2f5140ef          	jal	2696e <printf>
   11e7e:	557d                	li	a0,-1
   11e80:	837fe0ef          	jal	106b6 <exit>

0000000000011e84 <_Z21fit_vector_sub_scalarPsPKssm>:
   11e84:	02000793          	li	a5,32
   11e88:	02d7e063          	bltu	a5,a3,11ea8 <_Z21fit_vector_sub_scalarPsPKssm+0x24>
   11e8c:	872a                	mv	a4,a0
   11e8e:	8536                	mv	a0,a3
   11e90:	1805200b          	.insn	4, 0x1805200b
   11e94:	852e                	mv	a0,a1
   11e96:	1005208b          	.insn	4, 0x1005208b
   11e9a:	8532                	mv	a0,a2
   11e9c:	0815210b          	.insn	4, 0x0815210b
   11ea0:	853a                	mv	a0,a4
   11ea2:	1235200b          	.insn	4, 0x1235200b
   11ea6:	8082                	ret
   11ea8:	000316b7          	lui	a3,0x31
   11eac:	00031637          	lui	a2,0x31
   11eb0:	00031537          	lui	a0,0x31
   11eb4:	1141                	addi	sp,sp,-16
   11eb6:	fa068693          	addi	a3,a3,-96 # 30fa0 <__clzdi2+0x83e>
   11eba:	2f860613          	addi	a2,a2,760 # 312f8 <__clzdi2+0xb96>
   11ebe:	00050513          	mv	a0,a0
   11ec2:	09500593          	li	a1,149
   11ec6:	e406                	sd	ra,8(sp)
   11ec8:	0aa120ef          	jal	23f72 <__assert_func>

0000000000011ecc <_Z23tiled_vector_sub_scalarPsPKssm>:
   11ecc:	c159                	beqz	a0,11f52 <_Z23tiled_vector_sub_scalarPsPKssm+0x86>
   11ece:	02000793          	li	a5,32
   11ed2:	832a                	mv	t1,a0
   11ed4:	06d7f263          	bgeu	a5,a3,11f38 <_Z23tiled_vector_sub_scalarPsPKssm+0x6c>
   11ed8:	01f6fe13          	andi	t3,a3,31
   11edc:	0056d893          	srli	a7,a3,0x5
   11ee0:	882e                	mv	a6,a1
   11ee2:	872a                	mv	a4,a0
   11ee4:	4781                	li	a5,0
   11ee6:	02000513          	li	a0,32
   11eea:	1805200b          	.insn	4, 0x1805200b
   11eee:	8542                	mv	a0,a6
   11ef0:	1005208b          	.insn	4, 0x1005208b
   11ef4:	8532                	mv	a0,a2
   11ef6:	0815210b          	.insn	4, 0x0815210b
   11efa:	853a                	mv	a0,a4
   11efc:	1235200b          	.insn	4, 0x1235200b
   11f00:	0785                	addi	a5,a5,1
   11f02:	04080813          	addi	a6,a6,64
   11f06:	04070713          	addi	a4,a4,64
   11f0a:	fcf89ee3          	bne	a7,a5,11ee6 <_Z23tiled_vector_sub_scalarPsPKssm+0x1a>
   11f0e:	000e1363          	bnez	t3,11f14 <_Z23tiled_vector_sub_scalarPsPKssm+0x48>
   11f12:	8082                	ret
   11f14:	41c686b3          	sub	a3,a3,t3
   11f18:	0686                	slli	a3,a3,0x1
   11f1a:	8572                	mv	a0,t3
   11f1c:	1805200b          	.insn	4, 0x1805200b
   11f20:	00d58533          	add	a0,a1,a3
   11f24:	1005208b          	.insn	4, 0x1005208b
   11f28:	8532                	mv	a0,a2
   11f2a:	0815210b          	.insn	4, 0x0815210b
   11f2e:	00d30533          	add	a0,t1,a3
   11f32:	1235200b          	.insn	4, 0x1235200b
   11f36:	8082                	ret
   11f38:	8536                	mv	a0,a3
   11f3a:	1805200b          	.insn	4, 0x1805200b
   11f3e:	852e                	mv	a0,a1
   11f40:	1005208b          	.insn	4, 0x1005208b
   11f44:	8532                	mv	a0,a2
   11f46:	0815210b          	.insn	4, 0x0815210b
   11f4a:	851a                	mv	a0,t1
   11f4c:	1235200b          	.insn	4, 0x1235200b
   11f50:	8082                	ret
   11f52:	00031537          	lui	a0,0x31
   11f56:	1101                	addi	sp,sp,-32
   11f58:	34050513          	addi	a0,a0,832 # 31340 <__clzdi2+0xbde>
   11f5c:	ec06                	sd	ra,24(sp)
   11f5e:	e436                	sd	a3,8(sp)
   11f60:	3eb140ef          	jal	26b4a <puts>
   11f64:	65a2                	ld	a1,8(sp)
   11f66:	00031537          	lui	a0,0x31
   11f6a:	06850513          	addi	a0,a0,104 # 31068 <__clzdi2+0x906>
   11f6e:	201140ef          	jal	2696e <printf>
   11f72:	557d                	li	a0,-1
   11f74:	f42fe0ef          	jal	106b6 <exit>

0000000000011f78 <_Z23tiled_matrix_sub_scalarPsPKssmm>:
   11f78:	7139                	addi	sp,sp,-64
   11f7a:	e852                	sd	s4,16(sp)
   11f7c:	e456                	sd	s5,8(sp)
   11f7e:	fc06                	sd	ra,56(sp)
   11f80:	8a36                	mv	s4,a3
   11f82:	8aba                	mv	s5,a4
   11f84:	c131                	beqz	a0,11fc8 <_Z23tiled_matrix_sub_scalarPsPKssmm+0x50>
   11f86:	ce85                	beqz	a3,11fbe <_Z23tiled_matrix_sub_scalarPsPKssmm+0x46>
   11f88:	f822                	sd	s0,48(sp)
   11f8a:	f426                	sd	s1,40(sp)
   11f8c:	f04a                	sd	s2,32(sp)
   11f8e:	ec4e                	sd	s3,24(sp)
   11f90:	e05a                	sd	s6,0(sp)
   11f92:	842a                	mv	s0,a0
   11f94:	8b32                	mv	s6,a2
   11f96:	84ae                	mv	s1,a1
   11f98:	00171993          	slli	s3,a4,0x1
   11f9c:	4901                	li	s2,0
   11f9e:	85a6                	mv	a1,s1
   11fa0:	8522                	mv	a0,s0
   11fa2:	86d6                	mv	a3,s5
   11fa4:	865a                	mv	a2,s6
   11fa6:	0905                	addi	s2,s2,1
   11fa8:	f25ff0ef          	jal	11ecc <_Z23tiled_vector_sub_scalarPsPKssm>
   11fac:	944e                	add	s0,s0,s3
   11fae:	94ce                	add	s1,s1,s3
   11fb0:	ff2a17e3          	bne	s4,s2,11f9e <_Z23tiled_matrix_sub_scalarPsPKssmm+0x26>
   11fb4:	7442                	ld	s0,48(sp)
   11fb6:	74a2                	ld	s1,40(sp)
   11fb8:	7902                	ld	s2,32(sp)
   11fba:	69e2                	ld	s3,24(sp)
   11fbc:	6b02                	ld	s6,0(sp)
   11fbe:	70e2                	ld	ra,56(sp)
   11fc0:	6a42                	ld	s4,16(sp)
   11fc2:	6aa2                	ld	s5,8(sp)
   11fc4:	6121                	addi	sp,sp,64
   11fc6:	8082                	ret
   11fc8:	00031537          	lui	a0,0x31
   11fcc:	39850513          	addi	a0,a0,920 # 31398 <__clzdi2+0xc36>
   11fd0:	f822                	sd	s0,48(sp)
   11fd2:	f426                	sd	s1,40(sp)
   11fd4:	f04a                	sd	s2,32(sp)
   11fd6:	ec4e                	sd	s3,24(sp)
   11fd8:	e05a                	sd	s6,0(sp)
   11fda:	371140ef          	jal	26b4a <puts>
   11fde:	00031537          	lui	a0,0x31
   11fe2:	8656                	mv	a2,s5
   11fe4:	85d2                	mv	a1,s4
   11fe6:	0e050513          	addi	a0,a0,224 # 310e0 <__clzdi2+0x97e>
   11fea:	185140ef          	jal	2696e <printf>
   11fee:	557d                	li	a0,-1
   11ff0:	ec6fe0ef          	jal	106b6 <exit>

0000000000011ff4 <_Z21fit_vector_mul_scalarPsPKssm>:
   11ff4:	02000793          	li	a5,32
   11ff8:	02d7e063          	bltu	a5,a3,12018 <_Z21fit_vector_mul_scalarPsPKssm+0x24>
   11ffc:	872a                	mv	a4,a0
   11ffe:	8536                	mv	a0,a3
   12000:	1805200b          	.insn	4, 0x1805200b
   12004:	852e                	mv	a0,a1
   12006:	1005208b          	.insn	4, 0x1005208b
   1200a:	8532                	mv	a0,a2
   1200c:	0a15210b          	.insn	4, 0x0a15210b
   12010:	853a                	mv	a0,a4
   12012:	1235200b          	.insn	4, 0x1235200b
   12016:	8082                	ret
   12018:	000316b7          	lui	a3,0x31
   1201c:	00031637          	lui	a2,0x31
   12020:	00031537          	lui	a0,0x31
   12024:	1141                	addi	sp,sp,-16
   12026:	fa068693          	addi	a3,a3,-96 # 30fa0 <__clzdi2+0x83e>
   1202a:	3f060613          	addi	a2,a2,1008 # 313f0 <__clzdi2+0xc8e>
   1202e:	00050513          	mv	a0,a0
   12032:	0c400593          	li	a1,196
   12036:	e406                	sd	ra,8(sp)
   12038:	73b110ef          	jal	23f72 <__assert_func>

000000000001203c <_Z23tiled_vector_mul_scalarPsPKssm>:
   1203c:	c159                	beqz	a0,120c2 <_Z23tiled_vector_mul_scalarPsPKssm+0x86>
   1203e:	02000793          	li	a5,32
   12042:	832a                	mv	t1,a0
   12044:	06d7f263          	bgeu	a5,a3,120a8 <_Z23tiled_vector_mul_scalarPsPKssm+0x6c>
   12048:	01f6fe13          	andi	t3,a3,31
   1204c:	0056d893          	srli	a7,a3,0x5
   12050:	882e                	mv	a6,a1
   12052:	872a                	mv	a4,a0
   12054:	4781                	li	a5,0
   12056:	02000513          	li	a0,32
   1205a:	1805200b          	.insn	4, 0x1805200b
   1205e:	8542                	mv	a0,a6
   12060:	1005208b          	.insn	4, 0x1005208b
   12064:	8532                	mv	a0,a2
   12066:	0a15210b          	.insn	4, 0x0a15210b
   1206a:	853a                	mv	a0,a4
   1206c:	1235200b          	.insn	4, 0x1235200b
   12070:	0785                	addi	a5,a5,1
   12072:	04080813          	addi	a6,a6,64
   12076:	04070713          	addi	a4,a4,64
   1207a:	fcf89ee3          	bne	a7,a5,12056 <_Z23tiled_vector_mul_scalarPsPKssm+0x1a>
   1207e:	000e1363          	bnez	t3,12084 <_Z23tiled_vector_mul_scalarPsPKssm+0x48>
   12082:	8082                	ret
   12084:	41c686b3          	sub	a3,a3,t3
   12088:	0686                	slli	a3,a3,0x1
   1208a:	8572                	mv	a0,t3
   1208c:	1805200b          	.insn	4, 0x1805200b
   12090:	00d58533          	add	a0,a1,a3
   12094:	1005208b          	.insn	4, 0x1005208b
   12098:	8532                	mv	a0,a2
   1209a:	0a15210b          	.insn	4, 0x0a15210b
   1209e:	00d30533          	add	a0,t1,a3
   120a2:	1235200b          	.insn	4, 0x1235200b
   120a6:	8082                	ret
   120a8:	8536                	mv	a0,a3
   120aa:	1805200b          	.insn	4, 0x1805200b
   120ae:	852e                	mv	a0,a1
   120b0:	1005208b          	.insn	4, 0x1005208b
   120b4:	8532                	mv	a0,a2
   120b6:	0a15210b          	.insn	4, 0x0a15210b
   120ba:	851a                	mv	a0,t1
   120bc:	1235200b          	.insn	4, 0x1235200b
   120c0:	8082                	ret
   120c2:	00031537          	lui	a0,0x31
   120c6:	1101                	addi	sp,sp,-32
   120c8:	43850513          	addi	a0,a0,1080 # 31438 <__clzdi2+0xcd6>
   120cc:	ec06                	sd	ra,24(sp)
   120ce:	e436                	sd	a3,8(sp)
   120d0:	27b140ef          	jal	26b4a <puts>
   120d4:	65a2                	ld	a1,8(sp)
   120d6:	00031537          	lui	a0,0x31
   120da:	06850513          	addi	a0,a0,104 # 31068 <__clzdi2+0x906>
   120de:	091140ef          	jal	2696e <printf>
   120e2:	557d                	li	a0,-1
   120e4:	dd2fe0ef          	jal	106b6 <exit>

00000000000120e8 <_Z23tiled_matrix_mul_scalarPsPKssmm>:
   120e8:	7139                	addi	sp,sp,-64
   120ea:	e852                	sd	s4,16(sp)
   120ec:	e456                	sd	s5,8(sp)
   120ee:	fc06                	sd	ra,56(sp)
   120f0:	8a36                	mv	s4,a3
   120f2:	8aba                	mv	s5,a4
   120f4:	c131                	beqz	a0,12138 <_Z23tiled_matrix_mul_scalarPsPKssmm+0x50>
   120f6:	ce85                	beqz	a3,1212e <_Z23tiled_matrix_mul_scalarPsPKssmm+0x46>
   120f8:	f822                	sd	s0,48(sp)
   120fa:	f426                	sd	s1,40(sp)
   120fc:	f04a                	sd	s2,32(sp)
   120fe:	ec4e                	sd	s3,24(sp)
   12100:	e05a                	sd	s6,0(sp)
   12102:	842a                	mv	s0,a0
   12104:	8b32                	mv	s6,a2
   12106:	84ae                	mv	s1,a1
   12108:	00171993          	slli	s3,a4,0x1
   1210c:	4901                	li	s2,0
   1210e:	85a6                	mv	a1,s1
   12110:	8522                	mv	a0,s0
   12112:	86d6                	mv	a3,s5
   12114:	865a                	mv	a2,s6
   12116:	0905                	addi	s2,s2,1
   12118:	f25ff0ef          	jal	1203c <_Z23tiled_vector_mul_scalarPsPKssm>
   1211c:	944e                	add	s0,s0,s3
   1211e:	94ce                	add	s1,s1,s3
   12120:	ff2a17e3          	bne	s4,s2,1210e <_Z23tiled_matrix_mul_scalarPsPKssmm+0x26>
   12124:	7442                	ld	s0,48(sp)
   12126:	74a2                	ld	s1,40(sp)
   12128:	7902                	ld	s2,32(sp)
   1212a:	69e2                	ld	s3,24(sp)
   1212c:	6b02                	ld	s6,0(sp)
   1212e:	70e2                	ld	ra,56(sp)
   12130:	6a42                	ld	s4,16(sp)
   12132:	6aa2                	ld	s5,8(sp)
   12134:	6121                	addi	sp,sp,64
   12136:	8082                	ret
   12138:	00031537          	lui	a0,0x31
   1213c:	49050513          	addi	a0,a0,1168 # 31490 <__clzdi2+0xd2e>
   12140:	f822                	sd	s0,48(sp)
   12142:	f426                	sd	s1,40(sp)
   12144:	f04a                	sd	s2,32(sp)
   12146:	ec4e                	sd	s3,24(sp)
   12148:	e05a                	sd	s6,0(sp)
   1214a:	201140ef          	jal	26b4a <puts>
   1214e:	00031537          	lui	a0,0x31
   12152:	8656                	mv	a2,s5
   12154:	85d2                	mv	a1,s4
   12156:	0e050513          	addi	a0,a0,224 # 310e0 <__clzdi2+0x97e>
   1215a:	015140ef          	jal	2696e <printf>
   1215e:	557d                	li	a0,-1
   12160:	d56fe0ef          	jal	106b6 <exit>

0000000000012164 <_Z21fit_vector_div_scalarPsPKssm>:
   12164:	02000793          	li	a5,32
   12168:	02d7e063          	bltu	a5,a3,12188 <_Z21fit_vector_div_scalarPsPKssm+0x24>
   1216c:	872a                	mv	a4,a0
   1216e:	8536                	mv	a0,a3
   12170:	1805200b          	.insn	4, 0x1805200b
   12174:	852e                	mv	a0,a1
   12176:	1005208b          	.insn	4, 0x1005208b
   1217a:	8532                	mv	a0,a2
   1217c:	0c15210b          	.insn	4, 0x0c15210b
   12180:	853a                	mv	a0,a4
   12182:	1235200b          	.insn	4, 0x1235200b
   12186:	8082                	ret
   12188:	000316b7          	lui	a3,0x31
   1218c:	00031637          	lui	a2,0x31
   12190:	00031537          	lui	a0,0x31
   12194:	1141                	addi	sp,sp,-16
   12196:	fa068693          	addi	a3,a3,-96 # 30fa0 <__clzdi2+0x83e>
   1219a:	4e860613          	addi	a2,a2,1256 # 314e8 <__clzdi2+0xd86>
   1219e:	00050513          	mv	a0,a0
   121a2:	0f300593          	li	a1,243
   121a6:	e406                	sd	ra,8(sp)
   121a8:	5cb110ef          	jal	23f72 <__assert_func>

00000000000121ac <_Z23tiled_vector_div_scalarPsPKssm>:
   121ac:	c159                	beqz	a0,12232 <_Z23tiled_vector_div_scalarPsPKssm+0x86>
   121ae:	02000793          	li	a5,32
   121b2:	832a                	mv	t1,a0
   121b4:	06d7f263          	bgeu	a5,a3,12218 <_Z23tiled_vector_div_scalarPsPKssm+0x6c>
   121b8:	01f6fe13          	andi	t3,a3,31
   121bc:	0056d893          	srli	a7,a3,0x5
   121c0:	882e                	mv	a6,a1
   121c2:	872a                	mv	a4,a0
   121c4:	4781                	li	a5,0
   121c6:	02000513          	li	a0,32
   121ca:	1805200b          	.insn	4, 0x1805200b
   121ce:	8542                	mv	a0,a6
   121d0:	1005208b          	.insn	4, 0x1005208b
   121d4:	8532                	mv	a0,a2
   121d6:	0c15210b          	.insn	4, 0x0c15210b
   121da:	853a                	mv	a0,a4
   121dc:	1235200b          	.insn	4, 0x1235200b
   121e0:	0785                	addi	a5,a5,1
   121e2:	04080813          	addi	a6,a6,64
   121e6:	04070713          	addi	a4,a4,64
   121ea:	fcf89ee3          	bne	a7,a5,121c6 <_Z23tiled_vector_div_scalarPsPKssm+0x1a>
   121ee:	000e1363          	bnez	t3,121f4 <_Z23tiled_vector_div_scalarPsPKssm+0x48>
   121f2:	8082                	ret
   121f4:	41c686b3          	sub	a3,a3,t3
   121f8:	0686                	slli	a3,a3,0x1
   121fa:	8572                	mv	a0,t3
   121fc:	1805200b          	.insn	4, 0x1805200b
   12200:	00d58533          	add	a0,a1,a3
   12204:	1005208b          	.insn	4, 0x1005208b
   12208:	8532                	mv	a0,a2
   1220a:	0c15210b          	.insn	4, 0x0c15210b
   1220e:	00d30533          	add	a0,t1,a3
   12212:	1235200b          	.insn	4, 0x1235200b
   12216:	8082                	ret
   12218:	8536                	mv	a0,a3
   1221a:	1805200b          	.insn	4, 0x1805200b
   1221e:	852e                	mv	a0,a1
   12220:	1005208b          	.insn	4, 0x1005208b
   12224:	8532                	mv	a0,a2
   12226:	0c15210b          	.insn	4, 0x0c15210b
   1222a:	851a                	mv	a0,t1
   1222c:	1235200b          	.insn	4, 0x1235200b
   12230:	8082                	ret
   12232:	00031537          	lui	a0,0x31
   12236:	1101                	addi	sp,sp,-32
   12238:	53050513          	addi	a0,a0,1328 # 31530 <__clzdi2+0xdce>
   1223c:	ec06                	sd	ra,24(sp)
   1223e:	e436                	sd	a3,8(sp)
   12240:	10b140ef          	jal	26b4a <puts>
   12244:	65a2                	ld	a1,8(sp)
   12246:	00031537          	lui	a0,0x31
   1224a:	06850513          	addi	a0,a0,104 # 31068 <__clzdi2+0x906>
   1224e:	720140ef          	jal	2696e <printf>
   12252:	557d                	li	a0,-1
   12254:	c62fe0ef          	jal	106b6 <exit>

0000000000012258 <_Z23tiled_matrix_div_scalarPsPKssmm>:
   12258:	7139                	addi	sp,sp,-64
   1225a:	e852                	sd	s4,16(sp)
   1225c:	e456                	sd	s5,8(sp)
   1225e:	fc06                	sd	ra,56(sp)
   12260:	8a36                	mv	s4,a3
   12262:	8aba                	mv	s5,a4
   12264:	c131                	beqz	a0,122a8 <_Z23tiled_matrix_div_scalarPsPKssmm+0x50>
   12266:	ce85                	beqz	a3,1229e <_Z23tiled_matrix_div_scalarPsPKssmm+0x46>
   12268:	f822                	sd	s0,48(sp)
   1226a:	f426                	sd	s1,40(sp)
   1226c:	f04a                	sd	s2,32(sp)
   1226e:	ec4e                	sd	s3,24(sp)
   12270:	e05a                	sd	s6,0(sp)
   12272:	842a                	mv	s0,a0
   12274:	8b32                	mv	s6,a2
   12276:	84ae                	mv	s1,a1
   12278:	00171993          	slli	s3,a4,0x1
   1227c:	4901                	li	s2,0
   1227e:	85a6                	mv	a1,s1
   12280:	8522                	mv	a0,s0
   12282:	86d6                	mv	a3,s5
   12284:	865a                	mv	a2,s6
   12286:	0905                	addi	s2,s2,1
   12288:	f25ff0ef          	jal	121ac <_Z23tiled_vector_div_scalarPsPKssm>
   1228c:	944e                	add	s0,s0,s3
   1228e:	94ce                	add	s1,s1,s3
   12290:	ff2a17e3          	bne	s4,s2,1227e <_Z23tiled_matrix_div_scalarPsPKssmm+0x26>
   12294:	7442                	ld	s0,48(sp)
   12296:	74a2                	ld	s1,40(sp)
   12298:	7902                	ld	s2,32(sp)
   1229a:	69e2                	ld	s3,24(sp)
   1229c:	6b02                	ld	s6,0(sp)
   1229e:	70e2                	ld	ra,56(sp)
   122a0:	6a42                	ld	s4,16(sp)
   122a2:	6aa2                	ld	s5,8(sp)
   122a4:	6121                	addi	sp,sp,64
   122a6:	8082                	ret
   122a8:	00031537          	lui	a0,0x31
   122ac:	58850513          	addi	a0,a0,1416 # 31588 <__clzdi2+0xe26>
   122b0:	f822                	sd	s0,48(sp)
   122b2:	f426                	sd	s1,40(sp)
   122b4:	f04a                	sd	s2,32(sp)
   122b6:	ec4e                	sd	s3,24(sp)
   122b8:	e05a                	sd	s6,0(sp)
   122ba:	091140ef          	jal	26b4a <puts>
   122be:	00031537          	lui	a0,0x31
   122c2:	8656                	mv	a2,s5
   122c4:	85d2                	mv	a1,s4
   122c6:	0e050513          	addi	a0,a0,224 # 310e0 <__clzdi2+0x97e>
   122ca:	6a4140ef          	jal	2696e <printf>
   122ce:	557d                	li	a0,-1
   122d0:	be6fe0ef          	jal	106b6 <exit>

00000000000122d4 <_Z14fit_vector_maxPsPKsm>:
   122d4:	02000793          	li	a5,32
   122d8:	00c7ee63          	bltu	a5,a2,122f4 <_Z14fit_vector_maxPsPKsm+0x20>
   122dc:	872a                	mv	a4,a0
   122de:	8532                	mv	a0,a2
   122e0:	1805200b          	.insn	4, 0x1805200b
   122e4:	852e                	mv	a0,a1
   122e6:	1005208b          	.insn	4, 0x1005208b
   122ea:	1600c50b          	.insn	4, 0x1600c50b
   122ee:	00a71023          	sh	a0,0(a4)
   122f2:	8082                	ret
   122f4:	000316b7          	lui	a3,0x31
   122f8:	00031637          	lui	a2,0x31
   122fc:	00031537          	lui	a0,0x31
   12300:	1141                	addi	sp,sp,-16
   12302:	fa068693          	addi	a3,a3,-96 # 30fa0 <__clzdi2+0x83e>
   12306:	5e060613          	addi	a2,a2,1504 # 315e0 <__clzdi2+0xe7e>
   1230a:	61850513          	addi	a0,a0,1560 # 31618 <__clzdi2+0xeb6>
   1230e:	4599                	li	a1,6
   12310:	e406                	sd	ra,8(sp)
   12312:	461110ef          	jal	23f72 <__assert_func>

0000000000012316 <_Z16tiled_vector_maxPsPKsm>:
   12316:	c14d                	beqz	a0,123b8 <_Z16tiled_vector_maxPsPKsm+0xa2>
   12318:	02000793          	li	a5,32
   1231c:	8e2a                	mv	t3,a0
   1231e:	06c7fe63          	bgeu	a5,a2,1239a <_Z16tiled_vector_maxPsPKsm+0x84>
   12322:	01f67e93          	andi	t4,a2,31
   12326:	00565313          	srli	t1,a2,0x5
   1232a:	882e                	mv	a6,a1
   1232c:	7761                	lui	a4,0xffff8
   1232e:	4681                	li	a3,0
   12330:	02000513          	li	a0,32
   12334:	1805200b          	.insn	4, 0x1805200b
   12338:	8542                	mv	a0,a6
   1233a:	1005208b          	.insn	4, 0x1005208b
   1233e:	1600c50b          	.insn	4, 0x1600c50b
   12342:	0105189b          	slliw	a7,a0,0x10
   12346:	4108d89b          	sraiw	a7,a7,0x10
   1234a:	87aa                	mv	a5,a0
   1234c:	00e8d363          	bge	a7,a4,12352 <_Z16tiled_vector_maxPsPKsm+0x3c>
   12350:	87ba                	mv	a5,a4
   12352:	0107971b          	slliw	a4,a5,0x10
   12356:	0685                	addi	a3,a3,1
   12358:	04080813          	addi	a6,a6,64
   1235c:	4107571b          	sraiw	a4,a4,0x10
   12360:	fcd318e3          	bne	t1,a3,12330 <_Z16tiled_vector_maxPsPKsm+0x1a>
   12364:	000e9563          	bnez	t4,1236e <_Z16tiled_vector_maxPsPKsm+0x58>
   12368:	00ee1023          	sh	a4,0(t3)
   1236c:	8082                	ret
   1236e:	41d60633          	sub	a2,a2,t4
   12372:	0606                	slli	a2,a2,0x1
   12374:	8576                	mv	a0,t4
   12376:	1805200b          	.insn	4, 0x1805200b
   1237a:	00c58533          	add	a0,a1,a2
   1237e:	1005208b          	.insn	4, 0x1005208b
   12382:	1600c50b          	.insn	4, 0x1600c50b
   12386:	0105169b          	slliw	a3,a0,0x10
   1238a:	4106d69b          	sraiw	a3,a3,0x10
   1238e:	02e6c263          	blt	a3,a4,123b2 <_Z16tiled_vector_maxPsPKsm+0x9c>
   12392:	872a                	mv	a4,a0
   12394:	00ee1023          	sh	a4,0(t3)
   12398:	8082                	ret
   1239a:	8532                	mv	a0,a2
   1239c:	1805200b          	.insn	4, 0x1805200b
   123a0:	852e                	mv	a0,a1
   123a2:	1005208b          	.insn	4, 0x1005208b
   123a6:	1600c50b          	.insn	4, 0x1600c50b
   123aa:	872a                	mv	a4,a0
   123ac:	00ee1023          	sh	a4,0(t3)
   123b0:	8082                	ret
   123b2:	853e                	mv	a0,a5
   123b4:	872a                	mv	a4,a0
   123b6:	bff9                	j	12394 <_Z16tiled_vector_maxPsPKsm+0x7e>
   123b8:	00031537          	lui	a0,0x31
   123bc:	1141                	addi	sp,sp,-16
   123be:	63050513          	addi	a0,a0,1584 # 31630 <__clzdi2+0xece>
   123c2:	e406                	sd	ra,8(sp)
   123c4:	786140ef          	jal	26b4a <puts>
   123c8:	00031537          	lui	a0,0x31
   123cc:	d8050513          	addi	a0,a0,-640 # 30d80 <__clzdi2+0x61e>
   123d0:	77a140ef          	jal	26b4a <puts>
   123d4:	557d                	li	a0,-1
   123d6:	ae0fe0ef          	jal	106b6 <exit>

00000000000123da <_Z23tiled_matrix_vector_maxPsPKsmm>:
   123da:	7139                	addi	sp,sp,-64
   123dc:	ec4e                	sd	s3,24(sp)
   123de:	fc06                	sd	ra,56(sp)
   123e0:	89b2                	mv	s3,a2
   123e2:	c121                	beqz	a0,12422 <_Z23tiled_matrix_vector_maxPsPKsmm+0x48>
   123e4:	ca1d                	beqz	a2,1241a <_Z23tiled_matrix_vector_maxPsPKsmm+0x40>
   123e6:	f822                	sd	s0,48(sp)
   123e8:	f426                	sd	s1,40(sp)
   123ea:	f04a                	sd	s2,32(sp)
   123ec:	e852                	sd	s4,16(sp)
   123ee:	e456                	sd	s5,8(sp)
   123f0:	8a36                	mv	s4,a3
   123f2:	842a                	mv	s0,a0
   123f4:	84ae                	mv	s1,a1
   123f6:	00169a93          	slli	s5,a3,0x1
   123fa:	4901                	li	s2,0
   123fc:	85a6                	mv	a1,s1
   123fe:	8522                	mv	a0,s0
   12400:	8652                	mv	a2,s4
   12402:	0905                	addi	s2,s2,1
   12404:	f13ff0ef          	jal	12316 <_Z16tiled_vector_maxPsPKsm>
   12408:	0409                	addi	s0,s0,2
   1240a:	94d6                	add	s1,s1,s5
   1240c:	ff2998e3          	bne	s3,s2,123fc <_Z23tiled_matrix_vector_maxPsPKsmm+0x22>
   12410:	7442                	ld	s0,48(sp)
   12412:	74a2                	ld	s1,40(sp)
   12414:	7902                	ld	s2,32(sp)
   12416:	6a42                	ld	s4,16(sp)
   12418:	6aa2                	ld	s5,8(sp)
   1241a:	70e2                	ld	ra,56(sp)
   1241c:	69e2                	ld	s3,24(sp)
   1241e:	6121                	addi	sp,sp,64
   12420:	8082                	ret
   12422:	00031537          	lui	a0,0x31
   12426:	68050513          	addi	a0,a0,1664 # 31680 <__clzdi2+0xf1e>
   1242a:	f822                	sd	s0,48(sp)
   1242c:	f426                	sd	s1,40(sp)
   1242e:	f04a                	sd	s2,32(sp)
   12430:	e852                	sd	s4,16(sp)
   12432:	e456                	sd	s5,8(sp)
   12434:	716140ef          	jal	26b4a <puts>
   12438:	00031537          	lui	a0,0x31
   1243c:	85ce                	mv	a1,s3
   1243e:	6d850513          	addi	a0,a0,1752 # 316d8 <__clzdi2+0xf76>
   12442:	52c140ef          	jal	2696e <printf>
   12446:	557d                	li	a0,-1
   12448:	a6efe0ef          	jal	106b6 <exit>

000000000001244c <_Z14fit_vector_minPsPKsm>:
   1244c:	02000793          	li	a5,32
   12450:	00c7ee63          	bltu	a5,a2,1246c <_Z14fit_vector_minPsPKsm+0x20>
   12454:	872a                	mv	a4,a0
   12456:	8532                	mv	a0,a2
   12458:	1805200b          	.insn	4, 0x1805200b
   1245c:	852e                	mv	a0,a1
   1245e:	1005208b          	.insn	4, 0x1005208b
   12462:	1610c50b          	.insn	4, 0x1610c50b
   12466:	00a71023          	sh	a0,0(a4) # ffffffffffff8000 <__BSS_END__+0xffffffffffefd2d8>
   1246a:	8082                	ret
   1246c:	000316b7          	lui	a3,0x31
   12470:	00031637          	lui	a2,0x31
   12474:	00031537          	lui	a0,0x31
   12478:	1141                	addi	sp,sp,-16
   1247a:	fa068693          	addi	a3,a3,-96 # 30fa0 <__clzdi2+0x83e>
   1247e:	6f860613          	addi	a2,a2,1784 # 316f8 <__clzdi2+0xf96>
   12482:	61850513          	addi	a0,a0,1560 # 31618 <__clzdi2+0xeb6>
   12486:	03400593          	li	a1,52
   1248a:	e406                	sd	ra,8(sp)
   1248c:	2e7110ef          	jal	23f72 <__assert_func>

0000000000012490 <_Z16tiled_vector_minPsPKsm>:
   12490:	c155                	beqz	a0,12534 <_Z16tiled_vector_minPsPKsm+0xa4>
   12492:	02000793          	li	a5,32
   12496:	8e2a                	mv	t3,a0
   12498:	06c7ff63          	bgeu	a5,a2,12516 <_Z16tiled_vector_minPsPKsm+0x86>
   1249c:	6721                	lui	a4,0x8
   1249e:	177d                	addi	a4,a4,-1 # 7fff <__cxa_bad_cast-0x8121>
   124a0:	01f67e93          	andi	t4,a2,31
   124a4:	00565313          	srli	t1,a2,0x5
   124a8:	882e                	mv	a6,a1
   124aa:	4681                	li	a3,0
   124ac:	02000513          	li	a0,32
   124b0:	1805200b          	.insn	4, 0x1805200b
   124b4:	8542                	mv	a0,a6
   124b6:	1005208b          	.insn	4, 0x1005208b
   124ba:	1610c50b          	.insn	4, 0x1610c50b
   124be:	0105189b          	slliw	a7,a0,0x10
   124c2:	4108d89b          	sraiw	a7,a7,0x10
   124c6:	87aa                	mv	a5,a0
   124c8:	01175363          	bge	a4,a7,124ce <_Z16tiled_vector_minPsPKsm+0x3e>
   124cc:	87ba                	mv	a5,a4
   124ce:	0107971b          	slliw	a4,a5,0x10
   124d2:	0685                	addi	a3,a3,1
   124d4:	04080813          	addi	a6,a6,64
   124d8:	4107571b          	sraiw	a4,a4,0x10
   124dc:	fcd318e3          	bne	t1,a3,124ac <_Z16tiled_vector_minPsPKsm+0x1c>
   124e0:	000e9563          	bnez	t4,124ea <_Z16tiled_vector_minPsPKsm+0x5a>
   124e4:	00ee1023          	sh	a4,0(t3)
   124e8:	8082                	ret
   124ea:	41d60633          	sub	a2,a2,t4
   124ee:	0606                	slli	a2,a2,0x1
   124f0:	8576                	mv	a0,t4
   124f2:	1805200b          	.insn	4, 0x1805200b
   124f6:	00c58533          	add	a0,a1,a2
   124fa:	1005208b          	.insn	4, 0x1005208b
   124fe:	1610c50b          	.insn	4, 0x1610c50b
   12502:	0105169b          	slliw	a3,a0,0x10
   12506:	4106d69b          	sraiw	a3,a3,0x10
   1250a:	02d74263          	blt	a4,a3,1252e <_Z16tiled_vector_minPsPKsm+0x9e>
   1250e:	872a                	mv	a4,a0
   12510:	00ee1023          	sh	a4,0(t3)
   12514:	8082                	ret
   12516:	8532                	mv	a0,a2
   12518:	1805200b          	.insn	4, 0x1805200b
   1251c:	852e                	mv	a0,a1
   1251e:	1005208b          	.insn	4, 0x1005208b
   12522:	1610c50b          	.insn	4, 0x1610c50b
   12526:	872a                	mv	a4,a0
   12528:	00ee1023          	sh	a4,0(t3)
   1252c:	8082                	ret
   1252e:	853e                	mv	a0,a5
   12530:	872a                	mv	a4,a0
   12532:	bff9                	j	12510 <_Z16tiled_vector_minPsPKsm+0x80>
   12534:	00031537          	lui	a0,0x31
   12538:	1141                	addi	sp,sp,-16
   1253a:	73050513          	addi	a0,a0,1840 # 31730 <__clzdi2+0xfce>
   1253e:	e406                	sd	ra,8(sp)
   12540:	60a140ef          	jal	26b4a <puts>
   12544:	00031537          	lui	a0,0x31
   12548:	d8050513          	addi	a0,a0,-640 # 30d80 <__clzdi2+0x61e>
   1254c:	5fe140ef          	jal	26b4a <puts>
   12550:	557d                	li	a0,-1
   12552:	964fe0ef          	jal	106b6 <exit>

0000000000012556 <_Z23tiled_matrix_vector_minPsPKsmm>:
   12556:	7139                	addi	sp,sp,-64
   12558:	ec4e                	sd	s3,24(sp)
   1255a:	fc06                	sd	ra,56(sp)
   1255c:	89b2                	mv	s3,a2
   1255e:	c121                	beqz	a0,1259e <_Z23tiled_matrix_vector_minPsPKsmm+0x48>
   12560:	ca1d                	beqz	a2,12596 <_Z23tiled_matrix_vector_minPsPKsmm+0x40>
   12562:	f822                	sd	s0,48(sp)
   12564:	f426                	sd	s1,40(sp)
   12566:	f04a                	sd	s2,32(sp)
   12568:	e852                	sd	s4,16(sp)
   1256a:	e456                	sd	s5,8(sp)
   1256c:	8a36                	mv	s4,a3
   1256e:	842a                	mv	s0,a0
   12570:	84ae                	mv	s1,a1
   12572:	00169a93          	slli	s5,a3,0x1
   12576:	4901                	li	s2,0
   12578:	85a6                	mv	a1,s1
   1257a:	8522                	mv	a0,s0
   1257c:	8652                	mv	a2,s4
   1257e:	0905                	addi	s2,s2,1
   12580:	f11ff0ef          	jal	12490 <_Z16tiled_vector_minPsPKsm>
   12584:	0409                	addi	s0,s0,2
   12586:	94d6                	add	s1,s1,s5
   12588:	ff2998e3          	bne	s3,s2,12578 <_Z23tiled_matrix_vector_minPsPKsmm+0x22>
   1258c:	7442                	ld	s0,48(sp)
   1258e:	74a2                	ld	s1,40(sp)
   12590:	7902                	ld	s2,32(sp)
   12592:	6a42                	ld	s4,16(sp)
   12594:	6aa2                	ld	s5,8(sp)
   12596:	70e2                	ld	ra,56(sp)
   12598:	69e2                	ld	s3,24(sp)
   1259a:	6121                	addi	sp,sp,64
   1259c:	8082                	ret
   1259e:	00031537          	lui	a0,0x31
   125a2:	78050513          	addi	a0,a0,1920 # 31780 <__clzdi2+0x101e>
   125a6:	f822                	sd	s0,48(sp)
   125a8:	f426                	sd	s1,40(sp)
   125aa:	f04a                	sd	s2,32(sp)
   125ac:	e852                	sd	s4,16(sp)
   125ae:	e456                	sd	s5,8(sp)
   125b0:	59a140ef          	jal	26b4a <puts>
   125b4:	00031537          	lui	a0,0x31
   125b8:	85ce                	mv	a1,s3
   125ba:	6d850513          	addi	a0,a0,1752 # 316d8 <__clzdi2+0xf76>
   125be:	3b0140ef          	jal	2696e <printf>
   125c2:	557d                	li	a0,-1
   125c4:	8f2fe0ef          	jal	106b6 <exit>

00000000000125c8 <_Z18fit_vector_dropoutPsPKssm>:
   125c8:	02000793          	li	a5,32
   125cc:	02d7e163          	bltu	a5,a3,125ee <_Z18fit_vector_dropoutPsPKssm+0x26>
   125d0:	852e                	mv	a0,a1
   125d2:	1005258b          	.insn	4, 0x1005258b
   125d6:	8536                	mv	a0,a3
   125d8:	1805200b          	.insn	4, 0x1805200b
   125dc:	45ad                	li	a1,11
   125de:	18c5b08b          	.insn	4, 0x18c5b08b
   125e2:	0205858b          	.insn	4, 0x0205858b
   125e6:	567d                	li	a2,-1
   125e8:	18c5b08b          	.insn	4, 0x18c5b08b
   125ec:	8082                	ret
   125ee:	000316b7          	lui	a3,0x31
   125f2:	00031637          	lui	a2,0x31
   125f6:	00031537          	lui	a0,0x31
   125fa:	1141                	addi	sp,sp,-16
   125fc:	fa068693          	addi	a3,a3,-96 # 30fa0 <__clzdi2+0x83e>
   12600:	7d860613          	addi	a2,a2,2008 # 317d8 <__clzdi2+0x1076>
   12604:	61850513          	addi	a0,a0,1560 # 31618 <__clzdi2+0xeb6>
   12608:	06200593          	li	a1,98
   1260c:	e406                	sd	ra,8(sp)
   1260e:	165110ef          	jal	23f72 <__assert_func>

0000000000012612 <_Z13vector_argmaxPsPKsm>:
   12612:	7139                	addi	sp,sp,-64
   12614:	f426                	sd	s1,40(sp)
   12616:	84aa                	mv	s1,a0
   12618:	01e10513          	addi	a0,sp,30
   1261c:	f822                	sd	s0,48(sp)
   1261e:	e432                	sd	a2,8(sp)
   12620:	fc06                	sd	ra,56(sp)
   12622:	842e                	mv	s0,a1
   12624:	cf3ff0ef          	jal	12316 <_Z16tiled_vector_maxPsPKsm>
   12628:	6622                	ld	a2,8(sp)
   1262a:	c60d                	beqz	a2,12654 <_Z13vector_argmaxPsPKsm+0x42>
   1262c:	01e11683          	lh	a3,30(sp)
   12630:	85a2                	mv	a1,s0
   12632:	4781                	li	a5,0
   12634:	a021                	j	1263c <_Z13vector_argmaxPsPKsm+0x2a>
   12636:	0785                	addi	a5,a5,1
   12638:	00f60763          	beq	a2,a5,12646 <_Z13vector_argmaxPsPKsm+0x34>
   1263c:	00059703          	lh	a4,0(a1)
   12640:	0589                	addi	a1,a1,2
   12642:	fed71ae3          	bne	a4,a3,12636 <_Z13vector_argmaxPsPKsm+0x24>
   12646:	70e2                	ld	ra,56(sp)
   12648:	7442                	ld	s0,48(sp)
   1264a:	00f49023          	sh	a5,0(s1)
   1264e:	74a2                	ld	s1,40(sp)
   12650:	6121                	addi	sp,sp,64
   12652:	8082                	ret
   12654:	4781                	li	a5,0
   12656:	bfc5                	j	12646 <_Z13vector_argmaxPsPKsm+0x34>

0000000000012658 <_Z20matrix_vector_argmaxPsPKsmm>:
   12658:	715d                	addi	sp,sp,-80
   1265a:	f052                	sd	s4,32(sp)
   1265c:	e486                	sd	ra,72(sp)
   1265e:	8a32                	mv	s4,a2
   12660:	c935                	beqz	a0,126d4 <_Z20matrix_vector_argmaxPsPKsmm+0x7c>
   12662:	ce21                	beqz	a2,126ba <_Z20matrix_vector_argmaxPsPKsmm+0x62>
   12664:	e0a2                	sd	s0,64(sp)
   12666:	fc26                	sd	s1,56(sp)
   12668:	f84a                	sd	s2,48(sp)
   1266a:	f44e                	sd	s3,40(sp)
   1266c:	ec56                	sd	s5,24(sp)
   1266e:	8436                	mv	s0,a3
   12670:	84ae                	mv	s1,a1
   12672:	892a                	mv	s2,a0
   12674:	00169a93          	slli	s5,a3,0x1
   12678:	4981                	li	s3,0
   1267a:	8622                	mv	a2,s0
   1267c:	85a6                	mv	a1,s1
   1267e:	00e10513          	addi	a0,sp,14
   12682:	c95ff0ef          	jal	12316 <_Z16tiled_vector_maxPsPKsm>
   12686:	cc15                	beqz	s0,126c2 <_Z20matrix_vector_argmaxPsPKsmm+0x6a>
   12688:	00e11683          	lh	a3,14(sp)
   1268c:	8726                	mv	a4,s1
   1268e:	4781                	li	a5,0
   12690:	a029                	j	1269a <_Z20matrix_vector_argmaxPsPKsmm+0x42>
   12692:	0785                	addi	a5,a5,1
   12694:	0709                	addi	a4,a4,2
   12696:	00f40663          	beq	s0,a5,126a2 <_Z20matrix_vector_argmaxPsPKsmm+0x4a>
   1269a:	00071803          	lh	a6,0(a4)
   1269e:	fed81ae3          	bne	a6,a3,12692 <_Z20matrix_vector_argmaxPsPKsmm+0x3a>
   126a2:	00f91023          	sh	a5,0(s2)
   126a6:	0985                	addi	s3,s3,1
   126a8:	94d6                	add	s1,s1,s5
   126aa:	0909                	addi	s2,s2,2
   126ac:	fd3a17e3          	bne	s4,s3,1267a <_Z20matrix_vector_argmaxPsPKsmm+0x22>
   126b0:	6406                	ld	s0,64(sp)
   126b2:	74e2                	ld	s1,56(sp)
   126b4:	7942                	ld	s2,48(sp)
   126b6:	79a2                	ld	s3,40(sp)
   126b8:	6ae2                	ld	s5,24(sp)
   126ba:	60a6                	ld	ra,72(sp)
   126bc:	7a02                	ld	s4,32(sp)
   126be:	6161                	addi	sp,sp,80
   126c0:	8082                	ret
   126c2:	4781                	li	a5,0
   126c4:	00f91023          	sh	a5,0(s2)
   126c8:	0985                	addi	s3,s3,1
   126ca:	94d6                	add	s1,s1,s5
   126cc:	0909                	addi	s2,s2,2
   126ce:	fb3a16e3          	bne	s4,s3,1267a <_Z20matrix_vector_argmaxPsPKsmm+0x22>
   126d2:	bff9                	j	126b0 <_Z20matrix_vector_argmaxPsPKsmm+0x58>
   126d4:	00032537          	lui	a0,0x32
   126d8:	81850513          	addi	a0,a0,-2024 # 31818 <__clzdi2+0x10b6>
   126dc:	e0a2                	sd	s0,64(sp)
   126de:	fc26                	sd	s1,56(sp)
   126e0:	f84a                	sd	s2,48(sp)
   126e2:	f44e                	sd	s3,40(sp)
   126e4:	ec56                	sd	s5,24(sp)
   126e6:	464140ef          	jal	26b4a <puts>
   126ea:	00031537          	lui	a0,0x31
   126ee:	85d2                	mv	a1,s4
   126f0:	6d850513          	addi	a0,a0,1752 # 316d8 <__clzdi2+0xf76>
   126f4:	27a140ef          	jal	2696e <printf>
   126f8:	557d                	li	a0,-1
   126fa:	fbdfd0ef          	jal	106b6 <exit>

00000000000126fe <_Z12vector_shiftPsmm11direction_t>:
   126fe:	c215                	beqz	a2,12722 <_Z12vector_shiftPsmm11direction_t+0x24>
   12700:	c121                	beqz	a0,12740 <_Z12vector_shiftPsmm11direction_t+0x42>
   12702:	4785                	li	a5,1
   12704:	02f68063          	beq	a3,a5,12724 <_Z12vector_shiftPsmm11direction_t+0x26>
   12708:	00159713          	slli	a4,a1,0x1
   1270c:	972a                	add	a4,a4,a0
   1270e:	c985                	beqz	a1,1273e <_Z12vector_shiftPsmm11direction_t+0x40>
   12710:	00051783          	lh	a5,0(a0)
   12714:	0509                	addi	a0,a0,2
   12716:	00c797bb          	sllw	a5,a5,a2
   1271a:	fef51f23          	sh	a5,-2(a0)
   1271e:	fea719e3          	bne	a4,a0,12710 <_Z12vector_shiftPsmm11direction_t+0x12>
   12722:	8082                	ret
   12724:	ddfd                	beqz	a1,12722 <_Z12vector_shiftPsmm11direction_t+0x24>
   12726:	0586                	slli	a1,a1,0x1
   12728:	95aa                	add	a1,a1,a0
   1272a:	00051783          	lh	a5,0(a0)
   1272e:	0509                	addi	a0,a0,2
   12730:	40c7d7bb          	sraw	a5,a5,a2
   12734:	fef51f23          	sh	a5,-2(a0)
   12738:	fea599e3          	bne	a1,a0,1272a <_Z12vector_shiftPsmm11direction_t+0x2c>
   1273c:	8082                	ret
   1273e:	8082                	ret
   12740:	00032537          	lui	a0,0x32
   12744:	1101                	addi	sp,sp,-32
   12746:	87050513          	addi	a0,a0,-1936 # 31870 <__clzdi2+0x110e>
   1274a:	ec06                	sd	ra,24(sp)
   1274c:	e42e                	sd	a1,8(sp)
   1274e:	3fc140ef          	jal	26b4a <puts>
   12752:	65a2                	ld	a1,8(sp)
   12754:	00032537          	lui	a0,0x32
   12758:	8c050513          	addi	a0,a0,-1856 # 318c0 <__clzdi2+0x115e>
   1275c:	212140ef          	jal	2696e <printf>
   12760:	557d                	li	a0,-1
   12762:	f55fd0ef          	jal	106b6 <exit>

0000000000012766 <_Z13mat_transposePsPKsmm>:
   12766:	cd15                	beqz	a0,127a2 <_Z13mat_transposePsPKsmm+0x3c>
   12768:	c611                	beqz	a2,12774 <_Z13mat_transposePsPKsmm+0xe>
   1276a:	4881                	li	a7,0
   1276c:	e689                	bnez	a3,12776 <_Z13mat_transposePsPKsmm+0x10>
   1276e:	0885                	addi	a7,a7,1
   12770:	ff161fe3          	bne	a2,a7,1276e <_Z13mat_transposePsPKsmm+0x8>
   12774:	8082                	ret
   12776:	00169313          	slli	t1,a3,0x1
   1277a:	959a                	add	a1,a1,t1
   1277c:	00161813          	slli	a6,a2,0x1
   12780:	406587b3          	sub	a5,a1,t1
   12784:	872a                	mv	a4,a0
   12786:	00079683          	lh	a3,0(a5)
   1278a:	0789                	addi	a5,a5,2
   1278c:	00d71023          	sh	a3,0(a4)
   12790:	9742                	add	a4,a4,a6
   12792:	fef59ae3          	bne	a1,a5,12786 <_Z13mat_transposePsPKsmm+0x20>
   12796:	0885                	addi	a7,a7,1
   12798:	0509                	addi	a0,a0,2
   1279a:	959a                	add	a1,a1,t1
   1279c:	ff1612e3          	bne	a2,a7,12780 <_Z13mat_transposePsPKsmm+0x1a>
   127a0:	8082                	ret
   127a2:	00032537          	lui	a0,0x32
   127a6:	1101                	addi	sp,sp,-32
   127a8:	8e050513          	addi	a0,a0,-1824 # 318e0 <__clzdi2+0x117e>
   127ac:	ec06                	sd	ra,24(sp)
   127ae:	e436                	sd	a3,8(sp)
   127b0:	e032                	sd	a2,0(sp)
   127b2:	398140ef          	jal	26b4a <puts>
   127b6:	6602                	ld	a2,0(sp)
   127b8:	65a2                	ld	a1,8(sp)
   127ba:	00032537          	lui	a0,0x32
   127be:	93050513          	addi	a0,a0,-1744 # 31930 <__clzdi2+0x11ce>
   127c2:	1ac140ef          	jal	2696e <printf>
   127c6:	557d                	li	a0,-1
   127c8:	eeffd0ef          	jal	106b6 <exit>

00000000000127cc <_Z15fit_vector_reluPsPKsm>:
   127cc:	02000793          	li	a5,32
   127d0:	00c7ef63          	bltu	a5,a2,127ee <_Z15fit_vector_reluPsPKsm+0x22>
   127d4:	872a                	mv	a4,a0
   127d6:	8532                	mv	a0,a2
   127d8:	1805200b          	.insn	4, 0x1805200b
   127dc:	852e                	mv	a0,a1
   127de:	1005208b          	.insn	4, 0x1005208b
   127e2:	0e00810b          	.insn	4, 0x0e00810b
   127e6:	853a                	mv	a0,a4
   127e8:	1225200b          	.insn	4, 0x1225200b
   127ec:	8082                	ret
   127ee:	000316b7          	lui	a3,0x31
   127f2:	00032637          	lui	a2,0x32
   127f6:	00032537          	lui	a0,0x32
   127fa:	1141                	addi	sp,sp,-16
   127fc:	fa068693          	addi	a3,a3,-96 # 30fa0 <__clzdi2+0x83e>
   12800:	95860613          	addi	a2,a2,-1704 # 31958 <__clzdi2+0x11f6>
   12804:	99050513          	addi	a0,a0,-1648 # 31990 <__clzdi2+0x122e>
   12808:	4599                	li	a1,6
   1280a:	e406                	sd	ra,8(sp)
   1280c:	766110ef          	jal	23f72 <__assert_func>

0000000000012810 <_Z17tiled_vector_reluPsPKsm>:
   12810:	c141                	beqz	a0,12890 <_Z17tiled_vector_reluPsPKsm+0x80>
   12812:	02000793          	li	a5,32
   12816:	88aa                	mv	a7,a0
   12818:	06c7f063          	bgeu	a5,a2,12878 <_Z17tiled_vector_reluPsPKsm+0x68>
   1281c:	01f67313          	andi	t1,a2,31
   12820:	00565813          	srli	a6,a2,0x5
   12824:	86ae                	mv	a3,a1
   12826:	872a                	mv	a4,a0
   12828:	4781                	li	a5,0
   1282a:	02000513          	li	a0,32
   1282e:	1805200b          	.insn	4, 0x1805200b
   12832:	8536                	mv	a0,a3
   12834:	1005208b          	.insn	4, 0x1005208b
   12838:	0e00810b          	.insn	4, 0x0e00810b
   1283c:	853a                	mv	a0,a4
   1283e:	1225200b          	.insn	4, 0x1225200b
   12842:	0785                	addi	a5,a5,1
   12844:	04068693          	addi	a3,a3,64
   12848:	04070713          	addi	a4,a4,64
   1284c:	fcf81fe3          	bne	a6,a5,1282a <_Z17tiled_vector_reluPsPKsm+0x1a>
   12850:	00031363          	bnez	t1,12856 <_Z17tiled_vector_reluPsPKsm+0x46>
   12854:	8082                	ret
   12856:	40660633          	sub	a2,a2,t1
   1285a:	0606                	slli	a2,a2,0x1
   1285c:	851a                	mv	a0,t1
   1285e:	1805200b          	.insn	4, 0x1805200b
   12862:	00c58533          	add	a0,a1,a2
   12866:	1005208b          	.insn	4, 0x1005208b
   1286a:	0e00810b          	.insn	4, 0x0e00810b
   1286e:	00c88533          	add	a0,a7,a2
   12872:	1225200b          	.insn	4, 0x1225200b
   12876:	8082                	ret
   12878:	8532                	mv	a0,a2
   1287a:	1805200b          	.insn	4, 0x1805200b
   1287e:	852e                	mv	a0,a1
   12880:	1005208b          	.insn	4, 0x1005208b
   12884:	0e00810b          	.insn	4, 0x0e00810b
   12888:	8546                	mv	a0,a7
   1288a:	1225200b          	.insn	4, 0x1225200b
   1288e:	8082                	ret
   12890:	00032537          	lui	a0,0x32
   12894:	1101                	addi	sp,sp,-32
   12896:	9a850513          	addi	a0,a0,-1624 # 319a8 <__clzdi2+0x1246>
   1289a:	ec06                	sd	ra,24(sp)
   1289c:	e432                	sd	a2,8(sp)
   1289e:	2ac140ef          	jal	26b4a <puts>
   128a2:	65a2                	ld	a1,8(sp)
   128a4:	00031537          	lui	a0,0x31
   128a8:	06850513          	addi	a0,a0,104 # 31068 <__clzdi2+0x906>
   128ac:	0c2140ef          	jal	2696e <printf>
   128b0:	557d                	li	a0,-1
   128b2:	e05fd0ef          	jal	106b6 <exit>

00000000000128b6 <_Z17tiled_matrix_reluPsPKsmm>:
   128b6:	7139                	addi	sp,sp,-64
   128b8:	e852                	sd	s4,16(sp)
   128ba:	e456                	sd	s5,8(sp)
   128bc:	fc06                	sd	ra,56(sp)
   128be:	8a32                	mv	s4,a2
   128c0:	8ab6                	mv	s5,a3
   128c2:	cd15                	beqz	a0,128fe <_Z17tiled_matrix_reluPsPKsmm+0x48>
   128c4:	ca05                	beqz	a2,128f4 <_Z17tiled_matrix_reluPsPKsmm+0x3e>
   128c6:	f822                	sd	s0,48(sp)
   128c8:	f426                	sd	s1,40(sp)
   128ca:	f04a                	sd	s2,32(sp)
   128cc:	ec4e                	sd	s3,24(sp)
   128ce:	842a                	mv	s0,a0
   128d0:	84ae                	mv	s1,a1
   128d2:	00169993          	slli	s3,a3,0x1
   128d6:	4901                	li	s2,0
   128d8:	85a6                	mv	a1,s1
   128da:	8522                	mv	a0,s0
   128dc:	8656                	mv	a2,s5
   128de:	0905                	addi	s2,s2,1
   128e0:	f31ff0ef          	jal	12810 <_Z17tiled_vector_reluPsPKsm>
   128e4:	944e                	add	s0,s0,s3
   128e6:	94ce                	add	s1,s1,s3
   128e8:	ff2a18e3          	bne	s4,s2,128d8 <_Z17tiled_matrix_reluPsPKsmm+0x22>
   128ec:	7442                	ld	s0,48(sp)
   128ee:	74a2                	ld	s1,40(sp)
   128f0:	7902                	ld	s2,32(sp)
   128f2:	69e2                	ld	s3,24(sp)
   128f4:	70e2                	ld	ra,56(sp)
   128f6:	6a42                	ld	s4,16(sp)
   128f8:	6aa2                	ld	s5,8(sp)
   128fa:	6121                	addi	sp,sp,64
   128fc:	8082                	ret
   128fe:	00032537          	lui	a0,0x32
   12902:	a0050513          	addi	a0,a0,-1536 # 31a00 <__clzdi2+0x129e>
   12906:	f822                	sd	s0,48(sp)
   12908:	f426                	sd	s1,40(sp)
   1290a:	f04a                	sd	s2,32(sp)
   1290c:	ec4e                	sd	s3,24(sp)
   1290e:	23c140ef          	jal	26b4a <puts>
   12912:	00032537          	lui	a0,0x32
   12916:	8656                	mv	a2,s5
   12918:	85d2                	mv	a1,s4
   1291a:	a5850513          	addi	a0,a0,-1448 # 31a58 <__clzdi2+0x12f6>
   1291e:	050140ef          	jal	2696e <printf>
   12922:	557d                	li	a0,-1
   12924:	d93fd0ef          	jal	106b6 <exit>

0000000000012928 <_Z15fit_vector_tanhPsPKsm>:
   12928:	02000793          	li	a5,32
   1292c:	00c7ef63          	bltu	a5,a2,1294a <_Z15fit_vector_tanhPsPKsm+0x22>
   12930:	872a                	mv	a4,a0
   12932:	8532                	mv	a0,a2
   12934:	1805200b          	.insn	4, 0x1805200b
   12938:	852e                	mv	a0,a1
   1293a:	1005208b          	.insn	4, 0x1005208b
   1293e:	0e10810b          	.insn	4, 0x0e10810b
   12942:	853a                	mv	a0,a4
   12944:	1225200b          	.insn	4, 0x1225200b
   12948:	8082                	ret
   1294a:	000316b7          	lui	a3,0x31
   1294e:	00032637          	lui	a2,0x32
   12952:	00032537          	lui	a0,0x32
   12956:	1141                	addi	sp,sp,-16
   12958:	fa068693          	addi	a3,a3,-96 # 30fa0 <__clzdi2+0x83e>
   1295c:	a8860613          	addi	a2,a2,-1400 # 31a88 <__clzdi2+0x1326>
   12960:	99050513          	addi	a0,a0,-1648 # 31990 <__clzdi2+0x122e>
   12964:	03100593          	li	a1,49
   12968:	e406                	sd	ra,8(sp)
   1296a:	608110ef          	jal	23f72 <__assert_func>

000000000001296e <_Z17tiled_vector_tanhPsPKsm>:
   1296e:	c141                	beqz	a0,129ee <_Z17tiled_vector_tanhPsPKsm+0x80>
   12970:	02000793          	li	a5,32
   12974:	88aa                	mv	a7,a0
   12976:	06c7f063          	bgeu	a5,a2,129d6 <_Z17tiled_vector_tanhPsPKsm+0x68>
   1297a:	01f67313          	andi	t1,a2,31
   1297e:	00565813          	srli	a6,a2,0x5
   12982:	86ae                	mv	a3,a1
   12984:	872a                	mv	a4,a0
   12986:	4781                	li	a5,0
   12988:	02000513          	li	a0,32
   1298c:	1805200b          	.insn	4, 0x1805200b
   12990:	8536                	mv	a0,a3
   12992:	1005208b          	.insn	4, 0x1005208b
   12996:	0e10810b          	.insn	4, 0x0e10810b
   1299a:	853a                	mv	a0,a4
   1299c:	1225200b          	.insn	4, 0x1225200b
   129a0:	0785                	addi	a5,a5,1
   129a2:	04068693          	addi	a3,a3,64
   129a6:	04070713          	addi	a4,a4,64
   129aa:	fcf81fe3          	bne	a6,a5,12988 <_Z17tiled_vector_tanhPsPKsm+0x1a>
   129ae:	00031363          	bnez	t1,129b4 <_Z17tiled_vector_tanhPsPKsm+0x46>
   129b2:	8082                	ret
   129b4:	40660633          	sub	a2,a2,t1
   129b8:	0606                	slli	a2,a2,0x1
   129ba:	851a                	mv	a0,t1
   129bc:	1805200b          	.insn	4, 0x1805200b
   129c0:	00c58533          	add	a0,a1,a2
   129c4:	1005208b          	.insn	4, 0x1005208b
   129c8:	0e10810b          	.insn	4, 0x0e10810b
   129cc:	00c88533          	add	a0,a7,a2
   129d0:	1225200b          	.insn	4, 0x1225200b
   129d4:	8082                	ret
   129d6:	8532                	mv	a0,a2
   129d8:	1805200b          	.insn	4, 0x1805200b
   129dc:	852e                	mv	a0,a1
   129de:	1005208b          	.insn	4, 0x1005208b
   129e2:	0e10810b          	.insn	4, 0x0e10810b
   129e6:	8546                	mv	a0,a7
   129e8:	1225200b          	.insn	4, 0x1225200b
   129ec:	8082                	ret
   129ee:	00032537          	lui	a0,0x32
   129f2:	1101                	addi	sp,sp,-32
   129f4:	ac050513          	addi	a0,a0,-1344 # 31ac0 <__clzdi2+0x135e>
   129f8:	ec06                	sd	ra,24(sp)
   129fa:	e432                	sd	a2,8(sp)
   129fc:	14e140ef          	jal	26b4a <puts>
   12a00:	65a2                	ld	a1,8(sp)
   12a02:	00031537          	lui	a0,0x31
   12a06:	06850513          	addi	a0,a0,104 # 31068 <__clzdi2+0x906>
   12a0a:	765130ef          	jal	2696e <printf>
   12a0e:	557d                	li	a0,-1
   12a10:	ca7fd0ef          	jal	106b6 <exit>

0000000000012a14 <_Z17tiled_matrix_tanhPsPKsmm>:
   12a14:	7139                	addi	sp,sp,-64
   12a16:	e852                	sd	s4,16(sp)
   12a18:	e456                	sd	s5,8(sp)
   12a1a:	fc06                	sd	ra,56(sp)
   12a1c:	8a32                	mv	s4,a2
   12a1e:	8ab6                	mv	s5,a3
   12a20:	cd15                	beqz	a0,12a5c <_Z17tiled_matrix_tanhPsPKsmm+0x48>
   12a22:	ca05                	beqz	a2,12a52 <_Z17tiled_matrix_tanhPsPKsmm+0x3e>
   12a24:	f822                	sd	s0,48(sp)
   12a26:	f426                	sd	s1,40(sp)
   12a28:	f04a                	sd	s2,32(sp)
   12a2a:	ec4e                	sd	s3,24(sp)
   12a2c:	842a                	mv	s0,a0
   12a2e:	84ae                	mv	s1,a1
   12a30:	00169993          	slli	s3,a3,0x1
   12a34:	4901                	li	s2,0
   12a36:	85a6                	mv	a1,s1
   12a38:	8522                	mv	a0,s0
   12a3a:	8656                	mv	a2,s5
   12a3c:	0905                	addi	s2,s2,1
   12a3e:	f31ff0ef          	jal	1296e <_Z17tiled_vector_tanhPsPKsm>
   12a42:	944e                	add	s0,s0,s3
   12a44:	94ce                	add	s1,s1,s3
   12a46:	ff2a18e3          	bne	s4,s2,12a36 <_Z17tiled_matrix_tanhPsPKsmm+0x22>
   12a4a:	7442                	ld	s0,48(sp)
   12a4c:	74a2                	ld	s1,40(sp)
   12a4e:	7902                	ld	s2,32(sp)
   12a50:	69e2                	ld	s3,24(sp)
   12a52:	70e2                	ld	ra,56(sp)
   12a54:	6a42                	ld	s4,16(sp)
   12a56:	6aa2                	ld	s5,8(sp)
   12a58:	6121                	addi	sp,sp,64
   12a5a:	8082                	ret
   12a5c:	00032537          	lui	a0,0x32
   12a60:	b1850513          	addi	a0,a0,-1256 # 31b18 <__clzdi2+0x13b6>
   12a64:	f822                	sd	s0,48(sp)
   12a66:	f426                	sd	s1,40(sp)
   12a68:	f04a                	sd	s2,32(sp)
   12a6a:	ec4e                	sd	s3,24(sp)
   12a6c:	0de140ef          	jal	26b4a <puts>
   12a70:	00032537          	lui	a0,0x32
   12a74:	8656                	mv	a2,s5
   12a76:	85d2                	mv	a1,s4
   12a78:	a5850513          	addi	a0,a0,-1448 # 31a58 <__clzdi2+0x12f6>
   12a7c:	6f3130ef          	jal	2696e <printf>
   12a80:	557d                	li	a0,-1
   12a82:	c35fd0ef          	jal	106b6 <exit>

0000000000012a86 <_Z18fit_vector_sigmoidPsPKsm>:
   12a86:	02000793          	li	a5,32
   12a8a:	00c7ef63          	bltu	a5,a2,12aa8 <_Z18fit_vector_sigmoidPsPKsm+0x22>
   12a8e:	872a                	mv	a4,a0
   12a90:	8532                	mv	a0,a2
   12a92:	1805200b          	.insn	4, 0x1805200b
   12a96:	852e                	mv	a0,a1
   12a98:	1005208b          	.insn	4, 0x1005208b
   12a9c:	0e20810b          	.insn	4, 0x0e20810b
   12aa0:	853a                	mv	a0,a4
   12aa2:	1225200b          	.insn	4, 0x1225200b
   12aa6:	8082                	ret
   12aa8:	000316b7          	lui	a3,0x31
   12aac:	00032637          	lui	a2,0x32
   12ab0:	00032537          	lui	a0,0x32
   12ab4:	1141                	addi	sp,sp,-16
   12ab6:	fa068693          	addi	a3,a3,-96 # 30fa0 <__clzdi2+0x83e>
   12aba:	b7060613          	addi	a2,a2,-1168 # 31b70 <__clzdi2+0x140e>
   12abe:	99050513          	addi	a0,a0,-1648 # 31990 <__clzdi2+0x122e>
   12ac2:	05c00593          	li	a1,92
   12ac6:	e406                	sd	ra,8(sp)
   12ac8:	4aa110ef          	jal	23f72 <__assert_func>

0000000000012acc <_Z20tiled_vector_sigmoidPsPKsm>:
   12acc:	c141                	beqz	a0,12b4c <_Z20tiled_vector_sigmoidPsPKsm+0x80>
   12ace:	02000793          	li	a5,32
   12ad2:	88aa                	mv	a7,a0
   12ad4:	06c7f063          	bgeu	a5,a2,12b34 <_Z20tiled_vector_sigmoidPsPKsm+0x68>
   12ad8:	01f67313          	andi	t1,a2,31
   12adc:	00565813          	srli	a6,a2,0x5
   12ae0:	86ae                	mv	a3,a1
   12ae2:	872a                	mv	a4,a0
   12ae4:	4781                	li	a5,0
   12ae6:	02000513          	li	a0,32
   12aea:	1805200b          	.insn	4, 0x1805200b
   12aee:	8536                	mv	a0,a3
   12af0:	1005208b          	.insn	4, 0x1005208b
   12af4:	0e20810b          	.insn	4, 0x0e20810b
   12af8:	853a                	mv	a0,a4
   12afa:	1225200b          	.insn	4, 0x1225200b
   12afe:	0785                	addi	a5,a5,1
   12b00:	04068693          	addi	a3,a3,64
   12b04:	04070713          	addi	a4,a4,64
   12b08:	fcf81fe3          	bne	a6,a5,12ae6 <_Z20tiled_vector_sigmoidPsPKsm+0x1a>
   12b0c:	00031363          	bnez	t1,12b12 <_Z20tiled_vector_sigmoidPsPKsm+0x46>
   12b10:	8082                	ret
   12b12:	40660633          	sub	a2,a2,t1
   12b16:	0606                	slli	a2,a2,0x1
   12b18:	851a                	mv	a0,t1
   12b1a:	1805200b          	.insn	4, 0x1805200b
   12b1e:	00c58533          	add	a0,a1,a2
   12b22:	1005208b          	.insn	4, 0x1005208b
   12b26:	0e20810b          	.insn	4, 0x0e20810b
   12b2a:	00c88533          	add	a0,a7,a2
   12b2e:	1225200b          	.insn	4, 0x1225200b
   12b32:	8082                	ret
   12b34:	8532                	mv	a0,a2
   12b36:	1805200b          	.insn	4, 0x1805200b
   12b3a:	852e                	mv	a0,a1
   12b3c:	1005208b          	.insn	4, 0x1005208b
   12b40:	0e20810b          	.insn	4, 0x0e20810b
   12b44:	8546                	mv	a0,a7
   12b46:	1225200b          	.insn	4, 0x1225200b
   12b4a:	8082                	ret
   12b4c:	00032537          	lui	a0,0x32
   12b50:	1101                	addi	sp,sp,-32
   12b52:	ba850513          	addi	a0,a0,-1112 # 31ba8 <__clzdi2+0x1446>
   12b56:	ec06                	sd	ra,24(sp)
   12b58:	e432                	sd	a2,8(sp)
   12b5a:	7f1130ef          	jal	26b4a <puts>
   12b5e:	65a2                	ld	a1,8(sp)
   12b60:	00031537          	lui	a0,0x31
   12b64:	06850513          	addi	a0,a0,104 # 31068 <__clzdi2+0x906>
   12b68:	607130ef          	jal	2696e <printf>
   12b6c:	557d                	li	a0,-1
   12b6e:	b49fd0ef          	jal	106b6 <exit>

0000000000012b72 <_Z20tiled_matrix_sigmoidPsPKsmm>:
   12b72:	7139                	addi	sp,sp,-64
   12b74:	e852                	sd	s4,16(sp)
   12b76:	e456                	sd	s5,8(sp)
   12b78:	fc06                	sd	ra,56(sp)
   12b7a:	8a32                	mv	s4,a2
   12b7c:	8ab6                	mv	s5,a3
   12b7e:	cd15                	beqz	a0,12bba <_Z20tiled_matrix_sigmoidPsPKsmm+0x48>
   12b80:	ca05                	beqz	a2,12bb0 <_Z20tiled_matrix_sigmoidPsPKsmm+0x3e>
   12b82:	f822                	sd	s0,48(sp)
   12b84:	f426                	sd	s1,40(sp)
   12b86:	f04a                	sd	s2,32(sp)
   12b88:	ec4e                	sd	s3,24(sp)
   12b8a:	842a                	mv	s0,a0
   12b8c:	84ae                	mv	s1,a1
   12b8e:	00169993          	slli	s3,a3,0x1
   12b92:	4901                	li	s2,0
   12b94:	85a6                	mv	a1,s1
   12b96:	8522                	mv	a0,s0
   12b98:	8656                	mv	a2,s5
   12b9a:	0905                	addi	s2,s2,1
   12b9c:	f31ff0ef          	jal	12acc <_Z20tiled_vector_sigmoidPsPKsm>
   12ba0:	944e                	add	s0,s0,s3
   12ba2:	94ce                	add	s1,s1,s3
   12ba4:	ff2a18e3          	bne	s4,s2,12b94 <_Z20tiled_matrix_sigmoidPsPKsmm+0x22>
   12ba8:	7442                	ld	s0,48(sp)
   12baa:	74a2                	ld	s1,40(sp)
   12bac:	7902                	ld	s2,32(sp)
   12bae:	69e2                	ld	s3,24(sp)
   12bb0:	70e2                	ld	ra,56(sp)
   12bb2:	6a42                	ld	s4,16(sp)
   12bb4:	6aa2                	ld	s5,8(sp)
   12bb6:	6121                	addi	sp,sp,64
   12bb8:	8082                	ret
   12bba:	00032537          	lui	a0,0x32
   12bbe:	c0050513          	addi	a0,a0,-1024 # 31c00 <__clzdi2+0x149e>
   12bc2:	f822                	sd	s0,48(sp)
   12bc4:	f426                	sd	s1,40(sp)
   12bc6:	f04a                	sd	s2,32(sp)
   12bc8:	ec4e                	sd	s3,24(sp)
   12bca:	781130ef          	jal	26b4a <puts>
   12bce:	00032537          	lui	a0,0x32
   12bd2:	8656                	mv	a2,s5
   12bd4:	85d2                	mv	a1,s4
   12bd6:	a5850513          	addi	a0,a0,-1448 # 31a58 <__clzdi2+0x12f6>
   12bda:	595130ef          	jal	2696e <printf>
   12bde:	557d                	li	a0,-1
   12be0:	ad7fd0ef          	jal	106b6 <exit>

0000000000012be4 <_Z11fit_dotprodPsPKsS1_m>:
   12be4:	47a1                	li	a5,8
   12be6:	02d7e163          	bltu	a5,a3,12c08 <_Z11fit_dotprodPsPKsS1_m+0x24>
   12bea:	872a                	mv	a4,a0
   12bec:	8536                	mv	a0,a3
   12bee:	1805200b          	.insn	4, 0x1805200b
   12bf2:	852e                	mv	a0,a1
   12bf4:	1005208b          	.insn	4, 0x1005208b
   12bf8:	8532                	mv	a0,a2
   12bfa:	1005210b          	.insn	4, 0x1005210b
   12bfe:	1a20c50b          	.insn	4, 0x1a20c50b
   12c02:	00a71023          	sh	a0,0(a4)
   12c06:	8082                	ret
   12c08:	000326b7          	lui	a3,0x32
   12c0c:	00032637          	lui	a2,0x32
   12c10:	00032537          	lui	a0,0x32
   12c14:	1141                	addi	sp,sp,-16
   12c16:	c5868693          	addi	a3,a3,-936 # 31c58 <__clzdi2+0x14f6>
   12c1a:	c7060613          	addi	a2,a2,-912 # 31c70 <__clzdi2+0x150e>
   12c1e:	cb050513          	addi	a0,a0,-848 # 31cb0 <__clzdi2+0x154e>
   12c22:	4591                	li	a1,4
   12c24:	e406                	sd	ra,8(sp)
   12c26:	34c110ef          	jal	23f72 <__assert_func>

0000000000012c2a <_Z13tiled_dotprodPsPKsS1_m>:
   12c2a:	47a1                	li	a5,8
   12c2c:	8eaa                	mv	t4,a0
   12c2e:	06d7fa63          	bgeu	a5,a3,12ca2 <_Z13tiled_dotprodPsPKsS1_m+0x78>
   12c32:	0076ff13          	andi	t5,a3,7
   12c36:	0036de13          	srli	t3,a3,0x3
   12c3a:	88ae                	mv	a7,a1
   12c3c:	8832                	mv	a6,a2
   12c3e:	4301                	li	t1,0
   12c40:	4701                	li	a4,0
   12c42:	4521                	li	a0,8
   12c44:	1805200b          	.insn	4, 0x1805200b
   12c48:	8546                	mv	a0,a7
   12c4a:	1005208b          	.insn	4, 0x1005208b
   12c4e:	8542                	mv	a0,a6
   12c50:	1005210b          	.insn	4, 0x1005210b
   12c54:	1a20c50b          	.insn	4, 0x1a20c50b
   12c58:	00a307bb          	addw	a5,t1,a0
   12c5c:	0107931b          	slliw	t1,a5,0x10
   12c60:	0705                	addi	a4,a4,1
   12c62:	08c1                	addi	a7,a7,16
   12c64:	0841                	addi	a6,a6,16
   12c66:	4103531b          	sraiw	t1,t1,0x10
   12c6a:	fcee1ce3          	bne	t3,a4,12c42 <_Z13tiled_dotprodPsPKsS1_m+0x18>
   12c6e:	000f1563          	bnez	t5,12c78 <_Z13tiled_dotprodPsPKsS1_m+0x4e>
   12c72:	006e9023          	sh	t1,0(t4)
   12c76:	8082                	ret
   12c78:	41e686b3          	sub	a3,a3,t5
   12c7c:	0686                	slli	a3,a3,0x1
   12c7e:	857a                	mv	a0,t5
   12c80:	1805200b          	.insn	4, 0x1805200b
   12c84:	00d58533          	add	a0,a1,a3
   12c88:	1005208b          	.insn	4, 0x1005208b
   12c8c:	00d60533          	add	a0,a2,a3
   12c90:	1005210b          	.insn	4, 0x1005210b
   12c94:	1a20c50b          	.insn	4, 0x1a20c50b
   12c98:	00f5033b          	addw	t1,a0,a5
   12c9c:	006e9023          	sh	t1,0(t4)
   12ca0:	8082                	ret
   12ca2:	8536                	mv	a0,a3
   12ca4:	1805200b          	.insn	4, 0x1805200b
   12ca8:	852e                	mv	a0,a1
   12caa:	1005208b          	.insn	4, 0x1005208b
   12cae:	8532                	mv	a0,a2
   12cb0:	1005210b          	.insn	4, 0x1005210b
   12cb4:	1a20c50b          	.insn	4, 0x1a20c50b
   12cb8:	832a                	mv	t1,a0
   12cba:	006e9023          	sh	t1,0(t4)
   12cbe:	8082                	ret

0000000000012cc0 <_Z9tiled_mvmPsPKsS1_mm>:
   12cc0:	7139                	addi	sp,sp,-64
   12cc2:	ec4e                	sd	s3,24(sp)
   12cc4:	fc06                	sd	ra,56(sp)
   12cc6:	89b6                	mv	s3,a3
   12cc8:	c521                	beqz	a0,12d10 <_Z9tiled_mvmPsPKsS1_mm+0x50>
   12cca:	ce9d                	beqz	a3,12d08 <_Z9tiled_mvmPsPKsS1_mm+0x48>
   12ccc:	f822                	sd	s0,48(sp)
   12cce:	f426                	sd	s1,40(sp)
   12cd0:	f04a                	sd	s2,32(sp)
   12cd2:	e852                	sd	s4,16(sp)
   12cd4:	e456                	sd	s5,8(sp)
   12cd6:	e05a                	sd	s6,0(sp)
   12cd8:	8ab2                	mv	s5,a2
   12cda:	8a3a                	mv	s4,a4
   12cdc:	842a                	mv	s0,a0
   12cde:	84ae                	mv	s1,a1
   12ce0:	00171b13          	slli	s6,a4,0x1
   12ce4:	4901                	li	s2,0
   12ce6:	85a6                	mv	a1,s1
   12ce8:	8522                	mv	a0,s0
   12cea:	86d2                	mv	a3,s4
   12cec:	8656                	mv	a2,s5
   12cee:	0905                	addi	s2,s2,1
   12cf0:	f3bff0ef          	jal	12c2a <_Z13tiled_dotprodPsPKsS1_m>
   12cf4:	0409                	addi	s0,s0,2
   12cf6:	94da                	add	s1,s1,s6
   12cf8:	ff2997e3          	bne	s3,s2,12ce6 <_Z9tiled_mvmPsPKsS1_mm+0x26>
   12cfc:	7442                	ld	s0,48(sp)
   12cfe:	74a2                	ld	s1,40(sp)
   12d00:	7902                	ld	s2,32(sp)
   12d02:	6a42                	ld	s4,16(sp)
   12d04:	6aa2                	ld	s5,8(sp)
   12d06:	6b02                	ld	s6,0(sp)
   12d08:	70e2                	ld	ra,56(sp)
   12d0a:	69e2                	ld	s3,24(sp)
   12d0c:	6121                	addi	sp,sp,64
   12d0e:	8082                	ret
   12d10:	00032537          	lui	a0,0x32
   12d14:	cc850513          	addi	a0,a0,-824 # 31cc8 <__clzdi2+0x1566>
   12d18:	f822                	sd	s0,48(sp)
   12d1a:	f426                	sd	s1,40(sp)
   12d1c:	f04a                	sd	s2,32(sp)
   12d1e:	e852                	sd	s4,16(sp)
   12d20:	e456                	sd	s5,8(sp)
   12d22:	e05a                	sd	s6,0(sp)
   12d24:	627130ef          	jal	26b4a <puts>
   12d28:	00031537          	lui	a0,0x31
   12d2c:	85ce                	mv	a1,s3
   12d2e:	6d850513          	addi	a0,a0,1752 # 316d8 <__clzdi2+0xf76>
   12d32:	43d130ef          	jal	2696e <printf>
   12d36:	557d                	li	a0,-1
   12d38:	97ffd0ef          	jal	106b6 <exit>

0000000000012d3c <_Z22tiled_matmul_transposePsPKsS1_mmm>:
   12d3c:	7159                	addi	sp,sp,-112
   12d3e:	e4ce                	sd	s3,72(sp)
   12d40:	f062                	sd	s8,32(sp)
   12d42:	f486                	sd	ra,104(sp)
   12d44:	89b6                	mv	s3,a3
   12d46:	8c3e                	mv	s8,a5
   12d48:	c92d                	beqz	a0,12dba <_Z22tiled_matmul_transposePsPKsS1_mmm+0x7e>
   12d4a:	c3bd                	beqz	a5,12db0 <_Z22tiled_matmul_transposePsPKsS1_mmm+0x74>
   12d4c:	c2b5                	beqz	a3,12db0 <_Z22tiled_matmul_transposePsPKsS1_mmm+0x74>
   12d4e:	e8ca                	sd	s2,80(sp)
   12d50:	e0d2                	sd	s4,64(sp)
   12d52:	fc56                	sd	s5,56(sp)
   12d54:	f85a                	sd	s6,48(sp)
   12d56:	f45e                	sd	s7,40(sp)
   12d58:	ec66                	sd	s9,24(sp)
   12d5a:	e86a                	sd	s10,16(sp)
   12d5c:	f0a2                	sd	s0,96(sp)
   12d5e:	eca6                	sd	s1,88(sp)
   12d60:	e46e                	sd	s11,8(sp)
   12d62:	8caa                	mv	s9,a0
   12d64:	8d2e                	mv	s10,a1
   12d66:	8aba                	mv	s5,a4
   12d68:	8932                	mv	s2,a2
   12d6a:	00171a13          	slli	s4,a4,0x1
   12d6e:	4b81                	li	s7,0
   12d70:	4b01                	li	s6,0
   12d72:	001b9413          	slli	s0,s7,0x1
   12d76:	9466                	add	s0,s0,s9
   12d78:	8dea                	mv	s11,s10
   12d7a:	4481                	li	s1,0
   12d7c:	85ee                	mv	a1,s11
   12d7e:	8522                	mv	a0,s0
   12d80:	86d6                	mv	a3,s5
   12d82:	864a                	mv	a2,s2
   12d84:	0485                	addi	s1,s1,1
   12d86:	ea5ff0ef          	jal	12c2a <_Z13tiled_dotprodPsPKsS1_m>
   12d8a:	0409                	addi	s0,s0,2
   12d8c:	9dd2                	add	s11,s11,s4
   12d8e:	fe9997e3          	bne	s3,s1,12d7c <_Z22tiled_matmul_transposePsPKsS1_mmm+0x40>
   12d92:	0b05                	addi	s6,s6,1
   12d94:	9bce                	add	s7,s7,s3
   12d96:	9952                	add	s2,s2,s4
   12d98:	fd8b1de3          	bne	s6,s8,12d72 <_Z22tiled_matmul_transposePsPKsS1_mmm+0x36>
   12d9c:	7406                	ld	s0,96(sp)
   12d9e:	64e6                	ld	s1,88(sp)
   12da0:	6946                	ld	s2,80(sp)
   12da2:	6a06                	ld	s4,64(sp)
   12da4:	7ae2                	ld	s5,56(sp)
   12da6:	7b42                	ld	s6,48(sp)
   12da8:	7ba2                	ld	s7,40(sp)
   12daa:	6ce2                	ld	s9,24(sp)
   12dac:	6d42                	ld	s10,16(sp)
   12dae:	6da2                	ld	s11,8(sp)
   12db0:	70a6                	ld	ra,104(sp)
   12db2:	69a6                	ld	s3,72(sp)
   12db4:	7c02                	ld	s8,32(sp)
   12db6:	6165                	addi	sp,sp,112
   12db8:	8082                	ret
   12dba:	00032537          	lui	a0,0x32
   12dbe:	d1850513          	addi	a0,a0,-744 # 31d18 <__clzdi2+0x15b6>
   12dc2:	f0a2                	sd	s0,96(sp)
   12dc4:	eca6                	sd	s1,88(sp)
   12dc6:	e8ca                	sd	s2,80(sp)
   12dc8:	e0d2                	sd	s4,64(sp)
   12dca:	fc56                	sd	s5,56(sp)
   12dcc:	f85a                	sd	s6,48(sp)
   12dce:	f45e                	sd	s7,40(sp)
   12dd0:	ec66                	sd	s9,24(sp)
   12dd2:	e86a                	sd	s10,16(sp)
   12dd4:	e46e                	sd	s11,8(sp)
   12dd6:	575130ef          	jal	26b4a <puts>
   12dda:	00032537          	lui	a0,0x32
   12dde:	864e                	mv	a2,s3
   12de0:	85e2                	mv	a1,s8
   12de2:	d7050513          	addi	a0,a0,-656 # 31d70 <__clzdi2+0x160e>
   12de6:	389130ef          	jal	2696e <printf>
   12dea:	557d                	li	a0,-1
   12dec:	8cbfd0ef          	jal	106b6 <exit>

0000000000012df0 <_Z21tiled_dotprod_stridedPsPKsS1_mm>:
   12df0:	47a1                	li	a5,8
   12df2:	8eaa                	mv	t4,a0
   12df4:	06d7f963          	bgeu	a5,a3,12e66 <_Z21tiled_dotprod_stridedPsPKsS1_mm+0x76>
   12df8:	0076ff13          	andi	t5,a3,7
   12dfc:	0706                	slli	a4,a4,0x1
   12dfe:	828d                	srli	a3,a3,0x3
   12e00:	832e                	mv	t1,a1
   12e02:	88b2                	mv	a7,a2
   12e04:	4e01                	li	t3,0
   12e06:	4801                	li	a6,0
   12e08:	4521                	li	a0,8
   12e0a:	1805200b          	.insn	4, 0x1805200b
   12e0e:	851a                	mv	a0,t1
   12e10:	1005208b          	.insn	4, 0x1005208b
   12e14:	8546                	mv	a0,a7
   12e16:	1005210b          	.insn	4, 0x1005210b
   12e1a:	1a20c50b          	.insn	4, 0x1a20c50b
   12e1e:	00ae07bb          	addw	a5,t3,a0
   12e22:	01079e1b          	slliw	t3,a5,0x10
   12e26:	0805                	addi	a6,a6,1
   12e28:	933a                	add	t1,t1,a4
   12e2a:	98ba                	add	a7,a7,a4
   12e2c:	410e5e1b          	sraiw	t3,t3,0x10
   12e30:	fd069ce3          	bne	a3,a6,12e08 <_Z21tiled_dotprod_stridedPsPKsS1_mm+0x18>
   12e34:	000f1563          	bnez	t5,12e3e <_Z21tiled_dotprod_stridedPsPKsS1_mm+0x4e>
   12e38:	01ce9023          	sh	t3,0(t4)
   12e3c:	8082                	ret
   12e3e:	02d70733          	mul	a4,a4,a3
   12e42:	857a                	mv	a0,t5
   12e44:	1805200b          	.insn	4, 0x1805200b
   12e48:	00e58533          	add	a0,a1,a4
   12e4c:	1005208b          	.insn	4, 0x1005208b
   12e50:	00e60533          	add	a0,a2,a4
   12e54:	1005210b          	.insn	4, 0x1005210b
   12e58:	1a20c50b          	.insn	4, 0x1a20c50b
   12e5c:	00f50e3b          	addw	t3,a0,a5
   12e60:	01ce9023          	sh	t3,0(t4)
   12e64:	8082                	ret
   12e66:	8536                	mv	a0,a3
   12e68:	1805200b          	.insn	4, 0x1805200b
   12e6c:	852e                	mv	a0,a1
   12e6e:	1005208b          	.insn	4, 0x1005208b
   12e72:	8532                	mv	a0,a2
   12e74:	1005210b          	.insn	4, 0x1005210b
   12e78:	1a20c50b          	.insn	4, 0x1a20c50b
   12e7c:	8e2a                	mv	t3,a0
   12e7e:	01ce9023          	sh	t3,0(t4)
   12e82:	8082                	ret

0000000000012e84 <_Z17tiled_mvm_stridedPsPKsS1_mmm>:
   12e84:	7139                	addi	sp,sp,-64
   12e86:	e852                	sd	s4,16(sp)
   12e88:	fc06                	sd	ra,56(sp)
   12e8a:	8a36                	mv	s4,a3
   12e8c:	c531                	beqz	a0,12ed8 <_Z17tiled_mvm_stridedPsPKsS1_mmm+0x54>
   12e8e:	c2a9                	beqz	a3,12ed0 <_Z17tiled_mvm_stridedPsPKsS1_mmm+0x4c>
   12e90:	f822                	sd	s0,48(sp)
   12e92:	f426                	sd	s1,40(sp)
   12e94:	f04a                	sd	s2,32(sp)
   12e96:	ec4e                	sd	s3,24(sp)
   12e98:	e456                	sd	s5,8(sp)
   12e9a:	e05a                	sd	s6,0(sp)
   12e9c:	8ab2                	mv	s5,a2
   12e9e:	8b3a                	mv	s6,a4
   12ea0:	842a                	mv	s0,a0
   12ea2:	00179993          	slli	s3,a5,0x1
   12ea6:	84ae                	mv	s1,a1
   12ea8:	4901                	li	s2,0
   12eaa:	85a6                	mv	a1,s1
   12eac:	8522                	mv	a0,s0
   12eae:	02000713          	li	a4,32
   12eb2:	86da                	mv	a3,s6
   12eb4:	8656                	mv	a2,s5
   12eb6:	0905                	addi	s2,s2,1
   12eb8:	f39ff0ef          	jal	12df0 <_Z21tiled_dotprod_stridedPsPKsS1_mm>
   12ebc:	0409                	addi	s0,s0,2
   12ebe:	94ce                	add	s1,s1,s3
   12ec0:	ff2a15e3          	bne	s4,s2,12eaa <_Z17tiled_mvm_stridedPsPKsS1_mmm+0x26>
   12ec4:	7442                	ld	s0,48(sp)
   12ec6:	74a2                	ld	s1,40(sp)
   12ec8:	7902                	ld	s2,32(sp)
   12eca:	69e2                	ld	s3,24(sp)
   12ecc:	6aa2                	ld	s5,8(sp)
   12ece:	6b02                	ld	s6,0(sp)
   12ed0:	70e2                	ld	ra,56(sp)
   12ed2:	6a42                	ld	s4,16(sp)
   12ed4:	6121                	addi	sp,sp,64
   12ed6:	8082                	ret
   12ed8:	00032537          	lui	a0,0x32
   12edc:	d9850513          	addi	a0,a0,-616 # 31d98 <__clzdi2+0x1636>
   12ee0:	f822                	sd	s0,48(sp)
   12ee2:	f426                	sd	s1,40(sp)
   12ee4:	f04a                	sd	s2,32(sp)
   12ee6:	ec4e                	sd	s3,24(sp)
   12ee8:	e456                	sd	s5,8(sp)
   12eea:	e05a                	sd	s6,0(sp)
   12eec:	45f130ef          	jal	26b4a <puts>
   12ef0:	00031537          	lui	a0,0x31
   12ef4:	85d2                	mv	a1,s4
   12ef6:	6d850513          	addi	a0,a0,1752 # 316d8 <__clzdi2+0xf76>
   12efa:	275130ef          	jal	2696e <printf>
   12efe:	557d                	li	a0,-1
   12f00:	fb6fd0ef          	jal	106b6 <exit>

0000000000012f04 <_Z30tiled_matmul_transpose_stridedPsPKsS1_mmmmm>:
   12f04:	7119                	addi	sp,sp,-128
   12f06:	f0ca                	sd	s2,96(sp)
   12f08:	f862                	sd	s8,48(sp)
   12f0a:	fc86                	sd	ra,120(sp)
   12f0c:	e42e                	sd	a1,8(sp)
   12f0e:	8936                	mv	s2,a3
   12f10:	8c3e                	mv	s8,a5
   12f12:	cd25                	beqz	a0,12f8a <_Z30tiled_matmul_transpose_stridedPsPKsS1_mmmmm+0x86>
   12f14:	c7b5                	beqz	a5,12f80 <_Z30tiled_matmul_transpose_stridedPsPKsS1_mmmmm+0x7c>
   12f16:	c6ad                	beqz	a3,12f80 <_Z30tiled_matmul_transpose_stridedPsPKsS1_mmmmm+0x7c>
   12f18:	f4a6                	sd	s1,104(sp)
   12f1a:	ecce                	sd	s3,88(sp)
   12f1c:	e8d2                	sd	s4,80(sp)
   12f1e:	e4d6                	sd	s5,72(sp)
   12f20:	e0da                	sd	s6,64(sp)
   12f22:	fc5e                	sd	s7,56(sp)
   12f24:	f466                	sd	s9,40(sp)
   12f26:	f8a2                	sd	s0,112(sp)
   12f28:	f06a                	sd	s10,32(sp)
   12f2a:	ec6e                	sd	s11,24(sp)
   12f2c:	8caa                	mv	s9,a0
   12f2e:	8a3a                	mv	s4,a4
   12f30:	00189b93          	slli	s7,a7,0x1
   12f34:	84b2                	mv	s1,a2
   12f36:	00181993          	slli	s3,a6,0x1
   12f3a:	4b01                	li	s6,0
   12f3c:	4a81                	li	s5,0
   12f3e:	6d22                	ld	s10,8(sp)
   12f40:	001b1413          	slli	s0,s6,0x1
   12f44:	9466                	add	s0,s0,s9
   12f46:	4d81                	li	s11,0
   12f48:	85ea                	mv	a1,s10
   12f4a:	8522                	mv	a0,s0
   12f4c:	02000713          	li	a4,32
   12f50:	86d2                	mv	a3,s4
   12f52:	8626                	mv	a2,s1
   12f54:	0d85                	addi	s11,s11,1
   12f56:	e9bff0ef          	jal	12df0 <_Z21tiled_dotprod_stridedPsPKsS1_mm>
   12f5a:	0409                	addi	s0,s0,2
   12f5c:	9d4e                	add	s10,s10,s3
   12f5e:	ffb915e3          	bne	s2,s11,12f48 <_Z30tiled_matmul_transpose_stridedPsPKsS1_mmmmm+0x44>
   12f62:	0a85                	addi	s5,s5,1
   12f64:	9b4a                	add	s6,s6,s2
   12f66:	94de                	add	s1,s1,s7
   12f68:	fd5c1be3          	bne	s8,s5,12f3e <_Z30tiled_matmul_transpose_stridedPsPKsS1_mmmmm+0x3a>
   12f6c:	7446                	ld	s0,112(sp)
   12f6e:	74a6                	ld	s1,104(sp)
   12f70:	69e6                	ld	s3,88(sp)
   12f72:	6a46                	ld	s4,80(sp)
   12f74:	6aa6                	ld	s5,72(sp)
   12f76:	6b06                	ld	s6,64(sp)
   12f78:	7be2                	ld	s7,56(sp)
   12f7a:	7ca2                	ld	s9,40(sp)
   12f7c:	7d02                	ld	s10,32(sp)
   12f7e:	6de2                	ld	s11,24(sp)
   12f80:	70e6                	ld	ra,120(sp)
   12f82:	7906                	ld	s2,96(sp)
   12f84:	7c42                	ld	s8,48(sp)
   12f86:	6109                	addi	sp,sp,128
   12f88:	8082                	ret
   12f8a:	00032537          	lui	a0,0x32
   12f8e:	df050513          	addi	a0,a0,-528 # 31df0 <__clzdi2+0x168e>
   12f92:	f8a2                	sd	s0,112(sp)
   12f94:	f4a6                	sd	s1,104(sp)
   12f96:	ecce                	sd	s3,88(sp)
   12f98:	e8d2                	sd	s4,80(sp)
   12f9a:	e4d6                	sd	s5,72(sp)
   12f9c:	e0da                	sd	s6,64(sp)
   12f9e:	fc5e                	sd	s7,56(sp)
   12fa0:	f466                	sd	s9,40(sp)
   12fa2:	f06a                	sd	s10,32(sp)
   12fa4:	ec6e                	sd	s11,24(sp)
   12fa6:	3a5130ef          	jal	26b4a <puts>
   12faa:	00032537          	lui	a0,0x32
   12fae:	864a                	mv	a2,s2
   12fb0:	85e2                	mv	a1,s8
   12fb2:	d7050513          	addi	a0,a0,-656 # 31d70 <__clzdi2+0x160e>
   12fb6:	1b9130ef          	jal	2696e <printf>
   12fba:	557d                	li	a0,-1
   12fbc:	efafd0ef          	jal	106b6 <exit>

0000000000012fc0 <_Z35tiled_matmul_transpose_full_stridedPsPKsS1_mmmmmm>:
   12fc0:	7119                	addi	sp,sp,-128
   12fc2:	f862                	sd	s8,48(sp)
   12fc4:	fc86                	sd	ra,120(sp)
   12fc6:	e42e                	sd	a1,8(sp)
   12fc8:	8c3e                	mv	s8,a5
   12fca:	c149                	beqz	a0,1304c <_Z35tiled_matmul_transpose_full_stridedPsPKsS1_mmmmmm+0x8c>
   12fcc:	cbb5                	beqz	a5,13040 <_Z35tiled_matmul_transpose_full_stridedPsPKsS1_mmmmmm+0x80>
   12fce:	ecce                	sd	s3,88(sp)
   12fd0:	89b6                	mv	s3,a3
   12fd2:	cabd                	beqz	a3,13048 <_Z35tiled_matmul_transpose_full_stridedPsPKsS1_mmmmmm+0x88>
   12fd4:	f4a6                	sd	s1,104(sp)
   12fd6:	f0ca                	sd	s2,96(sp)
   12fd8:	e8d2                	sd	s4,80(sp)
   12fda:	e4d6                	sd	s5,72(sp)
   12fdc:	e0da                	sd	s6,64(sp)
   12fde:	fc5e                	sd	s7,56(sp)
   12fe0:	f466                	sd	s9,40(sp)
   12fe2:	f8a2                	sd	s0,112(sp)
   12fe4:	f06a                	sd	s10,32(sp)
   12fe6:	ec6e                	sd	s11,24(sp)
   12fe8:	8caa                	mv	s9,a0
   12fea:	8a3a                	mv	s4,a4
   12fec:	00189b93          	slli	s7,a7,0x1
   12ff0:	84b2                	mv	s1,a2
   12ff2:	00181913          	slli	s2,a6,0x1
   12ff6:	4b01                	li	s6,0
   12ff8:	4a81                	li	s5,0
   12ffa:	6da2                	ld	s11,8(sp)
   12ffc:	001b1413          	slli	s0,s6,0x1
   13000:	9466                	add	s0,s0,s9
   13002:	4d01                	li	s10,0
   13004:	85ee                	mv	a1,s11
   13006:	8522                	mv	a0,s0
   13008:	02000713          	li	a4,32
   1300c:	86d2                	mv	a3,s4
   1300e:	8626                	mv	a2,s1
   13010:	0d05                	addi	s10,s10,1
   13012:	ddfff0ef          	jal	12df0 <_Z21tiled_dotprod_stridedPsPKsS1_mm>
   13016:	0409                	addi	s0,s0,2
   13018:	9dca                	add	s11,s11,s2
   1301a:	ffa995e3          	bne	s3,s10,13004 <_Z35tiled_matmul_transpose_full_stridedPsPKsS1_mmmmmm+0x44>
   1301e:	678a                	ld	a5,128(sp)
   13020:	0a85                	addi	s5,s5,1
   13022:	94de                	add	s1,s1,s7
   13024:	9b3e                	add	s6,s6,a5
   13026:	fd5c1ae3          	bne	s8,s5,12ffa <_Z35tiled_matmul_transpose_full_stridedPsPKsS1_mmmmmm+0x3a>
   1302a:	7446                	ld	s0,112(sp)
   1302c:	74a6                	ld	s1,104(sp)
   1302e:	7906                	ld	s2,96(sp)
   13030:	69e6                	ld	s3,88(sp)
   13032:	6a46                	ld	s4,80(sp)
   13034:	6aa6                	ld	s5,72(sp)
   13036:	6b06                	ld	s6,64(sp)
   13038:	7be2                	ld	s7,56(sp)
   1303a:	7ca2                	ld	s9,40(sp)
   1303c:	7d02                	ld	s10,32(sp)
   1303e:	6de2                	ld	s11,24(sp)
   13040:	70e6                	ld	ra,120(sp)
   13042:	7c42                	ld	s8,48(sp)
   13044:	6109                	addi	sp,sp,128
   13046:	8082                	ret
   13048:	69e6                	ld	s3,88(sp)
   1304a:	bfdd                	j	13040 <_Z35tiled_matmul_transpose_full_stridedPsPKsS1_mmmmmm+0x80>
   1304c:	00032537          	lui	a0,0x32
   13050:	e5050513          	addi	a0,a0,-432 # 31e50 <__clzdi2+0x16ee>
   13054:	f8a2                	sd	s0,112(sp)
   13056:	f4a6                	sd	s1,104(sp)
   13058:	f0ca                	sd	s2,96(sp)
   1305a:	ecce                	sd	s3,88(sp)
   1305c:	e8d2                	sd	s4,80(sp)
   1305e:	e4d6                	sd	s5,72(sp)
   13060:	e0da                	sd	s6,64(sp)
   13062:	fc5e                	sd	s7,56(sp)
   13064:	f466                	sd	s9,40(sp)
   13066:	f06a                	sd	s10,32(sp)
   13068:	ec6e                	sd	s11,24(sp)
   1306a:	2e1130ef          	jal	26b4a <puts>
   1306e:	660a                	ld	a2,128(sp)
   13070:	00032537          	lui	a0,0x32
   13074:	85e2                	mv	a1,s8
   13076:	eb850513          	addi	a0,a0,-328 # 31eb8 <__clzdi2+0x1756>
   1307a:	0f5130ef          	jal	2696e <printf>
   1307e:	557d                	li	a0,-1
   13080:	e36fd0ef          	jal	106b6 <exit>

0000000000013084 <_Z10array_initPsms>:
   13084:	c981                	beqz	a1,13094 <_Z10array_initPsms+0x10>
   13086:	0586                	slli	a1,a1,0x1
   13088:	95aa                	add	a1,a1,a0
   1308a:	00c51023          	sh	a2,0(a0)
   1308e:	0509                	addi	a0,a0,2
   13090:	feb51de3          	bne	a0,a1,1308a <_Z10array_initPsms+0x6>
   13094:	8082                	ret

0000000000013096 <_Z12conv2d_shapePmS_S_mmmmmmmm>:
   13096:	6e02                	ld	t3,0(sp)
   13098:	6842                	ld	a6,16(sp)
   1309a:	6322                	ld	t1,8(sp)
   1309c:	41c70733          	sub	a4,a4,t3
   130a0:	0806                	slli	a6,a6,0x1
   130a2:	9742                	add	a4,a4,a6
   130a4:	02675733          	divu	a4,a4,t1
   130a8:	41c787b3          	sub	a5,a5,t3
   130ac:	97c2                	add	a5,a5,a6
   130ae:	0267d7b3          	divu	a5,a5,t1
   130b2:	0705                	addi	a4,a4,1
   130b4:	031686b3          	mul	a3,a3,a7
   130b8:	0785                	addi	a5,a5,1
   130ba:	02e686b3          	mul	a3,a3,a4
   130be:	02f686b3          	mul	a3,a3,a5
   130c2:	e114                	sd	a3,0(a0)
   130c4:	e198                	sd	a4,0(a1)
   130c6:	e21c                	sd	a5,0(a2)
   130c8:	8082                	ret

00000000000130ca <_Z15padding2d_shapePmS_S_mmmmm>:
   130ca:	03180833          	mul	a6,a6,a7
   130ce:	0686                	slli	a3,a3,0x1
   130d0:	9736                	add	a4,a4,a3
   130d2:	e198                	sd	a4,0(a1)
   130d4:	96be                	add	a3,a3,a5
   130d6:	e214                	sd	a3,0(a2)
   130d8:	619c                	ld	a5,0(a1)
   130da:	02f80833          	mul	a6,a6,a5
   130de:	02d80833          	mul	a6,a6,a3
   130e2:	01053023          	sd	a6,0(a0)
   130e6:	8082                	ret

00000000000130e8 <_Z9padding2dPsPKsmsmm>:
   130e8:	7159                	addi	sp,sp,-112
   130ea:	e4ce                	sd	s3,72(sp)
   130ec:	00161993          	slli	s3,a2,0x1
   130f0:	f062                	sd	s8,32(sp)
   130f2:	00f98c33          	add	s8,s3,a5
   130f6:	eca6                	sd	s1,88(sp)
   130f8:	02cc04b3          	mul	s1,s8,a2
   130fc:	f0a2                	sd	s0,96(sp)
   130fe:	e8ca                	sd	s2,80(sp)
   13100:	fc56                	sd	s5,56(sp)
   13102:	f45e                	sd	s7,40(sp)
   13104:	f486                	sd	ra,104(sp)
   13106:	8bb2                	mv	s7,a2
   13108:	8aaa                	mv	s5,a0
   1310a:	8436                	mv	s0,a3
   1310c:	893a                	mv	s2,a4
   1310e:	cce9                	beqz	s1,131e8 <_Z9padding2dPsPKsmsmm+0x100>
   13110:	00149693          	slli	a3,s1,0x1
   13114:	96aa                	add	a3,a3,a0
   13116:	872a                	mv	a4,a0
   13118:	00871023          	sh	s0,0(a4)
   1311c:	0709                	addi	a4,a4,2
   1311e:	fed71de3          	bne	a4,a3,13118 <_Z9padding2dPsPKsmsmm+0x30>
   13122:	8726                	mv	a4,s1
   13124:	08090263          	beqz	s2,131a8 <_Z9padding2dPsPKsmsmm+0xc0>
   13128:	f85a                	sd	s6,48(sp)
   1312a:	417c0b33          	sub	s6,s8,s7
   1312e:	e0d2                	sd	s4,64(sp)
   13130:	ec66                	sd	s9,24(sp)
   13132:	e86a                	sd	s10,16(sp)
   13134:	e46e                	sd	s11,8(sp)
   13136:	00179a13          	slli	s4,a5,0x1
   1313a:	8d2e                	mv	s10,a1
   1313c:	99d6                	add	s3,s3,s5
   1313e:	9b26                	add	s6,s6,s1
   13140:	8ca6                	mv	s9,s1
   13142:	4d81                	li	s11,0
   13144:	001c9793          	slli	a5,s9,0x1
   13148:	00f98533          	add	a0,s3,a5
   1314c:	080b8363          	beqz	s7,131d2 <_Z9padding2dPsPKsmsmm+0xea>
   13150:	019b8733          	add	a4,s7,s9
   13154:	0706                	slli	a4,a4,0x1
   13156:	97d6                	add	a5,a5,s5
   13158:	9756                	add	a4,a4,s5
   1315a:	00879023          	sh	s0,0(a5)
   1315e:	0789                	addi	a5,a5,2
   13160:	fee79de3          	bne	a5,a4,1315a <_Z9padding2dPsPKsmsmm+0x72>
   13164:	8652                	mv	a2,s4
   13166:	85ea                	mv	a1,s10
   13168:	48d140ef          	jal	27df4 <memcpy>
   1316c:	016b8733          	add	a4,s7,s6
   13170:	0706                	slli	a4,a4,0x1
   13172:	001b1793          	slli	a5,s6,0x1
   13176:	9756                	add	a4,a4,s5
   13178:	97d6                	add	a5,a5,s5
   1317a:	00879023          	sh	s0,0(a5)
   1317e:	0789                	addi	a5,a5,2
   13180:	fee79de3          	bne	a5,a4,1317a <_Z9padding2dPsPKsmsmm+0x92>
   13184:	0d85                	addi	s11,s11,1
   13186:	9ce2                	add	s9,s9,s8
   13188:	9d52                	add	s10,s10,s4
   1318a:	9b62                	add	s6,s6,s8
   1318c:	fb2dece3          	bltu	s11,s2,13144 <_Z9padding2dPsPKsmsmm+0x5c>
   13190:	ccb1                	beqz	s1,131ec <_Z9padding2dPsPKsmsmm+0x104>
   13192:	fff90713          	addi	a4,s2,-1
   13196:	03870733          	mul	a4,a4,s8
   1319a:	6a06                	ld	s4,64(sp)
   1319c:	7b42                	ld	s6,48(sp)
   1319e:	6ce2                	ld	s9,24(sp)
   131a0:	6d42                	ld	s10,16(sp)
   131a2:	6da2                	ld	s11,8(sp)
   131a4:	9c26                	add	s8,s8,s1
   131a6:	9762                	add	a4,a4,s8
   131a8:	00e487b3          	add	a5,s1,a4
   131ac:	0786                	slli	a5,a5,0x1
   131ae:	0706                	slli	a4,a4,0x1
   131b0:	97d6                	add	a5,a5,s5
   131b2:	9aba                	add	s5,s5,a4
   131b4:	008a9023          	sh	s0,0(s5)
   131b8:	0a89                	addi	s5,s5,2
   131ba:	ff579de3          	bne	a5,s5,131b4 <_Z9padding2dPsPKsmsmm+0xcc>
   131be:	70a6                	ld	ra,104(sp)
   131c0:	7406                	ld	s0,96(sp)
   131c2:	64e6                	ld	s1,88(sp)
   131c4:	6946                	ld	s2,80(sp)
   131c6:	69a6                	ld	s3,72(sp)
   131c8:	7ae2                	ld	s5,56(sp)
   131ca:	7ba2                	ld	s7,40(sp)
   131cc:	7c02                	ld	s8,32(sp)
   131ce:	6165                	addi	sp,sp,112
   131d0:	8082                	ret
   131d2:	85ea                	mv	a1,s10
   131d4:	8652                	mv	a2,s4
   131d6:	0d85                	addi	s11,s11,1
   131d8:	41d140ef          	jal	27df4 <memcpy>
   131dc:	9ce2                	add	s9,s9,s8
   131de:	9d52                	add	s10,s10,s4
   131e0:	9b62                	add	s6,s6,s8
   131e2:	f72de1e3          	bltu	s11,s2,13144 <_Z9padding2dPsPKsmsmm+0x5c>
   131e6:	b76d                	j	13190 <_Z9padding2dPsPKsmsmm+0xa8>
   131e8:	f321                	bnez	a4,13128 <_Z9padding2dPsPKsmsmm+0x40>
   131ea:	bfd1                	j	131be <_Z9padding2dPsPKsmsmm+0xd6>
   131ec:	6a06                	ld	s4,64(sp)
   131ee:	7b42                	ld	s6,48(sp)
   131f0:	6ce2                	ld	s9,24(sp)
   131f2:	6d42                	ld	s10,16(sp)
   131f4:	6da2                	ld	s11,8(sp)
   131f6:	b7e1                	j	131be <_Z9padding2dPsPKsmsmm+0xd6>

00000000000131f8 <_Z9padding2dPsPKsmsmmm>:
   131f8:	06080b63          	beqz	a6,1326e <_Z9padding2dPsPKsmsmmm+0x76>
   131fc:	711d                	addi	sp,sp,-96
   131fe:	fc4e                	sd	s3,56(sp)
   13200:	89be                	mv	s3,a5
   13202:	00161793          	slli	a5,a2,0x1
   13206:	f456                	sd	s5,40(sp)
   13208:	00e78ab3          	add	s5,a5,a4
   1320c:	97ce                	add	a5,a5,s3
   1320e:	02fa8ab3          	mul	s5,s5,a5
   13212:	e466                	sd	s9,8(sp)
   13214:	e8a2                	sd	s0,80(sp)
   13216:	e4a6                	sd	s1,72(sp)
   13218:	e0ca                	sd	s2,64(sp)
   1321a:	f852                	sd	s4,48(sp)
   1321c:	f05a                	sd	s6,32(sp)
   1321e:	ec5e                	sd	s7,24(sp)
   13220:	e862                	sd	s8,16(sp)
   13222:	ec86                	sd	ra,88(sp)
   13224:	03370cb3          	mul	s9,a4,s3
   13228:	8a3a                	mv	s4,a4
   1322a:	8bb6                	mv	s7,a3
   1322c:	8b32                	mv	s6,a2
   1322e:	8c42                	mv	s8,a6
   13230:	84aa                	mv	s1,a0
   13232:	842e                	mv	s0,a1
   13234:	4901                	li	s2,0
   13236:	0a86                	slli	s5,s5,0x1
   13238:	0c86                	slli	s9,s9,0x1
   1323a:	85a2                	mv	a1,s0
   1323c:	8526                	mv	a0,s1
   1323e:	87ce                	mv	a5,s3
   13240:	8752                	mv	a4,s4
   13242:	86de                	mv	a3,s7
   13244:	865a                	mv	a2,s6
   13246:	0905                	addi	s2,s2,1
   13248:	ea1ff0ef          	jal	130e8 <_Z9padding2dPsPKsmsmm>
   1324c:	94d6                	add	s1,s1,s5
   1324e:	9466                	add	s0,s0,s9
   13250:	ff2c15e3          	bne	s8,s2,1323a <_Z9padding2dPsPKsmsmmm+0x42>
   13254:	60e6                	ld	ra,88(sp)
   13256:	6446                	ld	s0,80(sp)
   13258:	64a6                	ld	s1,72(sp)
   1325a:	6906                	ld	s2,64(sp)
   1325c:	79e2                	ld	s3,56(sp)
   1325e:	7a42                	ld	s4,48(sp)
   13260:	7aa2                	ld	s5,40(sp)
   13262:	7b02                	ld	s6,32(sp)
   13264:	6be2                	ld	s7,24(sp)
   13266:	6c42                	ld	s8,16(sp)
   13268:	6ca2                	ld	s9,8(sp)
   1326a:	6125                	addi	sp,sp,96
   1326c:	8082                	ret
   1326e:	8082                	ret

0000000000013270 <_Z9padding2dPsPKsmsmmmm>:
   13270:	0c088163          	beqz	a7,13332 <_Z9padding2dPsPKsmsmmmm+0xc2>
   13274:	0a080f63          	beqz	a6,13332 <_Z9padding2dPsPKsmsmmmm+0xc2>
   13278:	7135                	addi	sp,sp,-160
   1327a:	e526                	sd	s1,136(sp)
   1327c:	e14a                	sd	s2,128(sp)
   1327e:	84be                	mv	s1,a5
   13280:	893a                	mv	s2,a4
   13282:	00161713          	slli	a4,a2,0x1
   13286:	012707b3          	add	a5,a4,s2
   1328a:	9726                	add	a4,a4,s1
   1328c:	02e787b3          	mul	a5,a5,a4
   13290:	f0da                	sd	s6,96(sp)
   13292:	e922                	sd	s0,144(sp)
   13294:	fcce                	sd	s3,120(sp)
   13296:	f8d2                	sd	s4,112(sp)
   13298:	f4d6                	sd	s5,104(sp)
   1329a:	e8e2                	sd	s8,80(sp)
   1329c:	e4e6                	sd	s9,72(sp)
   1329e:	ed06                	sd	ra,152(sp)
   132a0:	ecde                	sd	s7,88(sp)
   132a2:	02990733          	mul	a4,s2,s1
   132a6:	00179b13          	slli	s6,a5,0x1
   132aa:	e0ea                	sd	s10,64(sp)
   132ac:	fc6e                	sd	s11,56(sp)
   132ae:	8442                	mv	s0,a6
   132b0:	8a36                	mv	s4,a3
   132b2:	89b2                	mv	s3,a2
   132b4:	f42e                	sd	a1,40(sp)
   132b6:	f02a                	sd	a0,32(sp)
   132b8:	ec46                	sd	a7,24(sp)
   132ba:	030787b3          	mul	a5,a5,a6
   132be:	4c81                	li	s9,0
   132c0:	4c01                	li	s8,0
   132c2:	e002                	sd	zero,0(sp)
   132c4:	00171a93          	slli	s5,a4,0x1
   132c8:	e43e                	sd	a5,8(sp)
   132ca:	030707b3          	mul	a5,a4,a6
   132ce:	e83e                	sd	a5,16(sp)
   132d0:	7782                	ld	a5,32(sp)
   132d2:	001c1513          	slli	a0,s8,0x1
   132d6:	001c9593          	slli	a1,s9,0x1
   132da:	00a78bb3          	add	s7,a5,a0
   132de:	77a2                	ld	a5,40(sp)
   132e0:	4d01                	li	s10,0
   132e2:	00b78db3          	add	s11,a5,a1
   132e6:	85ee                	mv	a1,s11
   132e8:	855e                	mv	a0,s7
   132ea:	87a6                	mv	a5,s1
   132ec:	874a                	mv	a4,s2
   132ee:	86d2                	mv	a3,s4
   132f0:	864e                	mv	a2,s3
   132f2:	0d05                	addi	s10,s10,1
   132f4:	df5ff0ef          	jal	130e8 <_Z9padding2dPsPKsmsmm>
   132f8:	9bda                	add	s7,s7,s6
   132fa:	9dd6                	add	s11,s11,s5
   132fc:	ffa415e3          	bne	s0,s10,132e6 <_Z9padding2dPsPKsmsmmmm+0x76>
   13300:	6722                	ld	a4,8(sp)
   13302:	6782                	ld	a5,0(sp)
   13304:	9c3a                	add	s8,s8,a4
   13306:	6742                	ld	a4,16(sp)
   13308:	0785                	addi	a5,a5,1
   1330a:	e03e                	sd	a5,0(sp)
   1330c:	9cba                	add	s9,s9,a4
   1330e:	6762                	ld	a4,24(sp)
   13310:	fce790e3          	bne	a5,a4,132d0 <_Z9padding2dPsPKsmsmmmm+0x60>
   13314:	60ea                	ld	ra,152(sp)
   13316:	644a                	ld	s0,144(sp)
   13318:	64aa                	ld	s1,136(sp)
   1331a:	690a                	ld	s2,128(sp)
   1331c:	79e6                	ld	s3,120(sp)
   1331e:	7a46                	ld	s4,112(sp)
   13320:	7aa6                	ld	s5,104(sp)
   13322:	7b06                	ld	s6,96(sp)
   13324:	6be6                	ld	s7,88(sp)
   13326:	6c46                	ld	s8,80(sp)
   13328:	6ca6                	ld	s9,72(sp)
   1332a:	6d06                	ld	s10,64(sp)
   1332c:	7de2                	ld	s11,56(sp)
   1332e:	610d                	addi	sp,sp,160
   13330:	8082                	ret
   13332:	8082                	ret

0000000000013334 <_Z15pooling2d_shapePmS_S_mmmmmmm>:
   13334:	6e22                	ld	t3,8(sp)
   13336:	6302                	ld	t1,0(sp)
   13338:	000e1363          	bnez	t3,1333e <_Z15pooling2d_shapePmS_S_mmmmmmm+0xa>
   1333c:	8e46                	mv	t3,a7
   1333e:	0306                	slli	t1,t1,0x1
   13340:	969a                	add	a3,a3,t1
   13342:	411686b3          	sub	a3,a3,a7
   13346:	971a                	add	a4,a4,t1
   13348:	03c6d6b3          	divu	a3,a3,t3
   1334c:	41170733          	sub	a4,a4,a7
   13350:	03c75733          	divu	a4,a4,t3
   13354:	0685                	addi	a3,a3,1
   13356:	e194                	sd	a3,0(a1)
   13358:	0705                	addi	a4,a4,1
   1335a:	e218                	sd	a4,0(a2)
   1335c:	6194                	ld	a3,0(a1)
   1335e:	02d80833          	mul	a6,a6,a3
   13362:	02f80833          	mul	a6,a6,a5
   13366:	02e80833          	mul	a6,a6,a4
   1336a:	01053023          	sd	a6,0(a0)
   1336e:	8082                	ret

0000000000013370 <_Z9nn_conv2dPsPKsS1_mmmmmmmm>:
   13370:	7109                	addi	sp,sp,-384
   13372:	faa2                	sd	s0,368(sp)
   13374:	f6a6                	sd	s1,360(sp)
   13376:	0300                	addi	s0,sp,384
   13378:	e6d6                	sd	s5,328(sp)
   1337a:	fa62                	sd	s8,304(sp)
   1337c:	fe86                	sd	ra,376(sp)
   1337e:	f2ca                	sd	s2,352(sp)
   13380:	eece                	sd	s3,344(sp)
   13382:	ead2                	sd	s4,336(sp)
   13384:	e2da                	sd	s6,320(sp)
   13386:	fe5e                	sd	s7,312(sp)
   13388:	f666                	sd	s9,296(sp)
   1338a:	f26a                	sd	s10,288(sp)
   1338c:	ee6e                	sd	s11,280(sp)
   1338e:	00843c03          	ld	s8,8(s0)
   13392:	f2a43c23          	sd	a0,-200(s0)
   13396:	eab43423          	sd	a1,-344(s0)
   1339a:	f0d43c23          	sd	a3,-232(s0)
   1339e:	f1143823          	sd	a7,-240(s0)
   133a2:	f3043023          	sd	a6,-224(s0)
   133a6:	00043a83          	ld	s5,0(s0)
   133aa:	6804                	ld	s1,16(s0)
   133ac:	2a0c0c63          	beqz	s8,13664 <_Z9nn_conv2dPsPKsS1_mmmmmmmm+0x2f4>
   133b0:	f3843683          	ld	a3,-200(s0)
   133b4:	2c068763          	beqz	a3,13682 <_Z9nn_conv2dPsPKsS1_mmmmmmmm+0x312>
   133b8:	f1843b03          	ld	s6,-232(s0)
   133bc:	8a32                	mv	s4,a2
   133be:	86a6                	mv	a3,s1
   133c0:	88da                	mv	a7,s6
   133c2:	f8840613          	addi	a2,s0,-120
   133c6:	f8040593          	addi	a1,s0,-128
   133ca:	f7840513          	addi	a0,s0,-136
   133ce:	89be                	mv	s3,a5
   133d0:	893a                	mv	s2,a4
   133d2:	cf9ff0ef          	jal	130ca <_Z15padding2d_shapePmS_S_mmmmm>
   133d6:	f7843783          	ld	a5,-136(s0)
   133da:	f2043c83          	ld	s9,-224(s0)
   133de:	85d2                	mv	a1,s4
   133e0:	0786                	slli	a5,a5,0x1
   133e2:	07bd                	addi	a5,a5,15
   133e4:	9bc1                	andi	a5,a5,-16
   133e6:	40f10133          	sub	sp,sp,a5
   133ea:	88da                	mv	a7,s6
   133ec:	850a                	mv	a0,sp
   133ee:	8866                	mv	a6,s9
   133f0:	87ce                	mv	a5,s3
   133f2:	874a                	mv	a4,s2
   133f4:	8626                	mv	a2,s1
   133f6:	4681                	li	a3,0
   133f8:	f6243023          	sd	sp,-160(s0)
   133fc:	e75ff0ef          	jal	13270 <_Z9padding2dPsPKsmsmmmm>
   13400:	100b0363          	beqz	s6,13506 <_Z9nn_conv2dPsPKsS1_mmmmmmmm+0x196>
   13404:	f1043703          	ld	a4,-240(s0)
   13408:	cf7d                	beqz	a4,13506 <_Z9nn_conv2dPsPKsS1_mmmmmmmm+0x196>
   1340a:	00149793          	slli	a5,s1,0x1
   1340e:	41598633          	sub	a2,s3,s5
   13412:	415904b3          	sub	s1,s2,s5
   13416:	94be                	add	s1,s1,a5
   13418:	963e                	add	a2,a2,a5
   1341a:	0384d4b3          	divu	s1,s1,s8
   1341e:	85e2                	mv	a1,s8
   13420:	00199b93          	slli	s7,s3,0x1
   13424:	001a9b13          	slli	s6,s5,0x1
   13428:	4d81                	li	s11,0
   1342a:	03865633          	divu	a2,a2,s8
   1342e:	00148e13          	addi	t3,s1,1
   13432:	00160513          	addi	a0,a2,1
   13436:	02ae06b3          	mul	a3,t3,a0
   1343a:	8a32                	mv	s4,a2
   1343c:	033c0833          	mul	a6,s8,s3
   13440:	4c01                	li	s8,0
   13442:	033908b3          	mul	a7,s2,s3
   13446:	f3043423          	sd	a6,-216(s0)
   1344a:	8826                	mv	a6,s1
   1344c:	84b6                	mv	s1,a3
   1344e:	035a8333          	mul	t1,s5,s5
   13452:	02e68933          	mul	s2,a3,a4
   13456:	03930eb3          	mul	t4,t1,s9
   1345a:	031c8d33          	mul	s10,s9,a7
   1345e:	4c81                	li	s9,0
   13460:	f2043603          	ld	a2,-224(s0)
   13464:	876e                	mv	a4,s11
   13466:	ca49                	beqz	a2,134f8 <_Z9nn_conv2dPsPKsS1_mmmmmmmm+0x188>
   13468:	e9a43c23          	sd	s10,-360(s0)
   1346c:	eb843023          	sd	s8,-352(s0)
   13470:	8d52                	mv	s10,s4
   13472:	4981                	li	s3,0
   13474:	4a01                	li	s4,0
   13476:	879a                	mv	a5,t1
   13478:	e9243823          	sd	s2,-368(s0)
   1347c:	e9b43423          	sd	s11,-376(s0)
   13480:	f1343423          	sd	s3,-248(s0)
   13484:	8c56                	mv	s8,s5
   13486:	8de6                	mv	s11,s9
   13488:	f1443023          	sd	s4,-256(s0)
   1348c:	efd43c23          	sd	t4,-264(s0)
   13490:	ee943823          	sd	s1,-272(s0)
   13494:	ef943423          	sd	s9,-280(s0)
   13498:	4981                	li	s3,0
   1349a:	8652                	mv	a2,s4
   1349c:	8aae                	mv	s5,a1
   1349e:	180e0063          	beqz	t3,1361e <_Z9nn_conv2dPsPKsS1_mmmmmmmm+0x2ae>
   134a2:	4481                	li	s1,0
   134a4:	e151                	bnez	a0,13528 <_Z9nn_conv2dPsPKsS1_mmmmmmmm+0x1b8>
   134a6:	00980563          	beq	a6,s1,134b0 <_Z9nn_conv2dPsPKsS1_mmmmmmmm+0x140>
   134aa:	0485                	addi	s1,s1,1
   134ac:	fe981fe3          	bne	a6,s1,134aa <_Z9nn_conv2dPsPKsS1_mmmmmmmm+0x13a>
   134b0:	f2043683          	ld	a3,-224(s0)
   134b4:	0985                	addi	s3,s3,1
   134b6:	9dc6                	add	s11,s11,a7
   134b8:	963e                	add	a2,a2,a5
   134ba:	ff3694e3          	bne	a3,s3,134a2 <_Z9nn_conv2dPsPKsS1_mmmmmmmm+0x132>
   134be:	f0843983          	ld	s3,-248(s0)
   134c2:	f0043a03          	ld	s4,-256(s0)
   134c6:	ef843e83          	ld	t4,-264(s0)
   134ca:	ef043483          	ld	s1,-272(s0)
   134ce:	f1043683          	ld	a3,-240(s0)
   134d2:	0985                	addi	s3,s3,1
   134d4:	85d6                	mv	a1,s5
   134d6:	ee843c83          	ld	s9,-280(s0)
   134da:	8ae2                	mv	s5,s8
   134dc:	9726                	add	a4,a4,s1
   134de:	9a76                	add	s4,s4,t4
   134e0:	fb3690e3          	bne	a3,s3,13480 <_Z9nn_conv2dPsPKsS1_mmmmmmmm+0x110>
   134e4:	8a6a                	mv	s4,s10
   134e6:	ea043c03          	ld	s8,-352(s0)
   134ea:	e9843d03          	ld	s10,-360(s0)
   134ee:	e9043903          	ld	s2,-368(s0)
   134f2:	e8843d83          	ld	s11,-376(s0)
   134f6:	833e                	mv	t1,a5
   134f8:	f1843783          	ld	a5,-232(s0)
   134fc:	0c05                	addi	s8,s8,1
   134fe:	9cea                	add	s9,s9,s10
   13500:	9dca                	add	s11,s11,s2
   13502:	f5879fe3          	bne	a5,s8,13460 <_Z9nn_conv2dPsPKsS1_mmmmmmmm+0xf0>
   13506:	e8040113          	addi	sp,s0,-384
   1350a:	70f6                	ld	ra,376(sp)
   1350c:	7456                	ld	s0,368(sp)
   1350e:	74b6                	ld	s1,360(sp)
   13510:	7916                	ld	s2,352(sp)
   13512:	69f6                	ld	s3,344(sp)
   13514:	6a56                	ld	s4,336(sp)
   13516:	6ab6                	ld	s5,328(sp)
   13518:	6b16                	ld	s6,320(sp)
   1351a:	7bf2                	ld	s7,312(sp)
   1351c:	7c52                	ld	s8,304(sp)
   1351e:	7cb2                	ld	s9,296(sp)
   13520:	7d12                	ld	s10,288(sp)
   13522:	6df2                	ld	s11,280(sp)
   13524:	6119                	addi	sp,sp,384
   13526:	8082                	ret
   13528:	ea843683          	ld	a3,-344(s0)
   1352c:	00161c93          	slli	s9,a2,0x1
   13530:	eee43023          	sd	a4,-288(s0)
   13534:	96e6                	add	a3,a3,s9
   13536:	f6d43423          	sd	a3,-152(s0)
   1353a:	ecf43c23          	sd	a5,-296(s0)
   1353e:	86a6                	mv	a3,s1
   13540:	f5043023          	sd	a6,-192(s0)
   13544:	edc43823          	sd	t3,-304(s0)
   13548:	f2a43823          	sd	a0,-208(s0)
   1354c:	ed143423          	sd	a7,-312(s0)
   13550:	ed343023          	sd	s3,-320(s0)
   13554:	ebb43c23          	sd	s11,-328(s0)
   13558:	eac43823          	sd	a2,-336(s0)
   1355c:	84e2                	mv	s1,s8
   1355e:	87ba                	mv	a5,a4
   13560:	876e                	mv	a4,s11
   13562:	c4c9                	beqz	s1,135ec <_Z9nn_conv2dPsPKsS1_mmmmmmmm+0x27c>
   13564:	f3843603          	ld	a2,-200(s0)
   13568:	00179813          	slli	a6,a5,0x1
   1356c:	8ca6                	mv	s9,s1
   1356e:	01060933          	add	s2,a2,a6
   13572:	8a3a                	mv	s4,a4
   13574:	f4f43c23          	sd	a5,-168(s0)
   13578:	f4d43823          	sd	a3,-176(s0)
   1357c:	f4e43423          	sd	a4,-184(s0)
   13580:	4481                	li	s1,0
   13582:	f6043783          	ld	a5,-160(s0)
   13586:	f6843983          	ld	s3,-152(s0)
   1358a:	001a1613          	slli	a2,s4,0x1
   1358e:	00c78c33          	add	s8,a5,a2
   13592:	4d81                	li	s11,0
   13594:	8662                	mv	a2,s8
   13596:	85ce                	mv	a1,s3
   13598:	86e6                	mv	a3,s9
   1359a:	f7640513          	addi	a0,s0,-138
   1359e:	e8cff0ef          	jal	12c2a <_Z13tiled_dotprodPsPKsS1_m>
   135a2:	00095783          	lhu	a5,0(s2)
   135a6:	f7645703          	lhu	a4,-138(s0)
   135aa:	0d85                	addi	s11,s11,1
   135ac:	99da                	add	s3,s3,s6
   135ae:	9fb9                	addw	a5,a5,a4
   135b0:	00f91023          	sh	a5,0(s2)
   135b4:	9c5e                	add	s8,s8,s7
   135b6:	fdbc9fe3          	bne	s9,s11,13594 <_Z9nn_conv2dPsPKsS1_mmmmmmmm+0x224>
   135ba:	9a56                	add	s4,s4,s5
   135bc:	0909                	addi	s2,s2,2
   135be:	009d0463          	beq	s10,s1,135c6 <_Z9nn_conv2dPsPKsS1_mmmmmmmm+0x256>
   135c2:	0485                	addi	s1,s1,1
   135c4:	bf7d                	j	13582 <_Z9nn_conv2dPsPKsS1_mmmmmmmm+0x212>
   135c6:	f5043683          	ld	a3,-176(s0)
   135ca:	f4043603          	ld	a2,-192(s0)
   135ce:	f5843783          	ld	a5,-168(s0)
   135d2:	f4843703          	ld	a4,-184(s0)
   135d6:	84e6                	mv	s1,s9
   135d8:	04d60b63          	beq	a2,a3,1362e <_Z9nn_conv2dPsPKsS1_mmmmmmmm+0x2be>
   135dc:	f3043603          	ld	a2,-208(s0)
   135e0:	0685                	addi	a3,a3,1
   135e2:	97b2                	add	a5,a5,a2
   135e4:	f2843603          	ld	a2,-216(s0)
   135e8:	9732                	add	a4,a4,a2
   135ea:	fcad                	bnez	s1,13564 <_Z9nn_conv2dPsPKsS1_mmmmmmmm+0x1f4>
   135ec:	f4043803          	ld	a6,-192(s0)
   135f0:	8c26                	mv	s8,s1
   135f2:	84b6                	mv	s1,a3
   135f4:	ee043703          	ld	a4,-288(s0)
   135f8:	ed843783          	ld	a5,-296(s0)
   135fc:	ed043e03          	ld	t3,-304(s0)
   13600:	f3043503          	ld	a0,-208(s0)
   13604:	ec843883          	ld	a7,-312(s0)
   13608:	ec043983          	ld	s3,-320(s0)
   1360c:	eb843d83          	ld	s11,-328(s0)
   13610:	eb043603          	ld	a2,-336(s0)
   13614:	00980563          	beq	a6,s1,1361e <_Z9nn_conv2dPsPKsS1_mmmmmmmm+0x2ae>
   13618:	0485                	addi	s1,s1,1
   1361a:	fe981fe3          	bne	a6,s1,13618 <_Z9nn_conv2dPsPKsS1_mmmmmmmm+0x2a8>
   1361e:	f2043683          	ld	a3,-224(s0)
   13622:	0985                	addi	s3,s3,1
   13624:	9dc6                	add	s11,s11,a7
   13626:	963e                	add	a2,a2,a5
   13628:	e7369be3          	bne	a3,s3,1349e <_Z9nn_conv2dPsPKsS1_mmmmmmmm+0x12e>
   1362c:	bd49                	j	134be <_Z9nn_conv2dPsPKsS1_mmmmmmmm+0x14e>
   1362e:	ec043983          	ld	s3,-320(s0)
   13632:	ed843783          	ld	a5,-296(s0)
   13636:	ec843883          	ld	a7,-312(s0)
   1363a:	eb843d83          	ld	s11,-328(s0)
   1363e:	eb043603          	ld	a2,-336(s0)
   13642:	f2043683          	ld	a3,-224(s0)
   13646:	0985                	addi	s3,s3,1
   13648:	f4043803          	ld	a6,-192(s0)
   1364c:	ee043703          	ld	a4,-288(s0)
   13650:	ed043e03          	ld	t3,-304(s0)
   13654:	f3043503          	ld	a0,-208(s0)
   13658:	8c66                	mv	s8,s9
   1365a:	9dc6                	add	s11,s11,a7
   1365c:	963e                	add	a2,a2,a5
   1365e:	e53690e3          	bne	a3,s3,1349e <_Z9nn_conv2dPsPKsS1_mmmmmmmm+0x12e>
   13662:	bdb1                	j	134be <_Z9nn_conv2dPsPKsS1_mmmmmmmm+0x14e>
   13664:	000326b7          	lui	a3,0x32
   13668:	00032637          	lui	a2,0x32
   1366c:	00032537          	lui	a0,0x32
   13670:	ee868693          	addi	a3,a3,-280 # 31ee8 <__clzdi2+0x1786>
   13674:	ef860613          	addi	a2,a2,-264 # 31ef8 <__clzdi2+0x1796>
   13678:	f7050513          	addi	a0,a0,-144 # 31f70 <__clzdi2+0x180e>
   1367c:	45a9                	li	a1,10
   1367e:	0f5100ef          	jal	23f72 <__assert_func>
   13682:	00032537          	lui	a0,0x32
   13686:	f8850513          	addi	a0,a0,-120 # 31f88 <__clzdi2+0x1826>
   1368a:	4c0130ef          	jal	26b4a <puts>
   1368e:	00032537          	lui	a0,0x32
   13692:	fd850513          	addi	a0,a0,-40 # 31fd8 <__clzdi2+0x1876>
   13696:	4b4130ef          	jal	26b4a <puts>
   1369a:	00032537          	lui	a0,0x32
   1369e:	01850513          	addi	a0,a0,24 # 32018 <__clzdi2+0x18b6>
   136a2:	4a8130ef          	jal	26b4a <puts>
   136a6:	557d                	li	a0,-1
   136a8:	80efd0ef          	jal	106b6 <exit>

00000000000136ac <_Z9nn_linearPsPKsS1_mmm>:
   136ac:	883a                	mv	a6,a4
   136ae:	c509                	beqz	a0,136b8 <_Z9nn_linearPsPKsS1_mmm+0xc>
   136b0:	8736                	mv	a4,a3
   136b2:	86c2                	mv	a3,a6
   136b4:	e88ff06f          	j	12d3c <_Z22tiled_matmul_transposePsPKsS1_mmm>
   136b8:	00032537          	lui	a0,0x32
   136bc:	1101                	addi	sp,sp,-32
   136be:	05850513          	addi	a0,a0,88 # 32058 <__clzdi2+0x18f6>
   136c2:	ec06                	sd	ra,24(sp)
   136c4:	e43e                	sd	a5,8(sp)
   136c6:	e03a                	sd	a4,0(sp)
   136c8:	482130ef          	jal	26b4a <puts>
   136cc:	6602                	ld	a2,0(sp)
   136ce:	65a2                	ld	a1,8(sp)
   136d0:	00032537          	lui	a0,0x32
   136d4:	0a850513          	addi	a0,a0,168 # 320a8 <__clzdi2+0x1946>
   136d8:	296130ef          	jal	2696e <printf>
   136dc:	557d                	li	a0,-1
   136de:	fd9fc0ef          	jal	106b6 <exit>

00000000000136e2 <_Z9nn_linearPsPKsS1_S1_mmm>:
   136e2:	7179                	addi	sp,sp,-48
   136e4:	ec26                	sd	s1,24(sp)
   136e6:	f406                	sd	ra,40(sp)
   136e8:	f022                	sd	s0,32(sp)
   136ea:	84b6                	mv	s1,a3
   136ec:	86be                	mv	a3,a5
   136ee:	c115                	beqz	a0,13712 <_Z9nn_linearPsPKsS1_S1_mmm+0x30>
   136f0:	87c2                	mv	a5,a6
   136f2:	842a                	mv	s0,a0
   136f4:	e036                	sd	a3,0(sp)
   136f6:	e442                	sd	a6,8(sp)
   136f8:	e44ff0ef          	jal	12d3c <_Z22tiled_matmul_transposePsPKsS1_mmm>
   136fc:	85a2                	mv	a1,s0
   136fe:	8522                	mv	a0,s0
   13700:	7402                	ld	s0,32(sp)
   13702:	6702                	ld	a4,0(sp)
   13704:	66a2                	ld	a3,8(sp)
   13706:	70a2                	ld	ra,40(sp)
   13708:	8626                	mv	a2,s1
   1370a:	64e2                	ld	s1,24(sp)
   1370c:	6145                	addi	sp,sp,48
   1370e:	c02fe06f          	j	11b10 <_Z23tiled_matrix_vector_addPsPKsS1_mm>
   13712:	00032537          	lui	a0,0x32
   13716:	05850513          	addi	a0,a0,88 # 32058 <__clzdi2+0x18f6>
   1371a:	e442                	sd	a6,8(sp)
   1371c:	e03e                	sd	a5,0(sp)
   1371e:	42c130ef          	jal	26b4a <puts>
   13722:	6602                	ld	a2,0(sp)
   13724:	65a2                	ld	a1,8(sp)
   13726:	00032537          	lui	a0,0x32
   1372a:	0a850513          	addi	a0,a0,168 # 320a8 <__clzdi2+0x1946>
   1372e:	240130ef          	jal	2696e <printf>
   13732:	557d                	li	a0,-1
   13734:	f83fc0ef          	jal	106b6 <exit>

0000000000013738 <_Z17nn_linear_stridedPsPKsS1_mmmmm>:
   13738:	833a                	mv	t1,a4
   1373a:	c509                	beqz	a0,13744 <_Z17nn_linear_stridedPsPKsS1_mmmmm+0xc>
   1373c:	8736                	mv	a4,a3
   1373e:	869a                	mv	a3,t1
   13740:	fc4ff06f          	j	12f04 <_Z30tiled_matmul_transpose_stridedPsPKsS1_mmmmm>
   13744:	00032537          	lui	a0,0x32
   13748:	1101                	addi	sp,sp,-32
   1374a:	0e050513          	addi	a0,a0,224 # 320e0 <__clzdi2+0x197e>
   1374e:	ec06                	sd	ra,24(sp)
   13750:	e43e                	sd	a5,8(sp)
   13752:	e03a                	sd	a4,0(sp)
   13754:	3f6130ef          	jal	26b4a <puts>
   13758:	6602                	ld	a2,0(sp)
   1375a:	65a2                	ld	a1,8(sp)
   1375c:	00032537          	lui	a0,0x32
   13760:	0a850513          	addi	a0,a0,168 # 320a8 <__clzdi2+0x1946>
   13764:	20a130ef          	jal	2696e <printf>
   13768:	557d                	li	a0,-1
   1376a:	f4dfc0ef          	jal	106b6 <exit>

000000000001376e <_Z22nn_linear_full_stridedPsPKsS1_mmmmmm>:
   1376e:	1101                	addi	sp,sp,-32
   13770:	ec06                	sd	ra,24(sp)
   13772:	833a                	mv	t1,a4
   13774:	7702                	ld	a4,32(sp)
   13776:	c901                	beqz	a0,13786 <_Z22nn_linear_full_stridedPsPKsS1_mmmmmm+0x18>
   13778:	60e2                	ld	ra,24(sp)
   1377a:	f03a                	sd	a4,32(sp)
   1377c:	8736                	mv	a4,a3
   1377e:	6105                	addi	sp,sp,32
   13780:	869a                	mv	a3,t1
   13782:	83fff06f          	j	12fc0 <_Z35tiled_matmul_transpose_full_stridedPsPKsS1_mmmmmm>
   13786:	00032537          	lui	a0,0x32
   1378a:	13850513          	addi	a0,a0,312 # 32138 <__clzdi2+0x19d6>
   1378e:	e43a                	sd	a4,8(sp)
   13790:	e03e                	sd	a5,0(sp)
   13792:	3b8130ef          	jal	26b4a <puts>
   13796:	6622                	ld	a2,8(sp)
   13798:	6582                	ld	a1,0(sp)
   1379a:	00032537          	lui	a0,0x32
   1379e:	19050513          	addi	a0,a0,400 # 32190 <__clzdi2+0x1a2e>
   137a2:	1cc130ef          	jal	2696e <printf>
   137a6:	557d                	li	a0,-1
   137a8:	f0ffc0ef          	jal	106b6 <exit>

00000000000137ac <_Z14nn_batchnorm2dPsPKsmmmmR14BatchNormParam7stage_t>:
   137ac:	7135                	addi	sp,sp,-160
   137ae:	fcce                	sd	s3,120(sp)
   137b0:	f8d2                	sd	s4,112(sp)
   137b2:	f4d6                	sd	s5,104(sp)
   137b4:	ed06                	sd	ra,152(sp)
   137b6:	e82e                	sd	a1,16(sp)
   137b8:	e432                	sd	a2,8(sp)
   137ba:	8ab6                	mv	s5,a3
   137bc:	8a3a                	mv	s4,a4
   137be:	89be                	mv	s3,a5
   137c0:	12050363          	beqz	a0,138e6 <_Z14nn_batchnorm2dPsPKsmmmmR14BatchNormParam7stage_t+0x13a>
   137c4:	0e089563          	bnez	a7,138ae <_Z14nn_batchnorm2dPsPKsmmmmR14BatchNormParam7stage_t+0x102>
   137c8:	67a2                	ld	a5,8(sp)
   137ca:	c7ed                	beqz	a5,138b4 <_Z14nn_batchnorm2dPsPKsmmmmR14BatchNormParam7stage_t+0x108>
   137cc:	c6e5                	beqz	a3,138b4 <_Z14nn_batchnorm2dPsPKsmmmmR14BatchNormParam7stage_t+0x108>
   137ce:	033708b3          	mul	a7,a4,s3
   137d2:	e526                	sd	s1,136(sp)
   137d4:	f0da                	sd	s6,96(sp)
   137d6:	ecde                	sd	s7,88(sp)
   137d8:	e8e2                	sd	s8,80(sp)
   137da:	fc6e                	sd	s11,56(sp)
   137dc:	e922                	sd	s0,144(sp)
   137de:	e14a                	sd	s2,128(sp)
   137e0:	e4e6                	sd	s9,72(sp)
   137e2:	e0ea                	sd	s10,64(sp)
   137e4:	02d887b3          	mul	a5,a7,a3
   137e8:	b422                	fsd	fs0,40(sp)
   137ea:	8c2a                	mv	s8,a0
   137ec:	84c2                	mv	s1,a6
   137ee:	4b81                	li	s7,0
   137f0:	4b01                	li	s6,0
   137f2:	00189d93          	slli	s11,a7,0x1
   137f6:	ec3e                	sd	a5,24(sp)
   137f8:	67c2                	ld	a5,16(sp)
   137fa:	001b1813          	slli	a6,s6,0x1
   137fe:	010c0433          	add	s0,s8,a6
   13802:	01078cb3          	add	s9,a5,a6
   13806:	4d01                	li	s10,0
   13808:	6c98                	ld	a4,24(s1)
   1380a:	001d1913          	slli	s2,s10,0x1
   1380e:	0204a787          	flw	fa5,32(s1)
   13812:	974a                	add	a4,a4,s2
   13814:	00071603          	lh	a2,0(a4)
   13818:	6894                	ld	a3,16(s1)
   1381a:	85e6                	mv	a1,s9
   1381c:	d0067453          	fcvt.s.w	fs0,a2
   13820:	96ca                	add	a3,a3,s2
   13822:	00069603          	lh	a2,0(a3)
   13826:	00f47453          	fadd.s	fs0,fs0,fa5
   1382a:	8522                	mv	a0,s0
   1382c:	874e                	mv	a4,s3
   1382e:	86d2                	mv	a3,s4
   13830:	f48fe0ef          	jal	11f78 <_Z23tiled_matrix_sub_scalarPsPKssmm>
   13834:	58047453          	fsqrt.s	fs0,fs0
   13838:	85a2                	mv	a1,s0
   1383a:	8522                	mv	a0,s0
   1383c:	874e                	mv	a4,s3
   1383e:	86d2                	mv	a3,s4
   13840:	0d05                	addi	s10,s10,1
   13842:	9cee                	add	s9,s9,s11
   13844:	c0041653          	fcvt.w.s	a2,fs0,rtz
   13848:	0106161b          	slliw	a2,a2,0x10
   1384c:	4106561b          	sraiw	a2,a2,0x10
   13850:	a09fe0ef          	jal	12258 <_Z23tiled_matrix_div_scalarPsPKssmm>
   13854:	6090                	ld	a2,0(s1)
   13856:	85a2                	mv	a1,s0
   13858:	8522                	mv	a0,s0
   1385a:	964a                	add	a2,a2,s2
   1385c:	00061603          	lh	a2,0(a2)
   13860:	874e                	mv	a4,s3
   13862:	86d2                	mv	a3,s4
   13864:	885fe0ef          	jal	120e8 <_Z23tiled_matrix_mul_scalarPsPKssmm>
   13868:	6490                	ld	a2,8(s1)
   1386a:	85a2                	mv	a1,s0
   1386c:	8522                	mv	a0,s0
   1386e:	964a                	add	a2,a2,s2
   13870:	00061603          	lh	a2,0(a2)
   13874:	874e                	mv	a4,s3
   13876:	86d2                	mv	a3,s4
   13878:	d90fe0ef          	jal	11e08 <_Z23tiled_matrix_add_scalarPsPKssmm>
   1387c:	946e                	add	s0,s0,s11
   1387e:	f9aa95e3          	bne	s5,s10,13808 <_Z14nn_batchnorm2dPsPKsmmmmR14BatchNormParam7stage_t+0x5c>
   13882:	67e2                	ld	a5,24(sp)
   13884:	0b85                	addi	s7,s7,1
   13886:	9b3e                	add	s6,s6,a5
   13888:	67a2                	ld	a5,8(sp)
   1388a:	f77797e3          	bne	a5,s7,137f8 <_Z14nn_batchnorm2dPsPKsmmmmR14BatchNormParam7stage_t+0x4c>
   1388e:	644a                	ld	s0,144(sp)
   13890:	60ea                	ld	ra,152(sp)
   13892:	64aa                	ld	s1,136(sp)
   13894:	690a                	ld	s2,128(sp)
   13896:	7b06                	ld	s6,96(sp)
   13898:	6be6                	ld	s7,88(sp)
   1389a:	6c46                	ld	s8,80(sp)
   1389c:	6ca6                	ld	s9,72(sp)
   1389e:	6d06                	ld	s10,64(sp)
   138a0:	7de2                	ld	s11,56(sp)
   138a2:	3422                	fld	fs0,40(sp)
   138a4:	79e6                	ld	s3,120(sp)
   138a6:	7a46                	ld	s4,112(sp)
   138a8:	7aa6                	ld	s5,104(sp)
   138aa:	610d                	addi	sp,sp,160
   138ac:	8082                	ret
   138ae:	4785                	li	a5,1
   138b0:	00f88863          	beq	a7,a5,138c0 <_Z14nn_batchnorm2dPsPKsmmmmR14BatchNormParam7stage_t+0x114>
   138b4:	60ea                	ld	ra,152(sp)
   138b6:	79e6                	ld	s3,120(sp)
   138b8:	7a46                	ld	s4,112(sp)
   138ba:	7aa6                	ld	s5,104(sp)
   138bc:	610d                	addi	sp,sp,160
   138be:	8082                	ret
   138c0:	00032537          	lui	a0,0x32
   138c4:	25850513          	addi	a0,a0,600 # 32258 <__clzdi2+0x1af6>
   138c8:	e922                	sd	s0,144(sp)
   138ca:	e526                	sd	s1,136(sp)
   138cc:	e14a                	sd	s2,128(sp)
   138ce:	f0da                	sd	s6,96(sp)
   138d0:	ecde                	sd	s7,88(sp)
   138d2:	e8e2                	sd	s8,80(sp)
   138d4:	e4e6                	sd	s9,72(sp)
   138d6:	e0ea                	sd	s10,64(sp)
   138d8:	fc6e                	sd	s11,56(sp)
   138da:	b422                	fsd	fs0,40(sp)
   138dc:	092130ef          	jal	2696e <printf>
   138e0:	557d                	li	a0,-1
   138e2:	dd5fc0ef          	jal	106b6 <exit>
   138e6:	00032537          	lui	a0,0x32
   138ea:	1c050513          	addi	a0,a0,448 # 321c0 <__clzdi2+0x1a5e>
   138ee:	e922                	sd	s0,144(sp)
   138f0:	e526                	sd	s1,136(sp)
   138f2:	e14a                	sd	s2,128(sp)
   138f4:	f0da                	sd	s6,96(sp)
   138f6:	ecde                	sd	s7,88(sp)
   138f8:	e8e2                	sd	s8,80(sp)
   138fa:	e4e6                	sd	s9,72(sp)
   138fc:	e0ea                	sd	s10,64(sp)
   138fe:	fc6e                	sd	s11,56(sp)
   13900:	b422                	fsd	fs0,40(sp)
   13902:	248130ef          	jal	26b4a <puts>
   13906:	65a2                	ld	a1,8(sp)
   13908:	00032537          	lui	a0,0x32
   1390c:	874e                	mv	a4,s3
   1390e:	86d2                	mv	a3,s4
   13910:	8656                	mv	a2,s5
   13912:	21050513          	addi	a0,a0,528 # 32210 <__clzdi2+0x1aae>
   13916:	058130ef          	jal	2696e <printf>
   1391a:	557d                	li	a0,-1
   1391c:	d9bfc0ef          	jal	106b6 <exit>

0000000000013920 <_Z14nn_layernorm2dPsPKsmmmmR14LayerNormParam7stage_t>:
   13920:	7135                	addi	sp,sp,-160
   13922:	e526                	sd	s1,136(sp)
   13924:	e14a                	sd	s2,128(sp)
   13926:	ecde                	sd	s7,88(sp)
   13928:	ed06                	sd	ra,152(sp)
   1392a:	ec2a                	sd	a0,24(sp)
   1392c:	e82e                	sd	a1,16(sp)
   1392e:	e432                	sd	a2,8(sp)
   13930:	8bb6                	mv	s7,a3
   13932:	893a                	mv	s2,a4
   13934:	84be                	mv	s1,a5
   13936:	12050c63          	beqz	a0,13a6e <_Z14nn_layernorm2dPsPKsmmmmR14LayerNormParam7stage_t+0x14e>
   1393a:	0e089f63          	bnez	a7,13a38 <_Z14nn_layernorm2dPsPKsmmmmR14LayerNormParam7stage_t+0x118>
   1393e:	67a2                	ld	a5,8(sp)
   13940:	0e078f63          	beqz	a5,13a3e <_Z14nn_layernorm2dPsPKsmmmmR14LayerNormParam7stage_t+0x11e>
   13944:	f4d6                	sd	s5,104(sp)
   13946:	02970ab3          	mul	s5,a4,s1
   1394a:	fcce                	sd	s3,120(sp)
   1394c:	e8e2                	sd	s8,80(sp)
   1394e:	e4e6                	sd	s9,72(sp)
   13950:	e922                	sd	s0,144(sp)
   13952:	f8d2                	sd	s4,112(sp)
   13954:	f0da                	sd	s6,96(sp)
   13956:	e0ea                	sd	s10,64(sp)
   13958:	fc6e                	sd	s11,56(sp)
   1395a:	89c2                	mv	s3,a6
   1395c:	02da87b3          	mul	a5,s5,a3
   13960:	4c81                	li	s9,0
   13962:	4c01                	li	s8,0
   13964:	0a86                	slli	s5,s5,0x1
   13966:	e03e                	sd	a5,0(sp)
   13968:	67c2                	ld	a5,16(sp)
   1396a:	001c9413          	slli	s0,s9,0x1
   1396e:	864a                	mv	a2,s2
   13970:	00878d33          	add	s10,a5,s0
   13974:	85ea                	mv	a1,s10
   13976:	1068                	addi	a0,sp,44
   13978:	875e                	mv	a4,s7
   1397a:	86a6                	mv	a3,s1
   1397c:	828fe0ef          	jal	119a4 <_Z11matrix_meanPsPKsmmm>
   13980:	6602                	ld	a2,0(sp)
   13982:	85ea                	mv	a1,s10
   13984:	02e10513          	addi	a0,sp,46
   13988:	d51fd0ef          	jal	116d8 <_Z10vector_varPsPKsm>
   1398c:	080b8163          	beqz	s7,13a0e <_Z14nn_layernorm2dPsPKsmmmmR14LayerNormParam7stage_t+0xee>
   13990:	02e11783          	lh	a5,46(sp)
   13994:	0109a707          	flw	fa4,16(s3)
   13998:	6762                	ld	a4,24(sp)
   1399a:	d007f7d3          	fcvt.s.w	fa5,a5
   1399e:	001c1a13          	slli	s4,s8,0x1
   139a2:	943a                	add	s0,s0,a4
   139a4:	00e7f7d3          	fadd.s	fa5,fa5,fa4
   139a8:	4d81                	li	s11,0
   139aa:	5807f7d3          	fsqrt.s	fa5,fa5
   139ae:	c0079b53          	fcvt.w.s	s6,fa5,rtz
   139b2:	010b1b1b          	slliw	s6,s6,0x10
   139b6:	410b5b1b          	sraiw	s6,s6,0x10
   139ba:	02c11603          	lh	a2,44(sp)
   139be:	85ea                	mv	a1,s10
   139c0:	8522                	mv	a0,s0
   139c2:	8726                	mv	a4,s1
   139c4:	86ca                	mv	a3,s2
   139c6:	db2fe0ef          	jal	11f78 <_Z23tiled_matrix_sub_scalarPsPKssmm>
   139ca:	85a2                	mv	a1,s0
   139cc:	8522                	mv	a0,s0
   139ce:	8726                	mv	a4,s1
   139d0:	86ca                	mv	a3,s2
   139d2:	865a                	mv	a2,s6
   139d4:	885fe0ef          	jal	12258 <_Z23tiled_matrix_div_scalarPsPKssmm>
   139d8:	0009b783          	ld	a5,0(s3)
   139dc:	85a2                	mv	a1,s0
   139de:	8522                	mv	a0,s0
   139e0:	97d2                	add	a5,a5,s4
   139e2:	00079603          	lh	a2,0(a5)
   139e6:	8726                	mv	a4,s1
   139e8:	86ca                	mv	a3,s2
   139ea:	efefe0ef          	jal	120e8 <_Z23tiled_matrix_mul_scalarPsPKssmm>
   139ee:	0089b783          	ld	a5,8(s3)
   139f2:	85a2                	mv	a1,s0
   139f4:	8522                	mv	a0,s0
   139f6:	97d2                	add	a5,a5,s4
   139f8:	00079603          	lh	a2,0(a5)
   139fc:	8726                	mv	a4,s1
   139fe:	86ca                	mv	a3,s2
   13a00:	0d85                	addi	s11,s11,1
   13a02:	c06fe0ef          	jal	11e08 <_Z23tiled_matrix_add_scalarPsPKssmm>
   13a06:	9456                	add	s0,s0,s5
   13a08:	9d56                	add	s10,s10,s5
   13a0a:	fbbb98e3          	bne	s7,s11,139ba <_Z14nn_layernorm2dPsPKsmmmmR14LayerNormParam7stage_t+0x9a>
   13a0e:	6782                	ld	a5,0(sp)
   13a10:	0c05                	addi	s8,s8,1
   13a12:	9cbe                	add	s9,s9,a5
   13a14:	67a2                	ld	a5,8(sp)
   13a16:	f58799e3          	bne	a5,s8,13968 <_Z14nn_layernorm2dPsPKsmmmmR14LayerNormParam7stage_t+0x48>
   13a1a:	644a                	ld	s0,144(sp)
   13a1c:	60ea                	ld	ra,152(sp)
   13a1e:	79e6                	ld	s3,120(sp)
   13a20:	7a46                	ld	s4,112(sp)
   13a22:	7aa6                	ld	s5,104(sp)
   13a24:	7b06                	ld	s6,96(sp)
   13a26:	6c46                	ld	s8,80(sp)
   13a28:	6ca6                	ld	s9,72(sp)
   13a2a:	6d06                	ld	s10,64(sp)
