
build-fiona/sentiment_photonic.elf:     file format elf64-littleriscv


Disassembly of section .text:

0000000000010120 <__cxa_bad_cast>:
   10120:	1141                	addi	sp,sp,-16
   10122:	4521                	li	a0,8
   10124:	e406                	sd	ra,8(sp)
   10126:	436060ef          	jal	1655c <__cxa_allocate_exception>
   1012a:	003c07b7          	lui	a5,0x3c0
   1012e:	f0878793          	addi	a5,a5,-248 # 3bff08 <_ZTVSt8bad_cast+0x10>
   10132:	6659                	lui	a2,0x16
   10134:	003c05b7          	lui	a1,0x3c0
   10138:	e11c                	sd	a5,0(a0)
   1013a:	43260613          	addi	a2,a2,1074 # 16432 <_ZNSt8bad_castD1Ev>
   1013e:	ee058593          	addi	a1,a1,-288 # 3bfee0 <_ZTISt8bad_cast>
   10142:	228060ef          	jal	1636a <__cxa_throw>

0000000000010146 <__cxa_bad_typeid>:
   10146:	1141                	addi	sp,sp,-16
   10148:	4521                	li	a0,8
   1014a:	e406                	sd	ra,8(sp)
   1014c:	410060ef          	jal	1655c <__cxa_allocate_exception>
   10150:	003c07b7          	lui	a5,0x3c0
   10154:	f5878793          	addi	a5,a5,-168 # 3bff58 <_ZTVSt10bad_typeid+0x10>
   10158:	6659                	lui	a2,0x16
   1015a:	003c05b7          	lui	a1,0x3c0
   1015e:	e11c                	sd	a5,0(a0)
   10160:	45c60613          	addi	a2,a2,1116 # 1645c <_ZNSt10bad_typeidD1Ev>
   10164:	f3058593          	addi	a1,a1,-208 # 3bff30 <_ZTISt10bad_typeid>
   10168:	202060ef          	jal	1636a <__cxa_throw>

000000000001016c <__cxa_throw_bad_array_new_length>:
   1016c:	1141                	addi	sp,sp,-16
   1016e:	4521                	li	a0,8
   10170:	e406                	sd	ra,8(sp)
   10172:	3ea060ef          	jal	1655c <__cxa_allocate_exception>
   10176:	003c07b7          	lui	a5,0x3c0
   1017a:	eb878793          	addi	a5,a5,-328 # 3bfeb8 <_ZTVSt20bad_array_new_length+0x10>
   1017e:	6659                	lui	a2,0x16
   10180:	003c05b7          	lui	a1,0x3c0
   10184:	e11c                	sd	a5,0(a0)
   10186:	40660613          	addi	a2,a2,1030 # 16406 <_ZNSt20bad_array_new_lengthD1Ev>
   1018a:	e9058593          	addi	a1,a1,-368 # 3bfe90 <_ZTISt20bad_array_new_length>
   1018e:	1dc060ef          	jal	1636a <__cxa_throw>

0000000000010192 <_ZN9__gnu_cxx9__freeresEv>:
   10192:	1141                	addi	sp,sp,-16
   10194:	e022                	sd	s0,0(sp)
   10196:	00443437          	lui	s0,0x443
   1019a:	8c040413          	addi	s0,s0,-1856 # 4428c0 <_ZN12_GLOBAL__N_1L14emergency_poolE>
   1019e:	6808                	ld	a0,16(s0)
   101a0:	e406                	sd	ra,8(sp)
   101a2:	c509                	beqz	a0,101ac <_ZN9__gnu_cxx9__freeresEv+0x1a>
   101a4:	040140ef          	jal	241e4 <free>
   101a8:	00043823          	sd	zero,16(s0)
   101ac:	60a2                	ld	ra,8(sp)
   101ae:	6402                	ld	s0,0(sp)
   101b0:	0141                	addi	sp,sp,16
   101b2:	8082                	ret

00000000000101b4 <_ZSt9terminatev>:
   101b4:	1141                	addi	sp,sp,-16
   101b6:	e406                	sd	ra,8(sp)
   101b8:	4f7060ef          	jal	16eae <_ZSt13get_terminatev>
   101bc:	4cf060ef          	jal	16e8a <_ZN10__cxxabiv111__terminateEPFvvE>

00000000000101c0 <_ZSt10unexpectedv>:
   101c0:	1141                	addi	sp,sp,-16
   101c2:	e406                	sd	ra,8(sp)
   101c4:	513060ef          	jal	16ed6 <_ZSt14get_unexpectedv>
   101c8:	4f3060ef          	jal	16eba <_ZN10__cxxabiv112__unexpectedEPFvvE>

00000000000101cc <_ZSt21__throw_bad_exceptionv>:
   101cc:	1141                	addi	sp,sp,-16
   101ce:	4521                	li	a0,8
   101d0:	e406                	sd	ra,8(sp)
   101d2:	38a060ef          	jal	1655c <__cxa_allocate_exception>
   101d6:	003c07b7          	lui	a5,0x3c0
   101da:	06078793          	addi	a5,a5,96 # 3c0060 <_ZTVSt13bad_exception+0x10>
   101de:	6659                	lui	a2,0x16
   101e0:	003c05b7          	lui	a1,0x3c0
   101e4:	e11c                	sd	a5,0(a0)
   101e6:	77a60613          	addi	a2,a2,1914 # 1677a <_ZNSt13bad_exceptionD1Ev>
   101ea:	fa858593          	addi	a1,a1,-88 # 3bffa8 <_ZTISt13bad_exception>
   101ee:	17c060ef          	jal	1636a <__cxa_throw>

00000000000101f2 <_ZSt17__throw_bad_allocv>:
   101f2:	1141                	addi	sp,sp,-16
   101f4:	4521                	li	a0,8
   101f6:	e406                	sd	ra,8(sp)
   101f8:	364060ef          	jal	1655c <__cxa_allocate_exception>
   101fc:	003c07b7          	lui	a5,0x3c0
   10200:	23078793          	addi	a5,a5,560 # 3c0230 <_ZTVSt9bad_alloc+0x10>
   10204:	665d                	lui	a2,0x17
   10206:	003c05b7          	lui	a1,0x3c0
   1020a:	e11c                	sd	a5,0(a0)
   1020c:	31060613          	addi	a2,a2,784 # 17310 <_ZNSt9bad_allocD1Ev>
   10210:	20858593          	addi	a1,a1,520 # 3c0208 <_ZTISt9bad_alloc>
   10214:	156060ef          	jal	1636a <__cxa_throw>

0000000000010218 <_ZSt28__throw_bad_array_new_lengthv>:
   10218:	1141                	addi	sp,sp,-16
   1021a:	4521                	li	a0,8
   1021c:	e406                	sd	ra,8(sp)
   1021e:	33e060ef          	jal	1655c <__cxa_allocate_exception>
   10222:	003c07b7          	lui	a5,0x3c0
   10226:	eb878793          	addi	a5,a5,-328 # 3bfeb8 <_ZTVSt20bad_array_new_length+0x10>
   1022a:	6659                	lui	a2,0x16
   1022c:	003c05b7          	lui	a1,0x3c0
   10230:	e11c                	sd	a5,0(a0)
   10232:	40660613          	addi	a2,a2,1030 # 16406 <_ZNSt20bad_array_new_lengthD1Ev>
   10236:	e9058593          	addi	a1,a1,-368 # 3bfe90 <_ZTISt20bad_array_new_length>
   1023a:	130060ef          	jal	1636a <__cxa_throw>

000000000001023e <_ZSt16__throw_bad_castv>:
   1023e:	1141                	addi	sp,sp,-16
   10240:	4521                	li	a0,8
   10242:	e406                	sd	ra,8(sp)
   10244:	318060ef          	jal	1655c <__cxa_allocate_exception>
   10248:	003c07b7          	lui	a5,0x3c0
   1024c:	f0878793          	addi	a5,a5,-248 # 3bff08 <_ZTVSt8bad_cast+0x10>
   10250:	6659                	lui	a2,0x16
   10252:	003c05b7          	lui	a1,0x3c0
   10256:	e11c                	sd	a5,0(a0)
   10258:	43260613          	addi	a2,a2,1074 # 16432 <_ZNSt8bad_castD1Ev>
   1025c:	ee058593          	addi	a1,a1,-288 # 3bfee0 <_ZTISt8bad_cast>
   10260:	10a060ef          	jal	1636a <__cxa_throw>

0000000000010264 <_ZSt18__throw_bad_typeidv>:
   10264:	1141                	addi	sp,sp,-16
   10266:	4521                	li	a0,8
   10268:	e406                	sd	ra,8(sp)
   1026a:	2f2060ef          	jal	1655c <__cxa_allocate_exception>
   1026e:	003c07b7          	lui	a5,0x3c0
   10272:	f5878793          	addi	a5,a5,-168 # 3bff58 <_ZTVSt10bad_typeid+0x10>
   10276:	6659                	lui	a2,0x16
   10278:	003c05b7          	lui	a1,0x3c0
   1027c:	e11c                	sd	a5,0(a0)
   1027e:	45c60613          	addi	a2,a2,1116 # 1645c <_ZNSt10bad_typeidD1Ev>
   10282:	f3058593          	addi	a1,a1,-208 # 3bff30 <_ZTISt10bad_typeid>
   10286:	0e4060ef          	jal	1636a <__cxa_throw>

000000000001028a <_ZSt19__throw_logic_errorPKc>:
   1028a:	7179                	addi	sp,sp,-48
   1028c:	e42a                	sd	a0,8(sp)
   1028e:	4541                	li	a0,16
   10290:	f022                	sd	s0,32(sp)
   10292:	f406                	sd	ra,40(sp)
   10294:	ec26                	sd	s1,24(sp)
   10296:	2c6060ef          	jal	1655c <__cxa_allocate_exception>
   1029a:	65a2                	ld	a1,8(sp)
   1029c:	842a                	mv	s0,a0
   1029e:	3770b0ef          	jal	1be14 <_ZNSt11logic_errorC1EPKc>
   102a2:	6671                	lui	a2,0x1c
   102a4:	003c15b7          	lui	a1,0x3c1
   102a8:	ae860613          	addi	a2,a2,-1304 # 1bae8 <_ZNSt11logic_errorD1Ev>
   102ac:	45058593          	addi	a1,a1,1104 # 3c1450 <_ZTISt11logic_error>
   102b0:	8522                	mv	a0,s0
   102b2:	0b8060ef          	jal	1636a <__cxa_throw>
   102b6:	84aa                	mv	s1,a0
   102b8:	8522                	mv	a0,s0
   102ba:	2dc060ef          	jal	16596 <__cxa_free_exception>
   102be:	8526                	mv	a0,s1
   102c0:	207120ef          	jal	22cc6 <_Unwind_Resume>

00000000000102c4 <_ZSt20__throw_domain_errorPKc>:
   102c4:	7179                	addi	sp,sp,-48
   102c6:	e42a                	sd	a0,8(sp)
   102c8:	4541                	li	a0,16
   102ca:	f022                	sd	s0,32(sp)
   102cc:	f406                	sd	ra,40(sp)
   102ce:	ec26                	sd	s1,24(sp)
   102d0:	28c060ef          	jal	1655c <__cxa_allocate_exception>
   102d4:	65a2                	ld	a1,8(sp)
   102d6:	842a                	mv	s0,a0
   102d8:	3730b0ef          	jal	1be4a <_ZNSt12domain_errorC1EPKc>
   102dc:	6671                	lui	a2,0x1c
   102de:	003c15b7          	lui	a1,0x3c1
   102e2:	b2460613          	addi	a2,a2,-1244 # 1bb24 <_ZNSt12domain_errorD1Ev>
   102e6:	48058593          	addi	a1,a1,1152 # 3c1480 <_ZTISt12domain_error>
   102ea:	8522                	mv	a0,s0
   102ec:	07e060ef          	jal	1636a <__cxa_throw>
   102f0:	84aa                	mv	s1,a0
   102f2:	8522                	mv	a0,s0
   102f4:	2a2060ef          	jal	16596 <__cxa_free_exception>
   102f8:	8526                	mv	a0,s1
   102fa:	1cd120ef          	jal	22cc6 <_Unwind_Resume>

00000000000102fe <_ZSt24__throw_invalid_argumentPKc>:
   102fe:	7179                	addi	sp,sp,-48
   10300:	e42a                	sd	a0,8(sp)
   10302:	4541                	li	a0,16
   10304:	f022                	sd	s0,32(sp)
   10306:	f406                	sd	ra,40(sp)
   10308:	ec26                	sd	s1,24(sp)
   1030a:	252060ef          	jal	1655c <__cxa_allocate_exception>
   1030e:	65a2                	ld	a1,8(sp)
   10310:	842a                	mv	s0,a0
   10312:	3550b0ef          	jal	1be66 <_ZNSt16invalid_argumentC1EPKc>
   10316:	6671                	lui	a2,0x1c
   10318:	003c15b7          	lui	a1,0x3c1
   1031c:	b4660613          	addi	a2,a2,-1210 # 1bb46 <_ZNSt16invalid_argumentD1Ev>
   10320:	4b058593          	addi	a1,a1,1200 # 3c14b0 <_ZTISt16invalid_argument>
   10324:	8522                	mv	a0,s0
   10326:	044060ef          	jal	1636a <__cxa_throw>
   1032a:	84aa                	mv	s1,a0
   1032c:	8522                	mv	a0,s0
   1032e:	268060ef          	jal	16596 <__cxa_free_exception>
   10332:	8526                	mv	a0,s1
   10334:	193120ef          	jal	22cc6 <_Unwind_Resume>

0000000000010338 <_ZSt20__throw_length_errorPKc>:
   10338:	7179                	addi	sp,sp,-48
   1033a:	e42a                	sd	a0,8(sp)
   1033c:	4541                	li	a0,16
   1033e:	f022                	sd	s0,32(sp)
   10340:	f406                	sd	ra,40(sp)
   10342:	ec26                	sd	s1,24(sp)
   10344:	218060ef          	jal	1655c <__cxa_allocate_exception>
   10348:	65a2                	ld	a1,8(sp)
   1034a:	842a                	mv	s0,a0
   1034c:	3370b0ef          	jal	1be82 <_ZNSt12length_errorC1EPKc>
   10350:	6671                	lui	a2,0x1c
   10352:	003c15b7          	lui	a1,0x3c1
   10356:	b6860613          	addi	a2,a2,-1176 # 1bb68 <_ZNSt12length_errorD1Ev>
   1035a:	4e058593          	addi	a1,a1,1248 # 3c14e0 <_ZTISt12length_error>
   1035e:	8522                	mv	a0,s0
   10360:	00a060ef          	jal	1636a <__cxa_throw>
   10364:	84aa                	mv	s1,a0
   10366:	8522                	mv	a0,s0
   10368:	22e060ef          	jal	16596 <__cxa_free_exception>
   1036c:	8526                	mv	a0,s1
   1036e:	159120ef          	jal	22cc6 <_Unwind_Resume>

0000000000010372 <_ZSt20__throw_out_of_rangePKc>:
   10372:	7179                	addi	sp,sp,-48
   10374:	e42a                	sd	a0,8(sp)
   10376:	4541                	li	a0,16
   10378:	f022                	sd	s0,32(sp)
   1037a:	f406                	sd	ra,40(sp)
   1037c:	ec26                	sd	s1,24(sp)
   1037e:	1de060ef          	jal	1655c <__cxa_allocate_exception>
   10382:	65a2                	ld	a1,8(sp)
   10384:	842a                	mv	s0,a0
   10386:	3190b0ef          	jal	1be9e <_ZNSt12out_of_rangeC1EPKc>
   1038a:	6671                	lui	a2,0x1c
   1038c:	003c15b7          	lui	a1,0x3c1
   10390:	b8a60613          	addi	a2,a2,-1142 # 1bb8a <_ZNSt12out_of_rangeD1Ev>
   10394:	51058593          	addi	a1,a1,1296 # 3c1510 <_ZTISt12out_of_range>
   10398:	8522                	mv	a0,s0
   1039a:	7d1050ef          	jal	1636a <__cxa_throw>
   1039e:	84aa                	mv	s1,a0
   103a0:	8522                	mv	a0,s0
   103a2:	1f4060ef          	jal	16596 <__cxa_free_exception>
   103a6:	8526                	mv	a0,s1
   103a8:	11f120ef          	jal	22cc6 <_Unwind_Resume>

00000000000103ac <_ZSt24__throw_out_of_range_fmtPKcz>:
   103ac:	7159                	addi	sp,sp,-112
   103ae:	f406                	sd	ra,40(sp)
   103b0:	f022                	sd	s0,32(sp)
   103b2:	ec26                	sd	s1,24(sp)
   103b4:	1800                	addi	s0,sp,48
   103b6:	e84a                	sd	s2,16(sp)
   103b8:	84aa                	mv	s1,a0
   103ba:	f018                	sd	a4,32(s0)
   103bc:	03043823          	sd	a6,48(s0)
   103c0:	03143c23          	sd	a7,56(s0)
   103c4:	e40c                	sd	a1,8(s0)
   103c6:	e810                	sd	a2,16(s0)
   103c8:	ec14                	sd	a3,24(s0)
   103ca:	f41c                	sd	a5,40(s0)
   103cc:	43d170ef          	jal	28008 <strlen>
   103d0:	20f50793          	addi	a5,a0,527
   103d4:	9bc1                	andi	a5,a5,-16
   103d6:	40f10133          	sub	sp,sp,a5
   103da:	20050593          	addi	a1,a0,512
   103de:	00840693          	addi	a3,s0,8
   103e2:	8626                	mv	a2,s1
   103e4:	850a                	mv	a0,sp
   103e6:	fcd43c23          	sd	a3,-40(s0)
   103ea:	661060ef          	jal	1724a <_ZN9__gnu_cxx15__snprintf_liteEPcmPKcPv>
   103ee:	4541                	li	a0,16
   103f0:	16c060ef          	jal	1655c <__cxa_allocate_exception>
   103f4:	858a                	mv	a1,sp
   103f6:	84aa                	mv	s1,a0
   103f8:	2a70b0ef          	jal	1be9e <_ZNSt12out_of_rangeC1EPKc>
   103fc:	6671                	lui	a2,0x1c
   103fe:	003c15b7          	lui	a1,0x3c1
   10402:	b8a60613          	addi	a2,a2,-1142 # 1bb8a <_ZNSt12out_of_rangeD1Ev>
   10406:	51058593          	addi	a1,a1,1296 # 3c1510 <_ZTISt12out_of_range>
   1040a:	8526                	mv	a0,s1
   1040c:	75f050ef          	jal	1636a <__cxa_throw>
   10410:	892a                	mv	s2,a0
   10412:	8526                	mv	a0,s1
   10414:	182060ef          	jal	16596 <__cxa_free_exception>
   10418:	854a                	mv	a0,s2
   1041a:	0ad120ef          	jal	22cc6 <_Unwind_Resume>

000000000001041e <_ZSt21__throw_runtime_errorPKc>:
   1041e:	7179                	addi	sp,sp,-48
   10420:	e42a                	sd	a0,8(sp)
   10422:	4541                	li	a0,16
   10424:	f022                	sd	s0,32(sp)
   10426:	f406                	sd	ra,40(sp)
   10428:	ec26                	sd	s1,24(sp)
   1042a:	132060ef          	jal	1655c <__cxa_allocate_exception>
   1042e:	65a2                	ld	a1,8(sp)
   10430:	842a                	mv	s0,a0
   10432:	2890b0ef          	jal	1beba <_ZNSt13runtime_errorC1EPKc>
   10436:	6671                	lui	a2,0x1c
   10438:	003c15b7          	lui	a1,0x3c1
   1043c:	a4660613          	addi	a2,a2,-1466 # 1ba46 <_ZNSt13runtime_errorD1Ev>
   10440:	54058593          	addi	a1,a1,1344 # 3c1540 <_ZTISt13runtime_error>
   10444:	8522                	mv	a0,s0
   10446:	725050ef          	jal	1636a <__cxa_throw>
   1044a:	84aa                	mv	s1,a0
   1044c:	8522                	mv	a0,s0
   1044e:	148060ef          	jal	16596 <__cxa_free_exception>
   10452:	8526                	mv	a0,s1
   10454:	073120ef          	jal	22cc6 <_Unwind_Resume>

0000000000010458 <_ZSt19__throw_range_errorPKc>:
   10458:	7179                	addi	sp,sp,-48
   1045a:	e42a                	sd	a0,8(sp)
   1045c:	4541                	li	a0,16
   1045e:	f022                	sd	s0,32(sp)
   10460:	f406                	sd	ra,40(sp)
   10462:	ec26                	sd	s1,24(sp)
   10464:	0f8060ef          	jal	1655c <__cxa_allocate_exception>
   10468:	65a2                	ld	a1,8(sp)
   1046a:	842a                	mv	s0,a0
   1046c:	2850b0ef          	jal	1bef0 <_ZNSt11range_errorC1EPKc>
   10470:	6671                	lui	a2,0x1c
   10472:	003c15b7          	lui	a1,0x3c1
   10476:	a8260613          	addi	a2,a2,-1406 # 1ba82 <_ZNSt11range_errorD1Ev>
   1047a:	56858593          	addi	a1,a1,1384 # 3c1568 <_ZTISt11range_error>
   1047e:	8522                	mv	a0,s0
   10480:	6eb050ef          	jal	1636a <__cxa_throw>
   10484:	84aa                	mv	s1,a0
   10486:	8522                	mv	a0,s0
   10488:	10e060ef          	jal	16596 <__cxa_free_exception>
   1048c:	8526                	mv	a0,s1
   1048e:	039120ef          	jal	22cc6 <_Unwind_Resume>

0000000000010492 <_ZSt22__throw_overflow_errorPKc>:
   10492:	7179                	addi	sp,sp,-48
   10494:	e42a                	sd	a0,8(sp)
   10496:	4541                	li	a0,16
   10498:	f022                	sd	s0,32(sp)
   1049a:	f406                	sd	ra,40(sp)
   1049c:	ec26                	sd	s1,24(sp)
   1049e:	0be060ef          	jal	1655c <__cxa_allocate_exception>
   104a2:	65a2                	ld	a1,8(sp)
   104a4:	842a                	mv	s0,a0
   104a6:	2670b0ef          	jal	1bf0c <_ZNSt14overflow_errorC1EPKc>
   104aa:	6671                	lui	a2,0x1c
   104ac:	003c15b7          	lui	a1,0x3c1
   104b0:	aa460613          	addi	a2,a2,-1372 # 1baa4 <_ZNSt14overflow_errorD1Ev>
   104b4:	59858593          	addi	a1,a1,1432 # 3c1598 <_ZTISt14overflow_error>
   104b8:	8522                	mv	a0,s0
   104ba:	6b1050ef          	jal	1636a <__cxa_throw>
   104be:	84aa                	mv	s1,a0
   104c0:	8522                	mv	a0,s0
   104c2:	0d4060ef          	jal	16596 <__cxa_free_exception>
   104c6:	8526                	mv	a0,s1
   104c8:	7fe120ef          	jal	22cc6 <_Unwind_Resume>

00000000000104cc <_ZSt23__throw_underflow_errorPKc>:
   104cc:	7179                	addi	sp,sp,-48
   104ce:	e42a                	sd	a0,8(sp)
   104d0:	4541                	li	a0,16
   104d2:	f022                	sd	s0,32(sp)
   104d4:	f406                	sd	ra,40(sp)
   104d6:	ec26                	sd	s1,24(sp)
   104d8:	084060ef          	jal	1655c <__cxa_allocate_exception>
   104dc:	65a2                	ld	a1,8(sp)
   104de:	842a                	mv	s0,a0
   104e0:	2490b0ef          	jal	1bf28 <_ZNSt15underflow_errorC1EPKc>
   104e4:	6671                	lui	a2,0x1c
   104e6:	003c15b7          	lui	a1,0x3c1
   104ea:	ac660613          	addi	a2,a2,-1338 # 1bac6 <_ZNSt15underflow_errorD1Ev>
   104ee:	5c858593          	addi	a1,a1,1480 # 3c15c8 <_ZTISt15underflow_error>
   104f2:	8522                	mv	a0,s0
   104f4:	677050ef          	jal	1636a <__cxa_throw>
   104f8:	84aa                	mv	s1,a0
   104fa:	8522                	mv	a0,s0
   104fc:	09a060ef          	jal	16596 <__cxa_free_exception>
   10500:	8526                	mv	a0,s1
   10502:	7c4120ef          	jal	22cc6 <_Unwind_Resume>

0000000000010506 <_ZN9__gnu_cxx26__throw_insufficient_spaceEPKcS1_>:
   10506:	7175                	addi	sp,sp,-144
   10508:	e122                	sd	s0,128(sp)
   1050a:	fca6                	sd	s1,120(sp)
   1050c:	0900                	addi	s0,sp,144
   1050e:	84ae                	mv	s1,a1
   10510:	000325b7          	lui	a1,0x32
   10514:	e506                	sd	ra,136(sp)
   10516:	f8ca                	sd	s2,112(sp)
   10518:	06900613          	li	a2,105
   1051c:	892a                	mv	s2,a0
   1051e:	7c858593          	addi	a1,a1,1992 # 327c8 <__clzdi2+0x1f3a>
   10522:	f7040513          	addi	a0,s0,-144
   10526:	412484b3          	sub	s1,s1,s2
   1052a:	1f7170ef          	jal	27f20 <memcpy>
   1052e:	07848793          	addi	a5,s1,120
   10532:	9bc1                	andi	a5,a5,-16
   10534:	40f10133          	sub	sp,sp,a5
   10538:	06800613          	li	a2,104
   1053c:	f7040593          	addi	a1,s0,-144
   10540:	850a                	mv	a0,sp
   10542:	1df170ef          	jal	27f20 <memcpy>
   10546:	8626                	mv	a2,s1
   10548:	85ca                	mv	a1,s2
   1054a:	10a8                	addi	a0,sp,104
   1054c:	1d5170ef          	jal	27f20 <memcpy>
   10550:	948a                	add	s1,s1,sp
   10552:	06048423          	sb	zero,104(s1)
   10556:	850a                	mv	a0,sp
   10558:	d33ff0ef          	jal	1028a <_ZSt19__throw_logic_errorPKc>

000000000001055c <__cxa_call_terminate>:
   1055c:	1141                	addi	sp,sp,-16
   1055e:	e406                	sd	ra,8(sp)
   10560:	e022                	sd	s0,0(sp)
   10562:	c905                	beqz	a0,10592 <__cxa_call_terminate+0x36>
   10564:	842a                	mv	s0,a0
   10566:	116060ef          	jal	1667c <__cxa_begin_catch>
   1056a:	b8b1b7b7          	lui	a5,0xb8b1b
   1056e:	abd78793          	addi	a5,a5,-1347 # ffffffffb8b1aabd <__BSS_END__+0xffffffffb86d7bd5>
   10572:	07b2                	slli	a5,a5,0xc
   10574:	bcd78793          	addi	a5,a5,-1075
   10578:	6018                	ld	a4,0(s0)
   1057a:	07b2                	slli	a5,a5,0xc
   1057c:	4d578793          	addi	a5,a5,1237
   10580:	07a2                	slli	a5,a5,0x8
   10582:	97ba                	add	a5,a5,a4
   10584:	4705                	li	a4,1
   10586:	00f76663          	bltu	a4,a5,10592 <__cxa_call_terminate+0x36>
   1058a:	fc843503          	ld	a0,-56(s0)
   1058e:	0fd060ef          	jal	16e8a <_ZN10__cxxabiv111__terminateEPFvvE>
   10592:	c23ff0ef          	jal	101b4 <_ZSt9terminatev>

0000000000010596 <_ZNSt7__cxx1112basic_stringIcSt11char_traitsIcESaIcEE15_M_replace_coldEPcmPKcmm>:
   10596:	7139                	addi	sp,sp,-64
   10598:	f822                	sd	s0,48(sp)
   1059a:	f426                	sd	s1,40(sp)
   1059c:	f04a                	sd	s2,32(sp)
   1059e:	ec4e                	sd	s3,24(sp)
   105a0:	843a                	mv	s0,a4
   105a2:	fc06                	sd	ra,56(sp)
   105a4:	177d                	addi	a4,a4,-1
   105a6:	84ae                	mv	s1,a1
   105a8:	8932                	mv	s2,a2
   105aa:	89b6                	mv	s3,a3
   105ac:	00c77963          	bgeu	a4,a2,105be <_ZNSt7__cxx1112basic_stringIcSt11char_traitsIcESaIcEE15_M_replace_coldEPcmPKcmm+0x28>
   105b0:	8622                	mv	a2,s0
   105b2:	85b6                	mv	a1,a3
   105b4:	8526                	mv	a0,s1
   105b6:	e43e                	sd	a5,8(sp)
   105b8:	3520e0ef          	jal	1e90a <_ZNSt7__cxx1112basic_stringIcSt11char_traitsIcESaIcEE7_S_moveEPcPKcm>
   105bc:	67a2                	ld	a5,8(sp)
   105be:	cb91                	beqz	a5,105d2 <_ZNSt7__cxx1112basic_stringIcSt11char_traitsIcESaIcEE15_M_replace_coldEPcmPKcmm+0x3c>
   105c0:	07240963          	beq	s0,s2,10632 <_ZNSt7__cxx1112basic_stringIcSt11char_traitsIcESaIcEE15_M_replace_coldEPcmPKcmm+0x9c>
   105c4:	863e                	mv	a2,a5
   105c6:	012485b3          	add	a1,s1,s2
   105ca:	00848533          	add	a0,s1,s0
   105ce:	33c0e0ef          	jal	1e90a <_ZNSt7__cxx1112basic_stringIcSt11char_traitsIcESaIcEE7_S_moveEPcPKcm>
   105d2:	06897063          	bgeu	s2,s0,10632 <_ZNSt7__cxx1112basic_stringIcSt11char_traitsIcESaIcEE15_M_replace_coldEPcmPKcmm+0x9c>
   105d6:	012487b3          	add	a5,s1,s2
   105da:	00898733          	add	a4,s3,s0
   105de:	00e7ed63          	bltu	a5,a4,105f8 <_ZNSt7__cxx1112basic_stringIcSt11char_traitsIcESaIcEE15_M_replace_coldEPcmPKcmm+0x62>
   105e2:	8622                	mv	a2,s0
   105e4:	7442                	ld	s0,48(sp)
   105e6:	70e2                	ld	ra,56(sp)
   105e8:	7902                	ld	s2,32(sp)
   105ea:	85ce                	mv	a1,s3
   105ec:	8526                	mv	a0,s1
   105ee:	69e2                	ld	s3,24(sp)
   105f0:	74a2                	ld	s1,40(sp)
   105f2:	6121                	addi	sp,sp,64
   105f4:	3160e06f          	j	1e90a <_ZNSt7__cxx1112basic_stringIcSt11char_traitsIcESaIcEE7_S_moveEPcPKcm>
   105f8:	00f9ef63          	bltu	s3,a5,10616 <_ZNSt7__cxx1112basic_stringIcSt11char_traitsIcESaIcEE15_M_replace_coldEPcmPKcmm+0x80>
   105fc:	412405b3          	sub	a1,s0,s2
   10600:	8622                	mv	a2,s0
   10602:	95ce                	add	a1,a1,s3
   10604:	8526                	mv	a0,s1
   10606:	7442                	ld	s0,48(sp)
   10608:	70e2                	ld	ra,56(sp)
   1060a:	74a2                	ld	s1,40(sp)
   1060c:	7902                	ld	s2,32(sp)
   1060e:	69e2                	ld	s3,24(sp)
   10610:	6121                	addi	sp,sp,64
   10612:	2e40e06f          	j	1e8f6 <_ZNSt7__cxx1112basic_stringIcSt11char_traitsIcESaIcEE7_S_copyEPcPKcm>
   10616:	41378933          	sub	s2,a5,s3
   1061a:	864a                	mv	a2,s2
   1061c:	85ce                	mv	a1,s3
   1061e:	8526                	mv	a0,s1
   10620:	2ea0e0ef          	jal	1e90a <_ZNSt7__cxx1112basic_stringIcSt11char_traitsIcESaIcEE7_S_moveEPcPKcm>
   10624:	41240633          	sub	a2,s0,s2
   10628:	008485b3          	add	a1,s1,s0
   1062c:	01248533          	add	a0,s1,s2
   10630:	bfd9                	j	10606 <_ZNSt7__cxx1112basic_stringIcSt11char_traitsIcESaIcEE15_M_replace_coldEPcmPKcmm+0x70>
   10632:	70e2                	ld	ra,56(sp)
   10634:	7442                	ld	s0,48(sp)
   10636:	74a2                	ld	s1,40(sp)
   10638:	7902                	ld	s2,32(sp)
   1063a:	69e2                	ld	s3,24(sp)
   1063c:	6121                	addi	sp,sp,64
   1063e:	8082                	ret

0000000000010640 <_ZSt20__throw_system_errori>:
   10640:	7139                	addi	sp,sp,-64
   10642:	f04a                	sd	s2,32(sp)
   10644:	892a                	mv	s2,a0
   10646:	02000513          	li	a0,32
   1064a:	f822                	sd	s0,48(sp)
   1064c:	f426                	sd	s1,40(sp)
   1064e:	fc06                	sd	ra,56(sp)
   10650:	70d050ef          	jal	1655c <__cxa_allocate_exception>
   10654:	a101b783          	ld	a5,-1520(gp) # 3cc870 <_ZN12_GLOBAL__N_1L25generic_category_instanceE>
   10658:	84aa                	mv	s1,a0
   1065a:	864a                	mv	a2,s2
   1065c:	739c                	ld	a5,32(a5)
   1065e:	a1018593          	addi	a1,gp,-1520 # 3cc870 <_ZN12_GLOBAL__N_1L25generic_category_instanceE>
   10662:	850a                	mv	a0,sp
   10664:	9782                	jalr	a5
   10666:	858a                	mv	a1,sp
   10668:	8526                	mv	a0,s1
   1066a:	6350f0ef          	jal	2049e <_ZNSt13runtime_errorC1ERKNSt7__cxx1112basic_stringIcSt11char_traitsIcESaIcEEE>
   1066e:	850a                	mv	a0,sp
   10670:	20c0e0ef          	jal	1e87c <_ZNSt7__cxx1112basic_stringIcSt11char_traitsIcESaIcEE10_M_disposeEv>
   10674:	003c27b7          	lui	a5,0x3c2
   10678:	93878793          	addi	a5,a5,-1736 # 3c1938 <_ZTVSt12system_error+0x10>
   1067c:	a1018413          	addi	s0,gp,-1520 # 3cc870 <_ZN12_GLOBAL__N_1L25generic_category_instanceE>
   10680:	00020637          	lui	a2,0x20
   10684:	003c15b7          	lui	a1,0x3c1
   10688:	e09c                	sd	a5,0(s1)
   1068a:	0124a823          	sw	s2,16(s1)
   1068e:	ec80                	sd	s0,24(s1)
   10690:	29e60613          	addi	a2,a2,670 # 2029e <_ZNSt12system_errorD1Ev>
   10694:	79058593          	addi	a1,a1,1936 # 3c1790 <_ZTISt12system_error>
   10698:	8526                	mv	a0,s1
   1069a:	4d1050ef          	jal	1636a <__cxa_throw>
   1069e:	842a                	mv	s0,a0
   106a0:	850a                	mv	a0,sp
   106a2:	1da0e0ef          	jal	1e87c <_ZNSt7__cxx1112basic_stringIcSt11char_traitsIcESaIcEE10_M_disposeEv>
   106a6:	8526                	mv	a0,s1
   106a8:	6ef050ef          	jal	16596 <__cxa_free_exception>
   106ac:	8522                	mv	a0,s0
   106ae:	618120ef          	jal	22cc6 <_Unwind_Resume>
   106b2:	842a                	mv	s0,a0
   106b4:	bfcd                	j	106a6 <_ZSt20__throw_system_errori+0x66>

00000000000106b6 <exit>:
   106b6:	1141                	addi	sp,sp,-16
   106b8:	4581                	li	a1,0
   106ba:	e022                	sd	s0,0(sp)
   106bc:	e406                	sd	ra,8(sp)
   106be:	842a                	mv	s0,a0
   106c0:	371170ef          	jal	28230 <__call_exitprocs>
   106c4:	a701b783          	ld	a5,-1424(gp) # 3cc8d0 <__stdio_exit_handler>
   106c8:	c391                	beqz	a5,106cc <exit+0x16>
   106ca:	9782                	jalr	a5
   106cc:	8522                	mv	a0,s0
   106ce:	59d1e0ef          	jal	2f46a <_exit>

00000000000106d2 <main>:
   106d2:	000317b7          	lui	a5,0x31
   106d6:	af010113          	addi	sp,sp,-1296
   106da:	8e078513          	addi	a0,a5,-1824 # 308e0 <__clzdi2+0x52>
   106de:	50113423          	sd	ra,1288(sp)
   106e2:	50813023          	sd	s0,1280(sp)
   106e6:	4e913c23          	sd	s1,1272(sp)
   106ea:	4f213823          	sd	s2,1264(sp)
   106ee:	4f313423          	sd	s3,1256(sp)
   106f2:	4f413023          	sd	s4,1248(sp)
   106f6:	4d513c23          	sd	s5,1240(sp)
   106fa:	4d613823          	sd	s6,1232(sp)
   106fe:	4d713423          	sd	s7,1224(sp)
   10702:	4d813023          	sd	s8,1216(sp)
   10706:	4b913c23          	sd	s9,1208(sp)
   1070a:	4ba13823          	sd	s10,1200(sp)
   1070e:	4bb13423          	sd	s11,1192(sp)
   10712:	48813c27          	fsd	fs0,1176(sp)
   10716:	560160ef          	jal	26c76 <puts>
   1071a:	00031537          	lui	a0,0x31
   1071e:	91050513          	addi	a0,a0,-1776 # 30910 <__clzdi2+0x82>
   10722:	554160ef          	jal	26c76 <puts>
   10726:	00031537          	lui	a0,0x31
   1072a:	94050513          	addi	a0,a0,-1728 # 30940 <__clzdi2+0xb2>
   1072e:	548160ef          	jal	26c76 <puts>
   10732:	00031537          	lui	a0,0x31
   10736:	97050513          	addi	a0,a0,-1680 # 30970 <__clzdi2+0xe2>
   1073a:	53c160ef          	jal	26c76 <puts>
   1073e:	00031537          	lui	a0,0x31
   10742:	08000593          	li	a1,128
   10746:	98850513          	addi	a0,a0,-1656 # 30988 <__clzdi2+0xfa>
   1074a:	350160ef          	jal	26a9a <printf>
   1074e:	00031537          	lui	a0,0x31
   10752:	4589                	li	a1,2
   10754:	9a050513          	addi	a0,a0,-1632 # 309a0 <__clzdi2+0x112>
   10758:	342160ef          	jal	26a9a <printf>
   1075c:	00031537          	lui	a0,0x31
   10760:	04000593          	li	a1,64
   10764:	9b850513          	addi	a0,a0,-1608 # 309b8 <__clzdi2+0x12a>
   10768:	332160ef          	jal	26a9a <printf>
   1076c:	00031537          	lui	a0,0x31
   10770:	10000593          	li	a1,256
   10774:	9d050513          	addi	a0,a0,-1584 # 309d0 <__clzdi2+0x142>
   10778:	322160ef          	jal	26a9a <printf>
   1077c:	00031537          	lui	a0,0x31
   10780:	4589                	li	a1,2
   10782:	9e850513          	addi	a0,a0,-1560 # 309e8 <__clzdi2+0x15a>
   10786:	314160ef          	jal	26a9a <printf>
   1078a:	00031537          	lui	a0,0x31
   1078e:	659d                	lui	a1,0x7
   10790:	73a58593          	addi	a1,a1,1850 # 773a <__cxa_bad_cast-0x89e6>
   10794:	a0050513          	addi	a0,a0,-1536 # 30a00 <__clzdi2+0x172>
   10798:	302160ef          	jal	26a9a <printf>
   1079c:	00031537          	lui	a0,0x31
   107a0:	a1850513          	addi	a0,a0,-1512 # 30a18 <__clzdi2+0x18a>
   107a4:	4d2160ef          	jal	26c76 <puts>
   107a8:	00031537          	lui	a0,0x31
   107ac:	a5050513          	addi	a0,a0,-1456 # 30a50 <__clzdi2+0x1c2>
   107b0:	4c6160ef          	jal	26c76 <puts>
   107b4:	00031637          	lui	a2,0x31
   107b8:	a9860613          	addi	a2,a2,-1384 # 30a98 <__clzdi2+0x20a>
   107bc:	000316b7          	lui	a3,0x31
   107c0:	00031737          	lui	a4,0x31
   107c4:	000317b7          	lui	a5,0x31
   107c8:	ab068693          	addi	a3,a3,-1360 # 30ab0 <__clzdi2+0x222>
   107cc:	ac870713          	addi	a4,a4,-1336 # 30ac8 <__clzdi2+0x23a>
   107d0:	ae878793          	addi	a5,a5,-1304 # 30ae8 <__clzdi2+0x25a>
   107d4:	fab2                	sd	a2,368(sp)
   107d6:	4581                	li	a1,0
   107d8:	20000613          	li	a2,512
   107dc:	0d08                	addi	a0,sp,656
   107de:	feb6                	sd	a3,376(sp)
   107e0:	e33a                	sd	a4,384(sp)
   107e2:	e73e                	sd	a5,392(sp)
   107e4:	692170ef          	jal	27e76 <memset>
   107e8:	066005b7          	lui	a1,0x6600
   107ec:	066008b7          	lui	a7,0x6600
   107f0:	0585                	addi	a1,a1,1 # 6600001 <__BSS_END__+0x61bd119>
   107f2:	033006b7          	lui	a3,0x3300
   107f6:	0885                	addi	a7,a7,1 # 6600001 <__BSS_END__+0x61bd119>
   107f8:	05b2                	slli	a1,a1,0xc
   107fa:	0685                	addi	a3,a3,1 # 3300001 <__BSS_END__+0x2ebd119>
   107fc:	85f58593          	addi	a1,a1,-1953
   10800:	08b2                	slli	a7,a7,0xc
   10802:	06b6                	slli	a3,a3,0xd
   10804:	066007b7          	lui	a5,0x6600
   10808:	90388893          	addi	a7,a7,-1789
   1080c:	32b13023          	sd	a1,800(sp)
   10810:	b0768693          	addi	a3,a3,-1273
   10814:	7d300337          	lui	t1,0x7d300
   10818:	7e700837          	lui	a6,0x7e700
   1081c:	1f300593          	li	a1,499
   10820:	7d100637          	lui	a2,0x7d100
   10824:	7cd00737          	lui	a4,0x7cd00
   10828:	0785                	addi	a5,a5,1 # 6600001 <__BSS_END__+0x61bd119>
   1082a:	2b113023          	sd	a7,672(sp)
   1082e:	3ad13023          	sd	a3,928(sp)
   10832:	7e700f93          	li	t6,2023
   10836:	0305                	addi	t1,t1,1 # 7d300001 <__BSS_END__+0x7cebd119>
   10838:	41500893          	li	a7,1045
   1083c:	0805                	addi	a6,a6,1 # 7e700001 <__BSS_END__+0x7e2bd119>
   1083e:	158a                	slli	a1,a1,0x22
   10840:	0605                	addi	a2,a2,1 # 7d100001 <__BSS_END__+0x7ccbd119>
   10842:	01a036b7          	lui	a3,0x1a03
   10846:	0705                	addi	a4,a4,1 # 7cd00001 <__BSS_END__+0x7c8bd119>
   10848:	07b2                	slli	a5,a5,0xc
   1084a:	06558593          	addi	a1,a1,101
   1084e:	80378793          	addi	a5,a5,-2045
   10852:	00031537          	lui	a0,0x31
   10856:	1f82                	slli	t6,t6,0x20
   10858:	0332                	slli	t1,t1,0xc
   1085a:	1882                	slli	a7,a7,0x20
   1085c:	0832                	slli	a6,a6,0xc
   1085e:	0632                	slli	a2,a2,0xc
   10860:	06d2                	slli	a3,a3,0x14
   10862:	0732                	slli	a4,a4,0xc
   10864:	065f8f93          	addi	t6,t6,101
   10868:	c7130313          	addi	t1,t1,-911
   1086c:	06588893          	addi	a7,a7,101
   10870:	46780813          	addi	a6,a6,1127
   10874:	ebc60613          	addi	a2,a2,-324
   10878:	06568693          	addi	a3,a3,101 # 1a03065 <__BSS_END__+0x15c017d>
   1087c:	73d70713          	addi	a4,a4,1853
   10880:	38b13823          	sd	a1,912(sp)
   10884:	42f13023          	sd	a5,1056(sp)
   10888:	4591                	li	a1,4
   1088a:	4785                	li	a5,1
   1088c:	b0050513          	addi	a0,a0,-1280 # 30b00 <__clzdi2+0x272>
   10890:	29f13823          	sd	t6,656(sp)
   10894:	28613c23          	sd	t1,664(sp)
   10898:	31113823          	sd	a7,784(sp)
   1089c:	31013c23          	sd	a6,792(sp)
   108a0:	38c13c23          	sd	a2,920(sp)
   108a4:	40d13823          	sd	a3,1040(sp)
   108a8:	40e13c23          	sd	a4,1048(sp)
   108ac:	f2be                	sd	a5,352(sp)
   108ae:	f6be                	sd	a5,360(sp)
   108b0:	1ea160ef          	jal	26a9a <printf>
   108b4:	8bc1a407          	flw	fs0,-1860(gp) # 3cc71c <mask+0x84>
   108b8:	000367b7          	lui	a5,0x36
   108bc:	67078793          	addi	a5,a5,1648 # 36670 <_ZL16layer1_ln1_gamma>
   108c0:	ea3e                	sd	a5,272(sp)
   108c2:	000377b7          	lui	a5,0x37
   108c6:	07078793          	addi	a5,a5,112 # 37070 <_ZL9layer1_bv>
   108ca:	f4be                	sd	a5,104(sp)
   108cc:	000377b7          	lui	a5,0x37
   108d0:	87078793          	addi	a5,a5,-1936 # 36870 <_ZL9layer1_b2>
   108d4:	f1be                	sd	a5,224(sp)
   108d6:	000477b7          	lui	a5,0x47
   108da:	27078793          	addi	a5,a5,624 # 47270 <_ZL9layer1_W2>
   108de:	e1be                	sd	a5,192(sp)
   108e0:	000377b7          	lui	a5,0x37
   108e4:	a7078793          	addi	a5,a5,-1424 # 36a70 <_ZL9layer1_b1>
   108e8:	e53e                	sd	a5,136(sp)
   108ea:	000677b7          	lui	a5,0x67
   108ee:	27078793          	addi	a5,a5,624 # 67270 <_ZL9layer1_W1>
   108f2:	000354b7          	lui	s1,0x35
   108f6:	fd3e                	sd	a5,184(sp)
   108f8:	000377b7          	lui	a5,0x37
   108fc:	00034db7          	lui	s11,0x34
   10900:	27048493          	addi	s1,s1,624 # 35270 <_ZL9layer0_b2>
   10904:	e7078793          	addi	a5,a5,-400 # 36e70 <_ZL9layer1_bo>
   10908:	000c73b7          	lui	t2,0xc7
   1090c:	670d8313          	addi	t1,s11,1648 # 34670 <_ZL9layer0_bk>
   10910:	00035d37          	lui	s10,0x35
   10914:	000352b7          	lui	t0,0x35
   10918:	f5a6                	sd	s1,232(sp)
   1091a:	f93e                	sd	a5,176(sp)
   1091c:	27038493          	addi	s1,t2,624 # c7270 <_ZL9layer0_W2>
   10920:	000877b7          	lui	a5,0x87
   10924:	00035cb7          	lui	s9,0x35
   10928:	27078793          	addi	a5,a5,624 # 87270 <_ZL9layer1_Wo>
   1092c:	000e7fb7          	lui	t6,0xe7
   10930:	e61a                	sd	t1,264(sp)
   10932:	f226                	sd	s1,288(sp)
   10934:	070d0313          	addi	t1,s10,112 # 35070 <_ZL16layer0_ln1_gamma>
   10938:	47028493          	addi	s1,t0,1136 # 35470 <_ZL9layer0_b1>
   1093c:	00035c37          	lui	s8,0x35
   10940:	00036f37          	lui	t5,0x36
   10944:	f61a                	sd	t1,296(sp)
   10946:	e926                	sd	s1,144(sp)
   10948:	870c8313          	addi	t1,s9,-1936 # 34870 <_ZL9layer0_bq>
   1094c:	270f8493          	addi	s1,t6,624 # e7270 <_ZL9layer0_W1>
   10950:	f8be                	sd	a5,112(sp)
   10952:	000317b7          	lui	a5,0x31
   10956:	00035bb7          	lui	s7,0x35
   1095a:	bc078793          	addi	a5,a5,-1088 # 30bc0 <__clzdi2+0x332>
   1095e:	000368b7          	lui	a7,0x36
   10962:	e99a                	sd	t1,208(sp)
   10964:	ee26                	sd	s1,280(sp)
   10966:	a70c0313          	addi	t1,s8,-1424 # 34a70 <_ZL15layer0_ln2_beta>
   1096a:	070f0493          	addi	s1,t5,112 # 36070 <_ZL15layer1_ln2_beta>
   1096e:	00035937          	lui	s2,0x35
   10972:	00107837          	lui	a6,0x107
   10976:	00036537          	lui	a0,0x36
   1097a:	000365b7          	lui	a1,0x36
   1097e:	00036637          	lui	a2,0x36
   10982:	000366b7          	lui	a3,0x36
   10986:	00036737          	lui	a4,0x36
   1098a:	fc9a                	sd	t1,120(sp)
   1098c:	fa26                	sd	s1,304(sp)
   1098e:	c70b8313          	addi	t1,s7,-912 # 34c70 <_ZL16layer0_ln2_gamma>
   10992:	87088493          	addi	s1,a7,-1936 # 35870 <_ZL9layer0_bo>
   10996:	fe3e                	sd	a5,312(sp)
   10998:	000317b7          	lui	a5,0x31
   1099c:	0d00                	addi	s0,sp,656
   1099e:	0014feb7          	lui	t4,0x14f
   109a2:	0014fe37          	lui	t3,0x14f
   109a6:	fd9a                	sd	t1,248(sp)
   109a8:	eda6                	sd	s1,216(sp)
   109aa:	e7090313          	addi	t1,s2,-400 # 34e70 <_ZL15layer0_ln1_beta>
   109ae:	27080493          	addi	s1,a6,624 # 107270 <_ZL9layer0_Wo>
   109b2:	a7050513          	addi	a0,a0,-1424 # 35a70 <_ZL9layer0_bv>
   109b6:	c7058593          	addi	a1,a1,-912 # 35c70 <_ZL9layer1_bk>
   109ba:	e7060613          	addi	a2,a2,-400 # 35e70 <_ZL9layer1_bq>
   109be:	27068693          	addi	a3,a3,624 # 36270 <_ZL16layer1_ln2_gamma>
   109c2:	47070713          	addi	a4,a4,1136 # 36470 <_ZL15layer1_ln1_beta>
   109c6:	b9878793          	addi	a5,a5,-1128 # 30b98 <__clzdi2+0x30a>
   109ca:	f0a2                	sd	s0,96(sp)
   109cc:	e5a6                	sd	s1,200(sp)
   109ce:	17010b13          	addi	s6,sp,368
   109d2:	16010a93          	addi	s5,sp,352
   109d6:	21010993          	addi	s3,sp,528
   109da:	270e8413          	addi	s0,t4,624 # 14f270 <_ZL15token_embedding>
   109de:	470e0a13          	addi	s4,t3,1136 # 14f470 <_ZL15token_embedding+0x200>
   109e2:	f11a                	sd	t1,160(sp)
   109e4:	e12a                	sd	a0,128(sp)
   109e6:	e22e                	sd	a1,256(sp)
   109e8:	f532                	sd	a2,168(sp)
   109ea:	f9b6                	sd	a3,240(sp)
   109ec:	ed3a                	sd	a4,152(sp)
   109ee:	e2be                	sd	a5,320(sp)
   109f0:	4481                	li	s1,0
   109f2:	4901                	li	s2,0
   109f4:	00435db7          	lui	s11,0x435
   109f8:	0042dd37          	lui	s10,0x42d
   109fc:	00425cb7          	lui	s9,0x425
   10a00:	00031c37          	lui	s8,0x31
   10a04:	00031bb7          	lui	s7,0x31
   10a08:	000b3603          	ld	a2,0(s6)
   10a0c:	000317b7          	lui	a5,0x31
   10a10:	2485                	addiw	s1,s1,1
   10a12:	85a6                	mv	a1,s1
   10a14:	b3078513          	addi	a0,a5,-1232 # 30b30 <__clzdi2+0x2a2>
   10a18:	082160ef          	jal	26a9a <printf>
   10a1c:	7706                	ld	a4,96(sp)
   10a1e:	0b0c                	addi	a1,sp,400
   10a20:	87ae                	mv	a5,a1
   10a22:	6314                	ld	a3,0(a4)
   10a24:	07a1                	addi	a5,a5,8
   10a26:	0721                	addi	a4,a4,8
   10a28:	fed7bc23          	sd	a3,-8(a5)
   10a2c:	ff379be3          	bne	a5,s3,10a22 <main+0x350>
   10a30:	689d                	lui	a7,0x7
   10a32:	001477b7          	lui	a5,0x147
   10a36:	73988893          	addi	a7,a7,1849 # 7739 <__cxa_bad_cast-0x89e7>
   10a3a:	27078813          	addi	a6,a5,624 # 147270 <_ZL18position_embedding>
   10a3e:	938d8513          	addi	a0,s11,-1736 # 434938 <_ZL10embeddings>
   10a42:	419c                	lw	a5,0(a1)
   10a44:	660d                	lui	a2,0x3
   10a46:	20060613          	addi	a2,a2,512 # 3200 <__cxa_bad_cast-0xcf20>
   10a4a:	00f8e463          	bltu	a7,a5,10a52 <main+0x380>
   10a4e:	0077961b          	slliw	a2,a5,0x7
   10a52:	060a                	slli	a2,a2,0x2
   10a54:	00c407b3          	add	a5,s0,a2
   10a58:	86aa                	mv	a3,a0
   10a5a:	9652                	add	a2,a2,s4
   10a5c:	8742                	mv	a4,a6
   10a5e:	0007a787          	flw	fa5,0(a5)
   10a62:	00072707          	flw	fa4,0(a4)
   10a66:	0791                	addi	a5,a5,4
   10a68:	0711                	addi	a4,a4,4
   10a6a:	00e7f7d3          	fadd.s	fa5,fa5,fa4
   10a6e:	0691                	addi	a3,a3,4
   10a70:	fef6ae27          	fsw	fa5,-4(a3)
   10a74:	fef615e3          	bne	a2,a5,10a5e <main+0x38c>
   10a78:	0591                	addi	a1,a1,4
   10a7a:	20080813          	addi	a6,a6,512
   10a7e:	20050513          	addi	a0,a0,512
   10a82:	fd3590e3          	bne	a1,s3,10a42 <main+0x370>
   10a86:	77e6                	ld	a5,120(sp)
   10a88:	6832                	ld	a6,264(sp)
   10a8a:	674e                	ld	a4,208(sp)
   10a8c:	e8be                	sd	a5,80(sp)
   10a8e:	77ee                	ld	a5,248(sp)
   10a90:	001376b7          	lui	a3,0x137
   10a94:	27068693          	addi	a3,a3,624 # 137270 <_ZL9layer0_Wq>
   10a98:	e4be                	sd	a5,72(sp)
   10a9a:	778a                	ld	a5,160(sp)
   10a9c:	02000613          	li	a2,32
   10aa0:	938d8593          	addi	a1,s11,-1736
   10aa4:	e0be                	sd	a5,64(sp)
   10aa6:	77b2                	ld	a5,296(sp)
   10aa8:	938d0513          	addi	a0,s10,-1736 # 42c938 <_ZL6hidden>
   10aac:	fc3e                	sd	a5,56(sp)
   10aae:	77ae                	ld	a5,232(sp)
   10ab0:	f83e                	sd	a5,48(sp)
   10ab2:	7792                	ld	a5,288(sp)
   10ab4:	f43e                	sd	a5,40(sp)
   10ab6:	67ca                	ld	a5,144(sp)
   10ab8:	f03e                	sd	a5,32(sp)
   10aba:	67f2                	ld	a5,280(sp)
   10abc:	ec3e                	sd	a5,24(sp)
   10abe:	67ee                	ld	a5,216(sp)
   10ac0:	e83e                	sd	a5,16(sp)
   10ac2:	67ae                	ld	a5,200(sp)
   10ac4:	e43e                	sd	a5,8(sp)
   10ac6:	678a                	ld	a5,128(sp)
   10ac8:	e03e                	sd	a5,0(sp)
   10aca:	001177b7          	lui	a5,0x117
   10ace:	27078893          	addi	a7,a5,624 # 117270 <_ZL9layer0_Wv>
   10ad2:	001277b7          	lui	a5,0x127
   10ad6:	27078793          	addi	a5,a5,624 # 127270 <_ZL9layer0_Wk>
   10ada:	0fb000ef          	jal	113d4 <_Z34transformer_encoder_layer_photonicPfPKfiS1_S1_S1_S1_S1_S1_S1_S1_S1_S1_S1_S1_S1_S1_S1_S1_>
   10ade:	77d2                	ld	a5,304(sp)
   10ae0:	772a                	ld	a4,168(sp)
   10ae2:	6812                	ld	a6,256(sp)
   10ae4:	e8be                	sd	a5,80(sp)
   10ae6:	77ce                	ld	a5,240(sp)
   10ae8:	000b76b7          	lui	a3,0xb7
   10aec:	27068693          	addi	a3,a3,624 # b7270 <_ZL9layer1_Wq>
   10af0:	e4be                	sd	a5,72(sp)
   10af2:	67ea                	ld	a5,152(sp)
   10af4:	938d0593          	addi	a1,s10,-1736
   10af8:	938c8513          	addi	a0,s9,-1736 # 424938 <_ZL7hidden2>
   10afc:	e0be                	sd	a5,64(sp)
   10afe:	67d2                	ld	a5,272(sp)
   10b00:	02000613          	li	a2,32
   10b04:	fc3e                	sd	a5,56(sp)
   10b06:	778e                	ld	a5,224(sp)
   10b08:	f83e                	sd	a5,48(sp)
   10b0a:	678e                	ld	a5,192(sp)
   10b0c:	f43e                	sd	a5,40(sp)
   10b0e:	67aa                	ld	a5,136(sp)
   10b10:	f03e                	sd	a5,32(sp)
   10b12:	77ea                	ld	a5,184(sp)
   10b14:	ec3e                	sd	a5,24(sp)
   10b16:	77ca                	ld	a5,176(sp)
   10b18:	e83e                	sd	a5,16(sp)
   10b1a:	77c6                	ld	a5,112(sp)
   10b1c:	e43e                	sd	a5,8(sp)
   10b1e:	77a6                	ld	a5,104(sp)
   10b20:	e03e                	sd	a5,0(sp)
   10b22:	000977b7          	lui	a5,0x97
   10b26:	27078893          	addi	a7,a5,624 # 97270 <_ZL9layer1_Wv>
   10b2a:	000a77b7          	lui	a5,0xa7
   10b2e:	27078793          	addi	a5,a5,624 # a7270 <_ZL9layer1_Wk>
   10b32:	0a3000ef          	jal	113d4 <_Z34transformer_encoder_layer_photonicPfPKfiS1_S1_S1_S1_S1_S1_S1_S1_S1_S1_S1_S1_S1_S1_S1_S1_>
   10b36:	0aac                	addi	a1,sp,344
   10b38:	938c8513          	addi	a0,s9,-1736
   10b3c:	2d9000ef          	jal	11614 <_Z17classify_photonicPKfPf>
   10b40:	4705                	li	a4,1
   10b42:	000aa783          	lw	a5,0(s5)
   10b46:	0ce50563          	beq	a0,a4,10c10 <main+0x53e>
   10b4a:	10e78a63          	beq	a5,a4,10c5e <main+0x58c>
   10b4e:	cfe1                	beqz	a5,10c26 <main+0x554>
   10b50:	00031737          	lui	a4,0x31
   10b54:	8d070713          	addi	a4,a4,-1840 # 308d0 <__clzdi2+0x42>
   10b58:	85ba                	mv	a1,a4
   10b5a:	00251793          	slli	a5,a0,0x2
   10b5e:	978a                	add	a5,a5,sp
   10b60:	1587a787          	flw	fa5,344(a5)
   10b64:	b78c0513          	addi	a0,s8,-1160 # 30b78 <__clzdi2+0x2ea>
   10b68:	e6ba                	sd	a4,328(sp)
   10b6a:	1087f7d3          	fmul.s	fa5,fa5,fs0
   10b6e:	420787d3          	fcvt.d.s	fa5,fa5
   10b72:	e2078653          	fmv.x.d	a2,fa5
   10b76:	725150ef          	jal	26a9a <printf>
   10b7a:	7672                	ld	a2,312(sp)
   10b7c:	65b6                	ld	a1,328(sp)
   10b7e:	ba0b8513          	addi	a0,s7,-1120 # 30ba0 <__clzdi2+0x312>
   10b82:	719150ef          	jal	26a9a <printf>
   10b86:	7706                	ld	a4,96(sp)
   10b88:	4791                	li	a5,4
   10b8a:	0b21                	addi	s6,s6,8
   10b8c:	08070713          	addi	a4,a4,128
   10b90:	f0ba                	sd	a4,96(sp)
   10b92:	9abe                	add	s5,s5,a5
   10b94:	e6f49ae3          	bne	s1,a5,10a08 <main+0x336>
   10b98:	00031437          	lui	s0,0x31
   10b9c:	8e040513          	addi	a0,s0,-1824 # 308e0 <__clzdi2+0x52>
   10ba0:	0d6160ef          	jal	26c76 <puts>
   10ba4:	8b81a707          	flw	fa4,-1864(gp) # 3cc718 <mask+0x80>
   10ba8:	d00977d3          	fcvt.s.w	fa5,s2
   10bac:	00031537          	lui	a0,0x31
   10bb0:	8626                	mv	a2,s1
   10bb2:	10e7f7d3          	fmul.s	fa5,fa5,fa4
   10bb6:	85ca                	mv	a1,s2
   10bb8:	b4850513          	addi	a0,a0,-1208 # 30b48 <__clzdi2+0x2ba>
   10bbc:	420787d3          	fcvt.d.s	fa5,fa5
   10bc0:	e20786d3          	fmv.x.d	a3,fa5
   10bc4:	6d7150ef          	jal	26a9a <printf>
   10bc8:	8e040513          	addi	a0,s0,-1824
   10bcc:	0aa160ef          	jal	26c76 <puts>
   10bd0:	50813083          	ld	ra,1288(sp)
   10bd4:	50013403          	ld	s0,1280(sp)
   10bd8:	4f813483          	ld	s1,1272(sp)
   10bdc:	4f013903          	ld	s2,1264(sp)
   10be0:	4e813983          	ld	s3,1256(sp)
   10be4:	4e013a03          	ld	s4,1248(sp)
   10be8:	4d813a83          	ld	s5,1240(sp)
   10bec:	4d013b03          	ld	s6,1232(sp)
   10bf0:	4c813b83          	ld	s7,1224(sp)
   10bf4:	4c013c03          	ld	s8,1216(sp)
   10bf8:	4b813c83          	ld	s9,1208(sp)
   10bfc:	4b013d03          	ld	s10,1200(sp)
   10c00:	4a813d83          	ld	s11,1192(sp)
   10c04:	49813407          	fld	fs0,1176(sp)
   10c08:	4501                	li	a0,0
   10c0a:	51010113          	addi	sp,sp,1296
   10c0e:	8082                	ret
   10c10:	06a78063          	beq	a5,a0,10c70 <main+0x59e>
   10c14:	00031737          	lui	a4,0x31
   10c18:	000315b7          	lui	a1,0x31
   10c1c:	8d070713          	addi	a4,a4,-1840 # 308d0 <__clzdi2+0x42>
   10c20:	8c058593          	addi	a1,a1,-1856 # 308c0 <__clzdi2+0x32>
   10c24:	bf1d                	j	10b5a <main+0x488>
   10c26:	000315b7          	lui	a1,0x31
   10c2a:	8d058593          	addi	a1,a1,-1840 # 308d0 <__clzdi2+0x42>
   10c2e:	00251793          	slli	a5,a0,0x2
   10c32:	978a                	add	a5,a5,sp
   10c34:	1587a787          	flw	fa5,344(a5)
   10c38:	b78c0513          	addi	a0,s8,-1160
   10c3c:	e6ae                	sd	a1,328(sp)
   10c3e:	1087f7d3          	fmul.s	fa5,fa5,fs0
   10c42:	2905                	addiw	s2,s2,1
   10c44:	420787d3          	fcvt.d.s	fa5,fa5
   10c48:	e2078653          	fmv.x.d	a2,fa5
   10c4c:	64f150ef          	jal	26a9a <printf>
   10c50:	6616                	ld	a2,320(sp)
   10c52:	65b6                	ld	a1,328(sp)
   10c54:	ba0b8513          	addi	a0,s7,-1120
   10c58:	643150ef          	jal	26a9a <printf>
   10c5c:	b72d                	j	10b86 <main+0x4b4>
   10c5e:	00031737          	lui	a4,0x31
   10c62:	000315b7          	lui	a1,0x31
   10c66:	8c070713          	addi	a4,a4,-1856 # 308c0 <__clzdi2+0x32>
   10c6a:	8d058593          	addi	a1,a1,-1840 # 308d0 <__clzdi2+0x42>
   10c6e:	b5f5                	j	10b5a <main+0x488>
   10c70:	000315b7          	lui	a1,0x31
   10c74:	8c058593          	addi	a1,a1,-1856 # 308c0 <__clzdi2+0x32>
   10c78:	bf5d                	j	10c2e <main+0x55c>

0000000000010c7a <_GLOBAL__sub_I__ZN9__gnu_cxx9__freeresEv>:
   10c7a:	7175                	addi	sp,sp,-144
   10c7c:	fca6                	sd	s1,120(sp)
   10c7e:	00032537          	lui	a0,0x32
   10c82:	004434b7          	lui	s1,0x443
   10c86:	e122                	sd	s0,128(sp)
   10c88:	f4ce                	sd	s3,104(sp)
   10c8a:	f0d2                	sd	s4,96(sp)
   10c8c:	e506                	sd	ra,136(sp)
   10c8e:	f8ca                	sd	s2,112(sp)
   10c90:	8c048493          	addi	s1,s1,-1856 # 4428c0 <_ZN12_GLOBAL__N_1L14emergency_poolE>
   10c94:	6b850513          	addi	a0,a0,1720 # 326b8 <__clzdi2+0x1e2a>
   10c98:	0004b423          	sd	zero,8(s1)
   10c9c:	0004b823          	sd	zero,16(s1)
   10ca0:	0004bc23          	sd	zero,24(s1)
   10ca4:	44e130ef          	jal	240f2 <getenv>
   10ca8:	47bd                	li	a5,15
   10caa:	f03e                	sd	a5,32(sp)
   10cac:	000327b7          	lui	a5,0x32
   10cb0:	6d078793          	addi	a5,a5,1744 # 326d0 <__clzdi2+0x1e42>
   10cb4:	f43e                	sd	a5,40(sp)
   10cb6:	47a1                	li	a5,8
   10cb8:	f83e                	sd	a5,48(sp)
   10cba:	000327b7          	lui	a5,0x32
   10cbe:	6e078793          	addi	a5,a5,1760 # 326e0 <__clzdi2+0x1e52>
   10cc2:	fc3e                	sd	a5,56(sp)
   10cc4:	47a5                	li	a5,9
   10cc6:	e4be                	sd	a5,72(sp)
   10cc8:	000327b7          	lui	a5,0x32
   10ccc:	6f078793          	addi	a5,a5,1776 # 326f0 <__clzdi2+0x1e62>
   10cd0:	e8be                	sd	a5,80(sp)
   10cd2:	4791                	li	a5,4
   10cd4:	842a                	mv	s0,a0
   10cd6:	e082                	sd	zero,64(sp)
   10cd8:	ccbe                	sw	a5,88(sp)
   10cda:	03a00993          	li	s3,58
   10cde:	02e00a13          	li	s4,46
   10ce2:	e031                	bnez	s0,10d26 <_GLOBAL__sub_I__ZN9__gnu_cxx9__freeresEv+0xac>
   10ce4:	46e6                	lw	a3,88(sp)
   10ce6:	04000713          	li	a4,64
   10cea:	0006879b          	sext.w	a5,a3
   10cee:	00d75463          	bge	a4,a3,10cf6 <_GLOBAL__sub_I__ZN9__gnu_cxx9__freeresEv+0x7c>
   10cf2:	0007079b          	sext.w	a5,a4
   10cf6:	4406                	lw	s0,64(sp)
   10cf8:	e011                	bnez	s0,10cfc <_GLOBAL__sub_I__ZN9__gnu_cxx9__freeresEv+0x82>
   10cfa:	4419                	li	s0,6
   10cfc:	0479                	addi	s0,s0,30
   10cfe:	02f40433          	mul	s0,s0,a5
   10d02:	040e                	slli	s0,s0,0x3
   10d04:	ec80                	sd	s0,24(s1)
   10d06:	c801                	beqz	s0,10d16 <_GLOBAL__sub_I__ZN9__gnu_cxx9__freeresEv+0x9c>
   10d08:	8522                	mv	a0,s0
   10d0a:	4d2130ef          	jal	241dc <malloc>
   10d0e:	e888                	sd	a0,16(s1)
   10d10:	e555                	bnez	a0,10dbc <_GLOBAL__sub_I__ZN9__gnu_cxx9__freeresEv+0x142>
   10d12:	0004bc23          	sd	zero,24(s1)
   10d16:	60aa                	ld	ra,136(sp)
   10d18:	640a                	ld	s0,128(sp)
   10d1a:	74e6                	ld	s1,120(sp)
   10d1c:	7946                	ld	s2,112(sp)
   10d1e:	79a6                	ld	s3,104(sp)
   10d20:	7a06                	ld	s4,96(sp)
   10d22:	6149                	addi	sp,sp,144
   10d24:	8082                	ret
   10d26:	00044783          	lbu	a5,0(s0)
   10d2a:	01379363          	bne	a5,s3,10d30 <_GLOBAL__sub_I__ZN9__gnu_cxx9__freeresEv+0xb6>
   10d2e:	0405                	addi	s0,s0,1
   10d30:	473d                	li	a4,15
   10d32:	86a2                	mv	a3,s0
   10d34:	863a                	mv	a2,a4
   10d36:	4581                	li	a1,0
   10d38:	1008                	addi	a0,sp,32
   10d3a:	0d3050ef          	jal	1660c <_ZNKSt17basic_string_viewIcSt11char_traitsIcEE7compareEmmPKcm>
   10d3e:	ed1d                	bnez	a0,10d7c <_GLOBAL__sub_I__ZN9__gnu_cxx9__freeresEv+0x102>
   10d40:	00f44783          	lbu	a5,15(s0)
   10d44:	03479c63          	bne	a5,s4,10d7c <_GLOBAL__sub_I__ZN9__gnu_cxx9__freeresEv+0x102>
   10d48:	0441                	addi	s0,s0,16
   10d4a:	03010913          	addi	s2,sp,48
   10d4e:	00093703          	ld	a4,0(s2)
   10d52:	86a2                	mv	a3,s0
   10d54:	4581                	li	a1,0
   10d56:	863a                	mv	a2,a4
   10d58:	854a                	mv	a0,s2
   10d5a:	e43a                	sd	a4,8(sp)
   10d5c:	0b1050ef          	jal	1660c <_ZNKSt17basic_string_viewIcSt11char_traitsIcEE7compareEmmPKcm>
   10d60:	e911                	bnez	a0,10d74 <_GLOBAL__sub_I__ZN9__gnu_cxx9__freeresEv+0xfa>
   10d62:	6722                	ld	a4,8(sp)
   10d64:	00e407b3          	add	a5,s0,a4
   10d68:	0007c683          	lbu	a3,0(a5)
   10d6c:	03d00793          	li	a5,61
   10d70:	00f68d63          	beq	a3,a5,10d8a <_GLOBAL__sub_I__ZN9__gnu_cxx9__freeresEv+0x110>
   10d74:	0961                	addi	s2,s2,24
   10d76:	109c                	addi	a5,sp,96
   10d78:	fcf91be3          	bne	s2,a5,10d4e <_GLOBAL__sub_I__ZN9__gnu_cxx9__freeresEv+0xd4>
   10d7c:	8522                	mv	a0,s0
   10d7e:	03a00593          	li	a1,58
   10d82:	786160ef          	jal	27508 <strchr>
   10d86:	842a                	mv	s0,a0
   10d88:	bfa9                	j	10ce2 <_GLOBAL__sub_I__ZN9__gnu_cxx9__freeresEv+0x68>
   10d8a:	0705                	addi	a4,a4,1
   10d8c:	00e40533          	add	a0,s0,a4
   10d90:	4601                	li	a2,0
   10d92:	082c                	addi	a1,sp,24
   10d94:	0e0140ef          	jal	24e74 <strtoul>
   10d98:	6462                	ld	s0,24(sp)
   10d9a:	00044703          	lbu	a4,0(s0)
   10d9e:	fc670793          	addi	a5,a4,-58
   10da2:	0017b793          	seqz	a5,a5
   10da6:	00173713          	seqz	a4,a4
   10daa:	8fd9                	or	a5,a5,a4
   10dac:	dbe1                	beqz	a5,10d7c <_GLOBAL__sub_I__ZN9__gnu_cxx9__freeresEv+0x102>
   10dae:	4785                	li	a5,1
   10db0:	07fe                	slli	a5,a5,0x1f
   10db2:	fcf575e3          	bgeu	a0,a5,10d7c <_GLOBAL__sub_I__ZN9__gnu_cxx9__freeresEv+0x102>
   10db6:	00a92823          	sw	a0,16(s2)
   10dba:	b7c9                	j	10d7c <_GLOBAL__sub_I__ZN9__gnu_cxx9__freeresEv+0x102>
   10dbc:	e488                	sd	a0,8(s1)
   10dbe:	e100                	sd	s0,0(a0)
   10dc0:	00053423          	sd	zero,8(a0)
   10dc4:	bf89                	j	10d16 <_GLOBAL__sub_I__ZN9__gnu_cxx9__freeresEv+0x9c>

0000000000010dc6 <_GLOBAL__sub_I__ZSt20__throw_system_errori>:
   10dc6:	8082                	ret

0000000000010dc8 <register_fini>:
   10dc8:	00000793          	li	a5,0
   10dcc:	c799                	beqz	a5,10dda <register_fini+0x12>
   10dce:	0002d537          	lui	a0,0x2d
   10dd2:	d9e50513          	addi	a0,a0,-610 # 2cd9e <__libc_fini_array>
   10dd6:	52c1706f          	j	28302 <atexit>
   10dda:	8082                	ret

0000000000010ddc <_start>:
   10ddc:	003bc197          	auipc	gp,0x3bc
   10de0:	08418193          	addi	gp,gp,132 # 3cce60 <__global_pointer$>
   10de4:	003bc517          	auipc	a0,0x3bc
   10de8:	ab450513          	addi	a0,a0,-1356 # 3cc898 <_ZZN9__gnu_cxx27__verbose_terminate_handlerEvE11terminating>
   10dec:	00432617          	auipc	a2,0x432
   10df0:	0fc60613          	addi	a2,a2,252 # 442ee8 <__BSS_END__>
   10df4:	8e09                	sub	a2,a2,a0
   10df6:	4581                	li	a1,0
   10df8:	07e170ef          	jal	27e76 <memset>
   10dfc:	00017517          	auipc	a0,0x17
   10e00:	50650513          	addi	a0,a0,1286 # 28302 <atexit>
   10e04:	c519                	beqz	a0,10e12 <_start+0x36>
   10e06:	0001c517          	auipc	a0,0x1c
   10e0a:	f9850513          	addi	a0,a0,-104 # 2cd9e <__libc_fini_array>
   10e0e:	4f4170ef          	jal	28302 <atexit>
   10e12:	719160ef          	jal	27d2a <__libc_init_array>
   10e16:	4502                	lw	a0,0(sp)
   10e18:	002c                	addi	a1,sp,8
   10e1a:	4601                	li	a2,0
   10e1c:	8b7ff0ef          	jal	106d2 <main>
   10e20:	897ff06f          	j	106b6 <exit>

0000000000010e24 <__do_global_dtors_aux>:
   10e24:	1141                	addi	sp,sp,-16
   10e26:	e022                	sd	s0,0(sp)
   10e28:	aa01c783          	lbu	a5,-1376(gp) # 3cc900 <completed.1>
   10e2c:	e406                	sd	ra,8(sp)
   10e2e:	ef99                	bnez	a5,10e4c <__do_global_dtors_aux+0x28>
   10e30:	000247b7          	lui	a5,0x24
   10e34:	fba78793          	addi	a5,a5,-70 # 23fba <__deregister_frame_info>
   10e38:	c799                	beqz	a5,10e46 <__do_global_dtors_aux+0x22>
   10e3a:	003c3537          	lui	a0,0x3c3
   10e3e:	ff050513          	addi	a0,a0,-16 # 3c2ff0 <__EH_FRAME_BEGIN__>
   10e42:	178130ef          	jal	23fba <__deregister_frame_info>
   10e46:	4785                	li	a5,1
   10e48:	aaf18023          	sb	a5,-1376(gp) # 3cc900 <completed.1>
   10e4c:	60a2                	ld	ra,8(sp)
   10e4e:	6402                	ld	s0,0(sp)
   10e50:	0141                	addi	sp,sp,16
   10e52:	8082                	ret

0000000000010e54 <frame_dummy>:
   10e54:	000247b7          	lui	a5,0x24
   10e58:	edc78793          	addi	a5,a5,-292 # 23edc <__register_frame_info>
   10e5c:	cb89                	beqz	a5,10e6e <frame_dummy+0x1a>
   10e5e:	003c3537          	lui	a0,0x3c3
   10e62:	aa818593          	addi	a1,gp,-1368 # 3cc908 <object.0>
   10e66:	ff050513          	addi	a0,a0,-16 # 3c2ff0 <__EH_FRAME_BEGIN__>
   10e6a:	0721306f          	j	23edc <__register_frame_info>
   10e6e:	8082                	ret

0000000000010e70 <_Z10layer_normPfPKfS1_S1_if>:
   10e70:	08e05463          	blez	a4,10ef8 <_Z10layer_normPfPKfS1_S1_if+0x88>
   10e74:	f00007d3          	fmv.w.x	fa5,zero
   10e78:	00271313          	slli	t1,a4,0x2
   10e7c:	006588b3          	add	a7,a1,t1
   10e80:	87ae                	mv	a5,a1
   10e82:	882e                	mv	a6,a1
   10e84:	00082707          	flw	fa4,0(a6)
   10e88:	0811                	addi	a6,a6,4
   10e8a:	00e7f7d3          	fadd.s	fa5,fa5,fa4
   10e8e:	ff089be3          	bne	a7,a6,10e84 <_Z10layer_normPfPKfS1_S1_if+0x14>
   10e92:	d0077653          	fcvt.s.w	fa2,a4
   10e96:	f00006d3          	fmv.w.x	fa3,zero
   10e9a:	18c7f753          	fdiv.s	fa4,fa5,fa2
   10e9e:	0007a787          	flw	fa5,0(a5)
   10ea2:	0791                	addi	a5,a5,4
   10ea4:	08e7f7d3          	fsub.s	fa5,fa5,fa4
   10ea8:	68f7f6c3          	fmadd.s	fa3,fa5,fa5,fa3
   10eac:	fef899e3          	bne	a7,a5,10e9e <_Z10layer_normPfPKfS1_S1_if+0x2e>
   10eb0:	8a01a587          	flw	fa1,-1888(gp) # 3cc700 <mask+0x68>
   10eb4:	4781                	li	a5,0
   10eb6:	18c6f6d3          	fdiv.s	fa3,fa3,fa2
   10eba:	00a6f6d3          	fadd.s	fa3,fa3,fa0
   10ebe:	5806f6d3          	fsqrt.s	fa3,fa3
   10ec2:	18d5f5d3          	fdiv.s	fa1,fa1,fa3
   10ec6:	00f60733          	add	a4,a2,a5
   10eca:	00f58833          	add	a6,a1,a5
   10ece:	00072687          	flw	fa3,0(a4)
   10ed2:	00082787          	flw	fa5,0(a6)
   10ed6:	00f68733          	add	a4,a3,a5
   10eda:	10d5f6d3          	fmul.s	fa3,fa1,fa3
   10ede:	08e7f7d3          	fsub.s	fa5,fa5,fa4
   10ee2:	00072607          	flw	fa2,0(a4)
   10ee6:	00f50733          	add	a4,a0,a5
   10eea:	0791                	addi	a5,a5,4
   10eec:	60d7f7c3          	fmadd.s	fa5,fa5,fa3,fa2
   10ef0:	00f72027          	fsw	fa5,0(a4)
   10ef4:	fcf319e3          	bne	t1,a5,10ec6 <_Z10layer_normPfPKfS1_S1_if+0x56>
   10ef8:	8082                	ret

0000000000010efa <_Z13layer_norm_2dPfPKfS1_S1_iif>:
   10efa:	06e05263          	blez	a4,10f5e <_Z13layer_norm_2dPfPKfS1_S1_iif+0x64>
   10efe:	711d                	addi	sp,sp,-96
   10f00:	a422                	fsd	fs0,8(sp)
   10f02:	20a50453          	fmv.s	fs0,fa0
   10f06:	e8a2                	sd	s0,80(sp)
   10f08:	e4a6                	sd	s1,72(sp)
   10f0a:	e0ca                	sd	s2,64(sp)
   10f0c:	fc4e                	sd	s3,56(sp)
   10f0e:	f852                	sd	s4,48(sp)
   10f10:	f456                	sd	s5,40(sp)
   10f12:	f05a                	sd	s6,32(sp)
   10f14:	ec5e                	sd	s7,24(sp)
   10f16:	ec86                	sd	ra,88(sp)
   10f18:	8abe                	mv	s5,a5
   10f1a:	8bb6                	mv	s7,a3
   10f1c:	8b32                	mv	s6,a2
   10f1e:	8a3a                	mv	s4,a4
   10f20:	84aa                	mv	s1,a0
   10f22:	842e                	mv	s0,a1
   10f24:	00279993          	slli	s3,a5,0x2
   10f28:	4901                	li	s2,0
   10f2a:	20840553          	fmv.s	fa0,fs0
   10f2e:	85a2                	mv	a1,s0
   10f30:	8526                	mv	a0,s1
   10f32:	8756                	mv	a4,s5
   10f34:	86de                	mv	a3,s7
   10f36:	865a                	mv	a2,s6
   10f38:	2905                	addiw	s2,s2,1
   10f3a:	f37ff0ef          	jal	10e70 <_Z10layer_normPfPKfS1_S1_if>
   10f3e:	94ce                	add	s1,s1,s3
   10f40:	944e                	add	s0,s0,s3
   10f42:	ff2a14e3          	bne	s4,s2,10f2a <_Z13layer_norm_2dPfPKfS1_S1_iif+0x30>
   10f46:	60e6                	ld	ra,88(sp)
   10f48:	6446                	ld	s0,80(sp)
   10f4a:	64a6                	ld	s1,72(sp)
   10f4c:	6906                	ld	s2,64(sp)
   10f4e:	79e2                	ld	s3,56(sp)
   10f50:	7a42                	ld	s4,48(sp)
   10f52:	7aa2                	ld	s5,40(sp)
   10f54:	7b02                	ld	s6,32(sp)
   10f56:	6be2                	ld	s7,24(sp)
   10f58:	2422                	fld	fs0,8(sp)
   10f5a:	6125                	addi	sp,sp,96
   10f5c:	8082                	ret
   10f5e:	8082                	ret

0000000000010f60 <_Z11softmax_rowPfi>:
   10f60:	7179                	addi	sp,sp,-48
   10f62:	a422                	fsd	fs0,8(sp)
   10f64:	f406                	sd	ra,40(sp)
   10f66:	4785                	li	a5,1
   10f68:	00052407          	flw	fs0,0(a0)
   10f6c:	08b7d163          	bge	a5,a1,10fee <_Z11softmax_rowPfi+0x8e>
   10f70:	ffe5871b          	addiw	a4,a1,-2
   10f74:	02071793          	slli	a5,a4,0x20
   10f78:	01e7d713          	srli	a4,a5,0x1e
   10f7c:	00850793          	addi	a5,a0,8
   10f80:	973e                	add	a4,a4,a5
   10f82:	f022                	sd	s0,32(sp)
   10f84:	ec26                	sd	s1,24(sp)
   10f86:	e84a                	sd	s2,16(sp)
   10f88:	a026                	fsd	fs1,0(sp)
   10f8a:	00450793          	addi	a5,a0,4
   10f8e:	0007a787          	flw	fa5,0(a5)
   10f92:	0791                	addi	a5,a5,4
   10f94:	28f41453          	fmax.s	fs0,fs0,fa5
   10f98:	fee79be3          	bne	a5,a4,10f8e <_Z11softmax_rowPfi+0x2e>
   10f9c:	f00004d3          	fmv.w.x	fs1,zero
   10fa0:	058a                	slli	a1,a1,0x2
   10fa2:	842a                	mv	s0,a0
   10fa4:	00b50933          	add	s2,a0,a1
   10fa8:	84aa                	mv	s1,a0
   10faa:	0004a507          	flw	fa0,0(s1)
   10fae:	0491                	addi	s1,s1,4
   10fb0:	08857553          	fsub.s	fa0,fa0,fs0
   10fb4:	34b0f0ef          	jal	20afe <expf>
   10fb8:	fea4ae27          	fsw	fa0,-4(s1)
   10fbc:	00a4f4d3          	fadd.s	fs1,fs1,fa0
   10fc0:	ff2495e3          	bne	s1,s2,10faa <_Z11softmax_rowPfi+0x4a>
   10fc4:	8a01a707          	flw	fa4,-1888(gp) # 3cc700 <mask+0x68>
   10fc8:	18977753          	fdiv.s	fa4,fa4,fs1
   10fcc:	00042787          	flw	fa5,0(s0)
   10fd0:	0411                	addi	s0,s0,4
   10fd2:	10e7f7d3          	fmul.s	fa5,fa5,fa4
   10fd6:	fef42e27          	fsw	fa5,-4(s0)
   10fda:	ff2419e3          	bne	s0,s2,10fcc <_Z11softmax_rowPfi+0x6c>
   10fde:	7402                	ld	s0,32(sp)
   10fe0:	64e2                	ld	s1,24(sp)
   10fe2:	6942                	ld	s2,16(sp)
   10fe4:	2482                	fld	fs1,0(sp)
   10fe6:	70a2                	ld	ra,40(sp)
   10fe8:	2422                	fld	fs0,8(sp)
   10fea:	6145                	addi	sp,sp,48
   10fec:	8082                	ret
   10fee:	fef59ce3          	bne	a1,a5,10fe6 <_Z11softmax_rowPfi+0x86>
   10ff2:	f022                	sd	s0,32(sp)
   10ff4:	ec26                	sd	s1,24(sp)
   10ff6:	e84a                	sd	s2,16(sp)
   10ff8:	a026                	fsd	fs1,0(sp)
   10ffa:	b74d                	j	10f9c <_Z11softmax_rowPfi+0x3c>

0000000000010ffc <_Z4geluf>:
   10ffc:	10a577d3          	fmul.s	fa5,fa0,fa0
   11000:	1101                	addi	sp,sp,-32
   11002:	a026                	fsd	fs1,0(sp)
   11004:	8a41a707          	flw	fa4,-1884(gp) # 3cc704 <mask+0x6c>
   11008:	8a01a487          	flw	fs1,-1888(gp) # 3cc700 <mask+0x68>
   1100c:	a422                	fsd	fs0,8(sp)
   1100e:	20a50453          	fmv.s	fs0,fa0
   11012:	48e7f7c3          	fmadd.s	fa5,fa5,fa4,fs1
   11016:	8a81a507          	flw	fa0,-1880(gp) # 3cc708 <mask+0x70>
   1101a:	ec06                	sd	ra,24(sp)
   1101c:	1087f7d3          	fmul.s	fa5,fa5,fs0
   11020:	10a7f553          	fmul.s	fa0,fa5,fa0
   11024:	5020f0ef          	jal	20526 <tanhf>
   11028:	8ac1a787          	flw	fa5,-1876(gp) # 3cc70c <mask+0x74>
   1102c:	00957553          	fadd.s	fa0,fa0,fs1
   11030:	60e2                	ld	ra,24(sp)
   11032:	10f47453          	fmul.s	fs0,fs0,fa5
   11036:	2482                	fld	fs1,0(sp)
   11038:	10857553          	fmul.s	fa0,fa0,fs0
   1103c:	2422                	fld	fs0,8(sp)
   1103e:	6105                	addi	sp,sp,32
   11040:	8082                	ret

0000000000011042 <_Z21photonic_linear_layerPfPKfS1_S1_ii>:
   11042:	882e                	mv	a6,a1
   11044:	85b2                	mv	a1,a2
   11046:	8642                	mv	a2,a6
   11048:	5560306f          	j	1459e <_Z20photonic_linear_fp32PfPKfS1_S1_mm>

000000000001104c <_Z18photonic_linear_2dPfPKfS1_S1_iii>:
   1104c:	06e05463          	blez	a4,110b4 <_Z18photonic_linear_2dPfPKfS1_S1_iii+0x68>
   11050:	711d                	addi	sp,sp,-96
   11052:	e8a2                	sd	s0,80(sp)
   11054:	e4a6                	sd	s1,72(sp)
   11056:	e0ca                	sd	s2,64(sp)
   11058:	fc4e                	sd	s3,56(sp)
   1105a:	f852                	sd	s4,48(sp)
   1105c:	f456                	sd	s5,40(sp)
   1105e:	f05a                	sd	s6,32(sp)
   11060:	ec5e                	sd	s7,24(sp)
   11062:	e862                	sd	s8,16(sp)
   11064:	e466                	sd	s9,8(sp)
   11066:	ec86                	sd	ra,88(sp)
   11068:	8a42                	mv	s4,a6
   1106a:	8abe                	mv	s5,a5
   1106c:	8bb6                	mv	s7,a3
   1106e:	8b32                	mv	s6,a2
   11070:	89ba                	mv	s3,a4
   11072:	84aa                	mv	s1,a0
   11074:	842e                	mv	s0,a1
   11076:	00279c93          	slli	s9,a5,0x2
   1107a:	00281c13          	slli	s8,a6,0x2
   1107e:	4901                	li	s2,0
   11080:	8622                	mv	a2,s0
   11082:	8526                	mv	a0,s1
   11084:	87d2                	mv	a5,s4
   11086:	8756                	mv	a4,s5
   11088:	86de                	mv	a3,s7
   1108a:	85da                	mv	a1,s6
   1108c:	2905                	addiw	s2,s2,1
   1108e:	510030ef          	jal	1459e <_Z20photonic_linear_fp32PfPKfS1_S1_mm>
   11092:	94e6                	add	s1,s1,s9
   11094:	9462                	add	s0,s0,s8
   11096:	ff2995e3          	bne	s3,s2,11080 <_Z18photonic_linear_2dPfPKfS1_S1_iii+0x34>
   1109a:	60e6                	ld	ra,88(sp)
   1109c:	6446                	ld	s0,80(sp)
   1109e:	64a6                	ld	s1,72(sp)
   110a0:	6906                	ld	s2,64(sp)
   110a2:	79e2                	ld	s3,56(sp)
   110a4:	7a42                	ld	s4,48(sp)
   110a6:	7aa2                	ld	s5,40(sp)
   110a8:	7b02                	ld	s6,32(sp)
   110aa:	6be2                	ld	s7,24(sp)
   110ac:	6c42                	ld	s8,16(sp)
   110ae:	6ca2                	ld	s9,8(sp)
   110b0:	6125                	addi	sp,sp,96
   110b2:	8082                	ret
   110b4:	8082                	ret

00000000000110b6 <_Z28multihead_attention_photonicPfPKfiS1_S1_S1_S1_S1_S1_S1_S1_>:
   110b6:	7135                	addi	sp,sp,-160
   110b8:	e922                	sd	s0,144(sp)
   110ba:	ed06                	sd	ra,152(sp)
   110bc:	e526                	sd	s1,136(sp)
   110be:	e14a                	sd	s2,128(sp)
   110c0:	fcce                	sd	s3,120(sp)
   110c2:	f8d2                	sd	s4,112(sp)
   110c4:	f4d6                	sd	s5,104(sp)
   110c6:	f0da                	sd	s6,96(sp)
   110c8:	ecde                	sd	s7,88(sp)
   110ca:	e8e2                	sd	s8,80(sp)
   110cc:	e4e6                	sd	s9,72(sp)
   110ce:	e0ea                	sd	s10,64(sp)
   110d0:	fc6e                	sd	s11,56(sp)
   110d2:	b422                	fsd	fs0,40(sp)
   110d4:	e42a                	sd	a0,8(sp)
   110d6:	8432                	mv	s0,a2
   110d8:	08c05663          	blez	a2,11164 <_Z28multihead_attention_photonicPfPKfiS1_S1_S1_S1_S1_S1_S1_S1_+0xae>
   110dc:	8bbe                	mv	s7,a5
   110de:	00961993          	slli	s3,a2,0x9
   110e2:	0040d7b7          	lui	a5,0x40d
   110e6:	892e                	mv	s2,a1
   110e8:	8b36                	mv	s6,a3
   110ea:	8c3a                	mv	s8,a4
   110ec:	8cc2                	mv	s9,a6
   110ee:	8ac6                	mv	s5,a7
   110f0:	93878493          	addi	s1,a5,-1736 # 40c938 <_ZL1Q>
   110f4:	99ae                	add	s3,s3,a1
   110f6:	8a2e                	mv	s4,a1
   110f8:	8d2e                	mv	s10,a1
   110fa:	08000793          	li	a5,128
   110fe:	866a                	mv	a2,s10
   11100:	8526                	mv	a0,s1
   11102:	873e                	mv	a4,a5
   11104:	86e2                	mv	a3,s8
   11106:	85da                	mv	a1,s6
   11108:	200d0d13          	addi	s10,s10,512
   1110c:	492030ef          	jal	1459e <_Z20photonic_linear_fp32PfPKfS1_S1_mm>
   11110:	20048493          	addi	s1,s1,512
   11114:	ff3d13e3          	bne	s10,s3,110fa <_Z28multihead_attention_photonicPfPKfiS1_S1_S1_S1_S1_S1_S1_S1_+0x44>
   11118:	00405b37          	lui	s6,0x405
   1111c:	938b0b13          	addi	s6,s6,-1736 # 404938 <_ZL1K>
   11120:	08000793          	li	a5,128
   11124:	864a                	mv	a2,s2
   11126:	855a                	mv	a0,s6
   11128:	873e                	mv	a4,a5
   1112a:	86e6                	mv	a3,s9
   1112c:	85de                	mv	a1,s7
   1112e:	20090913          	addi	s2,s2,512
   11132:	46c030ef          	jal	1459e <_Z20photonic_linear_fp32PfPKfS1_S1_mm>
   11136:	200b0b13          	addi	s6,s6,512
   1113a:	ff3913e3          	bne	s2,s3,11120 <_Z28multihead_attention_photonicPfPKfiS1_S1_S1_S1_S1_S1_S1_S1_+0x6a>
   1113e:	003fd537          	lui	a0,0x3fd
   11142:	93850493          	addi	s1,a0,-1736 # 3fc938 <_ZL1V>
   11146:	768a                	ld	a3,160(sp)
   11148:	08000793          	li	a5,128
   1114c:	8652                	mv	a2,s4
   1114e:	8526                	mv	a0,s1
   11150:	873e                	mv	a4,a5
   11152:	85d6                	mv	a1,s5
   11154:	200a0a13          	addi	s4,s4,512
   11158:	446030ef          	jal	1459e <_Z20photonic_linear_fp32PfPKfS1_S1_mm>
   1115c:	20048493          	addi	s1,s1,512
   11160:	ff3a13e3          	bne	s4,s3,11146 <_Z28multihead_attention_photonicPfPKfiS1_S1_S1_S1_S1_S1_S1_S1_+0x90>
   11164:	4981                	li	s3,0
   11166:	4481                	li	s1,0
   11168:	4a01                	li	s4,0
   1116a:	10805263          	blez	s0,1126e <_Z28multihead_attention_photonicPfPKfiS1_S1_S1_S1_S1_S1_S1_S1_+0x1b8>
   1116e:	003f5c37          	lui	s8,0x3f5
   11172:	0014191b          	slliw	s2,s0,0x1
   11176:	8b01a407          	flw	fs0,-1872(gp) # 3cc710 <mask+0x78>
   1117a:	938c0c13          	addi	s8,s8,-1736 # 3f4938 <_ZL11attn_scores>
   1117e:	00299513          	slli	a0,s3,0x2
   11182:	0149093b          	addw	s2,s2,s4
   11186:	0040d7b7          	lui	a5,0x40d
   1118a:	00405b37          	lui	s6,0x405
   1118e:	0040ddb7          	lui	s11,0x40d
   11192:	9562                	add	a0,a0,s8
   11194:	0069191b          	slliw	s2,s2,0x6
   11198:	93878b93          	addi	s7,a5,-1736 # 40c938 <_ZL1Q>
   1119c:	938b0b13          	addi	s6,s6,-1736 # 404938 <_ZL1K>
   111a0:	a38d8d93          	addi	s11,s11,-1480 # 40ca38 <_ZL1Q+0x100>
   111a4:	00241a93          	slli	s5,s0,0x2
   111a8:	006a189b          	slliw	a7,s4,0x6
   111ac:	8d26                	mv	s10,s1
   111ae:	4c81                	li	s9,0
   111b0:	002d1693          	slli	a3,s10,0x2
   111b4:	00db8833          	add	a6,s7,a3
   111b8:	85aa                	mv	a1,a0
   111ba:	96ee                	add	a3,a3,s11
   111bc:	8646                	mv	a2,a7
   111be:	f00007d3          	fmv.w.x	fa5,zero
   111c2:	00261713          	slli	a4,a2,0x2
   111c6:	975a                	add	a4,a4,s6
   111c8:	87c2                	mv	a5,a6
   111ca:	0007a687          	flw	fa3,0(a5)
   111ce:	00072707          	flw	fa4,0(a4)
   111d2:	0791                	addi	a5,a5,4
   111d4:	0711                	addi	a4,a4,4
   111d6:	78e6f7c3          	fmadd.s	fa5,fa3,fa4,fa5
   111da:	fed798e3          	bne	a5,a3,111ca <_Z28multihead_attention_photonicPfPKfiS1_S1_S1_S1_S1_S1_S1_S1_+0x114>
   111de:	1087f7d3          	fmul.s	fa5,fa5,fs0
   111e2:	0806061b          	addiw	a2,a2,128
   111e6:	0591                	addi	a1,a1,4
   111e8:	fef5ae27          	fsw	fa5,-4(a1)
   111ec:	fd2619e3          	bne	a2,s2,111be <_Z28multihead_attention_photonicPfPKfiS1_S1_S1_S1_S1_S1_S1_S1_+0x108>
   111f0:	85a2                	mv	a1,s0
   111f2:	ec46                	sd	a7,24(sp)
   111f4:	e82a                	sd	a0,16(sp)
   111f6:	d6bff0ef          	jal	10f60 <_Z11softmax_rowPfi>
   111fa:	6542                	ld	a0,16(sp)
   111fc:	2c85                	addiw	s9,s9,1
   111fe:	68e2                	ld	a7,24(sp)
   11200:	9556                	add	a0,a0,s5
   11202:	080d0d1b          	addiw	s10,s10,128
   11206:	fb9415e3          	bne	s0,s9,111b0 <_Z28multihead_attention_photonicPfPKfiS1_S1_S1_S1_S1_S1_S1_S1_+0xfa>
   1120a:	013406b3          	add	a3,s0,s3
   1120e:	068a                	slli	a3,a3,0x2
   11210:	003fd537          	lui	a0,0x3fd
   11214:	003ede37          	lui	t3,0x3ed
   11218:	96e2                	add	a3,a3,s8
   1121a:	93850513          	addi	a0,a0,-1736 # 3fc938 <_ZL1V>
   1121e:	938e0e13          	addi	t3,t3,-1736 # 3ec938 <_ZL8attn_out>
   11222:	8326                	mv	t1,s1
   11224:	04000813          	li	a6,64
   11228:	00231593          	slli	a1,t1,0x2
   1122c:	95f2                	add	a1,a1,t3
   1122e:	415688b3          	sub	a7,a3,s5
   11232:	4601                	li	a2,0
   11234:	0096073b          	addw	a4,a2,s1
   11238:	f00007d3          	fmv.w.x	fa5,zero
   1123c:	070a                	slli	a4,a4,0x2
   1123e:	972a                	add	a4,a4,a0
   11240:	87c6                	mv	a5,a7
   11242:	00072687          	flw	fa3,0(a4)
   11246:	0007a707          	flw	fa4,0(a5)
   1124a:	0791                	addi	a5,a5,4
   1124c:	20070713          	addi	a4,a4,512
   11250:	78e6f7c3          	fmadd.s	fa5,fa3,fa4,fa5
   11254:	fed797e3          	bne	a5,a3,11242 <_Z28multihead_attention_photonicPfPKfiS1_S1_S1_S1_S1_S1_S1_S1_+0x18c>
   11258:	00f5a027          	fsw	fa5,0(a1)
   1125c:	2605                	addiw	a2,a2,1
   1125e:	0591                	addi	a1,a1,4
   11260:	fd061ae3          	bne	a2,a6,11234 <_Z28multihead_attention_photonicPfPKfiS1_S1_S1_S1_S1_S1_S1_S1_+0x17e>
   11264:	0803031b          	addiw	t1,t1,128
   11268:	96d6                	add	a3,a3,s5
   1126a:	fb231fe3          	bne	t1,s2,11228 <_Z28multihead_attention_photonicPfPKfiS1_S1_S1_S1_S1_S1_S1_S1_+0x172>
   1126e:	4705                	li	a4,1
   11270:	00ea0c63          	beq	s4,a4,11288 <_Z28multihead_attention_photonicPfPKfiS1_S1_S1_S1_S1_S1_S1_S1_+0x1d2>
   11274:	04805263          	blez	s0,112b8 <_Z28multihead_attention_photonicPfPKfiS1_S1_S1_S1_S1_S1_S1_S1_+0x202>
   11278:	028407bb          	mulw	a5,s0,s0
   1127c:	0404849b          	addiw	s1,s1,64
   11280:	8a3a                	mv	s4,a4
   11282:	013789bb          	addw	s3,a5,s3
   11286:	b5e5                	j	1116e <_Z28multihead_attention_photonicPfPKfiS1_S1_S1_S1_S1_S1_S1_S1_+0xb8>
   11288:	02805863          	blez	s0,112b8 <_Z28multihead_attention_photonicPfPKfiS1_S1_S1_S1_S1_S1_S1_S1_+0x202>
   1128c:	64a2                	ld	s1,8(sp)
   1128e:	0426                	slli	s0,s0,0x9
   11290:	003ed937          	lui	s2,0x3ed
   11294:	9426                	add	s0,s0,s1
   11296:	93890913          	addi	s2,s2,-1736 # 3ec938 <_ZL8attn_out>
   1129a:	76ca                	ld	a3,176(sp)
   1129c:	75aa                	ld	a1,168(sp)
   1129e:	08000793          	li	a5,128
   112a2:	864a                	mv	a2,s2
   112a4:	8526                	mv	a0,s1
   112a6:	873e                	mv	a4,a5
   112a8:	20048493          	addi	s1,s1,512
   112ac:	2f2030ef          	jal	1459e <_Z20photonic_linear_fp32PfPKfS1_S1_mm>
   112b0:	20090913          	addi	s2,s2,512
   112b4:	fe9413e3          	bne	s0,s1,1129a <_Z28multihead_attention_photonicPfPKfiS1_S1_S1_S1_S1_S1_S1_S1_+0x1e4>
   112b8:	60ea                	ld	ra,152(sp)
   112ba:	644a                	ld	s0,144(sp)
   112bc:	64aa                	ld	s1,136(sp)
   112be:	690a                	ld	s2,128(sp)
   112c0:	79e6                	ld	s3,120(sp)
   112c2:	7a46                	ld	s4,112(sp)
   112c4:	7aa6                	ld	s5,104(sp)
   112c6:	7b06                	ld	s6,96(sp)
   112c8:	6be6                	ld	s7,88(sp)
   112ca:	6c46                	ld	s8,80(sp)
   112cc:	6ca6                	ld	s9,72(sp)
   112ce:	6d06                	ld	s10,64(sp)
   112d0:	7de2                	ld	s11,56(sp)
   112d2:	3422                	fld	fs0,40(sp)
   112d4:	610d                	addi	sp,sp,160
   112d6:	8082                	ret

00000000000112d8 <_Z21feed_forward_photonicPfPKfiS1_S1_S1_S1_>:
   112d8:	0ec05d63          	blez	a2,113d2 <_Z21feed_forward_photonicPfPKfiS1_S1_S1_S1_+0xfa>
   112dc:	7135                	addi	sp,sp,-160
   112de:	ecde                	sd	s7,88(sp)
   112e0:	8bbe                	mv	s7,a5
   112e2:	e4e6                	sd	s9,72(sp)
   112e4:	e0ea                	sd	s10,64(sp)
   112e6:	a452                	fsd	fs4,8(sp)
   112e8:	8d3a                	mv	s10,a4
   112ea:	8a41aa07          	flw	fs4,-1884(gp) # 3cc704 <mask+0x6c>
   112ee:	8cb6                	mv	s9,a3
   112f0:	f4d6                	sd	s5,104(sp)
   112f2:	b026                	fsd	fs1,32(sp)
   112f4:	ac4a                	fsd	fs2,24(sp)
   112f6:	a84e                	fsd	fs3,16(sp)
   112f8:	003d5ab7          	lui	s5,0x3d5
   112fc:	8a01a487          	flw	fs1,-1888(gp) # 3cc700 <mask+0x68>
   11300:	8a81a987          	flw	fs3,-1880(gp) # 3cc708 <mask+0x70>
   11304:	8ac1a907          	flw	fs2,-1876(gp) # 3cc70c <mask+0x74>
   11308:	938a8a93          	addi	s5,s5,-1736 # 3d4938 <_ZL10ffn_hidden>
   1130c:	f0da                	sd	s6,96(sp)
   1130e:	00961b13          	slli	s6,a2,0x9
   11312:	e526                	sd	s1,136(sp)
   11314:	e14a                	sd	s2,128(sp)
   11316:	fcce                	sd	s3,120(sp)
   11318:	f8d2                	sd	s4,112(sp)
   1131a:	e8e2                	sd	s8,80(sp)
   1131c:	fc6e                	sd	s11,56(sp)
   1131e:	ed06                	sd	ra,152(sp)
   11320:	e922                	sd	s0,144(sp)
   11322:	b422                	fsd	fs0,40(sp)
   11324:	8c42                	mv	s8,a6
   11326:	89aa                	mv	s3,a0
   11328:	892e                	mv	s2,a1
   1132a:	400a8493          	addi	s1,s5,1024
   1132e:	8a56                	mv	s4,s5
   11330:	01658db3          	add	s11,a1,s6
   11334:	08000793          	li	a5,128
   11338:	10000713          	li	a4,256
   1133c:	86ea                	mv	a3,s10
   1133e:	864a                	mv	a2,s2
   11340:	85e6                	mv	a1,s9
   11342:	8552                	mv	a0,s4
   11344:	25a030ef          	jal	1459e <_Z20photonic_linear_fp32PfPKfS1_S1_mm>
   11348:	8452                	mv	s0,s4
   1134a:	00042407          	flw	fs0,0(s0)
   1134e:	0411                	addi	s0,s0,4
   11350:	10847553          	fmul.s	fa0,fs0,fs0
   11354:	49457543          	fmadd.s	fa0,fa0,fs4,fs1
   11358:	10857553          	fmul.s	fa0,fa0,fs0
   1135c:	11357553          	fmul.s	fa0,fa0,fs3
   11360:	1c60f0ef          	jal	20526 <tanhf>
   11364:	00957553          	fadd.s	fa0,fa0,fs1
   11368:	11257553          	fmul.s	fa0,fa0,fs2
   1136c:	10857553          	fmul.s	fa0,fa0,fs0
   11370:	fea42e27          	fsw	fa0,-4(s0)
   11374:	fc941be3          	bne	s0,s1,1134a <_Z21feed_forward_photonicPfPKfiS1_S1_S1_S1_+0x72>
   11378:	20090913          	addi	s2,s2,512
   1137c:	400a0a13          	addi	s4,s4,1024
   11380:	40040493          	addi	s1,s0,1024
   11384:	fbb918e3          	bne	s2,s11,11334 <_Z21feed_forward_photonicPfPKfiS1_S1_S1_S1_+0x5c>
   11388:	9b4e                	add	s6,s6,s3
   1138a:	8656                	mv	a2,s5
   1138c:	854e                	mv	a0,s3
   1138e:	10000793          	li	a5,256
   11392:	08000713          	li	a4,128
   11396:	86e2                	mv	a3,s8
   11398:	85de                	mv	a1,s7
   1139a:	20098993          	addi	s3,s3,512
   1139e:	200030ef          	jal	1459e <_Z20photonic_linear_fp32PfPKfS1_S1_mm>
   113a2:	400a8a93          	addi	s5,s5,1024
   113a6:	ff3b12e3          	bne	s6,s3,1138a <_Z21feed_forward_photonicPfPKfiS1_S1_S1_S1_+0xb2>
   113aa:	60ea                	ld	ra,152(sp)
   113ac:	644a                	ld	s0,144(sp)
   113ae:	64aa                	ld	s1,136(sp)
   113b0:	690a                	ld	s2,128(sp)
   113b2:	79e6                	ld	s3,120(sp)
   113b4:	7a46                	ld	s4,112(sp)
   113b6:	7aa6                	ld	s5,104(sp)
   113b8:	7b06                	ld	s6,96(sp)
   113ba:	6be6                	ld	s7,88(sp)
   113bc:	6c46                	ld	s8,80(sp)
   113be:	6ca6                	ld	s9,72(sp)
   113c0:	6d06                	ld	s10,64(sp)
   113c2:	7de2                	ld	s11,56(sp)
   113c4:	3422                	fld	fs0,40(sp)
   113c6:	3482                	fld	fs1,32(sp)
   113c8:	2962                	fld	fs2,24(sp)
   113ca:	29c2                	fld	fs3,16(sp)
   113cc:	2a22                	fld	fs4,8(sp)
   113ce:	610d                	addi	sp,sp,160
   113d0:	8082                	ret
   113d2:	8082                	ret

00000000000113d4 <_Z34transformer_encoder_layer_photonicPfPKfiS1_S1_S1_S1_S1_S1_S1_S1_S1_S1_S1_S1_S1_S1_S1_S1_>:
   113d4:	716d                	addi	sp,sp,-272
   113d6:	fd66                	sd	s9,184(sp)
   113d8:	8cae                	mv	s9,a1
   113da:	75b2                	ld	a1,296(sp)
   113dc:	fda6                	sd	s1,248(sp)
   113de:	f9ca                	sd	s2,240(sp)
   113e0:	f02e                	sd	a1,32(sp)
   113e2:	75d2                	ld	a1,304(sp)
   113e4:	f1d2                	sd	s4,224(sp)
   113e6:	f96a                	sd	s10,176(sp)
   113e8:	f42e                	sd	a1,40(sp)
   113ea:	75f2                	ld	a1,312(sp)
   113ec:	f56e                	sd	s11,168(sp)
   113ee:	e606                	sd	ra,264(sp)
   113f0:	f82e                	sd	a1,48(sp)
   113f2:	6596                	ld	a1,320(sp)
   113f4:	e222                	sd	s0,256(sp)
   113f6:	e0aa                	sd	a0,64(sp)
   113f8:	fc2e                	sd	a1,56(sp)
   113fa:	6352                	ld	t1,272(sp)
   113fc:	6e72                	ld	t3,280(sp)
   113fe:	7e92                	ld	t4,288(sp)
   11400:	6d36                	ld	s10,328(sp)
   11402:	6dd6                	ld	s11,336(sp)
   11404:	64f6                	ld	s1,344(sp)
   11406:	7916                	ld	s2,352(sp)
   11408:	8a32                	mv	s4,a2
   1140a:	14c05763          	blez	a2,11558 <_Z34transformer_encoder_layer_photonicPfPKfiS1_S1_S1_S1_S1_S1_S1_S1_S1_S1_S1_S1_S1_S1_S1_S1_+0x184>
   1140e:	edd6                	sd	s5,216(sp)
   11410:	00415ab7          	lui	s5,0x415
   11414:	e5de                	sd	s7,200(sp)
   11416:	ad22                	fsd	fs0,152(sp)
   11418:	938a8b93          	addi	s7,s5,-1736 # 414938 <_ZL6normed>
   1141c:	8b41a407          	flw	fs0,-1868(gp) # 3cc714 <mask+0x7c>
   11420:	009a1613          	slli	a2,s4,0x9
   11424:	f5ce                	sd	s3,232(sp)
   11426:	e9da                	sd	s6,208(sp)
   11428:	e1e2                	sd	s8,192(sp)
   1142a:	f4a6                	sd	s1,104(sp)
   1142c:	e4b2                	sd	a2,72(sp)
   1142e:	845e                	mv	s0,s7
   11430:	00cc89b3          	add	s3,s9,a2
   11434:	8c66                	mv	s8,s9
   11436:	e89a                	sd	t1,80(sp)
   11438:	ecf2                	sd	t3,88(sp)
   1143a:	f0f6                	sd	t4,96(sp)
   1143c:	84e6                	mv	s1,s9
   1143e:	f8b6                	sd	a3,112(sp)
   11440:	8b3a                	mv	s6,a4
   11442:	fcbe                	sd	a5,120(sp)
   11444:	e142                	sd	a6,128(sp)
   11446:	e546                	sd	a7,136(sp)
   11448:	20840553          	fmv.s	fa0,fs0
   1144c:	85a6                	mv	a1,s1
   1144e:	8522                	mv	a0,s0
   11450:	08000713          	li	a4,128
   11454:	86ee                	mv	a3,s11
   11456:	866a                	mv	a2,s10
   11458:	20048493          	addi	s1,s1,512
   1145c:	a15ff0ef          	jal	10e70 <_Z10layer_normPfPKfS1_S1_if>
   11460:	20040413          	addi	s0,s0,512
   11464:	ff3492e3          	bne	s1,s3,11448 <_Z34transformer_encoder_layer_photonicPfPKfiS1_S1_S1_S1_S1_S1_S1_S1_S1_S1_S1_S1_S1_S1_S1_S1_+0x74>
   11468:	6346                	ld	t1,80(sp)
   1146a:	6e66                	ld	t3,88(sp)
   1146c:	7e86                	ld	t4,96(sp)
   1146e:	77e6                	ld	a5,120(sp)
   11470:	76c6                	ld	a3,112(sp)
   11472:	680a                	ld	a6,128(sp)
   11474:	68aa                	ld	a7,136(sp)
   11476:	003e5d37          	lui	s10,0x3e5
   1147a:	938d0513          	addi	a0,s10,-1736 # 3e4938 <_ZL9attn_proj>
   1147e:	875a                	mv	a4,s6
   11480:	e876                	sd	t4,16(sp)
   11482:	e472                	sd	t3,8(sp)
   11484:	e01a                	sd	t1,0(sp)
   11486:	8652                	mv	a2,s4
   11488:	938a8593          	addi	a1,s5,-1736
   1148c:	007a1993          	slli	s3,s4,0x7
   11490:	39fd                	addiw	s3,s3,-1
   11492:	74a6                	ld	s1,104(sp)
   11494:	c23ff0ef          	jal	110b6 <_Z28multihead_attention_photonicPfPKfiS1_S1_S1_S1_S1_S1_S1_S1_>
   11498:	02099793          	slli	a5,s3,0x20
   1149c:	0041ddb7          	lui	s11,0x41d
   114a0:	01e7d993          	srli	s3,a5,0x1e
   114a4:	0c91                	addi	s9,s9,4
   114a6:	938d8d93          	addi	s11,s11,-1736 # 41c938 <_ZL4temp>
   114aa:	938d0d13          	addi	s10,s10,-1736
   114ae:	9cce                	add	s9,s9,s3
   114b0:	87ee                	mv	a5,s11
   114b2:	000c2787          	flw	fa5,0(s8)
   114b6:	000d2707          	flw	fa4,0(s10)
   114ba:	0c11                	addi	s8,s8,4
   114bc:	0d11                	addi	s10,s10,4
   114be:	00e7f7d3          	fadd.s	fa5,fa5,fa4
   114c2:	0791                	addi	a5,a5,4
   114c4:	fef7ae27          	fsw	fa5,-4(a5)
   114c8:	ff9c15e3          	bne	s8,s9,114b2 <_Z34transformer_encoder_layer_photonicPfPKfiS1_S1_S1_S1_S1_S1_S1_S1_S1_S1_S1_S1_S1_S1_S1_S1_+0xde>
   114cc:	8b41a407          	flw	fs0,-1868(gp) # 3cc714 <mask+0x7c>
   114d0:	67a6                	ld	a5,72(sp)
   114d2:	8b6e                	mv	s6,s11
   114d4:	00fb8433          	add	s0,s7,a5
   114d8:	20840553          	fmv.s	fa0,fs0
   114dc:	85da                	mv	a1,s6
   114de:	855e                	mv	a0,s7
   114e0:	08000713          	li	a4,128
   114e4:	86ca                	mv	a3,s2
   114e6:	8626                	mv	a2,s1
   114e8:	200b8b93          	addi	s7,s7,512
   114ec:	985ff0ef          	jal	10e70 <_Z10layer_normPfPKfS1_S1_if>
   114f0:	200b0b13          	addi	s6,s6,512
   114f4:	fe8b92e3          	bne	s7,s0,114d8 <_Z34transformer_encoder_layer_photonicPfPKfiS1_S1_S1_S1_S1_S1_S1_S1_S1_S1_S1_S1_S1_S1_S1_S1_+0x104>
   114f8:	77c2                	ld	a5,48(sp)
   114fa:	7722                	ld	a4,40(sp)
   114fc:	7682                	ld	a3,32(sp)
   114fe:	7862                	ld	a6,56(sp)
   11500:	003cd437          	lui	s0,0x3cd
   11504:	8652                	mv	a2,s4
   11506:	938a8593          	addi	a1,s5,-1736
   1150a:	93840513          	addi	a0,s0,-1736 # 3cc938 <_ZL7ffn_out>
   1150e:	dcbff0ef          	jal	112d8 <_Z21feed_forward_photonicPfPKfiS1_S1_S1_S1_>
   11512:	6786                	ld	a5,64(sp)
   11514:	93840713          	addi	a4,s0,-1736
   11518:	00478693          	addi	a3,a5,4
   1151c:	96ce                	add	a3,a3,s3
   1151e:	000da787          	flw	fa5,0(s11)
   11522:	00072707          	flw	fa4,0(a4)
   11526:	0791                	addi	a5,a5,4
   11528:	0d91                	addi	s11,s11,4
   1152a:	00e7f7d3          	fadd.s	fa5,fa5,fa4
   1152e:	0711                	addi	a4,a4,4
   11530:	fef7ae27          	fsw	fa5,-4(a5)
   11534:	fed795e3          	bne	a5,a3,1151e <_Z34transformer_encoder_layer_photonicPfPKfiS1_S1_S1_S1_S1_S1_S1_S1_S1_S1_S1_S1_S1_S1_S1_S1_+0x14a>
   11538:	60b2                	ld	ra,264(sp)
   1153a:	6412                	ld	s0,256(sp)
   1153c:	79ae                	ld	s3,232(sp)
   1153e:	6aee                	ld	s5,216(sp)
   11540:	6b4e                	ld	s6,208(sp)
   11542:	6bae                	ld	s7,200(sp)
   11544:	6c0e                	ld	s8,192(sp)
   11546:	246a                	fld	fs0,152(sp)
   11548:	74ee                	ld	s1,248(sp)
   1154a:	794e                	ld	s2,240(sp)
   1154c:	7a0e                	ld	s4,224(sp)
   1154e:	7cea                	ld	s9,184(sp)
   11550:	7d4a                	ld	s10,176(sp)
   11552:	7daa                	ld	s11,168(sp)
   11554:	6151                	addi	sp,sp,272
   11556:	8082                	ret
   11558:	00415437          	lui	s0,0x415
   1155c:	003e5537          	lui	a0,0x3e5
   11560:	93840593          	addi	a1,s0,-1736 # 414938 <_ZL6normed>
   11564:	e876                	sd	t4,16(sp)
   11566:	e472                	sd	t3,8(sp)
   11568:	e01a                	sd	t1,0(sp)
   1156a:	93850513          	addi	a0,a0,-1736 # 3e4938 <_ZL9attn_proj>
   1156e:	b49ff0ef          	jal	110b6 <_Z28multihead_attention_photonicPfPKfiS1_S1_S1_S1_S1_S1_S1_S1_>
   11572:	93840593          	addi	a1,s0,-1736
   11576:	6412                	ld	s0,256(sp)
   11578:	7862                	ld	a6,56(sp)
   1157a:	77c2                	ld	a5,48(sp)
   1157c:	7722                	ld	a4,40(sp)
   1157e:	7682                	ld	a3,32(sp)
   11580:	60b2                	ld	ra,264(sp)
   11582:	74ee                	ld	s1,248(sp)
   11584:	794e                	ld	s2,240(sp)
   11586:	7cea                	ld	s9,184(sp)
   11588:	7d4a                	ld	s10,176(sp)
   1158a:	7daa                	ld	s11,168(sp)
   1158c:	8652                	mv	a2,s4
   1158e:	7a0e                	ld	s4,224(sp)
   11590:	003cd537          	lui	a0,0x3cd
   11594:	93850513          	addi	a0,a0,-1736 # 3cc938 <_ZL7ffn_out>
   11598:	6151                	addi	sp,sp,272
   1159a:	bb3d                	j	112d8 <_Z21feed_forward_photonicPfPKfiS1_S1_S1_S1_>

000000000001159c <_Z12embed_tokensPKiiPf>:
   1159c:	06b05b63          	blez	a1,11612 <_Z12embed_tokensPKiiPf+0x76>
   115a0:	001477b7          	lui	a5,0x147
   115a4:	0014ff37          	lui	t5,0x14f
   115a8:	0014feb7          	lui	t4,0x14f
   115ac:	6e1d                	lui	t3,0x7
   115ae:	882a                	mv	a6,a0
   115b0:	0075931b          	slliw	t1,a1,0x7
   115b4:	8532                	mv	a0,a2
   115b6:	27078593          	addi	a1,a5,624 # 147270 <_ZL18position_embedding>
   115ba:	270f0f13          	addi	t5,t5,624 # 14f270 <_ZL15token_embedding>
   115be:	470e8e93          	addi	t4,t4,1136 # 14f470 <_ZL15token_embedding+0x200>
   115c2:	739e0e13          	addi	t3,t3,1849 # 7739 <__cxa_bad_cast-0x89e7>
   115c6:	4881                	li	a7,0
   115c8:	00082783          	lw	a5,0(a6)
   115cc:	660d                	lui	a2,0x3
   115ce:	20060613          	addi	a2,a2,512 # 3200 <__cxa_bad_cast-0xcf20>
   115d2:	00fe6463          	bltu	t3,a5,115da <_Z12embed_tokensPKiiPf+0x3e>
   115d6:	0077961b          	slliw	a2,a5,0x7
   115da:	060a                	slli	a2,a2,0x2
   115dc:	00cf07b3          	add	a5,t5,a2
   115e0:	86aa                	mv	a3,a0
   115e2:	9676                	add	a2,a2,t4
   115e4:	872e                	mv	a4,a1
   115e6:	0007a787          	flw	fa5,0(a5)
   115ea:	00072707          	flw	fa4,0(a4)
   115ee:	0791                	addi	a5,a5,4
   115f0:	0711                	addi	a4,a4,4
   115f2:	00e7f7d3          	fadd.s	fa5,fa5,fa4
   115f6:	0691                	addi	a3,a3,4
   115f8:	fef6ae27          	fsw	fa5,-4(a3)
   115fc:	fec795e3          	bne	a5,a2,115e6 <_Z12embed_tokensPKiiPf+0x4a>
   11600:	0808889b          	addiw	a7,a7,128
   11604:	0811                	addi	a6,a6,4
   11606:	20058593          	addi	a1,a1,512
   1160a:	20050513          	addi	a0,a0,512
   1160e:	fa689de3          	bne	a7,t1,115c8 <_Z12embed_tokensPKiiPf+0x2c>
   11612:	8082                	ret

0000000000011614 <_Z17classify_photonicPKfPf>:
   11614:	ba010113          	addi	sp,sp,-1120
   11618:	44913423          	sd	s1,1096(sp)
   1161c:	43313c23          	sd	s3,1080(sp)
   11620:	44113c23          	sd	ra,1112(sp)
   11624:	44813823          	sd	s0,1104(sp)
   11628:	45213023          	sd	s2,1088(sp)
   1162c:	42813427          	fsd	fs0,1064(sp)
   11630:	42913027          	fsd	fs1,1056(sp)
   11634:	41213c27          	fsd	fs2,1048(sp)
   11638:	89ae                	mv	s3,a1
   1163a:	081c                	addi	a5,sp,16
   1163c:	0c04                	addi	s1,sp,528
   1163e:	00052787          	flw	fa5,0(a0)
   11642:	0791                	addi	a5,a5,4
   11644:	0511                	addi	a0,a0,4
   11646:	fef7ae27          	fsw	fa5,-4(a5)
   1164a:	fef49ae3          	bne	s1,a5,1163e <_Z17classify_photonicPKfPf+0x2a>
   1164e:	00034937          	lui	s2,0x34
   11652:	08000793          	li	a5,128
   11656:	07090913          	addi	s2,s2,112 # 34070 <_ZL11pooler_bias>
   1165a:	000375b7          	lui	a1,0x37
   1165e:	0810                	addi	a2,sp,16
   11660:	86ca                	mv	a3,s2
   11662:	873e                	mv	a4,a5
   11664:	27058593          	addi	a1,a1,624 # 37270 <_ZL13pooler_weight>
   11668:	8526                	mv	a0,s1
   1166a:	735020ef          	jal	1459e <_Z20photonic_linear_fp32PfPKfS1_S1_mm>
   1166e:	8426                	mv	s0,s1
   11670:	00042507          	flw	fa0,0(s0)
   11674:	0411                	addi	s0,s0,4
   11676:	6b10e0ef          	jal	20526 <tanhf>
   1167a:	fea42e27          	fsw	fa0,-4(s0)
   1167e:	41010793          	addi	a5,sp,1040
   11682:	fef417e3          	bne	s0,a5,11670 <_Z17classify_photonicPKfPf+0x5c>
   11686:	0028                	addi	a0,sp,8
   11688:	8626                	mv	a2,s1
   1168a:	20090593          	addi	a1,s2,512
   1168e:	93018693          	addi	a3,gp,-1744 # 3cc790 <_ZL15classifier_bias>
   11692:	08000793          	li	a5,128
   11696:	4709                	li	a4,2
   11698:	707020ef          	jal	1459e <_Z20photonic_linear_fp32PfPKfS1_S1_mm>
   1169c:	00812507          	flw	fa0,8(sp)
   116a0:	00c12907          	flw	fs2,12(sp)
   116a4:	28a914d3          	fmax.s	fs1,fs2,fa0
   116a8:	08957553          	fsub.s	fa0,fa0,fs1
   116ac:	4520f0ef          	jal	20afe <expf>
   116b0:	20a50453          	fmv.s	fs0,fa0
   116b4:	08997553          	fsub.s	fa0,fs2,fs1
   116b8:	4460f0ef          	jal	20afe <expf>
   116bc:	00a477d3          	fadd.s	fa5,fs0,fa0
   116c0:	45813083          	ld	ra,1112(sp)
   116c4:	45013403          	ld	s0,1104(sp)
   116c8:	44813483          	ld	s1,1096(sp)
   116cc:	44013903          	ld	s2,1088(sp)
   116d0:	18f47453          	fdiv.s	fs0,fs0,fa5
   116d4:	42013487          	fld	fs1,1056(sp)
   116d8:	41813907          	fld	fs2,1048(sp)
   116dc:	18f577d3          	fdiv.s	fa5,fa0,fa5
   116e0:	0089a027          	fsw	fs0,0(s3)
   116e4:	00f9a227          	fsw	fa5,4(s3)
   116e8:	a0f41553          	flt.s	a0,fs0,fa5
   116ec:	43813983          	ld	s3,1080(sp)
   116f0:	42813407          	fld	fs0,1064(sp)
   116f4:	46010113          	addi	sp,sp,1120
   116f8:	8082                	ret

00000000000116fa <_Z10matrix_sumPsPKsmm.part.0>:
   116fa:	00031537          	lui	a0,0x31
   116fe:	1141                	addi	sp,sp,-16
   11700:	bc850513          	addi	a0,a0,-1080 # 30bc8 <__clzdi2+0x33a>
   11704:	e406                	sd	ra,8(sp)
   11706:	570150ef          	jal	26c76 <puts>
   1170a:	00031537          	lui	a0,0x31
   1170e:	c1850513          	addi	a0,a0,-1000 # 30c18 <__clzdi2+0x38a>
   11712:	564150ef          	jal	26c76 <puts>
   11716:	557d                	li	a0,-1
   11718:	f9ffe0ef          	jal	106b6 <exit>

000000000001171c <_Z12vector_equalPsPKsS1_m>:
   1171c:	c505                	beqz	a0,11744 <_Z12vector_equalPsPKsS1_m+0x28>
   1171e:	c295                	beqz	a3,11742 <_Z12vector_equalPsPKsS1_m+0x26>
   11720:	0686                	slli	a3,a3,0x1
   11722:	96ae                	add	a3,a3,a1
   11724:	00059783          	lh	a5,0(a1)
   11728:	00061703          	lh	a4,0(a2)
   1172c:	0589                	addi	a1,a1,2
   1172e:	0609                	addi	a2,a2,2
   11730:	8f99                	sub	a5,a5,a4
   11732:	0017b793          	seqz	a5,a5
   11736:	00f51023          	sh	a5,0(a0)
   1173a:	0509                	addi	a0,a0,2
   1173c:	fed594e3          	bne	a1,a3,11724 <_Z12vector_equalPsPKsS1_m+0x8>
   11740:	8082                	ret
   11742:	8082                	ret
   11744:	00031537          	lui	a0,0x31
   11748:	1101                	addi	sp,sp,-32
   1174a:	c3050513          	addi	a0,a0,-976 # 30c30 <__clzdi2+0x3a2>
   1174e:	ec06                	sd	ra,24(sp)
   11750:	e436                	sd	a3,8(sp)
   11752:	524150ef          	jal	26c76 <puts>
   11756:	65a2                	ld	a1,8(sp)
   11758:	00031537          	lui	a0,0x31
   1175c:	c8050513          	addi	a0,a0,-896 # 30c80 <__clzdi2+0x3f2>
   11760:	33a150ef          	jal	26a9a <printf>
   11764:	557d                	li	a0,-1
   11766:	f51fe0ef          	jal	106b6 <exit>

000000000001176a <_Z10vector_sumPsPKsm>:
   1176a:	c11d                	beqz	a0,11790 <_Z10vector_sumPsPKsm+0x26>
   1176c:	4781                	li	a5,0
   1176e:	ce11                	beqz	a2,1178a <_Z10vector_sumPsPKsm+0x20>
   11770:	0606                	slli	a2,a2,0x1
   11772:	962e                	add	a2,a2,a1
   11774:	4781                	li	a5,0
   11776:	0005d703          	lhu	a4,0(a1)
   1177a:	0589                	addi	a1,a1,2
   1177c:	9fb9                	addw	a5,a5,a4
   1177e:	0107979b          	slliw	a5,a5,0x10
   11782:	4107d79b          	sraiw	a5,a5,0x10
   11786:	feb618e3          	bne	a2,a1,11776 <_Z10vector_sumPsPKsm+0xc>
   1178a:	00f51023          	sh	a5,0(a0)
   1178e:	8082                	ret
   11790:	00031537          	lui	a0,0x31
   11794:	1141                	addi	sp,sp,-16
   11796:	ca850513          	addi	a0,a0,-856 # 30ca8 <__clzdi2+0x41a>
   1179a:	e406                	sd	ra,8(sp)
   1179c:	4da150ef          	jal	26c76 <puts>
   117a0:	00031537          	lui	a0,0x31
   117a4:	c1850513          	addi	a0,a0,-1000 # 30c18 <__clzdi2+0x38a>
   117a8:	4ce150ef          	jal	26c76 <puts>
   117ac:	557d                	li	a0,-1
   117ae:	f09fe0ef          	jal	106b6 <exit>

00000000000117b2 <_Z11vector_meanPsPKsm>:
   117b2:	c515                	beqz	a0,117de <_Z11vector_meanPsPKsm+0x2c>
   117b4:	4781                	li	a5,0
   117b6:	c20d                	beqz	a2,117d8 <_Z11vector_meanPsPKsm+0x26>
   117b8:	00161693          	slli	a3,a2,0x1
   117bc:	96ae                	add	a3,a3,a1
   117be:	4781                	li	a5,0
   117c0:	0005d703          	lhu	a4,0(a1)
   117c4:	0589                	addi	a1,a1,2
   117c6:	9fb9                	addw	a5,a5,a4
   117c8:	0107979b          	slliw	a5,a5,0x10
   117cc:	4107d79b          	sraiw	a5,a5,0x10
   117d0:	feb698e3          	bne	a3,a1,117c0 <_Z11vector_meanPsPKsm+0xe>
   117d4:	02c7d7b3          	divu	a5,a5,a2
   117d8:	00f51023          	sh	a5,0(a0)
   117dc:	8082                	ret
   117de:	00031537          	lui	a0,0x31
   117e2:	1141                	addi	sp,sp,-16
   117e4:	cf850513          	addi	a0,a0,-776 # 30cf8 <__clzdi2+0x46a>
   117e8:	e406                	sd	ra,8(sp)
   117ea:	48c150ef          	jal	26c76 <puts>
   117ee:	00031537          	lui	a0,0x31
   117f2:	c1850513          	addi	a0,a0,-1000 # 30c18 <__clzdi2+0x38a>
   117f6:	480150ef          	jal	26c76 <puts>
   117fa:	557d                	li	a0,-1
   117fc:	ebbfe0ef          	jal	106b6 <exit>

0000000000011800 <_Z10vector_varPsPKsm>:
   11800:	7179                	addi	sp,sp,-48
   11802:	f406                	sd	ra,40(sp)
   11804:	f022                	sd	s0,32(sp)
   11806:	ec26                	sd	s1,24(sp)
   11808:	e84a                	sd	s2,16(sp)
   1180a:	c525                	beqz	a0,11872 <_Z10vector_varPsPKsm+0x72>
   1180c:	57cd                	li	a5,-13
   1180e:	8389                	srli	a5,a5,0x2
   11810:	84b2                	mv	s1,a2
   11812:	06c7ef63          	bltu	a5,a2,11890 <_Z10vector_varPsPKsm+0x90>
   11816:	00161413          	slli	s0,a2,0x1
   1181a:	892a                	mv	s2,a0
   1181c:	8522                	mv	a0,s0
   1181e:	e42e                	sd	a1,8(sp)
   11820:	3d9040ef          	jal	163f8 <_Znam>
   11824:	65a2                	ld	a1,8(sp)
   11826:	c4a1                	beqz	s1,1186e <_Z10vector_varPsPKsm+0x6e>
   11828:	00858833          	add	a6,a1,s0
   1182c:	87ae                	mv	a5,a1
   1182e:	4601                	li	a2,0
   11830:	0007d703          	lhu	a4,0(a5)
   11834:	0789                	addi	a5,a5,2
   11836:	9e39                	addw	a2,a2,a4
   11838:	0106161b          	slliw	a2,a2,0x10
   1183c:	4106561b          	sraiw	a2,a2,0x10
   11840:	fef818e3          	bne	a6,a5,11830 <_Z10vector_varPsPKsm+0x30>
   11844:	02965633          	divu	a2,a2,s1
   11848:	0106161b          	slliw	a2,a2,0x10
   1184c:	4106561b          	sraiw	a2,a2,0x10
   11850:	86a6                	mv	a3,s1
   11852:	e42a                	sd	a0,8(sp)
   11854:	7a0000ef          	jal	11ff4 <_Z23tiled_vector_sub_scalarPsPKssm>
   11858:	6622                	ld	a2,8(sp)
   1185a:	7402                	ld	s0,32(sp)
   1185c:	70a2                	ld	ra,40(sp)
   1185e:	86a6                	mv	a3,s1
   11860:	854a                	mv	a0,s2
   11862:	64e2                	ld	s1,24(sp)
   11864:	6942                	ld	s2,16(sp)
   11866:	85b2                	mv	a1,a2
   11868:	6145                	addi	sp,sp,48
   1186a:	4e80106f          	j	12d52 <_Z13tiled_dotprodPsPKsS1_m>
   1186e:	4601                	li	a2,0
   11870:	b7c5                	j	11850 <_Z10vector_varPsPKsm+0x50>
   11872:	00031537          	lui	a0,0x31
   11876:	d4850513          	addi	a0,a0,-696 # 30d48 <__clzdi2+0x4ba>
   1187a:	3fc150ef          	jal	26c76 <puts>
   1187e:	00031537          	lui	a0,0x31
   11882:	c1850513          	addi	a0,a0,-1000 # 30c18 <__clzdi2+0x38a>
   11886:	3f0150ef          	jal	26c76 <puts>
   1188a:	557d                	li	a0,-1
   1188c:	e2bfe0ef          	jal	106b6 <exit>
   11890:	8ddfe0ef          	jal	1016c <__cxa_throw_bad_array_new_length>

0000000000011894 <_Z14vector_softmaxPsPKsms>:
   11894:	715d                	addi	sp,sp,-80
   11896:	e486                	sd	ra,72(sp)
   11898:	e0a2                	sd	s0,64(sp)
   1189a:	fc26                	sd	s1,56(sp)
   1189c:	f84a                	sd	s2,48(sp)
   1189e:	f44e                	sd	s3,40(sp)
   118a0:	c141                	beqz	a0,11920 <_Z14vector_softmaxPsPKsms+0x8c>
   118a2:	842a                	mv	s0,a0
   118a4:	00e10513          	addi	a0,sp,14
   118a8:	8932                	mv	s2,a2
   118aa:	89b6                	mv	s3,a3
   118ac:	84ae                	mv	s1,a1
   118ae:	391000ef          	jal	1243e <_Z16tiled_vector_maxPsPKsm>
   118b2:	00e11603          	lh	a2,14(sp)
   118b6:	86ca                	mv	a3,s2
   118b8:	85a6                	mv	a1,s1
   118ba:	8522                	mv	a0,s0
   118bc:	738000ef          	jal	11ff4 <_Z23tiled_vector_sub_scalarPsPKssm>
   118c0:	04090963          	beqz	s2,11912 <_Z14vector_softmaxPsPKsms+0x7e>
   118c4:	ac22                	fsd	fs0,24(sp)
   118c6:	f2000453          	fmv.d.x	fs0,zero
   118ca:	0906                	slli	s2,s2,0x1
   118cc:	9922                	add	s2,s2,s0
   118ce:	84a2                	mv	s1,s0
   118d0:	00049783          	lh	a5,0(s1)
   118d4:	0489                	addi	s1,s1,2
   118d6:	d2078553          	fcvt.d.w	fa0,a5
   118da:	5350e0ef          	jal	2060e <exp>
   118de:	02a47453          	fadd.d	fs0,fs0,fa0
   118e2:	fe9917e3          	bne	s2,s1,118d0 <_Z14vector_softmaxPsPKsms+0x3c>
   118e6:	003cc7b7          	lui	a5,0x3cc
   118ea:	6607b707          	fld	fa4,1632(a5) # 3cc660 <__SDATA_BEGIN__>
   118ee:	1a877753          	fdiv.d	fa4,fa4,fs0
   118f2:	00041783          	lh	a5,0(s0)
   118f6:	0409                	addi	s0,s0,2
   118f8:	033787bb          	mulw	a5,a5,s3
   118fc:	d20787d3          	fcvt.d.w	fa5,a5
   11900:	12e7f7d3          	fmul.d	fa5,fa5,fa4
   11904:	c20797d3          	fcvt.w.d	a5,fa5,rtz
   11908:	fef41f23          	sh	a5,-2(s0)
   1190c:	fe8913e3          	bne	s2,s0,118f2 <_Z14vector_softmaxPsPKsms+0x5e>
   11910:	2462                	fld	fs0,24(sp)
   11912:	6406                	ld	s0,64(sp)
   11914:	60a6                	ld	ra,72(sp)
   11916:	74e2                	ld	s1,56(sp)
   11918:	7942                	ld	s2,48(sp)
   1191a:	79a2                	ld	s3,40(sp)
   1191c:	6161                	addi	sp,sp,80
   1191e:	8082                	ret
   11920:	00031537          	lui	a0,0x31
   11924:	d9850513          	addi	a0,a0,-616 # 30d98 <__clzdi2+0x50a>
   11928:	ac22                	fsd	fs0,24(sp)
   1192a:	34c150ef          	jal	26c76 <puts>
   1192e:	00031537          	lui	a0,0x31
   11932:	c1850513          	addi	a0,a0,-1000 # 30c18 <__clzdi2+0x38a>
   11936:	340150ef          	jal	26c76 <puts>
   1193a:	557d                	li	a0,-1
   1193c:	d7bfe0ef          	jal	106b6 <exit>

0000000000011940 <_Z10matrix_sumPsPKsmm>:
   11940:	cd31                	beqz	a0,1199c <_Z10matrix_sumPsPKsmm+0x5c>
   11942:	ca19                	beqz	a2,11958 <_Z10matrix_sumPsPKsmm+0x18>
   11944:	00169313          	slli	t1,a3,0x1
   11948:	959a                	add	a1,a1,t1
   1194a:	00161e13          	slli	t3,a2,0x1
   1194e:	4881                	li	a7,0
   11950:	ea81                	bnez	a3,11960 <_Z10matrix_sumPsPKsmm+0x20>
   11952:	0885                	addi	a7,a7,1
   11954:	ff161fe3          	bne	a2,a7,11952 <_Z10matrix_sumPsPKsmm+0x12>
   11958:	4801                	li	a6,0
   1195a:	01051023          	sh	a6,0(a0)
   1195e:	8082                	ret
   11960:	4801                	li	a6,0
   11962:	40658733          	sub	a4,a1,t1
   11966:	4781                	li	a5,0
   11968:	00075683          	lhu	a3,0(a4)
   1196c:	0709                	addi	a4,a4,2
   1196e:	9fb5                	addw	a5,a5,a3
   11970:	03079693          	slli	a3,a5,0x30
   11974:	0107979b          	slliw	a5,a5,0x10
   11978:	92c1                	srli	a3,a3,0x30
   1197a:	4107d79b          	sraiw	a5,a5,0x10
   1197e:	fee595e3          	bne	a1,a4,11968 <_Z10matrix_sumPsPKsmm+0x28>
   11982:	00d8083b          	addw	a6,a6,a3
   11986:	0108181b          	slliw	a6,a6,0x10
   1198a:	0885                	addi	a7,a7,1
   1198c:	4108581b          	sraiw	a6,a6,0x10
   11990:	95f2                	add	a1,a1,t3
   11992:	fcc898e3          	bne	a7,a2,11962 <_Z10matrix_sumPsPKsmm+0x22>
   11996:	01051023          	sh	a6,0(a0)
   1199a:	8082                	ret
   1199c:	1141                	addi	sp,sp,-16
   1199e:	e406                	sd	ra,8(sp)
   119a0:	d5bff0ef          	jal	116fa <_Z10matrix_sumPsPKsmm.part.0>

00000000000119a4 <_Z10matrix_sumPsPKsmmm>:
   119a4:	1141                	addi	sp,sp,-16
   119a6:	e406                	sd	ra,8(sp)
   119a8:	e022                	sd	s0,0(sp)
   119aa:	cd49                	beqz	a0,11a44 <_Z10matrix_sumPsPKsmmm+0xa0>
   119ac:	842a                	mv	s0,a0
   119ae:	c741                	beqz	a4,11a36 <_Z10matrix_sumPsPKsmmm+0x92>
   119b0:	c259                	beqz	a2,11a36 <_Z10matrix_sumPsPKsmmm+0x92>
   119b2:	00169e93          	slli	t4,a3,0x1
   119b6:	01d582b3          	add	t0,a1,t4
   119ba:	00171513          	slli	a0,a4,0x1
   119be:	00161f13          	slli	t5,a2,0x1
   119c2:	4f81                	li	t6,0
   119c4:	4381                	li	t2,0
   119c6:	8896                	mv	a7,t0
   119c8:	4e01                	li	t3,0
   119ca:	e68d                	bnez	a3,119f4 <_Z10matrix_sumPsPKsmmm+0x50>
   119cc:	0e05                	addi	t3,t3,1
   119ce:	ffc61fe3          	bne	a2,t3,119cc <_Z10matrix_sumPsPKsmmm+0x28>
   119d2:	4581                	li	a1,0
   119d4:	00bf8fbb          	addw	t6,t6,a1
   119d8:	010f9f9b          	slliw	t6,t6,0x10
   119dc:	0385                	addi	t2,t2,1
   119de:	410fdf9b          	sraiw	t6,t6,0x10
   119e2:	92aa                	add	t0,t0,a0
   119e4:	fee391e3          	bne	t2,a4,119c6 <_Z10matrix_sumPsPKsmmm+0x22>
   119e8:	60a2                	ld	ra,8(sp)
   119ea:	01f41023          	sh	t6,0(s0)
   119ee:	6402                	ld	s0,0(sp)
   119f0:	0141                	addi	sp,sp,16
   119f2:	8082                	ret
   119f4:	4301                	li	t1,0
   119f6:	41d885b3          	sub	a1,a7,t4
   119fa:	4781                	li	a5,0
   119fc:	0005d803          	lhu	a6,0(a1)
   11a00:	0589                	addi	a1,a1,2
   11a02:	00f807bb          	addw	a5,a6,a5
   11a06:	03079813          	slli	a6,a5,0x30
   11a0a:	0107979b          	slliw	a5,a5,0x10
   11a0e:	03085813          	srli	a6,a6,0x30
   11a12:	4107d79b          	sraiw	a5,a5,0x10
   11a16:	ff1593e3          	bne	a1,a7,119fc <_Z10matrix_sumPsPKsmmm+0x58>
   11a1a:	010307bb          	addw	a5,t1,a6
   11a1e:	03079593          	slli	a1,a5,0x30
   11a22:	0107931b          	slliw	t1,a5,0x10
   11a26:	0e05                	addi	t3,t3,1
   11a28:	98fa                	add	a7,a7,t5
   11a2a:	91c1                	srli	a1,a1,0x30
   11a2c:	4103531b          	sraiw	t1,t1,0x10
   11a30:	fdc613e3          	bne	a2,t3,119f6 <_Z10matrix_sumPsPKsmmm+0x52>
   11a34:	b745                	j	119d4 <_Z10matrix_sumPsPKsmmm+0x30>
   11a36:	4f81                	li	t6,0
   11a38:	60a2                	ld	ra,8(sp)
   11a3a:	01f41023          	sh	t6,0(s0)
   11a3e:	6402                	ld	s0,0(sp)
   11a40:	0141                	addi	sp,sp,16
   11a42:	8082                	ret
   11a44:	cb7ff0ef          	jal	116fa <_Z10matrix_sumPsPKsmm.part.0>

0000000000011a48 <_Z11matrix_meanPsPKsmm>:
   11a48:	c12d                	beqz	a0,11aaa <_Z11matrix_meanPsPKsmm+0x62>
   11a4a:	4801                	li	a6,0
   11a4c:	c205                	beqz	a2,11a6c <_Z11matrix_meanPsPKsmm+0x24>
   11a4e:	00169313          	slli	t1,a3,0x1
   11a52:	02d60eb3          	mul	t4,a2,a3
   11a56:	959a                	add	a1,a1,t1
   11a58:	00161e13          	slli	t3,a2,0x1
   11a5c:	4881                	li	a7,0
   11a5e:	ea91                	bnez	a3,11a72 <_Z11matrix_meanPsPKsmm+0x2a>
   11a60:	0885                	addi	a7,a7,1
   11a62:	ff161fe3          	bne	a2,a7,11a60 <_Z11matrix_meanPsPKsmm+0x18>
   11a66:	4801                	li	a6,0
   11a68:	03d85833          	divu	a6,a6,t4
   11a6c:	01051023          	sh	a6,0(a0)
   11a70:	8082                	ret
   11a72:	4801                	li	a6,0
   11a74:	40658733          	sub	a4,a1,t1
   11a78:	4781                	li	a5,0
   11a7a:	00075683          	lhu	a3,0(a4)
   11a7e:	0709                	addi	a4,a4,2
   11a80:	9fb5                	addw	a5,a5,a3
   11a82:	03079693          	slli	a3,a5,0x30
   11a86:	0107979b          	slliw	a5,a5,0x10
   11a8a:	92c1                	srli	a3,a3,0x30
   11a8c:	4107d79b          	sraiw	a5,a5,0x10
   11a90:	fee595e3          	bne	a1,a4,11a7a <_Z11matrix_meanPsPKsmm+0x32>
   11a94:	00d8083b          	addw	a6,a6,a3
   11a98:	0108181b          	slliw	a6,a6,0x10
   11a9c:	0885                	addi	a7,a7,1
   11a9e:	4108581b          	sraiw	a6,a6,0x10
   11aa2:	95f2                	add	a1,a1,t3
   11aa4:	fd1618e3          	bne	a2,a7,11a74 <_Z11matrix_meanPsPKsmm+0x2c>
   11aa8:	b7c1                	j	11a68 <_Z11matrix_meanPsPKsmm+0x20>
   11aaa:	00031537          	lui	a0,0x31
   11aae:	1141                	addi	sp,sp,-16
   11ab0:	de850513          	addi	a0,a0,-536 # 30de8 <__clzdi2+0x55a>
   11ab4:	e406                	sd	ra,8(sp)
   11ab6:	1c0150ef          	jal	26c76 <puts>
   11aba:	00031537          	lui	a0,0x31
   11abe:	c1850513          	addi	a0,a0,-1000 # 30c18 <__clzdi2+0x38a>
   11ac2:	1b4150ef          	jal	26c76 <puts>
   11ac6:	557d                	li	a0,-1
   11ac8:	beffe0ef          	jal	106b6 <exit>

0000000000011acc <_Z11matrix_meanPsPKsmmm>:
   11acc:	7139                	addi	sp,sp,-64
   11ace:	fc06                	sd	ra,56(sp)
   11ad0:	f822                	sd	s0,48(sp)
   11ad2:	f426                	sd	s1,40(sp)
   11ad4:	f04a                	sd	s2,32(sp)
   11ad6:	ec4e                	sd	s3,24(sp)
   11ad8:	cd05                	beqz	a0,11b10 <_Z11matrix_meanPsPKsmmm+0x44>
   11ada:	842a                	mv	s0,a0
   11adc:	00e10513          	addi	a0,sp,14
   11ae0:	84b2                	mv	s1,a2
   11ae2:	8936                	mv	s2,a3
   11ae4:	89ba                	mv	s3,a4
   11ae6:	00011723          	sh	zero,14(sp)
   11aea:	ebbff0ef          	jal	119a4 <_Z10matrix_sumPsPKsmmm>
   11aee:	03390633          	mul	a2,s2,s3
   11af2:	00e11783          	lh	a5,14(sp)
   11af6:	70e2                	ld	ra,56(sp)
   11af8:	7902                	ld	s2,32(sp)
   11afa:	69e2                	ld	s3,24(sp)
   11afc:	02960633          	mul	a2,a2,s1
   11b00:	74a2                	ld	s1,40(sp)
   11b02:	02c7d7b3          	divu	a5,a5,a2
   11b06:	00f41023          	sh	a5,0(s0)
   11b0a:	7442                	ld	s0,48(sp)
   11b0c:	6121                	addi	sp,sp,64
   11b0e:	8082                	ret
   11b10:	00031537          	lui	a0,0x31
   11b14:	de850513          	addi	a0,a0,-536 # 30de8 <__clzdi2+0x55a>
   11b18:	15e150ef          	jal	26c76 <puts>
   11b1c:	00031537          	lui	a0,0x31
   11b20:	c1850513          	addi	a0,a0,-1000 # 30c18 <__clzdi2+0x38a>
   11b24:	152150ef          	jal	26c76 <puts>
   11b28:	557d                	li	a0,-1
   11b2a:	b8dfe0ef          	jal	106b6 <exit>

0000000000011b2e <_Z14fit_vector_addPsPKsS1_m>:
   11b2e:	02000793          	li	a5,32
   11b32:	02d7e263          	bltu	a5,a3,11b56 <_Z14fit_vector_addPsPKsS1_m+0x28>
   11b36:	872a                	mv	a4,a0
   11b38:	8536                	mv	a0,a3
   11b3a:	1805200b          	.insn	4, 0x1805200b
   11b3e:	852e                	mv	a0,a1
   11b40:	1005208b          	.insn	4, 0x1005208b
   11b44:	8532                	mv	a0,a2
   11b46:	1005210b          	.insn	4, 0x1005210b
   11b4a:	0220818b          	.insn	4, 0x0220818b
   11b4e:	853a                	mv	a0,a4
   11b50:	1235200b          	.insn	4, 0x1235200b
   11b54:	8082                	ret
   11b56:	000316b7          	lui	a3,0x31
   11b5a:	00031637          	lui	a2,0x31
   11b5e:	00031537          	lui	a0,0x31
   11b62:	1141                	addi	sp,sp,-16
   11b64:	e3868693          	addi	a3,a3,-456 # 30e38 <__clzdi2+0x5aa>
   11b68:	e5060613          	addi	a2,a2,-432 # 30e50 <__clzdi2+0x5c2>
   11b6c:	e9850513          	addi	a0,a0,-360 # 30e98 <__clzdi2+0x60a>
   11b70:	4599                	li	a1,6
   11b72:	e406                	sd	ra,8(sp)
   11b74:	52a120ef          	jal	2409e <__assert_func>

0000000000011b78 <_Z16tiled_vector_addPsPKsS1_m>:
   11b78:	cd49                	beqz	a0,11c12 <_Z16tiled_vector_addPsPKsS1_m+0x9a>
   11b7a:	02000793          	li	a5,32
   11b7e:	8e2a                	mv	t3,a0
   11b80:	06d7fa63          	bgeu	a5,a3,11bf4 <_Z16tiled_vector_addPsPKsS1_m+0x7c>
   11b84:	01f6fe93          	andi	t4,a3,31
   11b88:	0056d313          	srli	t1,a3,0x5
   11b8c:	88ae                	mv	a7,a1
   11b8e:	8832                	mv	a6,a2
   11b90:	872a                	mv	a4,a0
   11b92:	4781                	li	a5,0
   11b94:	02000513          	li	a0,32
   11b98:	1805200b          	.insn	4, 0x1805200b
   11b9c:	8546                	mv	a0,a7
   11b9e:	1005208b          	.insn	4, 0x1005208b
   11ba2:	8542                	mv	a0,a6
   11ba4:	1005210b          	.insn	4, 0x1005210b
   11ba8:	0220818b          	.insn	4, 0x0220818b
   11bac:	853a                	mv	a0,a4
   11bae:	1235200b          	.insn	4, 0x1235200b
   11bb2:	0785                	addi	a5,a5,1
   11bb4:	04088893          	addi	a7,a7,64
   11bb8:	04080813          	addi	a6,a6,64
   11bbc:	04070713          	addi	a4,a4,64
   11bc0:	fcf31ae3          	bne	t1,a5,11b94 <_Z16tiled_vector_addPsPKsS1_m+0x1c>
   11bc4:	000e9363          	bnez	t4,11bca <_Z16tiled_vector_addPsPKsS1_m+0x52>
   11bc8:	8082                	ret
   11bca:	41d686b3          	sub	a3,a3,t4
   11bce:	0686                	slli	a3,a3,0x1
   11bd0:	8576                	mv	a0,t4
   11bd2:	1805200b          	.insn	4, 0x1805200b
   11bd6:	00d58533          	add	a0,a1,a3
   11bda:	1005208b          	.insn	4, 0x1005208b
   11bde:	00d60533          	add	a0,a2,a3
   11be2:	1005210b          	.insn	4, 0x1005210b
   11be6:	0220818b          	.insn	4, 0x0220818b
   11bea:	00de0533          	add	a0,t3,a3
   11bee:	1235200b          	.insn	4, 0x1235200b
   11bf2:	8082                	ret
   11bf4:	8536                	mv	a0,a3
   11bf6:	1805200b          	.insn	4, 0x1805200b
   11bfa:	852e                	mv	a0,a1
   11bfc:	1005208b          	.insn	4, 0x1005208b
   11c00:	8532                	mv	a0,a2
   11c02:	1005210b          	.insn	4, 0x1005210b
   11c06:	0220818b          	.insn	4, 0x0220818b
   11c0a:	8572                	mv	a0,t3
   11c0c:	1235200b          	.insn	4, 0x1235200b
   11c10:	8082                	ret
   11c12:	00031537          	lui	a0,0x31
   11c16:	1101                	addi	sp,sp,-32
   11c18:	eb050513          	addi	a0,a0,-336 # 30eb0 <__clzdi2+0x622>
   11c1c:	ec06                	sd	ra,24(sp)
   11c1e:	e436                	sd	a3,8(sp)
   11c20:	056150ef          	jal	26c76 <puts>
   11c24:	65a2                	ld	a1,8(sp)
   11c26:	00031537          	lui	a0,0x31
   11c2a:	f0050513          	addi	a0,a0,-256 # 30f00 <__clzdi2+0x672>
   11c2e:	66d140ef          	jal	26a9a <printf>
   11c32:	557d                	li	a0,-1
   11c34:	a83fe0ef          	jal	106b6 <exit>

0000000000011c38 <_Z23tiled_matrix_vector_addPsPKsS1_mm>:
   11c38:	7139                	addi	sp,sp,-64
   11c3a:	e852                	sd	s4,16(sp)
   11c3c:	e456                	sd	s5,8(sp)
   11c3e:	fc06                	sd	ra,56(sp)
   11c40:	8a36                	mv	s4,a3
   11c42:	8aba                	mv	s5,a4
   11c44:	c131                	beqz	a0,11c88 <_Z23tiled_matrix_vector_addPsPKsS1_mm+0x50>
   11c46:	ce85                	beqz	a3,11c7e <_Z23tiled_matrix_vector_addPsPKsS1_mm+0x46>
   11c48:	f822                	sd	s0,48(sp)
   11c4a:	f426                	sd	s1,40(sp)
   11c4c:	f04a                	sd	s2,32(sp)
   11c4e:	ec4e                	sd	s3,24(sp)
   11c50:	e05a                	sd	s6,0(sp)
   11c52:	842a                	mv	s0,a0
   11c54:	8b32                	mv	s6,a2
   11c56:	84ae                	mv	s1,a1
   11c58:	00171993          	slli	s3,a4,0x1
   11c5c:	4901                	li	s2,0
   11c5e:	85a6                	mv	a1,s1
   11c60:	8522                	mv	a0,s0
   11c62:	86d6                	mv	a3,s5
   11c64:	865a                	mv	a2,s6
   11c66:	0905                	addi	s2,s2,1
   11c68:	f11ff0ef          	jal	11b78 <_Z16tiled_vector_addPsPKsS1_m>
   11c6c:	944e                	add	s0,s0,s3
   11c6e:	94ce                	add	s1,s1,s3
   11c70:	ff2a17e3          	bne	s4,s2,11c5e <_Z23tiled_matrix_vector_addPsPKsS1_mm+0x26>
   11c74:	7442                	ld	s0,48(sp)
   11c76:	74a2                	ld	s1,40(sp)
   11c78:	7902                	ld	s2,32(sp)
   11c7a:	69e2                	ld	s3,24(sp)
   11c7c:	6b02                	ld	s6,0(sp)
   11c7e:	70e2                	ld	ra,56(sp)
   11c80:	6a42                	ld	s4,16(sp)
   11c82:	6aa2                	ld	s5,8(sp)
   11c84:	6121                	addi	sp,sp,64
   11c86:	8082                	ret
   11c88:	00031537          	lui	a0,0x31
   11c8c:	f2050513          	addi	a0,a0,-224 # 30f20 <__clzdi2+0x692>
   11c90:	f822                	sd	s0,48(sp)
   11c92:	f426                	sd	s1,40(sp)
   11c94:	f04a                	sd	s2,32(sp)
   11c96:	ec4e                	sd	s3,24(sp)
   11c98:	e05a                	sd	s6,0(sp)
   11c9a:	7dd140ef          	jal	26c76 <puts>
   11c9e:	00031537          	lui	a0,0x31
   11ca2:	8656                	mv	a2,s5
   11ca4:	85d2                	mv	a1,s4
   11ca6:	f7850513          	addi	a0,a0,-136 # 30f78 <__clzdi2+0x6ea>
   11caa:	5f1140ef          	jal	26a9a <printf>
   11cae:	557d                	li	a0,-1
   11cb0:	a07fe0ef          	jal	106b6 <exit>

0000000000011cb4 <_Z14fit_vector_subPsPKsS1_m>:
   11cb4:	02000793          	li	a5,32
   11cb8:	02d7e263          	bltu	a5,a3,11cdc <_Z14fit_vector_subPsPKsS1_m+0x28>
   11cbc:	872a                	mv	a4,a0
   11cbe:	8536                	mv	a0,a3
   11cc0:	1805200b          	.insn	4, 0x1805200b
   11cc4:	852e                	mv	a0,a1
   11cc6:	1005208b          	.insn	4, 0x1005208b
   11cca:	8532                	mv	a0,a2
   11ccc:	1005210b          	.insn	4, 0x1005210b
   11cd0:	0420818b          	.insn	4, 0x0420818b
   11cd4:	853a                	mv	a0,a4
   11cd6:	1235200b          	.insn	4, 0x1235200b
   11cda:	8082                	ret
   11cdc:	000316b7          	lui	a3,0x31
   11ce0:	00031637          	lui	a2,0x31
   11ce4:	00031537          	lui	a0,0x31
   11ce8:	1141                	addi	sp,sp,-16
   11cea:	e3868693          	addi	a3,a3,-456 # 30e38 <__clzdi2+0x5aa>
   11cee:	fa860613          	addi	a2,a2,-88 # 30fa8 <__clzdi2+0x71a>
   11cf2:	e9850513          	addi	a0,a0,-360 # 30e98 <__clzdi2+0x60a>
   11cf6:	03600593          	li	a1,54
   11cfa:	e406                	sd	ra,8(sp)
   11cfc:	3a2120ef          	jal	2409e <__assert_func>

0000000000011d00 <_Z16tiled_vector_subPsPKsS1_m>:
   11d00:	cd49                	beqz	a0,11d9a <_Z16tiled_vector_subPsPKsS1_m+0x9a>
   11d02:	02000793          	li	a5,32
   11d06:	8e2a                	mv	t3,a0
   11d08:	06d7fa63          	bgeu	a5,a3,11d7c <_Z16tiled_vector_subPsPKsS1_m+0x7c>
   11d0c:	01f6fe93          	andi	t4,a3,31
   11d10:	0056d313          	srli	t1,a3,0x5
   11d14:	88ae                	mv	a7,a1
   11d16:	8832                	mv	a6,a2
   11d18:	872a                	mv	a4,a0
   11d1a:	4781                	li	a5,0
   11d1c:	02000513          	li	a0,32
   11d20:	1805200b          	.insn	4, 0x1805200b
   11d24:	8546                	mv	a0,a7
   11d26:	1005208b          	.insn	4, 0x1005208b
   11d2a:	8542                	mv	a0,a6
   11d2c:	1005210b          	.insn	4, 0x1005210b
   11d30:	0420818b          	.insn	4, 0x0420818b
   11d34:	853a                	mv	a0,a4
   11d36:	1235200b          	.insn	4, 0x1235200b
   11d3a:	0785                	addi	a5,a5,1
   11d3c:	04088893          	addi	a7,a7,64
   11d40:	04080813          	addi	a6,a6,64
   11d44:	04070713          	addi	a4,a4,64
   11d48:	fcf31ae3          	bne	t1,a5,11d1c <_Z16tiled_vector_subPsPKsS1_m+0x1c>
   11d4c:	000e9363          	bnez	t4,11d52 <_Z16tiled_vector_subPsPKsS1_m+0x52>
   11d50:	8082                	ret
   11d52:	41d686b3          	sub	a3,a3,t4
   11d56:	0686                	slli	a3,a3,0x1
   11d58:	8576                	mv	a0,t4
   11d5a:	1805200b          	.insn	4, 0x1805200b
   11d5e:	00d58533          	add	a0,a1,a3
   11d62:	1005208b          	.insn	4, 0x1005208b
   11d66:	00d60533          	add	a0,a2,a3
   11d6a:	1005210b          	.insn	4, 0x1005210b
   11d6e:	0420818b          	.insn	4, 0x0420818b
   11d72:	00de0533          	add	a0,t3,a3
   11d76:	1235200b          	.insn	4, 0x1235200b
   11d7a:	8082                	ret
   11d7c:	8536                	mv	a0,a3
   11d7e:	1805200b          	.insn	4, 0x1805200b
   11d82:	852e                	mv	a0,a1
   11d84:	1005208b          	.insn	4, 0x1005208b
   11d88:	8532                	mv	a0,a2
   11d8a:	1005210b          	.insn	4, 0x1005210b
   11d8e:	0420818b          	.insn	4, 0x0420818b
   11d92:	8572                	mv	a0,t3
   11d94:	1235200b          	.insn	4, 0x1235200b
   11d98:	8082                	ret
   11d9a:	00031537          	lui	a0,0x31
   11d9e:	1101                	addi	sp,sp,-32
   11da0:	ff050513          	addi	a0,a0,-16 # 30ff0 <__clzdi2+0x762>
   11da4:	ec06                	sd	ra,24(sp)
   11da6:	e436                	sd	a3,8(sp)
   11da8:	6cf140ef          	jal	26c76 <puts>
   11dac:	65a2                	ld	a1,8(sp)
   11dae:	00031537          	lui	a0,0x31
   11db2:	f0050513          	addi	a0,a0,-256 # 30f00 <__clzdi2+0x672>
   11db6:	4e5140ef          	jal	26a9a <printf>
   11dba:	557d                	li	a0,-1
   11dbc:	8fbfe0ef          	jal	106b6 <exit>

0000000000011dc0 <_Z23tiled_matrix_vector_subPsPKsS1_mm>:
   11dc0:	7139                	addi	sp,sp,-64
   11dc2:	e852                	sd	s4,16(sp)
   11dc4:	e456                	sd	s5,8(sp)
   11dc6:	fc06                	sd	ra,56(sp)
   11dc8:	8a36                	mv	s4,a3
   11dca:	8aba                	mv	s5,a4
   11dcc:	c131                	beqz	a0,11e10 <_Z23tiled_matrix_vector_subPsPKsS1_mm+0x50>
   11dce:	ce85                	beqz	a3,11e06 <_Z23tiled_matrix_vector_subPsPKsS1_mm+0x46>
   11dd0:	f822                	sd	s0,48(sp)
   11dd2:	f426                	sd	s1,40(sp)
   11dd4:	f04a                	sd	s2,32(sp)
   11dd6:	ec4e                	sd	s3,24(sp)
   11dd8:	e05a                	sd	s6,0(sp)
   11dda:	842a                	mv	s0,a0
   11ddc:	8b32                	mv	s6,a2
   11dde:	84ae                	mv	s1,a1
   11de0:	00171993          	slli	s3,a4,0x1
   11de4:	4901                	li	s2,0
   11de6:	85a6                	mv	a1,s1
   11de8:	8522                	mv	a0,s0
   11dea:	86d6                	mv	a3,s5
   11dec:	865a                	mv	a2,s6
   11dee:	0905                	addi	s2,s2,1
   11df0:	f11ff0ef          	jal	11d00 <_Z16tiled_vector_subPsPKsS1_m>
   11df4:	944e                	add	s0,s0,s3
   11df6:	94ce                	add	s1,s1,s3
   11df8:	ff2a17e3          	bne	s4,s2,11de6 <_Z23tiled_matrix_vector_subPsPKsS1_mm+0x26>
   11dfc:	7442                	ld	s0,48(sp)
   11dfe:	74a2                	ld	s1,40(sp)
   11e00:	7902                	ld	s2,32(sp)
   11e02:	69e2                	ld	s3,24(sp)
   11e04:	6b02                	ld	s6,0(sp)
   11e06:	70e2                	ld	ra,56(sp)
   11e08:	6a42                	ld	s4,16(sp)
   11e0a:	6aa2                	ld	s5,8(sp)
   11e0c:	6121                	addi	sp,sp,64
   11e0e:	8082                	ret
   11e10:	00031537          	lui	a0,0x31
   11e14:	04050513          	addi	a0,a0,64 # 31040 <__clzdi2+0x7b2>
   11e18:	f822                	sd	s0,48(sp)
   11e1a:	f426                	sd	s1,40(sp)
   11e1c:	f04a                	sd	s2,32(sp)
   11e1e:	ec4e                	sd	s3,24(sp)
   11e20:	e05a                	sd	s6,0(sp)
   11e22:	655140ef          	jal	26c76 <puts>
   11e26:	00031537          	lui	a0,0x31
   11e2a:	8656                	mv	a2,s5
   11e2c:	85d2                	mv	a1,s4
   11e2e:	f7850513          	addi	a0,a0,-136 # 30f78 <__clzdi2+0x6ea>
   11e32:	469140ef          	jal	26a9a <printf>
   11e36:	557d                	li	a0,-1
   11e38:	87ffe0ef          	jal	106b6 <exit>

0000000000011e3c <_Z21fit_vector_add_scalarPsPKssm>:
   11e3c:	02000793          	li	a5,32
   11e40:	02d7e063          	bltu	a5,a3,11e60 <_Z21fit_vector_add_scalarPsPKssm+0x24>
   11e44:	872a                	mv	a4,a0
   11e46:	8536                	mv	a0,a3
   11e48:	1805200b          	.insn	4, 0x1805200b
   11e4c:	852e                	mv	a0,a1
   11e4e:	1005208b          	.insn	4, 0x1005208b
   11e52:	8532                	mv	a0,a2
   11e54:	0615210b          	.insn	4, 0x0615210b
   11e58:	853a                	mv	a0,a4
   11e5a:	1235200b          	.insn	4, 0x1235200b
   11e5e:	8082                	ret
   11e60:	000316b7          	lui	a3,0x31
   11e64:	00031637          	lui	a2,0x31
   11e68:	00031537          	lui	a0,0x31
   11e6c:	1141                	addi	sp,sp,-16
   11e6e:	e3868693          	addi	a3,a3,-456 # 30e38 <__clzdi2+0x5aa>
   11e72:	09860613          	addi	a2,a2,152 # 31098 <__clzdi2+0x80a>
   11e76:	e9850513          	addi	a0,a0,-360 # 30e98 <__clzdi2+0x60a>
   11e7a:	06600593          	li	a1,102
   11e7e:	e406                	sd	ra,8(sp)
   11e80:	21e120ef          	jal	2409e <__assert_func>

0000000000011e84 <_Z23tiled_vector_add_scalarPsPKssm>:
   11e84:	c159                	beqz	a0,11f0a <_Z23tiled_vector_add_scalarPsPKssm+0x86>
   11e86:	02000793          	li	a5,32
   11e8a:	832a                	mv	t1,a0
   11e8c:	06d7f263          	bgeu	a5,a3,11ef0 <_Z23tiled_vector_add_scalarPsPKssm+0x6c>
   11e90:	01f6fe13          	andi	t3,a3,31
   11e94:	0056d893          	srli	a7,a3,0x5
   11e98:	882e                	mv	a6,a1
   11e9a:	872a                	mv	a4,a0
   11e9c:	4781                	li	a5,0
   11e9e:	02000513          	li	a0,32
   11ea2:	1805200b          	.insn	4, 0x1805200b
   11ea6:	8542                	mv	a0,a6
   11ea8:	1005208b          	.insn	4, 0x1005208b
   11eac:	8532                	mv	a0,a2
   11eae:	0615210b          	.insn	4, 0x0615210b
   11eb2:	853a                	mv	a0,a4
   11eb4:	1235200b          	.insn	4, 0x1235200b
   11eb8:	0785                	addi	a5,a5,1
   11eba:	04080813          	addi	a6,a6,64
   11ebe:	04070713          	addi	a4,a4,64
   11ec2:	fcf89ee3          	bne	a7,a5,11e9e <_Z23tiled_vector_add_scalarPsPKssm+0x1a>
   11ec6:	000e1363          	bnez	t3,11ecc <_Z23tiled_vector_add_scalarPsPKssm+0x48>
   11eca:	8082                	ret
   11ecc:	41c686b3          	sub	a3,a3,t3
   11ed0:	0686                	slli	a3,a3,0x1
   11ed2:	8572                	mv	a0,t3
   11ed4:	1805200b          	.insn	4, 0x1805200b
   11ed8:	00d58533          	add	a0,a1,a3
   11edc:	1005208b          	.insn	4, 0x1005208b
   11ee0:	8532                	mv	a0,a2
   11ee2:	0615210b          	.insn	4, 0x0615210b
   11ee6:	00d30533          	add	a0,t1,a3
   11eea:	1235200b          	.insn	4, 0x1235200b
   11eee:	8082                	ret
   11ef0:	8536                	mv	a0,a3
   11ef2:	1805200b          	.insn	4, 0x1805200b
   11ef6:	852e                	mv	a0,a1
   11ef8:	1005208b          	.insn	4, 0x1005208b
   11efc:	8532                	mv	a0,a2
   11efe:	0615210b          	.insn	4, 0x0615210b
   11f02:	851a                	mv	a0,t1
   11f04:	1235200b          	.insn	4, 0x1235200b
   11f08:	8082                	ret
   11f0a:	00031537          	lui	a0,0x31
   11f0e:	1101                	addi	sp,sp,-32
   11f10:	0e050513          	addi	a0,a0,224 # 310e0 <__clzdi2+0x852>
   11f14:	ec06                	sd	ra,24(sp)
   11f16:	e436                	sd	a3,8(sp)
   11f18:	55f140ef          	jal	26c76 <puts>
   11f1c:	65a2                	ld	a1,8(sp)
   11f1e:	00031537          	lui	a0,0x31
   11f22:	f0050513          	addi	a0,a0,-256 # 30f00 <__clzdi2+0x672>
   11f26:	375140ef          	jal	26a9a <printf>
   11f2a:	557d                	li	a0,-1
   11f2c:	f8afe0ef          	jal	106b6 <exit>

0000000000011f30 <_Z23tiled_matrix_add_scalarPsPKssmm>:
   11f30:	7139                	addi	sp,sp,-64
   11f32:	e852                	sd	s4,16(sp)
   11f34:	e456                	sd	s5,8(sp)
   11f36:	fc06                	sd	ra,56(sp)
   11f38:	8a36                	mv	s4,a3
   11f3a:	8aba                	mv	s5,a4
   11f3c:	c131                	beqz	a0,11f80 <_Z23tiled_matrix_add_scalarPsPKssmm+0x50>
   11f3e:	ce85                	beqz	a3,11f76 <_Z23tiled_matrix_add_scalarPsPKssmm+0x46>
   11f40:	f822                	sd	s0,48(sp)
   11f42:	f426                	sd	s1,40(sp)
   11f44:	f04a                	sd	s2,32(sp)
   11f46:	ec4e                	sd	s3,24(sp)
   11f48:	e05a                	sd	s6,0(sp)
   11f4a:	842a                	mv	s0,a0
   11f4c:	8b32                	mv	s6,a2
   11f4e:	84ae                	mv	s1,a1
   11f50:	00171993          	slli	s3,a4,0x1
   11f54:	4901                	li	s2,0
   11f56:	85a6                	mv	a1,s1
   11f58:	8522                	mv	a0,s0
   11f5a:	86d6                	mv	a3,s5
   11f5c:	865a                	mv	a2,s6
   11f5e:	0905                	addi	s2,s2,1
   11f60:	f25ff0ef          	jal	11e84 <_Z23tiled_vector_add_scalarPsPKssm>
   11f64:	944e                	add	s0,s0,s3
   11f66:	94ce                	add	s1,s1,s3
   11f68:	ff2a17e3          	bne	s4,s2,11f56 <_Z23tiled_matrix_add_scalarPsPKssmm+0x26>
   11f6c:	7442                	ld	s0,48(sp)
   11f6e:	74a2                	ld	s1,40(sp)
   11f70:	7902                	ld	s2,32(sp)
   11f72:	69e2                	ld	s3,24(sp)
   11f74:	6b02                	ld	s6,0(sp)
   11f76:	70e2                	ld	ra,56(sp)
   11f78:	6a42                	ld	s4,16(sp)
   11f7a:	6aa2                	ld	s5,8(sp)
   11f7c:	6121                	addi	sp,sp,64
   11f7e:	8082                	ret
   11f80:	00031537          	lui	a0,0x31
   11f84:	13850513          	addi	a0,a0,312 # 31138 <__clzdi2+0x8aa>
   11f88:	f822                	sd	s0,48(sp)
   11f8a:	f426                	sd	s1,40(sp)
   11f8c:	f04a                	sd	s2,32(sp)
   11f8e:	ec4e                	sd	s3,24(sp)
   11f90:	e05a                	sd	s6,0(sp)
   11f92:	4e5140ef          	jal	26c76 <puts>
   11f96:	00031537          	lui	a0,0x31
   11f9a:	8656                	mv	a2,s5
   11f9c:	85d2                	mv	a1,s4
   11f9e:	f7850513          	addi	a0,a0,-136 # 30f78 <__clzdi2+0x6ea>
   11fa2:	2f9140ef          	jal	26a9a <printf>
   11fa6:	557d                	li	a0,-1
   11fa8:	f0efe0ef          	jal	106b6 <exit>

0000000000011fac <_Z21fit_vector_sub_scalarPsPKssm>:
   11fac:	02000793          	li	a5,32
   11fb0:	02d7e063          	bltu	a5,a3,11fd0 <_Z21fit_vector_sub_scalarPsPKssm+0x24>
   11fb4:	872a                	mv	a4,a0
   11fb6:	8536                	mv	a0,a3
   11fb8:	1805200b          	.insn	4, 0x1805200b
   11fbc:	852e                	mv	a0,a1
   11fbe:	1005208b          	.insn	4, 0x1005208b
   11fc2:	8532                	mv	a0,a2
   11fc4:	0815210b          	.insn	4, 0x0815210b
   11fc8:	853a                	mv	a0,a4
   11fca:	1235200b          	.insn	4, 0x1235200b
   11fce:	8082                	ret
   11fd0:	000316b7          	lui	a3,0x31
   11fd4:	00031637          	lui	a2,0x31
   11fd8:	00031537          	lui	a0,0x31
   11fdc:	1141                	addi	sp,sp,-16
   11fde:	e3868693          	addi	a3,a3,-456 # 30e38 <__clzdi2+0x5aa>
   11fe2:	19060613          	addi	a2,a2,400 # 31190 <__clzdi2+0x902>
   11fe6:	e9850513          	addi	a0,a0,-360 # 30e98 <__clzdi2+0x60a>
   11fea:	09500593          	li	a1,149
   11fee:	e406                	sd	ra,8(sp)
   11ff0:	0ae120ef          	jal	2409e <__assert_func>

0000000000011ff4 <_Z23tiled_vector_sub_scalarPsPKssm>:
   11ff4:	c159                	beqz	a0,1207a <_Z23tiled_vector_sub_scalarPsPKssm+0x86>
   11ff6:	02000793          	li	a5,32
   11ffa:	832a                	mv	t1,a0
   11ffc:	06d7f263          	bgeu	a5,a3,12060 <_Z23tiled_vector_sub_scalarPsPKssm+0x6c>
   12000:	01f6fe13          	andi	t3,a3,31
   12004:	0056d893          	srli	a7,a3,0x5
   12008:	882e                	mv	a6,a1
   1200a:	872a                	mv	a4,a0
   1200c:	4781                	li	a5,0
   1200e:	02000513          	li	a0,32
   12012:	1805200b          	.insn	4, 0x1805200b
   12016:	8542                	mv	a0,a6
   12018:	1005208b          	.insn	4, 0x1005208b
   1201c:	8532                	mv	a0,a2
   1201e:	0815210b          	.insn	4, 0x0815210b
   12022:	853a                	mv	a0,a4
   12024:	1235200b          	.insn	4, 0x1235200b
   12028:	0785                	addi	a5,a5,1
   1202a:	04080813          	addi	a6,a6,64
   1202e:	04070713          	addi	a4,a4,64
   12032:	fcf89ee3          	bne	a7,a5,1200e <_Z23tiled_vector_sub_scalarPsPKssm+0x1a>
   12036:	000e1363          	bnez	t3,1203c <_Z23tiled_vector_sub_scalarPsPKssm+0x48>
   1203a:	8082                	ret
   1203c:	41c686b3          	sub	a3,a3,t3
   12040:	0686                	slli	a3,a3,0x1
   12042:	8572                	mv	a0,t3
   12044:	1805200b          	.insn	4, 0x1805200b
   12048:	00d58533          	add	a0,a1,a3
   1204c:	1005208b          	.insn	4, 0x1005208b
   12050:	8532                	mv	a0,a2
   12052:	0815210b          	.insn	4, 0x0815210b
   12056:	00d30533          	add	a0,t1,a3
   1205a:	1235200b          	.insn	4, 0x1235200b
   1205e:	8082                	ret
   12060:	8536                	mv	a0,a3
   12062:	1805200b          	.insn	4, 0x1805200b
   12066:	852e                	mv	a0,a1
   12068:	1005208b          	.insn	4, 0x1005208b
   1206c:	8532                	mv	a0,a2
   1206e:	0815210b          	.insn	4, 0x0815210b
   12072:	851a                	mv	a0,t1
   12074:	1235200b          	.insn	4, 0x1235200b
   12078:	8082                	ret
   1207a:	00031537          	lui	a0,0x31
   1207e:	1101                	addi	sp,sp,-32
   12080:	1d850513          	addi	a0,a0,472 # 311d8 <__clzdi2+0x94a>
   12084:	ec06                	sd	ra,24(sp)
   12086:	e436                	sd	a3,8(sp)
   12088:	3ef140ef          	jal	26c76 <puts>
   1208c:	65a2                	ld	a1,8(sp)
   1208e:	00031537          	lui	a0,0x31
   12092:	f0050513          	addi	a0,a0,-256 # 30f00 <__clzdi2+0x672>
   12096:	205140ef          	jal	26a9a <printf>
   1209a:	557d                	li	a0,-1
   1209c:	e1afe0ef          	jal	106b6 <exit>

00000000000120a0 <_Z23tiled_matrix_sub_scalarPsPKssmm>:
   120a0:	7139                	addi	sp,sp,-64
   120a2:	e852                	sd	s4,16(sp)
   120a4:	e456                	sd	s5,8(sp)
   120a6:	fc06                	sd	ra,56(sp)
   120a8:	8a36                	mv	s4,a3
   120aa:	8aba                	mv	s5,a4
   120ac:	c131                	beqz	a0,120f0 <_Z23tiled_matrix_sub_scalarPsPKssmm+0x50>
   120ae:	ce85                	beqz	a3,120e6 <_Z23tiled_matrix_sub_scalarPsPKssmm+0x46>
   120b0:	f822                	sd	s0,48(sp)
   120b2:	f426                	sd	s1,40(sp)
   120b4:	f04a                	sd	s2,32(sp)
   120b6:	ec4e                	sd	s3,24(sp)
   120b8:	e05a                	sd	s6,0(sp)
   120ba:	842a                	mv	s0,a0
   120bc:	8b32                	mv	s6,a2
   120be:	84ae                	mv	s1,a1
   120c0:	00171993          	slli	s3,a4,0x1
   120c4:	4901                	li	s2,0
   120c6:	85a6                	mv	a1,s1
   120c8:	8522                	mv	a0,s0
   120ca:	86d6                	mv	a3,s5
   120cc:	865a                	mv	a2,s6
   120ce:	0905                	addi	s2,s2,1
   120d0:	f25ff0ef          	jal	11ff4 <_Z23tiled_vector_sub_scalarPsPKssm>
   120d4:	944e                	add	s0,s0,s3
   120d6:	94ce                	add	s1,s1,s3
   120d8:	ff2a17e3          	bne	s4,s2,120c6 <_Z23tiled_matrix_sub_scalarPsPKssmm+0x26>
   120dc:	7442                	ld	s0,48(sp)
   120de:	74a2                	ld	s1,40(sp)
   120e0:	7902                	ld	s2,32(sp)
   120e2:	69e2                	ld	s3,24(sp)
   120e4:	6b02                	ld	s6,0(sp)
   120e6:	70e2                	ld	ra,56(sp)
   120e8:	6a42                	ld	s4,16(sp)
   120ea:	6aa2                	ld	s5,8(sp)
   120ec:	6121                	addi	sp,sp,64
   120ee:	8082                	ret
   120f0:	00031537          	lui	a0,0x31
   120f4:	23050513          	addi	a0,a0,560 # 31230 <__clzdi2+0x9a2>
   120f8:	f822                	sd	s0,48(sp)
   120fa:	f426                	sd	s1,40(sp)
   120fc:	f04a                	sd	s2,32(sp)
   120fe:	ec4e                	sd	s3,24(sp)
   12100:	e05a                	sd	s6,0(sp)
   12102:	375140ef          	jal	26c76 <puts>
   12106:	00031537          	lui	a0,0x31
   1210a:	8656                	mv	a2,s5
   1210c:	85d2                	mv	a1,s4
   1210e:	f7850513          	addi	a0,a0,-136 # 30f78 <__clzdi2+0x6ea>
   12112:	189140ef          	jal	26a9a <printf>
   12116:	557d                	li	a0,-1
   12118:	d9efe0ef          	jal	106b6 <exit>

000000000001211c <_Z21fit_vector_mul_scalarPsPKssm>:
   1211c:	02000793          	li	a5,32
   12120:	02d7e063          	bltu	a5,a3,12140 <_Z21fit_vector_mul_scalarPsPKssm+0x24>
   12124:	872a                	mv	a4,a0
   12126:	8536                	mv	a0,a3
   12128:	1805200b          	.insn	4, 0x1805200b
   1212c:	852e                	mv	a0,a1
   1212e:	1005208b          	.insn	4, 0x1005208b
   12132:	8532                	mv	a0,a2
   12134:	0a15210b          	.insn	4, 0x0a15210b
   12138:	853a                	mv	a0,a4
   1213a:	1235200b          	.insn	4, 0x1235200b
   1213e:	8082                	ret
   12140:	000316b7          	lui	a3,0x31
   12144:	00031637          	lui	a2,0x31
   12148:	00031537          	lui	a0,0x31
   1214c:	1141                	addi	sp,sp,-16
   1214e:	e3868693          	addi	a3,a3,-456 # 30e38 <__clzdi2+0x5aa>
   12152:	28860613          	addi	a2,a2,648 # 31288 <__clzdi2+0x9fa>
   12156:	e9850513          	addi	a0,a0,-360 # 30e98 <__clzdi2+0x60a>
   1215a:	0c400593          	li	a1,196
   1215e:	e406                	sd	ra,8(sp)
   12160:	73f110ef          	jal	2409e <__assert_func>

0000000000012164 <_Z23tiled_vector_mul_scalarPsPKssm>:
   12164:	c159                	beqz	a0,121ea <_Z23tiled_vector_mul_scalarPsPKssm+0x86>
   12166:	02000793          	li	a5,32
   1216a:	832a                	mv	t1,a0
   1216c:	06d7f263          	bgeu	a5,a3,121d0 <_Z23tiled_vector_mul_scalarPsPKssm+0x6c>
   12170:	01f6fe13          	andi	t3,a3,31
   12174:	0056d893          	srli	a7,a3,0x5
   12178:	882e                	mv	a6,a1
   1217a:	872a                	mv	a4,a0
   1217c:	4781                	li	a5,0
   1217e:	02000513          	li	a0,32
   12182:	1805200b          	.insn	4, 0x1805200b
   12186:	8542                	mv	a0,a6
   12188:	1005208b          	.insn	4, 0x1005208b
   1218c:	8532                	mv	a0,a2
   1218e:	0a15210b          	.insn	4, 0x0a15210b
   12192:	853a                	mv	a0,a4
   12194:	1235200b          	.insn	4, 0x1235200b
   12198:	0785                	addi	a5,a5,1
   1219a:	04080813          	addi	a6,a6,64
   1219e:	04070713          	addi	a4,a4,64
   121a2:	fcf89ee3          	bne	a7,a5,1217e <_Z23tiled_vector_mul_scalarPsPKssm+0x1a>
   121a6:	000e1363          	bnez	t3,121ac <_Z23tiled_vector_mul_scalarPsPKssm+0x48>
   121aa:	8082                	ret
   121ac:	41c686b3          	sub	a3,a3,t3
   121b0:	0686                	slli	a3,a3,0x1
   121b2:	8572                	mv	a0,t3
   121b4:	1805200b          	.insn	4, 0x1805200b
   121b8:	00d58533          	add	a0,a1,a3
   121bc:	1005208b          	.insn	4, 0x1005208b
   121c0:	8532                	mv	a0,a2
   121c2:	0a15210b          	.insn	4, 0x0a15210b
   121c6:	00d30533          	add	a0,t1,a3
   121ca:	1235200b          	.insn	4, 0x1235200b
   121ce:	8082                	ret
   121d0:	8536                	mv	a0,a3
   121d2:	1805200b          	.insn	4, 0x1805200b
   121d6:	852e                	mv	a0,a1
   121d8:	1005208b          	.insn	4, 0x1005208b
   121dc:	8532                	mv	a0,a2
   121de:	0a15210b          	.insn	4, 0x0a15210b
   121e2:	851a                	mv	a0,t1
   121e4:	1235200b          	.insn	4, 0x1235200b
   121e8:	8082                	ret
   121ea:	00031537          	lui	a0,0x31
   121ee:	1101                	addi	sp,sp,-32
   121f0:	2d050513          	addi	a0,a0,720 # 312d0 <__clzdi2+0xa42>
   121f4:	ec06                	sd	ra,24(sp)
   121f6:	e436                	sd	a3,8(sp)
   121f8:	27f140ef          	jal	26c76 <puts>
   121fc:	65a2                	ld	a1,8(sp)
   121fe:	00031537          	lui	a0,0x31
   12202:	f0050513          	addi	a0,a0,-256 # 30f00 <__clzdi2+0x672>
   12206:	095140ef          	jal	26a9a <printf>
   1220a:	557d                	li	a0,-1
   1220c:	caafe0ef          	jal	106b6 <exit>

0000000000012210 <_Z23tiled_matrix_mul_scalarPsPKssmm>:
   12210:	7139                	addi	sp,sp,-64
   12212:	e852                	sd	s4,16(sp)
   12214:	e456                	sd	s5,8(sp)
   12216:	fc06                	sd	ra,56(sp)
   12218:	8a36                	mv	s4,a3
   1221a:	8aba                	mv	s5,a4
   1221c:	c131                	beqz	a0,12260 <_Z23tiled_matrix_mul_scalarPsPKssmm+0x50>
   1221e:	ce85                	beqz	a3,12256 <_Z23tiled_matrix_mul_scalarPsPKssmm+0x46>
   12220:	f822                	sd	s0,48(sp)
   12222:	f426                	sd	s1,40(sp)
   12224:	f04a                	sd	s2,32(sp)
   12226:	ec4e                	sd	s3,24(sp)
   12228:	e05a                	sd	s6,0(sp)
   1222a:	842a                	mv	s0,a0
   1222c:	8b32                	mv	s6,a2
   1222e:	84ae                	mv	s1,a1
   12230:	00171993          	slli	s3,a4,0x1
   12234:	4901                	li	s2,0
   12236:	85a6                	mv	a1,s1
   12238:	8522                	mv	a0,s0
   1223a:	86d6                	mv	a3,s5
   1223c:	865a                	mv	a2,s6
   1223e:	0905                	addi	s2,s2,1
   12240:	f25ff0ef          	jal	12164 <_Z23tiled_vector_mul_scalarPsPKssm>
   12244:	944e                	add	s0,s0,s3
   12246:	94ce                	add	s1,s1,s3
   12248:	ff2a17e3          	bne	s4,s2,12236 <_Z23tiled_matrix_mul_scalarPsPKssmm+0x26>
   1224c:	7442                	ld	s0,48(sp)
   1224e:	74a2                	ld	s1,40(sp)
   12250:	7902                	ld	s2,32(sp)
   12252:	69e2                	ld	s3,24(sp)
   12254:	6b02                	ld	s6,0(sp)
   12256:	70e2                	ld	ra,56(sp)
   12258:	6a42                	ld	s4,16(sp)
   1225a:	6aa2                	ld	s5,8(sp)
   1225c:	6121                	addi	sp,sp,64
   1225e:	8082                	ret
   12260:	00031537          	lui	a0,0x31
   12264:	32850513          	addi	a0,a0,808 # 31328 <__clzdi2+0xa9a>
   12268:	f822                	sd	s0,48(sp)
   1226a:	f426                	sd	s1,40(sp)
   1226c:	f04a                	sd	s2,32(sp)
   1226e:	ec4e                	sd	s3,24(sp)
   12270:	e05a                	sd	s6,0(sp)
   12272:	205140ef          	jal	26c76 <puts>
   12276:	00031537          	lui	a0,0x31
   1227a:	8656                	mv	a2,s5
   1227c:	85d2                	mv	a1,s4
   1227e:	f7850513          	addi	a0,a0,-136 # 30f78 <__clzdi2+0x6ea>
   12282:	019140ef          	jal	26a9a <printf>
   12286:	557d                	li	a0,-1
   12288:	c2efe0ef          	jal	106b6 <exit>

000000000001228c <_Z21fit_vector_div_scalarPsPKssm>:
   1228c:	02000793          	li	a5,32
   12290:	02d7e063          	bltu	a5,a3,122b0 <_Z21fit_vector_div_scalarPsPKssm+0x24>
   12294:	872a                	mv	a4,a0
   12296:	8536                	mv	a0,a3
   12298:	1805200b          	.insn	4, 0x1805200b
   1229c:	852e                	mv	a0,a1
   1229e:	1005208b          	.insn	4, 0x1005208b
   122a2:	8532                	mv	a0,a2
   122a4:	0c15210b          	.insn	4, 0x0c15210b
   122a8:	853a                	mv	a0,a4
   122aa:	1235200b          	.insn	4, 0x1235200b
   122ae:	8082                	ret
   122b0:	000316b7          	lui	a3,0x31
   122b4:	00031637          	lui	a2,0x31
   122b8:	00031537          	lui	a0,0x31
   122bc:	1141                	addi	sp,sp,-16
   122be:	e3868693          	addi	a3,a3,-456 # 30e38 <__clzdi2+0x5aa>
   122c2:	38060613          	addi	a2,a2,896 # 31380 <__clzdi2+0xaf2>
   122c6:	e9850513          	addi	a0,a0,-360 # 30e98 <__clzdi2+0x60a>
   122ca:	0f300593          	li	a1,243
   122ce:	e406                	sd	ra,8(sp)
   122d0:	5cf110ef          	jal	2409e <__assert_func>

00000000000122d4 <_Z23tiled_vector_div_scalarPsPKssm>:
   122d4:	c159                	beqz	a0,1235a <_Z23tiled_vector_div_scalarPsPKssm+0x86>
   122d6:	02000793          	li	a5,32
   122da:	832a                	mv	t1,a0
   122dc:	06d7f263          	bgeu	a5,a3,12340 <_Z23tiled_vector_div_scalarPsPKssm+0x6c>
   122e0:	01f6fe13          	andi	t3,a3,31
   122e4:	0056d893          	srli	a7,a3,0x5
   122e8:	882e                	mv	a6,a1
   122ea:	872a                	mv	a4,a0
   122ec:	4781                	li	a5,0
   122ee:	02000513          	li	a0,32
   122f2:	1805200b          	.insn	4, 0x1805200b
   122f6:	8542                	mv	a0,a6
   122f8:	1005208b          	.insn	4, 0x1005208b
   122fc:	8532                	mv	a0,a2
   122fe:	0c15210b          	.insn	4, 0x0c15210b
   12302:	853a                	mv	a0,a4
   12304:	1235200b          	.insn	4, 0x1235200b
   12308:	0785                	addi	a5,a5,1
   1230a:	04080813          	addi	a6,a6,64
   1230e:	04070713          	addi	a4,a4,64
   12312:	fcf89ee3          	bne	a7,a5,122ee <_Z23tiled_vector_div_scalarPsPKssm+0x1a>
   12316:	000e1363          	bnez	t3,1231c <_Z23tiled_vector_div_scalarPsPKssm+0x48>
   1231a:	8082                	ret
   1231c:	41c686b3          	sub	a3,a3,t3
   12320:	0686                	slli	a3,a3,0x1
   12322:	8572                	mv	a0,t3
   12324:	1805200b          	.insn	4, 0x1805200b
   12328:	00d58533          	add	a0,a1,a3
   1232c:	1005208b          	.insn	4, 0x1005208b
   12330:	8532                	mv	a0,a2
   12332:	0c15210b          	.insn	4, 0x0c15210b
   12336:	00d30533          	add	a0,t1,a3
   1233a:	1235200b          	.insn	4, 0x1235200b
   1233e:	8082                	ret
   12340:	8536                	mv	a0,a3
   12342:	1805200b          	.insn	4, 0x1805200b
   12346:	852e                	mv	a0,a1
   12348:	1005208b          	.insn	4, 0x1005208b
   1234c:	8532                	mv	a0,a2
   1234e:	0c15210b          	.insn	4, 0x0c15210b
   12352:	851a                	mv	a0,t1
   12354:	1235200b          	.insn	4, 0x1235200b
   12358:	8082                	ret
   1235a:	00031537          	lui	a0,0x31
   1235e:	1101                	addi	sp,sp,-32
   12360:	3c850513          	addi	a0,a0,968 # 313c8 <__clzdi2+0xb3a>
   12364:	ec06                	sd	ra,24(sp)
   12366:	e436                	sd	a3,8(sp)
   12368:	10f140ef          	jal	26c76 <puts>
   1236c:	65a2                	ld	a1,8(sp)
   1236e:	00031537          	lui	a0,0x31
   12372:	f0050513          	addi	a0,a0,-256 # 30f00 <__clzdi2+0x672>
   12376:	724140ef          	jal	26a9a <printf>
   1237a:	557d                	li	a0,-1
   1237c:	b3afe0ef          	jal	106b6 <exit>

0000000000012380 <_Z23tiled_matrix_div_scalarPsPKssmm>:
   12380:	7139                	addi	sp,sp,-64
   12382:	e852                	sd	s4,16(sp)
   12384:	e456                	sd	s5,8(sp)
   12386:	fc06                	sd	ra,56(sp)
   12388:	8a36                	mv	s4,a3
   1238a:	8aba                	mv	s5,a4
   1238c:	c131                	beqz	a0,123d0 <_Z23tiled_matrix_div_scalarPsPKssmm+0x50>
   1238e:	ce85                	beqz	a3,123c6 <_Z23tiled_matrix_div_scalarPsPKssmm+0x46>
   12390:	f822                	sd	s0,48(sp)
   12392:	f426                	sd	s1,40(sp)
   12394:	f04a                	sd	s2,32(sp)
   12396:	ec4e                	sd	s3,24(sp)
   12398:	e05a                	sd	s6,0(sp)
   1239a:	842a                	mv	s0,a0
   1239c:	8b32                	mv	s6,a2
   1239e:	84ae                	mv	s1,a1
   123a0:	00171993          	slli	s3,a4,0x1
   123a4:	4901                	li	s2,0
   123a6:	85a6                	mv	a1,s1
   123a8:	8522                	mv	a0,s0
   123aa:	86d6                	mv	a3,s5
   123ac:	865a                	mv	a2,s6
   123ae:	0905                	addi	s2,s2,1
   123b0:	f25ff0ef          	jal	122d4 <_Z23tiled_vector_div_scalarPsPKssm>
   123b4:	944e                	add	s0,s0,s3
   123b6:	94ce                	add	s1,s1,s3
   123b8:	ff2a17e3          	bne	s4,s2,123a6 <_Z23tiled_matrix_div_scalarPsPKssmm+0x26>
   123bc:	7442                	ld	s0,48(sp)
   123be:	74a2                	ld	s1,40(sp)
   123c0:	7902                	ld	s2,32(sp)
   123c2:	69e2                	ld	s3,24(sp)
   123c4:	6b02                	ld	s6,0(sp)
   123c6:	70e2                	ld	ra,56(sp)
   123c8:	6a42                	ld	s4,16(sp)
   123ca:	6aa2                	ld	s5,8(sp)
   123cc:	6121                	addi	sp,sp,64
   123ce:	8082                	ret
   123d0:	00031537          	lui	a0,0x31
   123d4:	42050513          	addi	a0,a0,1056 # 31420 <__clzdi2+0xb92>
   123d8:	f822                	sd	s0,48(sp)
   123da:	f426                	sd	s1,40(sp)
   123dc:	f04a                	sd	s2,32(sp)
   123de:	ec4e                	sd	s3,24(sp)
   123e0:	e05a                	sd	s6,0(sp)
   123e2:	095140ef          	jal	26c76 <puts>
   123e6:	00031537          	lui	a0,0x31
   123ea:	8656                	mv	a2,s5
   123ec:	85d2                	mv	a1,s4
   123ee:	f7850513          	addi	a0,a0,-136 # 30f78 <__clzdi2+0x6ea>
   123f2:	6a8140ef          	jal	26a9a <printf>
   123f6:	557d                	li	a0,-1
   123f8:	abefe0ef          	jal	106b6 <exit>

00000000000123fc <_Z14fit_vector_maxPsPKsm>:
   123fc:	02000793          	li	a5,32
   12400:	00c7ee63          	bltu	a5,a2,1241c <_Z14fit_vector_maxPsPKsm+0x20>
   12404:	872a                	mv	a4,a0
   12406:	8532                	mv	a0,a2
   12408:	1805200b          	.insn	4, 0x1805200b
   1240c:	852e                	mv	a0,a1
   1240e:	1005208b          	.insn	4, 0x1005208b
   12412:	1600c50b          	.insn	4, 0x1600c50b
   12416:	00a71023          	sh	a0,0(a4)
   1241a:	8082                	ret
   1241c:	000316b7          	lui	a3,0x31
   12420:	00031637          	lui	a2,0x31
   12424:	00031537          	lui	a0,0x31
   12428:	1141                	addi	sp,sp,-16
   1242a:	e3868693          	addi	a3,a3,-456 # 30e38 <__clzdi2+0x5aa>
   1242e:	47860613          	addi	a2,a2,1144 # 31478 <__clzdi2+0xbea>
   12432:	4b050513          	addi	a0,a0,1200 # 314b0 <__clzdi2+0xc22>
   12436:	4599                	li	a1,6
   12438:	e406                	sd	ra,8(sp)
   1243a:	465110ef          	jal	2409e <__assert_func>

000000000001243e <_Z16tiled_vector_maxPsPKsm>:
   1243e:	c14d                	beqz	a0,124e0 <_Z16tiled_vector_maxPsPKsm+0xa2>
   12440:	02000793          	li	a5,32
   12444:	8e2a                	mv	t3,a0
   12446:	06c7fe63          	bgeu	a5,a2,124c2 <_Z16tiled_vector_maxPsPKsm+0x84>
   1244a:	01f67e93          	andi	t4,a2,31
   1244e:	00565313          	srli	t1,a2,0x5
   12452:	882e                	mv	a6,a1
   12454:	7761                	lui	a4,0xffff8
   12456:	4681                	li	a3,0
   12458:	02000513          	li	a0,32
   1245c:	1805200b          	.insn	4, 0x1805200b
   12460:	8542                	mv	a0,a6
   12462:	1005208b          	.insn	4, 0x1005208b
   12466:	1600c50b          	.insn	4, 0x1600c50b
   1246a:	0105189b          	slliw	a7,a0,0x10
   1246e:	4108d89b          	sraiw	a7,a7,0x10
   12472:	87aa                	mv	a5,a0
   12474:	00e8d363          	bge	a7,a4,1247a <_Z16tiled_vector_maxPsPKsm+0x3c>
   12478:	87ba                	mv	a5,a4
   1247a:	0107971b          	slliw	a4,a5,0x10
   1247e:	0685                	addi	a3,a3,1
   12480:	04080813          	addi	a6,a6,64
   12484:	4107571b          	sraiw	a4,a4,0x10
   12488:	fcd318e3          	bne	t1,a3,12458 <_Z16tiled_vector_maxPsPKsm+0x1a>
   1248c:	000e9563          	bnez	t4,12496 <_Z16tiled_vector_maxPsPKsm+0x58>
   12490:	00ee1023          	sh	a4,0(t3)
   12494:	8082                	ret
   12496:	41d60633          	sub	a2,a2,t4
   1249a:	0606                	slli	a2,a2,0x1
   1249c:	8576                	mv	a0,t4
   1249e:	1805200b          	.insn	4, 0x1805200b
   124a2:	00c58533          	add	a0,a1,a2
   124a6:	1005208b          	.insn	4, 0x1005208b
   124aa:	1600c50b          	.insn	4, 0x1600c50b
   124ae:	0105169b          	slliw	a3,a0,0x10
   124b2:	4106d69b          	sraiw	a3,a3,0x10
   124b6:	02e6c263          	blt	a3,a4,124da <_Z16tiled_vector_maxPsPKsm+0x9c>
   124ba:	872a                	mv	a4,a0
   124bc:	00ee1023          	sh	a4,0(t3)
   124c0:	8082                	ret
   124c2:	8532                	mv	a0,a2
   124c4:	1805200b          	.insn	4, 0x1805200b
   124c8:	852e                	mv	a0,a1
   124ca:	1005208b          	.insn	4, 0x1005208b
   124ce:	1600c50b          	.insn	4, 0x1600c50b
   124d2:	872a                	mv	a4,a0
   124d4:	00ee1023          	sh	a4,0(t3)
   124d8:	8082                	ret
   124da:	853e                	mv	a0,a5
   124dc:	872a                	mv	a4,a0
   124de:	bff9                	j	124bc <_Z16tiled_vector_maxPsPKsm+0x7e>
   124e0:	00031537          	lui	a0,0x31
   124e4:	1141                	addi	sp,sp,-16
   124e6:	4c850513          	addi	a0,a0,1224 # 314c8 <__clzdi2+0xc3a>
   124ea:	e406                	sd	ra,8(sp)
   124ec:	78a140ef          	jal	26c76 <puts>
   124f0:	00031537          	lui	a0,0x31
   124f4:	c1850513          	addi	a0,a0,-1000 # 30c18 <__clzdi2+0x38a>
   124f8:	77e140ef          	jal	26c76 <puts>
   124fc:	557d                	li	a0,-1
   124fe:	9b8fe0ef          	jal	106b6 <exit>

0000000000012502 <_Z23tiled_matrix_vector_maxPsPKsmm>:
   12502:	7139                	addi	sp,sp,-64
   12504:	ec4e                	sd	s3,24(sp)
   12506:	fc06                	sd	ra,56(sp)
   12508:	89b2                	mv	s3,a2
   1250a:	c121                	beqz	a0,1254a <_Z23tiled_matrix_vector_maxPsPKsmm+0x48>
   1250c:	ca1d                	beqz	a2,12542 <_Z23tiled_matrix_vector_maxPsPKsmm+0x40>
   1250e:	f822                	sd	s0,48(sp)
   12510:	f426                	sd	s1,40(sp)
   12512:	f04a                	sd	s2,32(sp)
   12514:	e852                	sd	s4,16(sp)
   12516:	e456                	sd	s5,8(sp)
   12518:	8a36                	mv	s4,a3
   1251a:	842a                	mv	s0,a0
   1251c:	84ae                	mv	s1,a1
   1251e:	00169a93          	slli	s5,a3,0x1
   12522:	4901                	li	s2,0
   12524:	85a6                	mv	a1,s1
   12526:	8522                	mv	a0,s0
   12528:	8652                	mv	a2,s4
   1252a:	0905                	addi	s2,s2,1
   1252c:	f13ff0ef          	jal	1243e <_Z16tiled_vector_maxPsPKsm>
   12530:	0409                	addi	s0,s0,2
   12532:	94d6                	add	s1,s1,s5
   12534:	ff2998e3          	bne	s3,s2,12524 <_Z23tiled_matrix_vector_maxPsPKsmm+0x22>
   12538:	7442                	ld	s0,48(sp)
   1253a:	74a2                	ld	s1,40(sp)
   1253c:	7902                	ld	s2,32(sp)
   1253e:	6a42                	ld	s4,16(sp)
   12540:	6aa2                	ld	s5,8(sp)
   12542:	70e2                	ld	ra,56(sp)
   12544:	69e2                	ld	s3,24(sp)
   12546:	6121                	addi	sp,sp,64
   12548:	8082                	ret
   1254a:	00031537          	lui	a0,0x31
   1254e:	51850513          	addi	a0,a0,1304 # 31518 <__clzdi2+0xc8a>
   12552:	f822                	sd	s0,48(sp)
   12554:	f426                	sd	s1,40(sp)
   12556:	f04a                	sd	s2,32(sp)
   12558:	e852                	sd	s4,16(sp)
   1255a:	e456                	sd	s5,8(sp)
   1255c:	71a140ef          	jal	26c76 <puts>
   12560:	00031537          	lui	a0,0x31
   12564:	85ce                	mv	a1,s3
   12566:	57050513          	addi	a0,a0,1392 # 31570 <__clzdi2+0xce2>
   1256a:	530140ef          	jal	26a9a <printf>
   1256e:	557d                	li	a0,-1
   12570:	946fe0ef          	jal	106b6 <exit>

0000000000012574 <_Z14fit_vector_minPsPKsm>:
   12574:	02000793          	li	a5,32
   12578:	00c7ee63          	bltu	a5,a2,12594 <_Z14fit_vector_minPsPKsm+0x20>
   1257c:	872a                	mv	a4,a0
   1257e:	8532                	mv	a0,a2
   12580:	1805200b          	.insn	4, 0x1805200b
   12584:	852e                	mv	a0,a1
   12586:	1005208b          	.insn	4, 0x1005208b
   1258a:	1610c50b          	.insn	4, 0x1610c50b
   1258e:	00a71023          	sh	a0,0(a4) # ffffffffffff8000 <__BSS_END__+0xffffffffffbb5118>
   12592:	8082                	ret
   12594:	000316b7          	lui	a3,0x31
   12598:	00031637          	lui	a2,0x31
   1259c:	00031537          	lui	a0,0x31
   125a0:	1141                	addi	sp,sp,-16
   125a2:	e3868693          	addi	a3,a3,-456 # 30e38 <__clzdi2+0x5aa>
   125a6:	59060613          	addi	a2,a2,1424 # 31590 <__clzdi2+0xd02>
   125aa:	4b050513          	addi	a0,a0,1200 # 314b0 <__clzdi2+0xc22>
   125ae:	03400593          	li	a1,52
   125b2:	e406                	sd	ra,8(sp)
   125b4:	2eb110ef          	jal	2409e <__assert_func>

00000000000125b8 <_Z16tiled_vector_minPsPKsm>:
   125b8:	c155                	beqz	a0,1265c <_Z16tiled_vector_minPsPKsm+0xa4>
   125ba:	02000793          	li	a5,32
   125be:	8e2a                	mv	t3,a0
   125c0:	06c7ff63          	bgeu	a5,a2,1263e <_Z16tiled_vector_minPsPKsm+0x86>
   125c4:	6721                	lui	a4,0x8
   125c6:	177d                	addi	a4,a4,-1 # 7fff <__cxa_bad_cast-0x8121>
   125c8:	01f67e93          	andi	t4,a2,31
   125cc:	00565313          	srli	t1,a2,0x5
   125d0:	882e                	mv	a6,a1
   125d2:	4681                	li	a3,0
   125d4:	02000513          	li	a0,32
   125d8:	1805200b          	.insn	4, 0x1805200b
   125dc:	8542                	mv	a0,a6
   125de:	1005208b          	.insn	4, 0x1005208b
   125e2:	1610c50b          	.insn	4, 0x1610c50b
   125e6:	0105189b          	slliw	a7,a0,0x10
   125ea:	4108d89b          	sraiw	a7,a7,0x10
   125ee:	87aa                	mv	a5,a0
   125f0:	01175363          	bge	a4,a7,125f6 <_Z16tiled_vector_minPsPKsm+0x3e>
   125f4:	87ba                	mv	a5,a4
   125f6:	0107971b          	slliw	a4,a5,0x10
   125fa:	0685                	addi	a3,a3,1
   125fc:	04080813          	addi	a6,a6,64
   12600:	4107571b          	sraiw	a4,a4,0x10
   12604:	fcd318e3          	bne	t1,a3,125d4 <_Z16tiled_vector_minPsPKsm+0x1c>
   12608:	000e9563          	bnez	t4,12612 <_Z16tiled_vector_minPsPKsm+0x5a>
   1260c:	00ee1023          	sh	a4,0(t3)
   12610:	8082                	ret
   12612:	41d60633          	sub	a2,a2,t4
   12616:	0606                	slli	a2,a2,0x1
   12618:	8576                	mv	a0,t4
   1261a:	1805200b          	.insn	4, 0x1805200b
   1261e:	00c58533          	add	a0,a1,a2
   12622:	1005208b          	.insn	4, 0x1005208b
   12626:	1610c50b          	.insn	4, 0x1610c50b
   1262a:	0105169b          	slliw	a3,a0,0x10
   1262e:	4106d69b          	sraiw	a3,a3,0x10
   12632:	02d74263          	blt	a4,a3,12656 <_Z16tiled_vector_minPsPKsm+0x9e>
   12636:	872a                	mv	a4,a0
   12638:	00ee1023          	sh	a4,0(t3)
   1263c:	8082                	ret
   1263e:	8532                	mv	a0,a2
   12640:	1805200b          	.insn	4, 0x1805200b
   12644:	852e                	mv	a0,a1
   12646:	1005208b          	.insn	4, 0x1005208b
   1264a:	1610c50b          	.insn	4, 0x1610c50b
   1264e:	872a                	mv	a4,a0
   12650:	00ee1023          	sh	a4,0(t3)
   12654:	8082                	ret
   12656:	853e                	mv	a0,a5
   12658:	872a                	mv	a4,a0
   1265a:	bff9                	j	12638 <_Z16tiled_vector_minPsPKsm+0x80>
   1265c:	00031537          	lui	a0,0x31
   12660:	1141                	addi	sp,sp,-16
   12662:	5c850513          	addi	a0,a0,1480 # 315c8 <__clzdi2+0xd3a>
   12666:	e406                	sd	ra,8(sp)
   12668:	60e140ef          	jal	26c76 <puts>
   1266c:	00031537          	lui	a0,0x31
   12670:	c1850513          	addi	a0,a0,-1000 # 30c18 <__clzdi2+0x38a>
   12674:	602140ef          	jal	26c76 <puts>
   12678:	557d                	li	a0,-1
   1267a:	83cfe0ef          	jal	106b6 <exit>

000000000001267e <_Z23tiled_matrix_vector_minPsPKsmm>:
   1267e:	7139                	addi	sp,sp,-64
   12680:	ec4e                	sd	s3,24(sp)
   12682:	fc06                	sd	ra,56(sp)
   12684:	89b2                	mv	s3,a2
   12686:	c121                	beqz	a0,126c6 <_Z23tiled_matrix_vector_minPsPKsmm+0x48>
   12688:	ca1d                	beqz	a2,126be <_Z23tiled_matrix_vector_minPsPKsmm+0x40>
   1268a:	f822                	sd	s0,48(sp)
   1268c:	f426                	sd	s1,40(sp)
   1268e:	f04a                	sd	s2,32(sp)
   12690:	e852                	sd	s4,16(sp)
   12692:	e456                	sd	s5,8(sp)
   12694:	8a36                	mv	s4,a3
   12696:	842a                	mv	s0,a0
   12698:	84ae                	mv	s1,a1
   1269a:	00169a93          	slli	s5,a3,0x1
   1269e:	4901                	li	s2,0
   126a0:	85a6                	mv	a1,s1
   126a2:	8522                	mv	a0,s0
   126a4:	8652                	mv	a2,s4
   126a6:	0905                	addi	s2,s2,1
   126a8:	f11ff0ef          	jal	125b8 <_Z16tiled_vector_minPsPKsm>
   126ac:	0409                	addi	s0,s0,2
   126ae:	94d6                	add	s1,s1,s5
   126b0:	ff2998e3          	bne	s3,s2,126a0 <_Z23tiled_matrix_vector_minPsPKsmm+0x22>
   126b4:	7442                	ld	s0,48(sp)
   126b6:	74a2                	ld	s1,40(sp)
   126b8:	7902                	ld	s2,32(sp)
   126ba:	6a42                	ld	s4,16(sp)
   126bc:	6aa2                	ld	s5,8(sp)
   126be:	70e2                	ld	ra,56(sp)
   126c0:	69e2                	ld	s3,24(sp)
   126c2:	6121                	addi	sp,sp,64
   126c4:	8082                	ret
   126c6:	00031537          	lui	a0,0x31
   126ca:	61850513          	addi	a0,a0,1560 # 31618 <__clzdi2+0xd8a>
   126ce:	f822                	sd	s0,48(sp)
   126d0:	f426                	sd	s1,40(sp)
   126d2:	f04a                	sd	s2,32(sp)
   126d4:	e852                	sd	s4,16(sp)
   126d6:	e456                	sd	s5,8(sp)
   126d8:	59e140ef          	jal	26c76 <puts>
   126dc:	00031537          	lui	a0,0x31
   126e0:	85ce                	mv	a1,s3
   126e2:	57050513          	addi	a0,a0,1392 # 31570 <__clzdi2+0xce2>
   126e6:	3b4140ef          	jal	26a9a <printf>
   126ea:	557d                	li	a0,-1
   126ec:	fcbfd0ef          	jal	106b6 <exit>

00000000000126f0 <_Z18fit_vector_dropoutPsPKssm>:
   126f0:	02000793          	li	a5,32
   126f4:	02d7e163          	bltu	a5,a3,12716 <_Z18fit_vector_dropoutPsPKssm+0x26>
   126f8:	852e                	mv	a0,a1
   126fa:	1005258b          	.insn	4, 0x1005258b
   126fe:	8536                	mv	a0,a3
   12700:	1805200b          	.insn	4, 0x1805200b
   12704:	45ad                	li	a1,11
   12706:	18c5b08b          	.insn	4, 0x18c5b08b
   1270a:	0205858b          	.insn	4, 0x0205858b
   1270e:	567d                	li	a2,-1
   12710:	18c5b08b          	.insn	4, 0x18c5b08b
   12714:	8082                	ret
   12716:	000316b7          	lui	a3,0x31
   1271a:	00031637          	lui	a2,0x31
   1271e:	00031537          	lui	a0,0x31
   12722:	1141                	addi	sp,sp,-16
   12724:	e3868693          	addi	a3,a3,-456 # 30e38 <__clzdi2+0x5aa>
   12728:	67060613          	addi	a2,a2,1648 # 31670 <__clzdi2+0xde2>
   1272c:	4b050513          	addi	a0,a0,1200 # 314b0 <__clzdi2+0xc22>
   12730:	06200593          	li	a1,98
   12734:	e406                	sd	ra,8(sp)
   12736:	169110ef          	jal	2409e <__assert_func>

000000000001273a <_Z13vector_argmaxPsPKsm>:
   1273a:	7139                	addi	sp,sp,-64
   1273c:	f426                	sd	s1,40(sp)
   1273e:	84aa                	mv	s1,a0
   12740:	01e10513          	addi	a0,sp,30
   12744:	f822                	sd	s0,48(sp)
   12746:	e432                	sd	a2,8(sp)
   12748:	fc06                	sd	ra,56(sp)
   1274a:	842e                	mv	s0,a1
   1274c:	cf3ff0ef          	jal	1243e <_Z16tiled_vector_maxPsPKsm>
   12750:	6622                	ld	a2,8(sp)
   12752:	c60d                	beqz	a2,1277c <_Z13vector_argmaxPsPKsm+0x42>
   12754:	01e11683          	lh	a3,30(sp)
   12758:	85a2                	mv	a1,s0
   1275a:	4781                	li	a5,0
   1275c:	a021                	j	12764 <_Z13vector_argmaxPsPKsm+0x2a>
   1275e:	0785                	addi	a5,a5,1
   12760:	00f60763          	beq	a2,a5,1276e <_Z13vector_argmaxPsPKsm+0x34>
   12764:	00059703          	lh	a4,0(a1)
   12768:	0589                	addi	a1,a1,2
   1276a:	fed71ae3          	bne	a4,a3,1275e <_Z13vector_argmaxPsPKsm+0x24>
   1276e:	70e2                	ld	ra,56(sp)
   12770:	7442                	ld	s0,48(sp)
   12772:	00f49023          	sh	a5,0(s1)
   12776:	74a2                	ld	s1,40(sp)
   12778:	6121                	addi	sp,sp,64
   1277a:	8082                	ret
   1277c:	4781                	li	a5,0
   1277e:	bfc5                	j	1276e <_Z13vector_argmaxPsPKsm+0x34>

0000000000012780 <_Z20matrix_vector_argmaxPsPKsmm>:
   12780:	715d                	addi	sp,sp,-80
   12782:	f052                	sd	s4,32(sp)
   12784:	e486                	sd	ra,72(sp)
   12786:	8a32                	mv	s4,a2
   12788:	c935                	beqz	a0,127fc <_Z20matrix_vector_argmaxPsPKsmm+0x7c>
   1278a:	ce21                	beqz	a2,127e2 <_Z20matrix_vector_argmaxPsPKsmm+0x62>
   1278c:	e0a2                	sd	s0,64(sp)
   1278e:	fc26                	sd	s1,56(sp)
   12790:	f84a                	sd	s2,48(sp)
   12792:	f44e                	sd	s3,40(sp)
   12794:	ec56                	sd	s5,24(sp)
   12796:	8436                	mv	s0,a3
   12798:	84ae                	mv	s1,a1
   1279a:	892a                	mv	s2,a0
   1279c:	00169a93          	slli	s5,a3,0x1
   127a0:	4981                	li	s3,0
   127a2:	8622                	mv	a2,s0
   127a4:	85a6                	mv	a1,s1
   127a6:	00e10513          	addi	a0,sp,14
   127aa:	c95ff0ef          	jal	1243e <_Z16tiled_vector_maxPsPKsm>
   127ae:	cc15                	beqz	s0,127ea <_Z20matrix_vector_argmaxPsPKsmm+0x6a>
   127b0:	00e11683          	lh	a3,14(sp)
   127b4:	8726                	mv	a4,s1
   127b6:	4781                	li	a5,0
   127b8:	a029                	j	127c2 <_Z20matrix_vector_argmaxPsPKsmm+0x42>
   127ba:	0785                	addi	a5,a5,1
   127bc:	0709                	addi	a4,a4,2
   127be:	00f40663          	beq	s0,a5,127ca <_Z20matrix_vector_argmaxPsPKsmm+0x4a>
   127c2:	00071803          	lh	a6,0(a4)
   127c6:	fed81ae3          	bne	a6,a3,127ba <_Z20matrix_vector_argmaxPsPKsmm+0x3a>
   127ca:	00f91023          	sh	a5,0(s2)
   127ce:	0985                	addi	s3,s3,1
   127d0:	94d6                	add	s1,s1,s5
   127d2:	0909                	addi	s2,s2,2
   127d4:	fd3a17e3          	bne	s4,s3,127a2 <_Z20matrix_vector_argmaxPsPKsmm+0x22>
   127d8:	6406                	ld	s0,64(sp)
   127da:	74e2                	ld	s1,56(sp)
   127dc:	7942                	ld	s2,48(sp)
   127de:	79a2                	ld	s3,40(sp)
   127e0:	6ae2                	ld	s5,24(sp)
   127e2:	60a6                	ld	ra,72(sp)
   127e4:	7a02                	ld	s4,32(sp)
   127e6:	6161                	addi	sp,sp,80
   127e8:	8082                	ret
   127ea:	4781                	li	a5,0
   127ec:	00f91023          	sh	a5,0(s2)
   127f0:	0985                	addi	s3,s3,1
   127f2:	94d6                	add	s1,s1,s5
   127f4:	0909                	addi	s2,s2,2
   127f6:	fb3a16e3          	bne	s4,s3,127a2 <_Z20matrix_vector_argmaxPsPKsmm+0x22>
   127fa:	bff9                	j	127d8 <_Z20matrix_vector_argmaxPsPKsmm+0x58>
   127fc:	00031537          	lui	a0,0x31
   12800:	6b050513          	addi	a0,a0,1712 # 316b0 <__clzdi2+0xe22>
   12804:	e0a2                	sd	s0,64(sp)
   12806:	fc26                	sd	s1,56(sp)
   12808:	f84a                	sd	s2,48(sp)
   1280a:	f44e                	sd	s3,40(sp)
   1280c:	ec56                	sd	s5,24(sp)
   1280e:	468140ef          	jal	26c76 <puts>
   12812:	00031537          	lui	a0,0x31
   12816:	85d2                	mv	a1,s4
   12818:	57050513          	addi	a0,a0,1392 # 31570 <__clzdi2+0xce2>
   1281c:	27e140ef          	jal	26a9a <printf>
   12820:	557d                	li	a0,-1
   12822:	e95fd0ef          	jal	106b6 <exit>

0000000000012826 <_Z12vector_shiftPsmm11direction_t>:
   12826:	c215                	beqz	a2,1284a <_Z12vector_shiftPsmm11direction_t+0x24>
   12828:	c121                	beqz	a0,12868 <_Z12vector_shiftPsmm11direction_t+0x42>
   1282a:	4785                	li	a5,1
   1282c:	02f68063          	beq	a3,a5,1284c <_Z12vector_shiftPsmm11direction_t+0x26>
   12830:	00159713          	slli	a4,a1,0x1
   12834:	972a                	add	a4,a4,a0
   12836:	c985                	beqz	a1,12866 <_Z12vector_shiftPsmm11direction_t+0x40>
   12838:	00051783          	lh	a5,0(a0)
   1283c:	0509                	addi	a0,a0,2
   1283e:	00c797bb          	sllw	a5,a5,a2
   12842:	fef51f23          	sh	a5,-2(a0)
   12846:	fea719e3          	bne	a4,a0,12838 <_Z12vector_shiftPsmm11direction_t+0x12>
   1284a:	8082                	ret
   1284c:	ddfd                	beqz	a1,1284a <_Z12vector_shiftPsmm11direction_t+0x24>
   1284e:	0586                	slli	a1,a1,0x1
   12850:	95aa                	add	a1,a1,a0
   12852:	00051783          	lh	a5,0(a0)
   12856:	0509                	addi	a0,a0,2
   12858:	40c7d7bb          	sraw	a5,a5,a2
   1285c:	fef51f23          	sh	a5,-2(a0)
   12860:	fea599e3          	bne	a1,a0,12852 <_Z12vector_shiftPsmm11direction_t+0x2c>
   12864:	8082                	ret
   12866:	8082                	ret
   12868:	00031537          	lui	a0,0x31
   1286c:	1101                	addi	sp,sp,-32
   1286e:	70850513          	addi	a0,a0,1800 # 31708 <__clzdi2+0xe7a>
   12872:	ec06                	sd	ra,24(sp)
   12874:	e42e                	sd	a1,8(sp)
   12876:	400140ef          	jal	26c76 <puts>
   1287a:	65a2                	ld	a1,8(sp)
   1287c:	00031537          	lui	a0,0x31
   12880:	75850513          	addi	a0,a0,1880 # 31758 <__clzdi2+0xeca>
   12884:	216140ef          	jal	26a9a <printf>
   12888:	557d                	li	a0,-1
   1288a:	e2dfd0ef          	jal	106b6 <exit>

000000000001288e <_Z13mat_transposePsPKsmm>:
   1288e:	cd15                	beqz	a0,128ca <_Z13mat_transposePsPKsmm+0x3c>
   12890:	c611                	beqz	a2,1289c <_Z13mat_transposePsPKsmm+0xe>
   12892:	4881                	li	a7,0
   12894:	e689                	bnez	a3,1289e <_Z13mat_transposePsPKsmm+0x10>
   12896:	0885                	addi	a7,a7,1
   12898:	ff161fe3          	bne	a2,a7,12896 <_Z13mat_transposePsPKsmm+0x8>
   1289c:	8082                	ret
   1289e:	00169313          	slli	t1,a3,0x1
   128a2:	959a                	add	a1,a1,t1
   128a4:	00161813          	slli	a6,a2,0x1
   128a8:	406587b3          	sub	a5,a1,t1
   128ac:	872a                	mv	a4,a0
   128ae:	00079683          	lh	a3,0(a5)
   128b2:	0789                	addi	a5,a5,2
   128b4:	00d71023          	sh	a3,0(a4)
   128b8:	9742                	add	a4,a4,a6
   128ba:	fef59ae3          	bne	a1,a5,128ae <_Z13mat_transposePsPKsmm+0x20>
   128be:	0885                	addi	a7,a7,1
   128c0:	0509                	addi	a0,a0,2
   128c2:	959a                	add	a1,a1,t1
   128c4:	ff1612e3          	bne	a2,a7,128a8 <_Z13mat_transposePsPKsmm+0x1a>
   128c8:	8082                	ret
   128ca:	00031537          	lui	a0,0x31
   128ce:	1101                	addi	sp,sp,-32
   128d0:	77850513          	addi	a0,a0,1912 # 31778 <__clzdi2+0xeea>
   128d4:	ec06                	sd	ra,24(sp)
   128d6:	e436                	sd	a3,8(sp)
   128d8:	e032                	sd	a2,0(sp)
   128da:	39c140ef          	jal	26c76 <puts>
   128de:	6602                	ld	a2,0(sp)
   128e0:	65a2                	ld	a1,8(sp)
   128e2:	00031537          	lui	a0,0x31
   128e6:	7c850513          	addi	a0,a0,1992 # 317c8 <__clzdi2+0xf3a>
   128ea:	1b0140ef          	jal	26a9a <printf>
   128ee:	557d                	li	a0,-1
   128f0:	dc7fd0ef          	jal	106b6 <exit>

00000000000128f4 <_Z15fit_vector_reluPsPKsm>:
   128f4:	02000793          	li	a5,32
   128f8:	00c7ef63          	bltu	a5,a2,12916 <_Z15fit_vector_reluPsPKsm+0x22>
   128fc:	872a                	mv	a4,a0
   128fe:	8532                	mv	a0,a2
   12900:	1805200b          	.insn	4, 0x1805200b
   12904:	852e                	mv	a0,a1
   12906:	1005208b          	.insn	4, 0x1005208b
   1290a:	0e00810b          	.insn	4, 0x0e00810b
   1290e:	853a                	mv	a0,a4
   12910:	1225200b          	.insn	4, 0x1225200b
   12914:	8082                	ret
   12916:	000316b7          	lui	a3,0x31
   1291a:	00031637          	lui	a2,0x31
   1291e:	00032537          	lui	a0,0x32
   12922:	1141                	addi	sp,sp,-16
   12924:	e3868693          	addi	a3,a3,-456 # 30e38 <__clzdi2+0x5aa>
   12928:	7f060613          	addi	a2,a2,2032 # 317f0 <__clzdi2+0xf62>
   1292c:	82850513          	addi	a0,a0,-2008 # 31828 <__clzdi2+0xf9a>
   12930:	4599                	li	a1,6
   12932:	e406                	sd	ra,8(sp)
   12934:	76a110ef          	jal	2409e <__assert_func>

0000000000012938 <_Z17tiled_vector_reluPsPKsm>:
   12938:	c141                	beqz	a0,129b8 <_Z17tiled_vector_reluPsPKsm+0x80>
   1293a:	02000793          	li	a5,32
   1293e:	88aa                	mv	a7,a0
   12940:	06c7f063          	bgeu	a5,a2,129a0 <_Z17tiled_vector_reluPsPKsm+0x68>
   12944:	01f67313          	andi	t1,a2,31
   12948:	00565813          	srli	a6,a2,0x5
   1294c:	86ae                	mv	a3,a1
   1294e:	872a                	mv	a4,a0
   12950:	4781                	li	a5,0
   12952:	02000513          	li	a0,32
   12956:	1805200b          	.insn	4, 0x1805200b
   1295a:	8536                	mv	a0,a3
   1295c:	1005208b          	.insn	4, 0x1005208b
   12960:	0e00810b          	.insn	4, 0x0e00810b
   12964:	853a                	mv	a0,a4
   12966:	1225200b          	.insn	4, 0x1225200b
   1296a:	0785                	addi	a5,a5,1
   1296c:	04068693          	addi	a3,a3,64
   12970:	04070713          	addi	a4,a4,64
   12974:	fcf81fe3          	bne	a6,a5,12952 <_Z17tiled_vector_reluPsPKsm+0x1a>
   12978:	00031363          	bnez	t1,1297e <_Z17tiled_vector_reluPsPKsm+0x46>
   1297c:	8082                	ret
   1297e:	40660633          	sub	a2,a2,t1
   12982:	0606                	slli	a2,a2,0x1
   12984:	851a                	mv	a0,t1
   12986:	1805200b          	.insn	4, 0x1805200b
   1298a:	00c58533          	add	a0,a1,a2
   1298e:	1005208b          	.insn	4, 0x1005208b
   12992:	0e00810b          	.insn	4, 0x0e00810b
   12996:	00c88533          	add	a0,a7,a2
   1299a:	1225200b          	.insn	4, 0x1225200b
   1299e:	8082                	ret
   129a0:	8532                	mv	a0,a2
   129a2:	1805200b          	.insn	4, 0x1805200b
   129a6:	852e                	mv	a0,a1
   129a8:	1005208b          	.insn	4, 0x1005208b
   129ac:	0e00810b          	.insn	4, 0x0e00810b
   129b0:	8546                	mv	a0,a7
   129b2:	1225200b          	.insn	4, 0x1225200b
   129b6:	8082                	ret
   129b8:	00032537          	lui	a0,0x32
   129bc:	1101                	addi	sp,sp,-32
   129be:	84050513          	addi	a0,a0,-1984 # 31840 <__clzdi2+0xfb2>
   129c2:	ec06                	sd	ra,24(sp)
   129c4:	e432                	sd	a2,8(sp)
   129c6:	2b0140ef          	jal	26c76 <puts>
   129ca:	65a2                	ld	a1,8(sp)
   129cc:	00031537          	lui	a0,0x31
   129d0:	f0050513          	addi	a0,a0,-256 # 30f00 <__clzdi2+0x672>
   129d4:	0c6140ef          	jal	26a9a <printf>
   129d8:	557d                	li	a0,-1
   129da:	cddfd0ef          	jal	106b6 <exit>

00000000000129de <_Z17tiled_matrix_reluPsPKsmm>:
   129de:	7139                	addi	sp,sp,-64
   129e0:	e852                	sd	s4,16(sp)
   129e2:	e456                	sd	s5,8(sp)
   129e4:	fc06                	sd	ra,56(sp)
   129e6:	8a32                	mv	s4,a2
   129e8:	8ab6                	mv	s5,a3
   129ea:	cd15                	beqz	a0,12a26 <_Z17tiled_matrix_reluPsPKsmm+0x48>
   129ec:	ca05                	beqz	a2,12a1c <_Z17tiled_matrix_reluPsPKsmm+0x3e>
   129ee:	f822                	sd	s0,48(sp)
   129f0:	f426                	sd	s1,40(sp)
   129f2:	f04a                	sd	s2,32(sp)
   129f4:	ec4e                	sd	s3,24(sp)
   129f6:	842a                	mv	s0,a0
   129f8:	84ae                	mv	s1,a1
   129fa:	00169993          	slli	s3,a3,0x1
   129fe:	4901                	li	s2,0
   12a00:	85a6                	mv	a1,s1
   12a02:	8522                	mv	a0,s0
   12a04:	8656                	mv	a2,s5
   12a06:	0905                	addi	s2,s2,1
   12a08:	f31ff0ef          	jal	12938 <_Z17tiled_vector_reluPsPKsm>
   12a0c:	944e                	add	s0,s0,s3
   12a0e:	94ce                	add	s1,s1,s3
   12a10:	ff2a18e3          	bne	s4,s2,12a00 <_Z17tiled_matrix_reluPsPKsmm+0x22>
   12a14:	7442                	ld	s0,48(sp)
   12a16:	74a2                	ld	s1,40(sp)
   12a18:	7902                	ld	s2,32(sp)
   12a1a:	69e2                	ld	s3,24(sp)
   12a1c:	70e2                	ld	ra,56(sp)
   12a1e:	6a42                	ld	s4,16(sp)
   12a20:	6aa2                	ld	s5,8(sp)
   12a22:	6121                	addi	sp,sp,64
   12a24:	8082                	ret
   12a26:	00032537          	lui	a0,0x32
   12a2a:	89850513          	addi	a0,a0,-1896 # 31898 <__clzdi2+0x100a>
   12a2e:	f822                	sd	s0,48(sp)
   12a30:	f426                	sd	s1,40(sp)
   12a32:	f04a                	sd	s2,32(sp)
   12a34:	ec4e                	sd	s3,24(sp)
   12a36:	240140ef          	jal	26c76 <puts>
   12a3a:	00032537          	lui	a0,0x32
   12a3e:	8656                	mv	a2,s5
   12a40:	85d2                	mv	a1,s4
   12a42:	8f050513          	addi	a0,a0,-1808 # 318f0 <__clzdi2+0x1062>
   12a46:	054140ef          	jal	26a9a <printf>
   12a4a:	557d                	li	a0,-1
   12a4c:	c6bfd0ef          	jal	106b6 <exit>

0000000000012a50 <_Z15fit_vector_tanhPsPKsm>:
   12a50:	02000793          	li	a5,32
   12a54:	00c7ef63          	bltu	a5,a2,12a72 <_Z15fit_vector_tanhPsPKsm+0x22>
   12a58:	872a                	mv	a4,a0
   12a5a:	8532                	mv	a0,a2
   12a5c:	1805200b          	.insn	4, 0x1805200b
   12a60:	852e                	mv	a0,a1
   12a62:	1005208b          	.insn	4, 0x1005208b
   12a66:	0e10810b          	.insn	4, 0x0e10810b
   12a6a:	853a                	mv	a0,a4
   12a6c:	1225200b          	.insn	4, 0x1225200b
   12a70:	8082                	ret
   12a72:	000316b7          	lui	a3,0x31
   12a76:	00032637          	lui	a2,0x32
   12a7a:	00032537          	lui	a0,0x32
   12a7e:	1141                	addi	sp,sp,-16
   12a80:	e3868693          	addi	a3,a3,-456 # 30e38 <__clzdi2+0x5aa>
   12a84:	92060613          	addi	a2,a2,-1760 # 31920 <__clzdi2+0x1092>
   12a88:	82850513          	addi	a0,a0,-2008 # 31828 <__clzdi2+0xf9a>
   12a8c:	03100593          	li	a1,49
   12a90:	e406                	sd	ra,8(sp)
   12a92:	60c110ef          	jal	2409e <__assert_func>

0000000000012a96 <_Z17tiled_vector_tanhPsPKsm>:
   12a96:	c141                	beqz	a0,12b16 <_Z17tiled_vector_tanhPsPKsm+0x80>
   12a98:	02000793          	li	a5,32
   12a9c:	88aa                	mv	a7,a0
   12a9e:	06c7f063          	bgeu	a5,a2,12afe <_Z17tiled_vector_tanhPsPKsm+0x68>
   12aa2:	01f67313          	andi	t1,a2,31
   12aa6:	00565813          	srli	a6,a2,0x5
   12aaa:	86ae                	mv	a3,a1
   12aac:	872a                	mv	a4,a0
   12aae:	4781                	li	a5,0
   12ab0:	02000513          	li	a0,32
   12ab4:	1805200b          	.insn	4, 0x1805200b
   12ab8:	8536                	mv	a0,a3
   12aba:	1005208b          	.insn	4, 0x1005208b
   12abe:	0e10810b          	.insn	4, 0x0e10810b
   12ac2:	853a                	mv	a0,a4
   12ac4:	1225200b          	.insn	4, 0x1225200b
   12ac8:	0785                	addi	a5,a5,1
   12aca:	04068693          	addi	a3,a3,64
   12ace:	04070713          	addi	a4,a4,64
   12ad2:	fcf81fe3          	bne	a6,a5,12ab0 <_Z17tiled_vector_tanhPsPKsm+0x1a>
   12ad6:	00031363          	bnez	t1,12adc <_Z17tiled_vector_tanhPsPKsm+0x46>
   12ada:	8082                	ret
   12adc:	40660633          	sub	a2,a2,t1
   12ae0:	0606                	slli	a2,a2,0x1
   12ae2:	851a                	mv	a0,t1
   12ae4:	1805200b          	.insn	4, 0x1805200b
   12ae8:	00c58533          	add	a0,a1,a2
   12aec:	1005208b          	.insn	4, 0x1005208b
   12af0:	0e10810b          	.insn	4, 0x0e10810b
   12af4:	00c88533          	add	a0,a7,a2
   12af8:	1225200b          	.insn	4, 0x1225200b
   12afc:	8082                	ret
   12afe:	8532                	mv	a0,a2
   12b00:	1805200b          	.insn	4, 0x1805200b
   12b04:	852e                	mv	a0,a1
   12b06:	1005208b          	.insn	4, 0x1005208b
   12b0a:	0e10810b          	.insn	4, 0x0e10810b
   12b0e:	8546                	mv	a0,a7
   12b10:	1225200b          	.insn	4, 0x1225200b
   12b14:	8082                	ret
   12b16:	00032537          	lui	a0,0x32
   12b1a:	1101                	addi	sp,sp,-32
   12b1c:	95850513          	addi	a0,a0,-1704 # 31958 <__clzdi2+0x10ca>
   12b20:	ec06                	sd	ra,24(sp)
   12b22:	e432                	sd	a2,8(sp)
   12b24:	152140ef          	jal	26c76 <puts>
   12b28:	65a2                	ld	a1,8(sp)
   12b2a:	00031537          	lui	a0,0x31
   12b2e:	f0050513          	addi	a0,a0,-256 # 30f00 <__clzdi2+0x672>
   12b32:	769130ef          	jal	26a9a <printf>
   12b36:	557d                	li	a0,-1
   12b38:	b7ffd0ef          	jal	106b6 <exit>

0000000000012b3c <_Z17tiled_matrix_tanhPsPKsmm>:
   12b3c:	7139                	addi	sp,sp,-64
   12b3e:	e852                	sd	s4,16(sp)
   12b40:	e456                	sd	s5,8(sp)
   12b42:	fc06                	sd	ra,56(sp)
   12b44:	8a32                	mv	s4,a2
   12b46:	8ab6                	mv	s5,a3
   12b48:	cd15                	beqz	a0,12b84 <_Z17tiled_matrix_tanhPsPKsmm+0x48>
   12b4a:	ca05                	beqz	a2,12b7a <_Z17tiled_matrix_tanhPsPKsmm+0x3e>
   12b4c:	f822                	sd	s0,48(sp)
   12b4e:	f426                	sd	s1,40(sp)
   12b50:	f04a                	sd	s2,32(sp)
   12b52:	ec4e                	sd	s3,24(sp)
   12b54:	842a                	mv	s0,a0
   12b56:	84ae                	mv	s1,a1
   12b58:	00169993          	slli	s3,a3,0x1
   12b5c:	4901                	li	s2,0
   12b5e:	85a6                	mv	a1,s1
   12b60:	8522                	mv	a0,s0
   12b62:	8656                	mv	a2,s5
   12b64:	0905                	addi	s2,s2,1
   12b66:	f31ff0ef          	jal	12a96 <_Z17tiled_vector_tanhPsPKsm>
   12b6a:	944e                	add	s0,s0,s3
   12b6c:	94ce                	add	s1,s1,s3
   12b6e:	ff2a18e3          	bne	s4,s2,12b5e <_Z17tiled_matrix_tanhPsPKsmm+0x22>
   12b72:	7442                	ld	s0,48(sp)
   12b74:	74a2                	ld	s1,40(sp)
   12b76:	7902                	ld	s2,32(sp)
   12b78:	69e2                	ld	s3,24(sp)
   12b7a:	70e2                	ld	ra,56(sp)
   12b7c:	6a42                	ld	s4,16(sp)
   12b7e:	6aa2                	ld	s5,8(sp)
   12b80:	6121                	addi	sp,sp,64
   12b82:	8082                	ret
   12b84:	00032537          	lui	a0,0x32
   12b88:	9b050513          	addi	a0,a0,-1616 # 319b0 <__clzdi2+0x1122>
   12b8c:	f822                	sd	s0,48(sp)
   12b8e:	f426                	sd	s1,40(sp)
   12b90:	f04a                	sd	s2,32(sp)
   12b92:	ec4e                	sd	s3,24(sp)
   12b94:	0e2140ef          	jal	26c76 <puts>
   12b98:	00032537          	lui	a0,0x32
   12b9c:	8656                	mv	a2,s5
   12b9e:	85d2                	mv	a1,s4
   12ba0:	8f050513          	addi	a0,a0,-1808 # 318f0 <__clzdi2+0x1062>
   12ba4:	6f7130ef          	jal	26a9a <printf>
   12ba8:	557d                	li	a0,-1
   12baa:	b0dfd0ef          	jal	106b6 <exit>

0000000000012bae <_Z18fit_vector_sigmoidPsPKsm>:
   12bae:	02000793          	li	a5,32
   12bb2:	00c7ef63          	bltu	a5,a2,12bd0 <_Z18fit_vector_sigmoidPsPKsm+0x22>
   12bb6:	872a                	mv	a4,a0
   12bb8:	8532                	mv	a0,a2
   12bba:	1805200b          	.insn	4, 0x1805200b
   12bbe:	852e                	mv	a0,a1
   12bc0:	1005208b          	.insn	4, 0x1005208b
   12bc4:	0e20810b          	.insn	4, 0x0e20810b
   12bc8:	853a                	mv	a0,a4
   12bca:	1225200b          	.insn	4, 0x1225200b
   12bce:	8082                	ret
   12bd0:	000316b7          	lui	a3,0x31
   12bd4:	00032637          	lui	a2,0x32
   12bd8:	00032537          	lui	a0,0x32
   12bdc:	1141                	addi	sp,sp,-16
   12bde:	e3868693          	addi	a3,a3,-456 # 30e38 <__clzdi2+0x5aa>
   12be2:	a0860613          	addi	a2,a2,-1528 # 31a08 <__clzdi2+0x117a>
   12be6:	82850513          	addi	a0,a0,-2008 # 31828 <__clzdi2+0xf9a>
   12bea:	05c00593          	li	a1,92
   12bee:	e406                	sd	ra,8(sp)
   12bf0:	4ae110ef          	jal	2409e <__assert_func>

0000000000012bf4 <_Z20tiled_vector_sigmoidPsPKsm>:
   12bf4:	c141                	beqz	a0,12c74 <_Z20tiled_vector_sigmoidPsPKsm+0x80>
   12bf6:	02000793          	li	a5,32
   12bfa:	88aa                	mv	a7,a0
   12bfc:	06c7f063          	bgeu	a5,a2,12c5c <_Z20tiled_vector_sigmoidPsPKsm+0x68>
   12c00:	01f67313          	andi	t1,a2,31
   12c04:	00565813          	srli	a6,a2,0x5
   12c08:	86ae                	mv	a3,a1
   12c0a:	872a                	mv	a4,a0
   12c0c:	4781                	li	a5,0
   12c0e:	02000513          	li	a0,32
   12c12:	1805200b          	.insn	4, 0x1805200b
   12c16:	8536                	mv	a0,a3
   12c18:	1005208b          	.insn	4, 0x1005208b
   12c1c:	0e20810b          	.insn	4, 0x0e20810b
   12c20:	853a                	mv	a0,a4
   12c22:	1225200b          	.insn	4, 0x1225200b
   12c26:	0785                	addi	a5,a5,1
   12c28:	04068693          	addi	a3,a3,64
   12c2c:	04070713          	addi	a4,a4,64
   12c30:	fcf81fe3          	bne	a6,a5,12c0e <_Z20tiled_vector_sigmoidPsPKsm+0x1a>
   12c34:	00031363          	bnez	t1,12c3a <_Z20tiled_vector_sigmoidPsPKsm+0x46>
   12c38:	8082                	ret
   12c3a:	40660633          	sub	a2,a2,t1
   12c3e:	0606                	slli	a2,a2,0x1
   12c40:	851a                	mv	a0,t1
   12c42:	1805200b          	.insn	4, 0x1805200b
   12c46:	00c58533          	add	a0,a1,a2
   12c4a:	1005208b          	.insn	4, 0x1005208b
   12c4e:	0e20810b          	.insn	4, 0x0e20810b
   12c52:	00c88533          	add	a0,a7,a2
   12c56:	1225200b          	.insn	4, 0x1225200b
   12c5a:	8082                	ret
   12c5c:	8532                	mv	a0,a2
   12c5e:	1805200b          	.insn	4, 0x1805200b
   12c62:	852e                	mv	a0,a1
   12c64:	1005208b          	.insn	4, 0x1005208b
   12c68:	0e20810b          	.insn	4, 0x0e20810b
   12c6c:	8546                	mv	a0,a7
   12c6e:	1225200b          	.insn	4, 0x1225200b
   12c72:	8082                	ret
   12c74:	00032537          	lui	a0,0x32
   12c78:	1101                	addi	sp,sp,-32
   12c7a:	a4050513          	addi	a0,a0,-1472 # 31a40 <__clzdi2+0x11b2>
   12c7e:	ec06                	sd	ra,24(sp)
   12c80:	e432                	sd	a2,8(sp)
   12c82:	7f5130ef          	jal	26c76 <puts>
   12c86:	65a2                	ld	a1,8(sp)
   12c88:	00031537          	lui	a0,0x31
   12c8c:	f0050513          	addi	a0,a0,-256 # 30f00 <__clzdi2+0x672>
   12c90:	60b130ef          	jal	26a9a <printf>
   12c94:	557d                	li	a0,-1
   12c96:	a21fd0ef          	jal	106b6 <exit>

0000000000012c9a <_Z20tiled_matrix_sigmoidPsPKsmm>:
   12c9a:	7139                	addi	sp,sp,-64
   12c9c:	e852                	sd	s4,16(sp)
   12c9e:	e456                	sd	s5,8(sp)
   12ca0:	fc06                	sd	ra,56(sp)
   12ca2:	8a32                	mv	s4,a2
   12ca4:	8ab6                	mv	s5,a3
   12ca6:	cd15                	beqz	a0,12ce2 <_Z20tiled_matrix_sigmoidPsPKsmm+0x48>
   12ca8:	ca05                	beqz	a2,12cd8 <_Z20tiled_matrix_sigmoidPsPKsmm+0x3e>
   12caa:	f822                	sd	s0,48(sp)
   12cac:	f426                	sd	s1,40(sp)
   12cae:	f04a                	sd	s2,32(sp)
   12cb0:	ec4e                	sd	s3,24(sp)
   12cb2:	842a                	mv	s0,a0
   12cb4:	84ae                	mv	s1,a1
   12cb6:	00169993          	slli	s3,a3,0x1
   12cba:	4901                	li	s2,0
   12cbc:	85a6                	mv	a1,s1
   12cbe:	8522                	mv	a0,s0
   12cc0:	8656                	mv	a2,s5
   12cc2:	0905                	addi	s2,s2,1
   12cc4:	f31ff0ef          	jal	12bf4 <_Z20tiled_vector_sigmoidPsPKsm>
   12cc8:	944e                	add	s0,s0,s3
   12cca:	94ce                	add	s1,s1,s3
   12ccc:	ff2a18e3          	bne	s4,s2,12cbc <_Z20tiled_matrix_sigmoidPsPKsmm+0x22>
   12cd0:	7442                	ld	s0,48(sp)
   12cd2:	74a2                	ld	s1,40(sp)
   12cd4:	7902                	ld	s2,32(sp)
   12cd6:	69e2                	ld	s3,24(sp)
   12cd8:	70e2                	ld	ra,56(sp)
   12cda:	6a42                	ld	s4,16(sp)
   12cdc:	6aa2                	ld	s5,8(sp)
   12cde:	6121                	addi	sp,sp,64
   12ce0:	8082                	ret
   12ce2:	00032537          	lui	a0,0x32
   12ce6:	a9850513          	addi	a0,a0,-1384 # 31a98 <__clzdi2+0x120a>
   12cea:	f822                	sd	s0,48(sp)
   12cec:	f426                	sd	s1,40(sp)
   12cee:	f04a                	sd	s2,32(sp)
   12cf0:	ec4e                	sd	s3,24(sp)
   12cf2:	785130ef          	jal	26c76 <puts>
   12cf6:	00032537          	lui	a0,0x32
   12cfa:	8656                	mv	a2,s5
   12cfc:	85d2                	mv	a1,s4
   12cfe:	8f050513          	addi	a0,a0,-1808 # 318f0 <__clzdi2+0x1062>
   12d02:	599130ef          	jal	26a9a <printf>
   12d06:	557d                	li	a0,-1
   12d08:	9affd0ef          	jal	106b6 <exit>

0000000000012d0c <_Z11fit_dotprodPsPKsS1_m>:
   12d0c:	47a1                	li	a5,8
   12d0e:	02d7e163          	bltu	a5,a3,12d30 <_Z11fit_dotprodPsPKsS1_m+0x24>
   12d12:	872a                	mv	a4,a0
   12d14:	8536                	mv	a0,a3
   12d16:	1805200b          	.insn	4, 0x1805200b
   12d1a:	852e                	mv	a0,a1
   12d1c:	1005208b          	.insn	4, 0x1005208b
   12d20:	8532                	mv	a0,a2
   12d22:	1005210b          	.insn	4, 0x1005210b
   12d26:	1a20c50b          	.insn	4, 0x1a20c50b
   12d2a:	00a71023          	sh	a0,0(a4)
   12d2e:	8082                	ret
   12d30:	000326b7          	lui	a3,0x32
   12d34:	00032637          	lui	a2,0x32
   12d38:	00032537          	lui	a0,0x32
   12d3c:	1141                	addi	sp,sp,-16
   12d3e:	af068693          	addi	a3,a3,-1296 # 31af0 <__clzdi2+0x1262>
   12d42:	b0860613          	addi	a2,a2,-1272 # 31b08 <__clzdi2+0x127a>
   12d46:	b4850513          	addi	a0,a0,-1208 # 31b48 <__clzdi2+0x12ba>
   12d4a:	4591                	li	a1,4
   12d4c:	e406                	sd	ra,8(sp)
   12d4e:	350110ef          	jal	2409e <__assert_func>

0000000000012d52 <_Z13tiled_dotprodPsPKsS1_m>:
   12d52:	47a1                	li	a5,8
   12d54:	8eaa                	mv	t4,a0
   12d56:	06d7fa63          	bgeu	a5,a3,12dca <_Z13tiled_dotprodPsPKsS1_m+0x78>
   12d5a:	0076ff13          	andi	t5,a3,7
   12d5e:	0036de13          	srli	t3,a3,0x3
   12d62:	88ae                	mv	a7,a1
   12d64:	8832                	mv	a6,a2
   12d66:	4301                	li	t1,0
   12d68:	4701                	li	a4,0
   12d6a:	4521                	li	a0,8
   12d6c:	1805200b          	.insn	4, 0x1805200b
   12d70:	8546                	mv	a0,a7
   12d72:	1005208b          	.insn	4, 0x1005208b
   12d76:	8542                	mv	a0,a6
   12d78:	1005210b          	.insn	4, 0x1005210b
   12d7c:	1a20c50b          	.insn	4, 0x1a20c50b
   12d80:	00a307bb          	addw	a5,t1,a0
   12d84:	0107931b          	slliw	t1,a5,0x10
   12d88:	0705                	addi	a4,a4,1
   12d8a:	08c1                	addi	a7,a7,16
   12d8c:	0841                	addi	a6,a6,16
   12d8e:	4103531b          	sraiw	t1,t1,0x10
   12d92:	fcee1ce3          	bne	t3,a4,12d6a <_Z13tiled_dotprodPsPKsS1_m+0x18>
   12d96:	000f1563          	bnez	t5,12da0 <_Z13tiled_dotprodPsPKsS1_m+0x4e>
   12d9a:	006e9023          	sh	t1,0(t4)
   12d9e:	8082                	ret
   12da0:	41e686b3          	sub	a3,a3,t5
   12da4:	0686                	slli	a3,a3,0x1
   12da6:	857a                	mv	a0,t5
   12da8:	1805200b          	.insn	4, 0x1805200b
   12dac:	00d58533          	add	a0,a1,a3
   12db0:	1005208b          	.insn	4, 0x1005208b
   12db4:	00d60533          	add	a0,a2,a3
   12db8:	1005210b          	.insn	4, 0x1005210b
   12dbc:	1a20c50b          	.insn	4, 0x1a20c50b
   12dc0:	00f5033b          	addw	t1,a0,a5
   12dc4:	006e9023          	sh	t1,0(t4)
   12dc8:	8082                	ret
   12dca:	8536                	mv	a0,a3
   12dcc:	1805200b          	.insn	4, 0x1805200b
   12dd0:	852e                	mv	a0,a1
   12dd2:	1005208b          	.insn	4, 0x1005208b
   12dd6:	8532                	mv	a0,a2
   12dd8:	1005210b          	.insn	4, 0x1005210b
   12ddc:	1a20c50b          	.insn	4, 0x1a20c50b
   12de0:	832a                	mv	t1,a0
   12de2:	006e9023          	sh	t1,0(t4)
   12de6:	8082                	ret

0000000000012de8 <_Z9tiled_mvmPsPKsS1_mm>:
   12de8:	7139                	addi	sp,sp,-64
   12dea:	ec4e                	sd	s3,24(sp)
   12dec:	fc06                	sd	ra,56(sp)
   12dee:	89b6                	mv	s3,a3
   12df0:	c521                	beqz	a0,12e38 <_Z9tiled_mvmPsPKsS1_mm+0x50>
   12df2:	ce9d                	beqz	a3,12e30 <_Z9tiled_mvmPsPKsS1_mm+0x48>
   12df4:	f822                	sd	s0,48(sp)
   12df6:	f426                	sd	s1,40(sp)
   12df8:	f04a                	sd	s2,32(sp)
   12dfa:	e852                	sd	s4,16(sp)
   12dfc:	e456                	sd	s5,8(sp)
   12dfe:	e05a                	sd	s6,0(sp)
   12e00:	8ab2                	mv	s5,a2
   12e02:	8a3a                	mv	s4,a4
   12e04:	842a                	mv	s0,a0
   12e06:	84ae                	mv	s1,a1
   12e08:	00171b13          	slli	s6,a4,0x1
   12e0c:	4901                	li	s2,0
   12e0e:	85a6                	mv	a1,s1
   12e10:	8522                	mv	a0,s0
   12e12:	86d2                	mv	a3,s4
   12e14:	8656                	mv	a2,s5
   12e16:	0905                	addi	s2,s2,1
   12e18:	f3bff0ef          	jal	12d52 <_Z13tiled_dotprodPsPKsS1_m>
   12e1c:	0409                	addi	s0,s0,2
   12e1e:	94da                	add	s1,s1,s6
   12e20:	ff2997e3          	bne	s3,s2,12e0e <_Z9tiled_mvmPsPKsS1_mm+0x26>
   12e24:	7442                	ld	s0,48(sp)
   12e26:	74a2                	ld	s1,40(sp)
   12e28:	7902                	ld	s2,32(sp)
   12e2a:	6a42                	ld	s4,16(sp)
   12e2c:	6aa2                	ld	s5,8(sp)
   12e2e:	6b02                	ld	s6,0(sp)
   12e30:	70e2                	ld	ra,56(sp)
   12e32:	69e2                	ld	s3,24(sp)
   12e34:	6121                	addi	sp,sp,64
   12e36:	8082                	ret
   12e38:	00032537          	lui	a0,0x32
   12e3c:	b6050513          	addi	a0,a0,-1184 # 31b60 <__clzdi2+0x12d2>
   12e40:	f822                	sd	s0,48(sp)
   12e42:	f426                	sd	s1,40(sp)
   12e44:	f04a                	sd	s2,32(sp)
   12e46:	e852                	sd	s4,16(sp)
   12e48:	e456                	sd	s5,8(sp)
   12e4a:	e05a                	sd	s6,0(sp)
   12e4c:	62b130ef          	jal	26c76 <puts>
   12e50:	00031537          	lui	a0,0x31
   12e54:	85ce                	mv	a1,s3
   12e56:	57050513          	addi	a0,a0,1392 # 31570 <__clzdi2+0xce2>
   12e5a:	441130ef          	jal	26a9a <printf>
   12e5e:	557d                	li	a0,-1
   12e60:	857fd0ef          	jal	106b6 <exit>

0000000000012e64 <_Z22tiled_matmul_transposePsPKsS1_mmm>:
   12e64:	7159                	addi	sp,sp,-112
   12e66:	e4ce                	sd	s3,72(sp)
   12e68:	f062                	sd	s8,32(sp)
   12e6a:	f486                	sd	ra,104(sp)
   12e6c:	89b6                	mv	s3,a3
   12e6e:	8c3e                	mv	s8,a5
   12e70:	c92d                	beqz	a0,12ee2 <_Z22tiled_matmul_transposePsPKsS1_mmm+0x7e>
   12e72:	c3bd                	beqz	a5,12ed8 <_Z22tiled_matmul_transposePsPKsS1_mmm+0x74>
   12e74:	c2b5                	beqz	a3,12ed8 <_Z22tiled_matmul_transposePsPKsS1_mmm+0x74>
   12e76:	e8ca                	sd	s2,80(sp)
   12e78:	e0d2                	sd	s4,64(sp)
   12e7a:	fc56                	sd	s5,56(sp)
   12e7c:	f85a                	sd	s6,48(sp)
   12e7e:	f45e                	sd	s7,40(sp)
   12e80:	ec66                	sd	s9,24(sp)
   12e82:	e86a                	sd	s10,16(sp)
   12e84:	f0a2                	sd	s0,96(sp)
   12e86:	eca6                	sd	s1,88(sp)
   12e88:	e46e                	sd	s11,8(sp)
   12e8a:	8caa                	mv	s9,a0
   12e8c:	8d2e                	mv	s10,a1
   12e8e:	8aba                	mv	s5,a4
   12e90:	8932                	mv	s2,a2
   12e92:	00171a13          	slli	s4,a4,0x1
   12e96:	4b81                	li	s7,0
   12e98:	4b01                	li	s6,0
   12e9a:	001b9413          	slli	s0,s7,0x1
   12e9e:	9466                	add	s0,s0,s9
   12ea0:	8dea                	mv	s11,s10
   12ea2:	4481                	li	s1,0
   12ea4:	85ee                	mv	a1,s11
   12ea6:	8522                	mv	a0,s0
   12ea8:	86d6                	mv	a3,s5
   12eaa:	864a                	mv	a2,s2
   12eac:	0485                	addi	s1,s1,1
   12eae:	ea5ff0ef          	jal	12d52 <_Z13tiled_dotprodPsPKsS1_m>
   12eb2:	0409                	addi	s0,s0,2
   12eb4:	9dd2                	add	s11,s11,s4
   12eb6:	fe9997e3          	bne	s3,s1,12ea4 <_Z22tiled_matmul_transposePsPKsS1_mmm+0x40>
   12eba:	0b05                	addi	s6,s6,1
   12ebc:	9bce                	add	s7,s7,s3
   12ebe:	9952                	add	s2,s2,s4
   12ec0:	fd8b1de3          	bne	s6,s8,12e9a <_Z22tiled_matmul_transposePsPKsS1_mmm+0x36>
   12ec4:	7406                	ld	s0,96(sp)
   12ec6:	64e6                	ld	s1,88(sp)
   12ec8:	6946                	ld	s2,80(sp)
   12eca:	6a06                	ld	s4,64(sp)
   12ecc:	7ae2                	ld	s5,56(sp)
   12ece:	7b42                	ld	s6,48(sp)
   12ed0:	7ba2                	ld	s7,40(sp)
   12ed2:	6ce2                	ld	s9,24(sp)
   12ed4:	6d42                	ld	s10,16(sp)
   12ed6:	6da2                	ld	s11,8(sp)
   12ed8:	70a6                	ld	ra,104(sp)
   12eda:	69a6                	ld	s3,72(sp)
   12edc:	7c02                	ld	s8,32(sp)
   12ede:	6165                	addi	sp,sp,112
   12ee0:	8082                	ret
   12ee2:	00032537          	lui	a0,0x32
   12ee6:	bb050513          	addi	a0,a0,-1104 # 31bb0 <__clzdi2+0x1322>
   12eea:	f0a2                	sd	s0,96(sp)
   12eec:	eca6                	sd	s1,88(sp)
   12eee:	e8ca                	sd	s2,80(sp)
   12ef0:	e0d2                	sd	s4,64(sp)
   12ef2:	fc56                	sd	s5,56(sp)
   12ef4:	f85a                	sd	s6,48(sp)
   12ef6:	f45e                	sd	s7,40(sp)
   12ef8:	ec66                	sd	s9,24(sp)
   12efa:	e86a                	sd	s10,16(sp)
   12efc:	e46e                	sd	s11,8(sp)
   12efe:	579130ef          	jal	26c76 <puts>
   12f02:	00032537          	lui	a0,0x32
   12f06:	864e                	mv	a2,s3
   12f08:	85e2                	mv	a1,s8
   12f0a:	c0850513          	addi	a0,a0,-1016 # 31c08 <__clzdi2+0x137a>
   12f0e:	38d130ef          	jal	26a9a <printf>
   12f12:	557d                	li	a0,-1
   12f14:	fa2fd0ef          	jal	106b6 <exit>

0000000000012f18 <_Z21tiled_dotprod_stridedPsPKsS1_mm>:
   12f18:	47a1                	li	a5,8
   12f1a:	8eaa                	mv	t4,a0
   12f1c:	06d7f963          	bgeu	a5,a3,12f8e <_Z21tiled_dotprod_stridedPsPKsS1_mm+0x76>
   12f20:	0076ff13          	andi	t5,a3,7
   12f24:	0706                	slli	a4,a4,0x1
   12f26:	828d                	srli	a3,a3,0x3
   12f28:	832e                	mv	t1,a1
   12f2a:	88b2                	mv	a7,a2
   12f2c:	4e01                	li	t3,0
   12f2e:	4801                	li	a6,0
   12f30:	4521                	li	a0,8
   12f32:	1805200b          	.insn	4, 0x1805200b
   12f36:	851a                	mv	a0,t1
   12f38:	1005208b          	.insn	4, 0x1005208b
   12f3c:	8546                	mv	a0,a7
   12f3e:	1005210b          	.insn	4, 0x1005210b
   12f42:	1a20c50b          	.insn	4, 0x1a20c50b
   12f46:	00ae07bb          	addw	a5,t3,a0
   12f4a:	01079e1b          	slliw	t3,a5,0x10
   12f4e:	0805                	addi	a6,a6,1
   12f50:	933a                	add	t1,t1,a4
   12f52:	98ba                	add	a7,a7,a4
   12f54:	410e5e1b          	sraiw	t3,t3,0x10
   12f58:	fd069ce3          	bne	a3,a6,12f30 <_Z21tiled_dotprod_stridedPsPKsS1_mm+0x18>
   12f5c:	000f1563          	bnez	t5,12f66 <_Z21tiled_dotprod_stridedPsPKsS1_mm+0x4e>
   12f60:	01ce9023          	sh	t3,0(t4)
   12f64:	8082                	ret
   12f66:	02d70733          	mul	a4,a4,a3
   12f6a:	857a                	mv	a0,t5
   12f6c:	1805200b          	.insn	4, 0x1805200b
   12f70:	00e58533          	add	a0,a1,a4
   12f74:	1005208b          	.insn	4, 0x1005208b
   12f78:	00e60533          	add	a0,a2,a4
   12f7c:	1005210b          	.insn	4, 0x1005210b
   12f80:	1a20c50b          	.insn	4, 0x1a20c50b
   12f84:	00f50e3b          	addw	t3,a0,a5
   12f88:	01ce9023          	sh	t3,0(t4)
   12f8c:	8082                	ret
   12f8e:	8536                	mv	a0,a3
   12f90:	1805200b          	.insn	4, 0x1805200b
   12f94:	852e                	mv	a0,a1
   12f96:	1005208b          	.insn	4, 0x1005208b
   12f9a:	8532                	mv	a0,a2
   12f9c:	1005210b          	.insn	4, 0x1005210b
   12fa0:	1a20c50b          	.insn	4, 0x1a20c50b
   12fa4:	8e2a                	mv	t3,a0
   12fa6:	01ce9023          	sh	t3,0(t4)
   12faa:	8082                	ret

0000000000012fac <_Z17tiled_mvm_stridedPsPKsS1_mmm>:
   12fac:	7139                	addi	sp,sp,-64
   12fae:	e852                	sd	s4,16(sp)
   12fb0:	fc06                	sd	ra,56(sp)
   12fb2:	8a36                	mv	s4,a3
   12fb4:	c531                	beqz	a0,13000 <_Z17tiled_mvm_stridedPsPKsS1_mmm+0x54>
   12fb6:	c2a9                	beqz	a3,12ff8 <_Z17tiled_mvm_stridedPsPKsS1_mmm+0x4c>
   12fb8:	f822                	sd	s0,48(sp)
   12fba:	f426                	sd	s1,40(sp)
   12fbc:	f04a                	sd	s2,32(sp)
   12fbe:	ec4e                	sd	s3,24(sp)
   12fc0:	e456                	sd	s5,8(sp)
   12fc2:	e05a                	sd	s6,0(sp)
   12fc4:	8ab2                	mv	s5,a2
   12fc6:	8b3a                	mv	s6,a4
   12fc8:	842a                	mv	s0,a0
   12fca:	00179993          	slli	s3,a5,0x1
   12fce:	84ae                	mv	s1,a1
   12fd0:	4901                	li	s2,0
   12fd2:	85a6                	mv	a1,s1
   12fd4:	8522                	mv	a0,s0
   12fd6:	02000713          	li	a4,32
   12fda:	86da                	mv	a3,s6
   12fdc:	8656                	mv	a2,s5
   12fde:	0905                	addi	s2,s2,1
   12fe0:	f39ff0ef          	jal	12f18 <_Z21tiled_dotprod_stridedPsPKsS1_mm>
   12fe4:	0409                	addi	s0,s0,2
   12fe6:	94ce                	add	s1,s1,s3
   12fe8:	ff2a15e3          	bne	s4,s2,12fd2 <_Z17tiled_mvm_stridedPsPKsS1_mmm+0x26>
   12fec:	7442                	ld	s0,48(sp)
   12fee:	74a2                	ld	s1,40(sp)
   12ff0:	7902                	ld	s2,32(sp)
   12ff2:	69e2                	ld	s3,24(sp)
   12ff4:	6aa2                	ld	s5,8(sp)
   12ff6:	6b02                	ld	s6,0(sp)
   12ff8:	70e2                	ld	ra,56(sp)
   12ffa:	6a42                	ld	s4,16(sp)
   12ffc:	6121                	addi	sp,sp,64
   12ffe:	8082                	ret
   13000:	00032537          	lui	a0,0x32
   13004:	c3050513          	addi	a0,a0,-976 # 31c30 <__clzdi2+0x13a2>
   13008:	f822                	sd	s0,48(sp)
   1300a:	f426                	sd	s1,40(sp)
   1300c:	f04a                	sd	s2,32(sp)
   1300e:	ec4e                	sd	s3,24(sp)
   13010:	e456                	sd	s5,8(sp)
   13012:	e05a                	sd	s6,0(sp)
   13014:	463130ef          	jal	26c76 <puts>
   13018:	00031537          	lui	a0,0x31
   1301c:	85d2                	mv	a1,s4
   1301e:	57050513          	addi	a0,a0,1392 # 31570 <__clzdi2+0xce2>
   13022:	279130ef          	jal	26a9a <printf>
   13026:	557d                	li	a0,-1
   13028:	e8efd0ef          	jal	106b6 <exit>

000000000001302c <_Z30tiled_matmul_transpose_stridedPsPKsS1_mmmmm>:
   1302c:	7119                	addi	sp,sp,-128
   1302e:	f0ca                	sd	s2,96(sp)
   13030:	f862                	sd	s8,48(sp)
   13032:	fc86                	sd	ra,120(sp)
   13034:	e42e                	sd	a1,8(sp)
   13036:	8936                	mv	s2,a3
   13038:	8c3e                	mv	s8,a5
   1303a:	cd25                	beqz	a0,130b2 <_Z30tiled_matmul_transpose_stridedPsPKsS1_mmmmm+0x86>
   1303c:	c7b5                	beqz	a5,130a8 <_Z30tiled_matmul_transpose_stridedPsPKsS1_mmmmm+0x7c>
   1303e:	c6ad                	beqz	a3,130a8 <_Z30tiled_matmul_transpose_stridedPsPKsS1_mmmmm+0x7c>
   13040:	f4a6                	sd	s1,104(sp)
   13042:	ecce                	sd	s3,88(sp)
   13044:	e8d2                	sd	s4,80(sp)
   13046:	e4d6                	sd	s5,72(sp)
   13048:	e0da                	sd	s6,64(sp)
   1304a:	fc5e                	sd	s7,56(sp)
   1304c:	f466                	sd	s9,40(sp)
   1304e:	f8a2                	sd	s0,112(sp)
   13050:	f06a                	sd	s10,32(sp)
   13052:	ec6e                	sd	s11,24(sp)
   13054:	8caa                	mv	s9,a0
   13056:	8a3a                	mv	s4,a4
   13058:	00189b93          	slli	s7,a7,0x1
   1305c:	84b2                	mv	s1,a2
   1305e:	00181993          	slli	s3,a6,0x1
   13062:	4b01                	li	s6,0
   13064:	4a81                	li	s5,0
   13066:	6d22                	ld	s10,8(sp)
   13068:	001b1413          	slli	s0,s6,0x1
   1306c:	9466                	add	s0,s0,s9
   1306e:	4d81                	li	s11,0
   13070:	85ea                	mv	a1,s10
   13072:	8522                	mv	a0,s0
   13074:	02000713          	li	a4,32
   13078:	86d2                	mv	a3,s4
   1307a:	8626                	mv	a2,s1
   1307c:	0d85                	addi	s11,s11,1
   1307e:	e9bff0ef          	jal	12f18 <_Z21tiled_dotprod_stridedPsPKsS1_mm>
   13082:	0409                	addi	s0,s0,2
   13084:	9d4e                	add	s10,s10,s3
   13086:	ffb915e3          	bne	s2,s11,13070 <_Z30tiled_matmul_transpose_stridedPsPKsS1_mmmmm+0x44>
   1308a:	0a85                	addi	s5,s5,1
   1308c:	9b4a                	add	s6,s6,s2
   1308e:	94de                	add	s1,s1,s7
   13090:	fd5c1be3          	bne	s8,s5,13066 <_Z30tiled_matmul_transpose_stridedPsPKsS1_mmmmm+0x3a>
   13094:	7446                	ld	s0,112(sp)
   13096:	74a6                	ld	s1,104(sp)
   13098:	69e6                	ld	s3,88(sp)
   1309a:	6a46                	ld	s4,80(sp)
   1309c:	6aa6                	ld	s5,72(sp)
   1309e:	6b06                	ld	s6,64(sp)
   130a0:	7be2                	ld	s7,56(sp)
   130a2:	7ca2                	ld	s9,40(sp)
   130a4:	7d02                	ld	s10,32(sp)
   130a6:	6de2                	ld	s11,24(sp)
   130a8:	70e6                	ld	ra,120(sp)
   130aa:	7906                	ld	s2,96(sp)
   130ac:	7c42                	ld	s8,48(sp)
   130ae:	6109                	addi	sp,sp,128
   130b0:	8082                	ret
   130b2:	00032537          	lui	a0,0x32
   130b6:	c8850513          	addi	a0,a0,-888 # 31c88 <__clzdi2+0x13fa>
   130ba:	f8a2                	sd	s0,112(sp)
   130bc:	f4a6                	sd	s1,104(sp)
   130be:	ecce                	sd	s3,88(sp)
   130c0:	e8d2                	sd	s4,80(sp)
   130c2:	e4d6                	sd	s5,72(sp)
   130c4:	e0da                	sd	s6,64(sp)
   130c6:	fc5e                	sd	s7,56(sp)
   130c8:	f466                	sd	s9,40(sp)
   130ca:	f06a                	sd	s10,32(sp)
   130cc:	ec6e                	sd	s11,24(sp)
   130ce:	3a9130ef          	jal	26c76 <puts>
   130d2:	00032537          	lui	a0,0x32
   130d6:	864a                	mv	a2,s2
   130d8:	85e2                	mv	a1,s8
   130da:	c0850513          	addi	a0,a0,-1016 # 31c08 <__clzdi2+0x137a>
   130de:	1bd130ef          	jal	26a9a <printf>
   130e2:	557d                	li	a0,-1
   130e4:	dd2fd0ef          	jal	106b6 <exit>

00000000000130e8 <_Z35tiled_matmul_transpose_full_stridedPsPKsS1_mmmmmm>:
   130e8:	7119                	addi	sp,sp,-128
   130ea:	f862                	sd	s8,48(sp)
   130ec:	fc86                	sd	ra,120(sp)
   130ee:	e42e                	sd	a1,8(sp)
   130f0:	8c3e                	mv	s8,a5
   130f2:	c149                	beqz	a0,13174 <_Z35tiled_matmul_transpose_full_stridedPsPKsS1_mmmmmm+0x8c>
   130f4:	cbb5                	beqz	a5,13168 <_Z35tiled_matmul_transpose_full_stridedPsPKsS1_mmmmmm+0x80>
   130f6:	ecce                	sd	s3,88(sp)
   130f8:	89b6                	mv	s3,a3
   130fa:	cabd                	beqz	a3,13170 <_Z35tiled_matmul_transpose_full_stridedPsPKsS1_mmmmmm+0x88>
   130fc:	f4a6                	sd	s1,104(sp)
   130fe:	f0ca                	sd	s2,96(sp)
   13100:	e8d2                	sd	s4,80(sp)
   13102:	e4d6                	sd	s5,72(sp)
   13104:	e0da                	sd	s6,64(sp)
   13106:	fc5e                	sd	s7,56(sp)
   13108:	f466                	sd	s9,40(sp)
   1310a:	f8a2                	sd	s0,112(sp)
   1310c:	f06a                	sd	s10,32(sp)
   1310e:	ec6e                	sd	s11,24(sp)
   13110:	8caa                	mv	s9,a0
   13112:	8a3a                	mv	s4,a4
   13114:	00189b93          	slli	s7,a7,0x1
   13118:	84b2                	mv	s1,a2
   1311a:	00181913          	slli	s2,a6,0x1
   1311e:	4b01                	li	s6,0
   13120:	4a81                	li	s5,0
   13122:	6da2                	ld	s11,8(sp)
   13124:	001b1413          	slli	s0,s6,0x1
   13128:	9466                	add	s0,s0,s9
   1312a:	4d01                	li	s10,0
   1312c:	85ee                	mv	a1,s11
   1312e:	8522                	mv	a0,s0
   13130:	02000713          	li	a4,32
   13134:	86d2                	mv	a3,s4
   13136:	8626                	mv	a2,s1
   13138:	0d05                	addi	s10,s10,1
   1313a:	ddfff0ef          	jal	12f18 <_Z21tiled_dotprod_stridedPsPKsS1_mm>
   1313e:	0409                	addi	s0,s0,2
   13140:	9dca                	add	s11,s11,s2
   13142:	ffa995e3          	bne	s3,s10,1312c <_Z35tiled_matmul_transpose_full_stridedPsPKsS1_mmmmmm+0x44>
   13146:	678a                	ld	a5,128(sp)
   13148:	0a85                	addi	s5,s5,1
   1314a:	94de                	add	s1,s1,s7
   1314c:	9b3e                	add	s6,s6,a5
   1314e:	fd5c1ae3          	bne	s8,s5,13122 <_Z35tiled_matmul_transpose_full_stridedPsPKsS1_mmmmmm+0x3a>
   13152:	7446                	ld	s0,112(sp)
   13154:	74a6                	ld	s1,104(sp)
   13156:	7906                	ld	s2,96(sp)
   13158:	69e6                	ld	s3,88(sp)
   1315a:	6a46                	ld	s4,80(sp)
   1315c:	6aa6                	ld	s5,72(sp)
   1315e:	6b06                	ld	s6,64(sp)
   13160:	7be2                	ld	s7,56(sp)
   13162:	7ca2                	ld	s9,40(sp)
   13164:	7d02                	ld	s10,32(sp)
   13166:	6de2                	ld	s11,24(sp)
   13168:	70e6                	ld	ra,120(sp)
   1316a:	7c42                	ld	s8,48(sp)
   1316c:	6109                	addi	sp,sp,128
   1316e:	8082                	ret
   13170:	69e6                	ld	s3,88(sp)
   13172:	bfdd                	j	13168 <_Z35tiled_matmul_transpose_full_stridedPsPKsS1_mmmmmm+0x80>
   13174:	00032537          	lui	a0,0x32
   13178:	ce850513          	addi	a0,a0,-792 # 31ce8 <__clzdi2+0x145a>
   1317c:	f8a2                	sd	s0,112(sp)
   1317e:	f4a6                	sd	s1,104(sp)
   13180:	f0ca                	sd	s2,96(sp)
   13182:	ecce                	sd	s3,88(sp)
   13184:	e8d2                	sd	s4,80(sp)
   13186:	e4d6                	sd	s5,72(sp)
   13188:	e0da                	sd	s6,64(sp)
   1318a:	fc5e                	sd	s7,56(sp)
   1318c:	f466                	sd	s9,40(sp)
   1318e:	f06a                	sd	s10,32(sp)
   13190:	ec6e                	sd	s11,24(sp)
   13192:	2e5130ef          	jal	26c76 <puts>
   13196:	660a                	ld	a2,128(sp)
   13198:	00032537          	lui	a0,0x32
   1319c:	85e2                	mv	a1,s8
   1319e:	d5050513          	addi	a0,a0,-688 # 31d50 <__clzdi2+0x14c2>
   131a2:	0f9130ef          	jal	26a9a <printf>
   131a6:	557d                	li	a0,-1
   131a8:	d0efd0ef          	jal	106b6 <exit>

00000000000131ac <_Z10array_initPsms>:
   131ac:	c981                	beqz	a1,131bc <_Z10array_initPsms+0x10>
   131ae:	0586                	slli	a1,a1,0x1
   131b0:	95aa                	add	a1,a1,a0
   131b2:	00c51023          	sh	a2,0(a0)
   131b6:	0509                	addi	a0,a0,2
   131b8:	feb51de3          	bne	a0,a1,131b2 <_Z10array_initPsms+0x6>
   131bc:	8082                	ret

00000000000131be <_Z12conv2d_shapePmS_S_mmmmmmmm>:
   131be:	6e02                	ld	t3,0(sp)
   131c0:	6842                	ld	a6,16(sp)
   131c2:	6322                	ld	t1,8(sp)
   131c4:	41c70733          	sub	a4,a4,t3
   131c8:	0806                	slli	a6,a6,0x1
   131ca:	9742                	add	a4,a4,a6
   131cc:	02675733          	divu	a4,a4,t1
   131d0:	41c787b3          	sub	a5,a5,t3
   131d4:	97c2                	add	a5,a5,a6
   131d6:	0267d7b3          	divu	a5,a5,t1
   131da:	0705                	addi	a4,a4,1
   131dc:	031686b3          	mul	a3,a3,a7
   131e0:	0785                	addi	a5,a5,1
   131e2:	02e686b3          	mul	a3,a3,a4
   131e6:	02f686b3          	mul	a3,a3,a5
   131ea:	e114                	sd	a3,0(a0)
   131ec:	e198                	sd	a4,0(a1)
   131ee:	e21c                	sd	a5,0(a2)
   131f0:	8082                	ret

00000000000131f2 <_Z15padding2d_shapePmS_S_mmmmm>:
   131f2:	03180833          	mul	a6,a6,a7
   131f6:	0686                	slli	a3,a3,0x1
   131f8:	9736                	add	a4,a4,a3
   131fa:	e198                	sd	a4,0(a1)
   131fc:	96be                	add	a3,a3,a5
   131fe:	e214                	sd	a3,0(a2)
   13200:	619c                	ld	a5,0(a1)
   13202:	02f80833          	mul	a6,a6,a5
   13206:	02d80833          	mul	a6,a6,a3
   1320a:	01053023          	sd	a6,0(a0)
   1320e:	8082                	ret

0000000000013210 <_Z9padding2dPsPKsmsmm>:
   13210:	7159                	addi	sp,sp,-112
   13212:	e4ce                	sd	s3,72(sp)
   13214:	00161993          	slli	s3,a2,0x1
   13218:	f062                	sd	s8,32(sp)
   1321a:	00f98c33          	add	s8,s3,a5
   1321e:	eca6                	sd	s1,88(sp)
   13220:	02cc04b3          	mul	s1,s8,a2
   13224:	f0a2                	sd	s0,96(sp)
   13226:	e8ca                	sd	s2,80(sp)
   13228:	fc56                	sd	s5,56(sp)
   1322a:	f45e                	sd	s7,40(sp)
   1322c:	f486                	sd	ra,104(sp)
   1322e:	8bb2                	mv	s7,a2
   13230:	8aaa                	mv	s5,a0
   13232:	8436                	mv	s0,a3
   13234:	893a                	mv	s2,a4
   13236:	cce9                	beqz	s1,13310 <_Z9padding2dPsPKsmsmm+0x100>
   13238:	00149693          	slli	a3,s1,0x1
   1323c:	96aa                	add	a3,a3,a0
   1323e:	872a                	mv	a4,a0
   13240:	00871023          	sh	s0,0(a4)
   13244:	0709                	addi	a4,a4,2
   13246:	fed71de3          	bne	a4,a3,13240 <_Z9padding2dPsPKsmsmm+0x30>
   1324a:	8726                	mv	a4,s1
   1324c:	08090263          	beqz	s2,132d0 <_Z9padding2dPsPKsmsmm+0xc0>
   13250:	f85a                	sd	s6,48(sp)
   13252:	417c0b33          	sub	s6,s8,s7
   13256:	e0d2                	sd	s4,64(sp)
   13258:	ec66                	sd	s9,24(sp)
   1325a:	e86a                	sd	s10,16(sp)
   1325c:	e46e                	sd	s11,8(sp)
   1325e:	00179a13          	slli	s4,a5,0x1
   13262:	8d2e                	mv	s10,a1
   13264:	99d6                	add	s3,s3,s5
   13266:	9b26                	add	s6,s6,s1
   13268:	8ca6                	mv	s9,s1
   1326a:	4d81                	li	s11,0
   1326c:	001c9793          	slli	a5,s9,0x1
   13270:	00f98533          	add	a0,s3,a5
   13274:	080b8363          	beqz	s7,132fa <_Z9padding2dPsPKsmsmm+0xea>
   13278:	019b8733          	add	a4,s7,s9
   1327c:	0706                	slli	a4,a4,0x1
   1327e:	97d6                	add	a5,a5,s5
   13280:	9756                	add	a4,a4,s5
   13282:	00879023          	sh	s0,0(a5)
   13286:	0789                	addi	a5,a5,2
   13288:	fee79de3          	bne	a5,a4,13282 <_Z9padding2dPsPKsmsmm+0x72>
   1328c:	8652                	mv	a2,s4
   1328e:	85ea                	mv	a1,s10
   13290:	491140ef          	jal	27f20 <memcpy>
   13294:	016b8733          	add	a4,s7,s6
   13298:	0706                	slli	a4,a4,0x1
   1329a:	001b1793          	slli	a5,s6,0x1
   1329e:	9756                	add	a4,a4,s5
   132a0:	97d6                	add	a5,a5,s5
   132a2:	00879023          	sh	s0,0(a5)
   132a6:	0789                	addi	a5,a5,2
   132a8:	fee79de3          	bne	a5,a4,132a2 <_Z9padding2dPsPKsmsmm+0x92>
   132ac:	0d85                	addi	s11,s11,1
   132ae:	9ce2                	add	s9,s9,s8
   132b0:	9d52                	add	s10,s10,s4
   132b2:	9b62                	add	s6,s6,s8
   132b4:	fb2dece3          	bltu	s11,s2,1326c <_Z9padding2dPsPKsmsmm+0x5c>
   132b8:	ccb1                	beqz	s1,13314 <_Z9padding2dPsPKsmsmm+0x104>
   132ba:	fff90713          	addi	a4,s2,-1
   132be:	03870733          	mul	a4,a4,s8
   132c2:	6a06                	ld	s4,64(sp)
   132c4:	7b42                	ld	s6,48(sp)
   132c6:	6ce2                	ld	s9,24(sp)
   132c8:	6d42                	ld	s10,16(sp)
   132ca:	6da2                	ld	s11,8(sp)
   132cc:	9c26                	add	s8,s8,s1
   132ce:	9762                	add	a4,a4,s8
   132d0:	00e487b3          	add	a5,s1,a4
   132d4:	0786                	slli	a5,a5,0x1
   132d6:	0706                	slli	a4,a4,0x1
   132d8:	97d6                	add	a5,a5,s5
   132da:	9aba                	add	s5,s5,a4
   132dc:	008a9023          	sh	s0,0(s5)
   132e0:	0a89                	addi	s5,s5,2
   132e2:	ff579de3          	bne	a5,s5,132dc <_Z9padding2dPsPKsmsmm+0xcc>
   132e6:	70a6                	ld	ra,104(sp)
   132e8:	7406                	ld	s0,96(sp)
   132ea:	64e6                	ld	s1,88(sp)
   132ec:	6946                	ld	s2,80(sp)
   132ee:	69a6                	ld	s3,72(sp)
   132f0:	7ae2                	ld	s5,56(sp)
   132f2:	7ba2                	ld	s7,40(sp)
   132f4:	7c02                	ld	s8,32(sp)
   132f6:	6165                	addi	sp,sp,112
   132f8:	8082                	ret
   132fa:	85ea                	mv	a1,s10
   132fc:	8652                	mv	a2,s4
   132fe:	0d85                	addi	s11,s11,1
   13300:	421140ef          	jal	27f20 <memcpy>
   13304:	9ce2                	add	s9,s9,s8
   13306:	9d52                	add	s10,s10,s4
   13308:	9b62                	add	s6,s6,s8
   1330a:	f72de1e3          	bltu	s11,s2,1326c <_Z9padding2dPsPKsmsmm+0x5c>
   1330e:	b76d                	j	132b8 <_Z9padding2dPsPKsmsmm+0xa8>
   13310:	f321                	bnez	a4,13250 <_Z9padding2dPsPKsmsmm+0x40>
   13312:	bfd1                	j	132e6 <_Z9padding2dPsPKsmsmm+0xd6>
   13314:	6a06                	ld	s4,64(sp)
   13316:	7b42                	ld	s6,48(sp)
   13318:	6ce2                	ld	s9,24(sp)
   1331a:	6d42                	ld	s10,16(sp)
   1331c:	6da2                	ld	s11,8(sp)
   1331e:	b7e1                	j	132e6 <_Z9padding2dPsPKsmsmm+0xd6>

0000000000013320 <_Z9padding2dPsPKsmsmmm>:
   13320:	06080b63          	beqz	a6,13396 <_Z9padding2dPsPKsmsmmm+0x76>
   13324:	711d                	addi	sp,sp,-96
   13326:	fc4e                	sd	s3,56(sp)
   13328:	89be                	mv	s3,a5
   1332a:	00161793          	slli	a5,a2,0x1
   1332e:	f456                	sd	s5,40(sp)
   13330:	00e78ab3          	add	s5,a5,a4
   13334:	97ce                	add	a5,a5,s3
   13336:	02fa8ab3          	mul	s5,s5,a5
   1333a:	e466                	sd	s9,8(sp)
   1333c:	e8a2                	sd	s0,80(sp)
   1333e:	e4a6                	sd	s1,72(sp)
   13340:	e0ca                	sd	s2,64(sp)
   13342:	f852                	sd	s4,48(sp)
   13344:	f05a                	sd	s6,32(sp)
   13346:	ec5e                	sd	s7,24(sp)
   13348:	e862                	sd	s8,16(sp)
   1334a:	ec86                	sd	ra,88(sp)
   1334c:	03370cb3          	mul	s9,a4,s3
   13350:	8a3a                	mv	s4,a4
   13352:	8bb6                	mv	s7,a3
   13354:	8b32                	mv	s6,a2
   13356:	8c42                	mv	s8,a6
   13358:	84aa                	mv	s1,a0
   1335a:	842e                	mv	s0,a1
   1335c:	4901                	li	s2,0
   1335e:	0a86                	slli	s5,s5,0x1
   13360:	0c86                	slli	s9,s9,0x1
   13362:	85a2                	mv	a1,s0
   13364:	8526                	mv	a0,s1
   13366:	87ce                	mv	a5,s3
   13368:	8752                	mv	a4,s4
   1336a:	86de                	mv	a3,s7
   1336c:	865a                	mv	a2,s6
   1336e:	0905                	addi	s2,s2,1
   13370:	ea1ff0ef          	jal	13210 <_Z9padding2dPsPKsmsmm>
   13374:	94d6                	add	s1,s1,s5
   13376:	9466                	add	s0,s0,s9
   13378:	ff2c15e3          	bne	s8,s2,13362 <_Z9padding2dPsPKsmsmmm+0x42>
   1337c:	60e6                	ld	ra,88(sp)
   1337e:	6446                	ld	s0,80(sp)
   13380:	64a6                	ld	s1,72(sp)
   13382:	6906                	ld	s2,64(sp)
   13384:	79e2                	ld	s3,56(sp)
   13386:	7a42                	ld	s4,48(sp)
   13388:	7aa2                	ld	s5,40(sp)
   1338a:	7b02                	ld	s6,32(sp)
   1338c:	6be2                	ld	s7,24(sp)
   1338e:	6c42                	ld	s8,16(sp)
   13390:	6ca2                	ld	s9,8(sp)
   13392:	6125                	addi	sp,sp,96
   13394:	8082                	ret
   13396:	8082                	ret

0000000000013398 <_Z9padding2dPsPKsmsmmmm>:
   13398:	0c088163          	beqz	a7,1345a <_Z9padding2dPsPKsmsmmmm+0xc2>
   1339c:	0a080f63          	beqz	a6,1345a <_Z9padding2dPsPKsmsmmmm+0xc2>
   133a0:	7135                	addi	sp,sp,-160
   133a2:	e526                	sd	s1,136(sp)
   133a4:	e14a                	sd	s2,128(sp)
   133a6:	84be                	mv	s1,a5
   133a8:	893a                	mv	s2,a4
   133aa:	00161713          	slli	a4,a2,0x1
   133ae:	012707b3          	add	a5,a4,s2
   133b2:	9726                	add	a4,a4,s1
   133b4:	02e787b3          	mul	a5,a5,a4
   133b8:	f0da                	sd	s6,96(sp)
   133ba:	e922                	sd	s0,144(sp)
   133bc:	fcce                	sd	s3,120(sp)
   133be:	f8d2                	sd	s4,112(sp)
   133c0:	f4d6                	sd	s5,104(sp)
   133c2:	e8e2                	sd	s8,80(sp)
   133c4:	e4e6                	sd	s9,72(sp)
   133c6:	ed06                	sd	ra,152(sp)
   133c8:	ecde                	sd	s7,88(sp)
   133ca:	02990733          	mul	a4,s2,s1
   133ce:	00179b13          	slli	s6,a5,0x1
   133d2:	e0ea                	sd	s10,64(sp)
   133d4:	fc6e                	sd	s11,56(sp)
   133d6:	8442                	mv	s0,a6
   133d8:	8a36                	mv	s4,a3
   133da:	89b2                	mv	s3,a2
   133dc:	f42e                	sd	a1,40(sp)
   133de:	f02a                	sd	a0,32(sp)
   133e0:	ec46                	sd	a7,24(sp)
   133e2:	030787b3          	mul	a5,a5,a6
   133e6:	4c81                	li	s9,0
   133e8:	4c01                	li	s8,0
   133ea:	e002                	sd	zero,0(sp)
   133ec:	00171a93          	slli	s5,a4,0x1
   133f0:	e43e                	sd	a5,8(sp)
   133f2:	030707b3          	mul	a5,a4,a6
   133f6:	e83e                	sd	a5,16(sp)
   133f8:	7782                	ld	a5,32(sp)
   133fa:	001c1513          	slli	a0,s8,0x1
   133fe:	001c9593          	slli	a1,s9,0x1
   13402:	00a78bb3          	add	s7,a5,a0
   13406:	77a2                	ld	a5,40(sp)
   13408:	4d01                	li	s10,0
   1340a:	00b78db3          	add	s11,a5,a1
   1340e:	85ee                	mv	a1,s11
   13410:	855e                	mv	a0,s7
   13412:	87a6                	mv	a5,s1
   13414:	874a                	mv	a4,s2
   13416:	86d2                	mv	a3,s4
   13418:	864e                	mv	a2,s3
   1341a:	0d05                	addi	s10,s10,1
   1341c:	df5ff0ef          	jal	13210 <_Z9padding2dPsPKsmsmm>
   13420:	9bda                	add	s7,s7,s6
   13422:	9dd6                	add	s11,s11,s5
   13424:	ffa415e3          	bne	s0,s10,1340e <_Z9padding2dPsPKsmsmmmm+0x76>
   13428:	6722                	ld	a4,8(sp)
   1342a:	6782                	ld	a5,0(sp)
   1342c:	9c3a                	add	s8,s8,a4
   1342e:	6742                	ld	a4,16(sp)
   13430:	0785                	addi	a5,a5,1
   13432:	e03e                	sd	a5,0(sp)
   13434:	9cba                	add	s9,s9,a4
   13436:	6762                	ld	a4,24(sp)
   13438:	fce790e3          	bne	a5,a4,133f8 <_Z9padding2dPsPKsmsmmmm+0x60>
   1343c:	60ea                	ld	ra,152(sp)
   1343e:	644a                	ld	s0,144(sp)
   13440:	64aa                	ld	s1,136(sp)
   13442:	690a                	ld	s2,128(sp)
   13444:	79e6                	ld	s3,120(sp)
   13446:	7a46                	ld	s4,112(sp)
   13448:	7aa6                	ld	s5,104(sp)
   1344a:	7b06                	ld	s6,96(sp)
   1344c:	6be6                	ld	s7,88(sp)
   1344e:	6c46                	ld	s8,80(sp)
   13450:	6ca6                	ld	s9,72(sp)
   13452:	6d06                	ld	s10,64(sp)
   13454:	7de2                	ld	s11,56(sp)
   13456:	610d                	addi	sp,sp,160
   13458:	8082                	ret
   1345a:	8082                	ret

000000000001345c <_Z15pooling2d_shapePmS_S_mmmmmmm>:
   1345c:	6e22                	ld	t3,8(sp)
   1345e:	6302                	ld	t1,0(sp)
   13460:	000e1363          	bnez	t3,13466 <_Z15pooling2d_shapePmS_S_mmmmmmm+0xa>
   13464:	8e46                	mv	t3,a7
   13466:	0306                	slli	t1,t1,0x1
   13468:	969a                	add	a3,a3,t1
   1346a:	411686b3          	sub	a3,a3,a7
   1346e:	971a                	add	a4,a4,t1
   13470:	03c6d6b3          	divu	a3,a3,t3
   13474:	41170733          	sub	a4,a4,a7
   13478:	03c75733          	divu	a4,a4,t3
   1347c:	0685                	addi	a3,a3,1
   1347e:	e194                	sd	a3,0(a1)
   13480:	0705                	addi	a4,a4,1
   13482:	e218                	sd	a4,0(a2)
   13484:	6194                	ld	a3,0(a1)
   13486:	02d80833          	mul	a6,a6,a3
   1348a:	02f80833          	mul	a6,a6,a5
   1348e:	02e80833          	mul	a6,a6,a4
   13492:	01053023          	sd	a6,0(a0)
   13496:	8082                	ret

0000000000013498 <_Z9nn_conv2dPsPKsS1_mmmmmmmm>:
   13498:	7109                	addi	sp,sp,-384
   1349a:	faa2                	sd	s0,368(sp)
   1349c:	f6a6                	sd	s1,360(sp)
   1349e:	0300                	addi	s0,sp,384
   134a0:	e6d6                	sd	s5,328(sp)
   134a2:	fa62                	sd	s8,304(sp)
   134a4:	fe86                	sd	ra,376(sp)
   134a6:	f2ca                	sd	s2,352(sp)
   134a8:	eece                	sd	s3,344(sp)
   134aa:	ead2                	sd	s4,336(sp)
   134ac:	e2da                	sd	s6,320(sp)
   134ae:	fe5e                	sd	s7,312(sp)
   134b0:	f666                	sd	s9,296(sp)
   134b2:	f26a                	sd	s10,288(sp)
   134b4:	ee6e                	sd	s11,280(sp)
   134b6:	00843c03          	ld	s8,8(s0)
   134ba:	f2a43c23          	sd	a0,-200(s0)
   134be:	eab43423          	sd	a1,-344(s0)
   134c2:	f0d43c23          	sd	a3,-232(s0)
   134c6:	f1143823          	sd	a7,-240(s0)
   134ca:	f3043023          	sd	a6,-224(s0)
   134ce:	00043a83          	ld	s5,0(s0)
   134d2:	6804                	ld	s1,16(s0)
   134d4:	2a0c0c63          	beqz	s8,1378c <_Z9nn_conv2dPsPKsS1_mmmmmmmm+0x2f4>
   134d8:	f3843683          	ld	a3,-200(s0)
   134dc:	2c068763          	beqz	a3,137aa <_Z9nn_conv2dPsPKsS1_mmmmmmmm+0x312>
   134e0:	f1843b03          	ld	s6,-232(s0)
   134e4:	8a32                	mv	s4,a2
   134e6:	86a6                	mv	a3,s1
   134e8:	88da                	mv	a7,s6
   134ea:	f8840613          	addi	a2,s0,-120
   134ee:	f8040593          	addi	a1,s0,-128
   134f2:	f7840513          	addi	a0,s0,-136
   134f6:	89be                	mv	s3,a5
   134f8:	893a                	mv	s2,a4
   134fa:	cf9ff0ef          	jal	131f2 <_Z15padding2d_shapePmS_S_mmmmm>
   134fe:	f7843783          	ld	a5,-136(s0)
   13502:	f2043c83          	ld	s9,-224(s0)
   13506:	85d2                	mv	a1,s4
   13508:	0786                	slli	a5,a5,0x1
   1350a:	07bd                	addi	a5,a5,15
   1350c:	9bc1                	andi	a5,a5,-16
   1350e:	40f10133          	sub	sp,sp,a5
   13512:	88da                	mv	a7,s6
   13514:	850a                	mv	a0,sp
   13516:	8866                	mv	a6,s9
   13518:	87ce                	mv	a5,s3
   1351a:	874a                	mv	a4,s2
   1351c:	8626                	mv	a2,s1
   1351e:	4681                	li	a3,0
   13520:	f6243023          	sd	sp,-160(s0)
   13524:	e75ff0ef          	jal	13398 <_Z9padding2dPsPKsmsmmmm>
   13528:	100b0363          	beqz	s6,1362e <_Z9nn_conv2dPsPKsS1_mmmmmmmm+0x196>
   1352c:	f1043703          	ld	a4,-240(s0)
   13530:	cf7d                	beqz	a4,1362e <_Z9nn_conv2dPsPKsS1_mmmmmmmm+0x196>
   13532:	00149793          	slli	a5,s1,0x1
   13536:	41598633          	sub	a2,s3,s5
   1353a:	415904b3          	sub	s1,s2,s5
   1353e:	94be                	add	s1,s1,a5
   13540:	963e                	add	a2,a2,a5
   13542:	0384d4b3          	divu	s1,s1,s8
   13546:	85e2                	mv	a1,s8
   13548:	00199b93          	slli	s7,s3,0x1
   1354c:	001a9b13          	slli	s6,s5,0x1
   13550:	4d81                	li	s11,0
   13552:	03865633          	divu	a2,a2,s8
   13556:	00148e13          	addi	t3,s1,1
   1355a:	00160513          	addi	a0,a2,1
   1355e:	02ae06b3          	mul	a3,t3,a0
   13562:	8a32                	mv	s4,a2
   13564:	033c0833          	mul	a6,s8,s3
   13568:	4c01                	li	s8,0
   1356a:	033908b3          	mul	a7,s2,s3
   1356e:	f3043423          	sd	a6,-216(s0)
   13572:	8826                	mv	a6,s1
   13574:	84b6                	mv	s1,a3
   13576:	035a8333          	mul	t1,s5,s5
   1357a:	02e68933          	mul	s2,a3,a4
   1357e:	03930eb3          	mul	t4,t1,s9
   13582:	031c8d33          	mul	s10,s9,a7
   13586:	4c81                	li	s9,0
   13588:	f2043603          	ld	a2,-224(s0)
   1358c:	876e                	mv	a4,s11
   1358e:	ca49                	beqz	a2,13620 <_Z9nn_conv2dPsPKsS1_mmmmmmmm+0x188>
   13590:	e9a43c23          	sd	s10,-360(s0)
   13594:	eb843023          	sd	s8,-352(s0)
   13598:	8d52                	mv	s10,s4
   1359a:	4981                	li	s3,0
   1359c:	4a01                	li	s4,0
   1359e:	879a                	mv	a5,t1
   135a0:	e9243823          	sd	s2,-368(s0)
   135a4:	e9b43423          	sd	s11,-376(s0)
   135a8:	f1343423          	sd	s3,-248(s0)
   135ac:	8c56                	mv	s8,s5
   135ae:	8de6                	mv	s11,s9
   135b0:	f1443023          	sd	s4,-256(s0)
   135b4:	efd43c23          	sd	t4,-264(s0)
   135b8:	ee943823          	sd	s1,-272(s0)
   135bc:	ef943423          	sd	s9,-280(s0)
   135c0:	4981                	li	s3,0
   135c2:	8652                	mv	a2,s4
   135c4:	8aae                	mv	s5,a1
   135c6:	180e0063          	beqz	t3,13746 <_Z9nn_conv2dPsPKsS1_mmmmmmmm+0x2ae>
   135ca:	4481                	li	s1,0
   135cc:	e151                	bnez	a0,13650 <_Z9nn_conv2dPsPKsS1_mmmmmmmm+0x1b8>
   135ce:	00980563          	beq	a6,s1,135d8 <_Z9nn_conv2dPsPKsS1_mmmmmmmm+0x140>
   135d2:	0485                	addi	s1,s1,1
   135d4:	fe981fe3          	bne	a6,s1,135d2 <_Z9nn_conv2dPsPKsS1_mmmmmmmm+0x13a>
   135d8:	f2043683          	ld	a3,-224(s0)
   135dc:	0985                	addi	s3,s3,1
   135de:	9dc6                	add	s11,s11,a7
   135e0:	963e                	add	a2,a2,a5
   135e2:	ff3694e3          	bne	a3,s3,135ca <_Z9nn_conv2dPsPKsS1_mmmmmmmm+0x132>
   135e6:	f0843983          	ld	s3,-248(s0)
   135ea:	f0043a03          	ld	s4,-256(s0)
   135ee:	ef843e83          	ld	t4,-264(s0)
   135f2:	ef043483          	ld	s1,-272(s0)
   135f6:	f1043683          	ld	a3,-240(s0)
   135fa:	0985                	addi	s3,s3,1
   135fc:	85d6                	mv	a1,s5
   135fe:	ee843c83          	ld	s9,-280(s0)
   13602:	8ae2                	mv	s5,s8
   13604:	9726                	add	a4,a4,s1
   13606:	9a76                	add	s4,s4,t4
   13608:	fb3690e3          	bne	a3,s3,135a8 <_Z9nn_conv2dPsPKsS1_mmmmmmmm+0x110>
   1360c:	8a6a                	mv	s4,s10
   1360e:	ea043c03          	ld	s8,-352(s0)
   13612:	e9843d03          	ld	s10,-360(s0)
   13616:	e9043903          	ld	s2,-368(s0)
   1361a:	e8843d83          	ld	s11,-376(s0)
   1361e:	833e                	mv	t1,a5
   13620:	f1843783          	ld	a5,-232(s0)
   13624:	0c05                	addi	s8,s8,1
   13626:	9cea                	add	s9,s9,s10
   13628:	9dca                	add	s11,s11,s2
   1362a:	f5879fe3          	bne	a5,s8,13588 <_Z9nn_conv2dPsPKsS1_mmmmmmmm+0xf0>
   1362e:	e8040113          	addi	sp,s0,-384
   13632:	70f6                	ld	ra,376(sp)
   13634:	7456                	ld	s0,368(sp)
   13636:	74b6                	ld	s1,360(sp)
   13638:	7916                	ld	s2,352(sp)
   1363a:	69f6                	ld	s3,344(sp)
   1363c:	6a56                	ld	s4,336(sp)
   1363e:	6ab6                	ld	s5,328(sp)
   13640:	6b16                	ld	s6,320(sp)
   13642:	7bf2                	ld	s7,312(sp)
   13644:	7c52                	ld	s8,304(sp)
   13646:	7cb2                	ld	s9,296(sp)
   13648:	7d12                	ld	s10,288(sp)
   1364a:	6df2                	ld	s11,280(sp)
   1364c:	6119                	addi	sp,sp,384
   1364e:	8082                	ret
   13650:	ea843683          	ld	a3,-344(s0)
   13654:	00161c93          	slli	s9,a2,0x1
   13658:	eee43023          	sd	a4,-288(s0)
   1365c:	96e6                	add	a3,a3,s9
   1365e:	f6d43423          	sd	a3,-152(s0)
   13662:	ecf43c23          	sd	a5,-296(s0)
   13666:	86a6                	mv	a3,s1
   13668:	f5043023          	sd	a6,-192(s0)
   1366c:	edc43823          	sd	t3,-304(s0)
   13670:	f2a43823          	sd	a0,-208(s0)
   13674:	ed143423          	sd	a7,-312(s0)
   13678:	ed343023          	sd	s3,-320(s0)
   1367c:	ebb43c23          	sd	s11,-328(s0)
   13680:	eac43823          	sd	a2,-336(s0)
   13684:	84e2                	mv	s1,s8
   13686:	87ba                	mv	a5,a4
   13688:	876e                	mv	a4,s11
   1368a:	c4c9                	beqz	s1,13714 <_Z9nn_conv2dPsPKsS1_mmmmmmmm+0x27c>
   1368c:	f3843603          	ld	a2,-200(s0)
   13690:	00179813          	slli	a6,a5,0x1
   13694:	8ca6                	mv	s9,s1
   13696:	01060933          	add	s2,a2,a6
   1369a:	8a3a                	mv	s4,a4
   1369c:	f4f43c23          	sd	a5,-168(s0)
   136a0:	f4d43823          	sd	a3,-176(s0)
   136a4:	f4e43423          	sd	a4,-184(s0)
   136a8:	4481                	li	s1,0
   136aa:	f6043783          	ld	a5,-160(s0)
   136ae:	f6843983          	ld	s3,-152(s0)
   136b2:	001a1613          	slli	a2,s4,0x1
   136b6:	00c78c33          	add	s8,a5,a2
   136ba:	4d81                	li	s11,0
   136bc:	8662                	mv	a2,s8
   136be:	85ce                	mv	a1,s3
   136c0:	86e6                	mv	a3,s9
   136c2:	f7640513          	addi	a0,s0,-138
   136c6:	e8cff0ef          	jal	12d52 <_Z13tiled_dotprodPsPKsS1_m>
   136ca:	00095783          	lhu	a5,0(s2)
   136ce:	f7645703          	lhu	a4,-138(s0)
   136d2:	0d85                	addi	s11,s11,1
   136d4:	99da                	add	s3,s3,s6
   136d6:	9fb9                	addw	a5,a5,a4
   136d8:	00f91023          	sh	a5,0(s2)
   136dc:	9c5e                	add	s8,s8,s7
   136de:	fdbc9fe3          	bne	s9,s11,136bc <_Z9nn_conv2dPsPKsS1_mmmmmmmm+0x224>
   136e2:	9a56                	add	s4,s4,s5
   136e4:	0909                	addi	s2,s2,2
   136e6:	009d0463          	beq	s10,s1,136ee <_Z9nn_conv2dPsPKsS1_mmmmmmmm+0x256>
   136ea:	0485                	addi	s1,s1,1
   136ec:	bf7d                	j	136aa <_Z9nn_conv2dPsPKsS1_mmmmmmmm+0x212>
   136ee:	f5043683          	ld	a3,-176(s0)
   136f2:	f4043603          	ld	a2,-192(s0)
   136f6:	f5843783          	ld	a5,-168(s0)
   136fa:	f4843703          	ld	a4,-184(s0)
   136fe:	84e6                	mv	s1,s9
   13700:	04d60b63          	beq	a2,a3,13756 <_Z9nn_conv2dPsPKsS1_mmmmmmmm+0x2be>
   13704:	f3043603          	ld	a2,-208(s0)
   13708:	0685                	addi	a3,a3,1
   1370a:	97b2                	add	a5,a5,a2
   1370c:	f2843603          	ld	a2,-216(s0)
   13710:	9732                	add	a4,a4,a2
   13712:	fcad                	bnez	s1,1368c <_Z9nn_conv2dPsPKsS1_mmmmmmmm+0x1f4>
   13714:	f4043803          	ld	a6,-192(s0)
   13718:	8c26                	mv	s8,s1
   1371a:	84b6                	mv	s1,a3
   1371c:	ee043703          	ld	a4,-288(s0)
   13720:	ed843783          	ld	a5,-296(s0)
   13724:	ed043e03          	ld	t3,-304(s0)
   13728:	f3043503          	ld	a0,-208(s0)
   1372c:	ec843883          	ld	a7,-312(s0)
   13730:	ec043983          	ld	s3,-320(s0)
   13734:	eb843d83          	ld	s11,-328(s0)
   13738:	eb043603          	ld	a2,-336(s0)
   1373c:	00980563          	beq	a6,s1,13746 <_Z9nn_conv2dPsPKsS1_mmmmmmmm+0x2ae>
   13740:	0485                	addi	s1,s1,1
   13742:	fe981fe3          	bne	a6,s1,13740 <_Z9nn_conv2dPsPKsS1_mmmmmmmm+0x2a8>
   13746:	f2043683          	ld	a3,-224(s0)
   1374a:	0985                	addi	s3,s3,1
   1374c:	9dc6                	add	s11,s11,a7
   1374e:	963e                	add	a2,a2,a5
   13750:	e7369be3          	bne	a3,s3,135c6 <_Z9nn_conv2dPsPKsS1_mmmmmmmm+0x12e>
   13754:	bd49                	j	135e6 <_Z9nn_conv2dPsPKsS1_mmmmmmmm+0x14e>
   13756:	ec043983          	ld	s3,-320(s0)
   1375a:	ed843783          	ld	a5,-296(s0)
   1375e:	ec843883          	ld	a7,-312(s0)
   13762:	eb843d83          	ld	s11,-328(s0)
   13766:	eb043603          	ld	a2,-336(s0)
   1376a:	f2043683          	ld	a3,-224(s0)
   1376e:	0985                	addi	s3,s3,1
   13770:	f4043803          	ld	a6,-192(s0)
   13774:	ee043703          	ld	a4,-288(s0)
   13778:	ed043e03          	ld	t3,-304(s0)
   1377c:	f3043503          	ld	a0,-208(s0)
   13780:	8c66                	mv	s8,s9
   13782:	9dc6                	add	s11,s11,a7
   13784:	963e                	add	a2,a2,a5
   13786:	e53690e3          	bne	a3,s3,135c6 <_Z9nn_conv2dPsPKsS1_mmmmmmmm+0x12e>
   1378a:	bdb1                	j	135e6 <_Z9nn_conv2dPsPKsS1_mmmmmmmm+0x14e>
   1378c:	000326b7          	lui	a3,0x32
   13790:	00032637          	lui	a2,0x32
   13794:	00032537          	lui	a0,0x32
   13798:	d8068693          	addi	a3,a3,-640 # 31d80 <__clzdi2+0x14f2>
   1379c:	d9060613          	addi	a2,a2,-624 # 31d90 <__clzdi2+0x1502>
   137a0:	e0850513          	addi	a0,a0,-504 # 31e08 <__clzdi2+0x157a>
   137a4:	45a9                	li	a1,10
   137a6:	0f9100ef          	jal	2409e <__assert_func>
   137aa:	00032537          	lui	a0,0x32
   137ae:	e2050513          	addi	a0,a0,-480 # 31e20 <__clzdi2+0x1592>
   137b2:	4c4130ef          	jal	26c76 <puts>
   137b6:	00032537          	lui	a0,0x32
   137ba:	e7050513          	addi	a0,a0,-400 # 31e70 <__clzdi2+0x15e2>
   137be:	4b8130ef          	jal	26c76 <puts>
   137c2:	00032537          	lui	a0,0x32
   137c6:	eb050513          	addi	a0,a0,-336 # 31eb0 <__clzdi2+0x1622>
   137ca:	4ac130ef          	jal	26c76 <puts>
   137ce:	557d                	li	a0,-1
   137d0:	ee7fc0ef          	jal	106b6 <exit>

00000000000137d4 <_Z9nn_linearPsPKsS1_mmm>:
   137d4:	883a                	mv	a6,a4
   137d6:	c509                	beqz	a0,137e0 <_Z9nn_linearPsPKsS1_mmm+0xc>
   137d8:	8736                	mv	a4,a3
   137da:	86c2                	mv	a3,a6
   137dc:	e88ff06f          	j	12e64 <_Z22tiled_matmul_transposePsPKsS1_mmm>
   137e0:	00032537          	lui	a0,0x32
   137e4:	1101                	addi	sp,sp,-32
   137e6:	ef050513          	addi	a0,a0,-272 # 31ef0 <__clzdi2+0x1662>
   137ea:	ec06                	sd	ra,24(sp)
   137ec:	e43e                	sd	a5,8(sp)
   137ee:	e03a                	sd	a4,0(sp)
   137f0:	486130ef          	jal	26c76 <puts>
   137f4:	6602                	ld	a2,0(sp)
   137f6:	65a2                	ld	a1,8(sp)
   137f8:	00032537          	lui	a0,0x32
   137fc:	f4050513          	addi	a0,a0,-192 # 31f40 <__clzdi2+0x16b2>
   13800:	29a130ef          	jal	26a9a <printf>
   13804:	557d                	li	a0,-1
   13806:	eb1fc0ef          	jal	106b6 <exit>

000000000001380a <_Z9nn_linearPsPKsS1_S1_mmm>:
   1380a:	7179                	addi	sp,sp,-48
   1380c:	ec26                	sd	s1,24(sp)
   1380e:	f406                	sd	ra,40(sp)
   13810:	f022                	sd	s0,32(sp)
   13812:	84b6                	mv	s1,a3
   13814:	86be                	mv	a3,a5
   13816:	c115                	beqz	a0,1383a <_Z9nn_linearPsPKsS1_S1_mmm+0x30>
   13818:	87c2                	mv	a5,a6
   1381a:	842a                	mv	s0,a0
   1381c:	e036                	sd	a3,0(sp)
   1381e:	e442                	sd	a6,8(sp)
   13820:	e44ff0ef          	jal	12e64 <_Z22tiled_matmul_transposePsPKsS1_mmm>
   13824:	85a2                	mv	a1,s0
   13826:	8522                	mv	a0,s0
   13828:	7402                	ld	s0,32(sp)
   1382a:	6702                	ld	a4,0(sp)
   1382c:	66a2                	ld	a3,8(sp)
   1382e:	70a2                	ld	ra,40(sp)
   13830:	8626                	mv	a2,s1
   13832:	64e2                	ld	s1,24(sp)
   13834:	6145                	addi	sp,sp,48
   13836:	c02fe06f          	j	11c38 <_Z23tiled_matrix_vector_addPsPKsS1_mm>
   1383a:	00032537          	lui	a0,0x32
   1383e:	ef050513          	addi	a0,a0,-272 # 31ef0 <__clzdi2+0x1662>
   13842:	e442                	sd	a6,8(sp)
   13844:	e03e                	sd	a5,0(sp)
   13846:	430130ef          	jal	26c76 <puts>
   1384a:	6602                	ld	a2,0(sp)
   1384c:	65a2                	ld	a1,8(sp)
   1384e:	00032537          	lui	a0,0x32
   13852:	f4050513          	addi	a0,a0,-192 # 31f40 <__clzdi2+0x16b2>
   13856:	244130ef          	jal	26a9a <printf>
   1385a:	557d                	li	a0,-1
   1385c:	e5bfc0ef          	jal	106b6 <exit>

0000000000013860 <_Z17nn_linear_stridedPsPKsS1_mmmmm>:
   13860:	833a                	mv	t1,a4
   13862:	c509                	beqz	a0,1386c <_Z17nn_linear_stridedPsPKsS1_mmmmm+0xc>
   13864:	8736                	mv	a4,a3
   13866:	869a                	mv	a3,t1
   13868:	fc4ff06f          	j	1302c <_Z30tiled_matmul_transpose_stridedPsPKsS1_mmmmm>
   1386c:	00032537          	lui	a0,0x32
   13870:	1101                	addi	sp,sp,-32
   13872:	f7850513          	addi	a0,a0,-136 # 31f78 <__clzdi2+0x16ea>
   13876:	ec06                	sd	ra,24(sp)
   13878:	e43e                	sd	a5,8(sp)
   1387a:	e03a                	sd	a4,0(sp)
   1387c:	3fa130ef          	jal	26c76 <puts>
   13880:	6602                	ld	a2,0(sp)
   13882:	65a2                	ld	a1,8(sp)
   13884:	00032537          	lui	a0,0x32
   13888:	f4050513          	addi	a0,a0,-192 # 31f40 <__clzdi2+0x16b2>
   1388c:	20e130ef          	jal	26a9a <printf>
   13890:	557d                	li	a0,-1
   13892:	e25fc0ef          	jal	106b6 <exit>

0000000000013896 <_Z22nn_linear_full_stridedPsPKsS1_mmmmmm>:
   13896:	1101                	addi	sp,sp,-32
   13898:	ec06                	sd	ra,24(sp)
   1389a:	833a                	mv	t1,a4
   1389c:	7702                	ld	a4,32(sp)
   1389e:	c901                	beqz	a0,138ae <_Z22nn_linear_full_stridedPsPKsS1_mmmmmm+0x18>
   138a0:	60e2                	ld	ra,24(sp)
   138a2:	f03a                	sd	a4,32(sp)
   138a4:	8736                	mv	a4,a3
   138a6:	6105                	addi	sp,sp,32
   138a8:	869a                	mv	a3,t1
   138aa:	83fff06f          	j	130e8 <_Z35tiled_matmul_transpose_full_stridedPsPKsS1_mmmmmm>
   138ae:	00032537          	lui	a0,0x32
   138b2:	fd050513          	addi	a0,a0,-48 # 31fd0 <__clzdi2+0x1742>
   138b6:	e43a                	sd	a4,8(sp)
   138b8:	e03e                	sd	a5,0(sp)
   138ba:	3bc130ef          	jal	26c76 <puts>
   138be:	6622                	ld	a2,8(sp)
   138c0:	6582                	ld	a1,0(sp)
   138c2:	00032537          	lui	a0,0x32
   138c6:	02850513          	addi	a0,a0,40 # 32028 <__clzdi2+0x179a>
   138ca:	1d0130ef          	jal	26a9a <printf>
   138ce:	557d                	li	a0,-1
   138d0:	de7fc0ef          	jal	106b6 <exit>

00000000000138d4 <_Z14nn_batchnorm2dPsPKsmmmmR14BatchNormParam7stage_t>:
   138d4:	7135                	addi	sp,sp,-160
   138d6:	fcce                	sd	s3,120(sp)
   138d8:	f8d2                	sd	s4,112(sp)
   138da:	f4d6                	sd	s5,104(sp)
   138dc:	ed06                	sd	ra,152(sp)
   138de:	e82e                	sd	a1,16(sp)
   138e0:	e432                	sd	a2,8(sp)
   138e2:	8ab6                	mv	s5,a3
   138e4:	8a3a                	mv	s4,a4
   138e6:	89be                	mv	s3,a5
   138e8:	12050363          	beqz	a0,13a0e <_Z14nn_batchnorm2dPsPKsmmmmR14BatchNormParam7stage_t+0x13a>
   138ec:	0e089563          	bnez	a7,139d6 <_Z14nn_batchnorm2dPsPKsmmmmR14BatchNormParam7stage_t+0x102>
   138f0:	67a2                	ld	a5,8(sp)
   138f2:	c7ed                	beqz	a5,139dc <_Z14nn_batchnorm2dPsPKsmmmmR14BatchNormParam7stage_t+0x108>
   138f4:	c6e5                	beqz	a3,139dc <_Z14nn_batchnorm2dPsPKsmmmmR14BatchNormParam7stage_t+0x108>
   138f6:	033708b3          	mul	a7,a4,s3
   138fa:	e526                	sd	s1,136(sp)
   138fc:	f0da                	sd	s6,96(sp)
   138fe:	ecde                	sd	s7,88(sp)
   13900:	e8e2                	sd	s8,80(sp)
   13902:	fc6e                	sd	s11,56(sp)
   13904:	e922                	sd	s0,144(sp)
   13906:	e14a                	sd	s2,128(sp)
   13908:	e4e6                	sd	s9,72(sp)
   1390a:	e0ea                	sd	s10,64(sp)
   1390c:	02d887b3          	mul	a5,a7,a3
   13910:	b422                	fsd	fs0,40(sp)
   13912:	8c2a                	mv	s8,a0
   13914:	84c2                	mv	s1,a6
   13916:	4b81                	li	s7,0
   13918:	4b01                	li	s6,0
   1391a:	00189d93          	slli	s11,a7,0x1
   1391e:	ec3e                	sd	a5,24(sp)
   13920:	67c2                	ld	a5,16(sp)
   13922:	001b1813          	slli	a6,s6,0x1
   13926:	010c0433          	add	s0,s8,a6
   1392a:	01078cb3          	add	s9,a5,a6
   1392e:	4d01                	li	s10,0
   13930:	6c98                	ld	a4,24(s1)
   13932:	001d1913          	slli	s2,s10,0x1
   13936:	0204a787          	flw	fa5,32(s1)
   1393a:	974a                	add	a4,a4,s2
   1393c:	00071603          	lh	a2,0(a4)
   13940:	6894                	ld	a3,16(s1)
   13942:	85e6                	mv	a1,s9
   13944:	d0067453          	fcvt.s.w	fs0,a2
   13948:	96ca                	add	a3,a3,s2
   1394a:	00069603          	lh	a2,0(a3)
   1394e:	00f47453          	fadd.s	fs0,fs0,fa5
