
build-fiona/test_fp_simple.elf:     file format elf64-littleriscv


Disassembly of section .text:

0000000000010120 <__cxa_bad_cast>:
   10120:	1141                	addi	sp,sp,-16
   10122:	4521                	li	a0,8
   10124:	e406                	sd	ra,8(sp)
   10126:	676050ef          	jal	1579c <__cxa_allocate_exception>
   1012a:	000337b7          	lui	a5,0x33
   1012e:	0a078793          	addi	a5,a5,160 # 330a0 <_ZTVSt8bad_cast+0x10>
   10132:	6655                	lui	a2,0x15
   10134:	000335b7          	lui	a1,0x33
   10138:	e11c                	sd	a5,0(a0)
   1013a:	67260613          	addi	a2,a2,1650 # 15672 <_ZNSt8bad_castD1Ev>
   1013e:	07858593          	addi	a1,a1,120 # 33078 <_ZTISt8bad_cast>
   10142:	468050ef          	jal	155aa <__cxa_throw>

0000000000010146 <__cxa_bad_typeid>:
   10146:	1141                	addi	sp,sp,-16
   10148:	4521                	li	a0,8
   1014a:	e406                	sd	ra,8(sp)
   1014c:	650050ef          	jal	1579c <__cxa_allocate_exception>
   10150:	000337b7          	lui	a5,0x33
   10154:	0f078793          	addi	a5,a5,240 # 330f0 <_ZTVSt10bad_typeid+0x10>
   10158:	6655                	lui	a2,0x15
   1015a:	000335b7          	lui	a1,0x33
   1015e:	e11c                	sd	a5,0(a0)
   10160:	69c60613          	addi	a2,a2,1692 # 1569c <_ZNSt10bad_typeidD1Ev>
   10164:	0c858593          	addi	a1,a1,200 # 330c8 <_ZTISt10bad_typeid>
   10168:	442050ef          	jal	155aa <__cxa_throw>

000000000001016c <__cxa_throw_bad_array_new_length>:
   1016c:	1141                	addi	sp,sp,-16
   1016e:	4521                	li	a0,8
   10170:	e406                	sd	ra,8(sp)
   10172:	62a050ef          	jal	1579c <__cxa_allocate_exception>
   10176:	000337b7          	lui	a5,0x33
   1017a:	05078793          	addi	a5,a5,80 # 33050 <_ZTVSt20bad_array_new_length+0x10>
   1017e:	6655                	lui	a2,0x15
   10180:	000335b7          	lui	a1,0x33
   10184:	e11c                	sd	a5,0(a0)
   10186:	64660613          	addi	a2,a2,1606 # 15646 <_ZNSt20bad_array_new_lengthD1Ev>
   1018a:	02858593          	addi	a1,a1,40 # 33028 <_ZTISt20bad_array_new_length>
   1018e:	41c050ef          	jal	155aa <__cxa_throw>

0000000000010192 <_ZN9__gnu_cxx9__freeresEv>:
   10192:	1141                	addi	sp,sp,-16
   10194:	e022                	sd	s0,0(sp)
   10196:	00046437          	lui	s0,0x46
   1019a:	90040413          	addi	s0,s0,-1792 # 45900 <_ZN12_GLOBAL__N_1L14emergency_poolE>
   1019e:	6808                	ld	a0,16(s0)
   101a0:	e406                	sd	ra,8(sp)
   101a2:	c509                	beqz	a0,101ac <_ZN9__gnu_cxx9__freeresEv+0x1a>
   101a4:	264130ef          	jal	23408 <free>
   101a8:	00043823          	sd	zero,16(s0)
   101ac:	60a2                	ld	ra,8(sp)
   101ae:	6402                	ld	s0,0(sp)
   101b0:	0141                	addi	sp,sp,16
   101b2:	8082                	ret

00000000000101b4 <_ZSt9terminatev>:
   101b4:	1141                	addi	sp,sp,-16
   101b6:	e406                	sd	ra,8(sp)
   101b8:	737050ef          	jal	160ee <_ZSt13get_terminatev>
   101bc:	70f050ef          	jal	160ca <_ZN10__cxxabiv111__terminateEPFvvE>

00000000000101c0 <_ZSt10unexpectedv>:
   101c0:	1141                	addi	sp,sp,-16
   101c2:	e406                	sd	ra,8(sp)
   101c4:	753050ef          	jal	16116 <_ZSt14get_unexpectedv>
   101c8:	733050ef          	jal	160fa <_ZN10__cxxabiv112__unexpectedEPFvvE>

00000000000101cc <_ZSt21__throw_bad_exceptionv>:
   101cc:	1141                	addi	sp,sp,-16
   101ce:	4521                	li	a0,8
   101d0:	e406                	sd	ra,8(sp)
   101d2:	5ca050ef          	jal	1579c <__cxa_allocate_exception>
   101d6:	000337b7          	lui	a5,0x33
   101da:	1f878793          	addi	a5,a5,504 # 331f8 <_ZTVSt13bad_exception+0x10>
   101de:	6659                	lui	a2,0x16
   101e0:	000335b7          	lui	a1,0x33
   101e4:	e11c                	sd	a5,0(a0)
   101e6:	9ba60613          	addi	a2,a2,-1606 # 159ba <_ZNSt13bad_exceptionD1Ev>
   101ea:	14058593          	addi	a1,a1,320 # 33140 <_ZTISt13bad_exception>
   101ee:	3bc050ef          	jal	155aa <__cxa_throw>

00000000000101f2 <_ZSt17__throw_bad_allocv>:
   101f2:	1141                	addi	sp,sp,-16
   101f4:	4521                	li	a0,8
   101f6:	e406                	sd	ra,8(sp)
   101f8:	5a4050ef          	jal	1579c <__cxa_allocate_exception>
   101fc:	000337b7          	lui	a5,0x33
   10200:	3c878793          	addi	a5,a5,968 # 333c8 <_ZTVSt9bad_alloc+0x10>
   10204:	6659                	lui	a2,0x16
   10206:	000335b7          	lui	a1,0x33
   1020a:	e11c                	sd	a5,0(a0)
   1020c:	55060613          	addi	a2,a2,1360 # 16550 <_ZNSt9bad_allocD1Ev>
   10210:	3a058593          	addi	a1,a1,928 # 333a0 <_ZTISt9bad_alloc>
   10214:	396050ef          	jal	155aa <__cxa_throw>

0000000000010218 <_ZSt28__throw_bad_array_new_lengthv>:
   10218:	1141                	addi	sp,sp,-16
   1021a:	4521                	li	a0,8
   1021c:	e406                	sd	ra,8(sp)
   1021e:	57e050ef          	jal	1579c <__cxa_allocate_exception>
   10222:	000337b7          	lui	a5,0x33
   10226:	05078793          	addi	a5,a5,80 # 33050 <_ZTVSt20bad_array_new_length+0x10>
   1022a:	6655                	lui	a2,0x15
   1022c:	000335b7          	lui	a1,0x33
   10230:	e11c                	sd	a5,0(a0)
   10232:	64660613          	addi	a2,a2,1606 # 15646 <_ZNSt20bad_array_new_lengthD1Ev>
   10236:	02858593          	addi	a1,a1,40 # 33028 <_ZTISt20bad_array_new_length>
   1023a:	370050ef          	jal	155aa <__cxa_throw>

000000000001023e <_ZSt16__throw_bad_castv>:
   1023e:	1141                	addi	sp,sp,-16
   10240:	4521                	li	a0,8
   10242:	e406                	sd	ra,8(sp)
   10244:	558050ef          	jal	1579c <__cxa_allocate_exception>
   10248:	000337b7          	lui	a5,0x33
   1024c:	0a078793          	addi	a5,a5,160 # 330a0 <_ZTVSt8bad_cast+0x10>
   10250:	6655                	lui	a2,0x15
   10252:	000335b7          	lui	a1,0x33
   10256:	e11c                	sd	a5,0(a0)
   10258:	67260613          	addi	a2,a2,1650 # 15672 <_ZNSt8bad_castD1Ev>
   1025c:	07858593          	addi	a1,a1,120 # 33078 <_ZTISt8bad_cast>
   10260:	34a050ef          	jal	155aa <__cxa_throw>

0000000000010264 <_ZSt18__throw_bad_typeidv>:
   10264:	1141                	addi	sp,sp,-16
   10266:	4521                	li	a0,8
   10268:	e406                	sd	ra,8(sp)
   1026a:	532050ef          	jal	1579c <__cxa_allocate_exception>
   1026e:	000337b7          	lui	a5,0x33
   10272:	0f078793          	addi	a5,a5,240 # 330f0 <_ZTVSt10bad_typeid+0x10>
   10276:	6655                	lui	a2,0x15
   10278:	000335b7          	lui	a1,0x33
   1027c:	e11c                	sd	a5,0(a0)
   1027e:	69c60613          	addi	a2,a2,1692 # 1569c <_ZNSt10bad_typeidD1Ev>
   10282:	0c858593          	addi	a1,a1,200 # 330c8 <_ZTISt10bad_typeid>
   10286:	324050ef          	jal	155aa <__cxa_throw>

000000000001028a <_ZSt19__throw_logic_errorPKc>:
   1028a:	7179                	addi	sp,sp,-48
   1028c:	e42a                	sd	a0,8(sp)
   1028e:	4541                	li	a0,16
   10290:	f022                	sd	s0,32(sp)
   10292:	f406                	sd	ra,40(sp)
   10294:	ec26                	sd	s1,24(sp)
   10296:	506050ef          	jal	1579c <__cxa_allocate_exception>
   1029a:	65a2                	ld	a1,8(sp)
   1029c:	842a                	mv	s0,a0
   1029e:	5b70a0ef          	jal	1b054 <_ZNSt11logic_errorC1EPKc>
   102a2:	666d                	lui	a2,0x1b
   102a4:	000345b7          	lui	a1,0x34
   102a8:	d2860613          	addi	a2,a2,-728 # 1ad28 <_ZNSt11logic_errorD1Ev>
   102ac:	5e858593          	addi	a1,a1,1512 # 345e8 <_ZTISt11logic_error>
   102b0:	8522                	mv	a0,s0
   102b2:	2f8050ef          	jal	155aa <__cxa_throw>
   102b6:	84aa                	mv	s1,a0
   102b8:	8522                	mv	a0,s0
   102ba:	51c050ef          	jal	157d6 <__cxa_free_exception>
   102be:	8526                	mv	a0,s1
   102c0:	42b110ef          	jal	21eea <_Unwind_Resume>

00000000000102c4 <_ZSt20__throw_domain_errorPKc>:
   102c4:	7179                	addi	sp,sp,-48
   102c6:	e42a                	sd	a0,8(sp)
   102c8:	4541                	li	a0,16
   102ca:	f022                	sd	s0,32(sp)
   102cc:	f406                	sd	ra,40(sp)
   102ce:	ec26                	sd	s1,24(sp)
   102d0:	4cc050ef          	jal	1579c <__cxa_allocate_exception>
   102d4:	65a2                	ld	a1,8(sp)
   102d6:	842a                	mv	s0,a0
   102d8:	5b30a0ef          	jal	1b08a <_ZNSt12domain_errorC1EPKc>
   102dc:	666d                	lui	a2,0x1b
   102de:	000345b7          	lui	a1,0x34
   102e2:	d6460613          	addi	a2,a2,-668 # 1ad64 <_ZNSt12domain_errorD1Ev>
   102e6:	61858593          	addi	a1,a1,1560 # 34618 <_ZTISt12domain_error>
   102ea:	8522                	mv	a0,s0
   102ec:	2be050ef          	jal	155aa <__cxa_throw>
   102f0:	84aa                	mv	s1,a0
   102f2:	8522                	mv	a0,s0
   102f4:	4e2050ef          	jal	157d6 <__cxa_free_exception>
   102f8:	8526                	mv	a0,s1
   102fa:	3f1110ef          	jal	21eea <_Unwind_Resume>

00000000000102fe <_ZSt24__throw_invalid_argumentPKc>:
   102fe:	7179                	addi	sp,sp,-48
   10300:	e42a                	sd	a0,8(sp)
   10302:	4541                	li	a0,16
   10304:	f022                	sd	s0,32(sp)
   10306:	f406                	sd	ra,40(sp)
   10308:	ec26                	sd	s1,24(sp)
   1030a:	492050ef          	jal	1579c <__cxa_allocate_exception>
   1030e:	65a2                	ld	a1,8(sp)
   10310:	842a                	mv	s0,a0
   10312:	5950a0ef          	jal	1b0a6 <_ZNSt16invalid_argumentC1EPKc>
   10316:	666d                	lui	a2,0x1b
   10318:	000345b7          	lui	a1,0x34
   1031c:	d8660613          	addi	a2,a2,-634 # 1ad86 <_ZNSt16invalid_argumentD1Ev>
   10320:	64858593          	addi	a1,a1,1608 # 34648 <_ZTISt16invalid_argument>
   10324:	8522                	mv	a0,s0
   10326:	284050ef          	jal	155aa <__cxa_throw>
   1032a:	84aa                	mv	s1,a0
   1032c:	8522                	mv	a0,s0
   1032e:	4a8050ef          	jal	157d6 <__cxa_free_exception>
   10332:	8526                	mv	a0,s1
   10334:	3b7110ef          	jal	21eea <_Unwind_Resume>

0000000000010338 <_ZSt20__throw_length_errorPKc>:
   10338:	7179                	addi	sp,sp,-48
   1033a:	e42a                	sd	a0,8(sp)
   1033c:	4541                	li	a0,16
   1033e:	f022                	sd	s0,32(sp)
   10340:	f406                	sd	ra,40(sp)
   10342:	ec26                	sd	s1,24(sp)
   10344:	458050ef          	jal	1579c <__cxa_allocate_exception>
   10348:	65a2                	ld	a1,8(sp)
   1034a:	842a                	mv	s0,a0
   1034c:	5770a0ef          	jal	1b0c2 <_ZNSt12length_errorC1EPKc>
   10350:	666d                	lui	a2,0x1b
   10352:	000345b7          	lui	a1,0x34
   10356:	da860613          	addi	a2,a2,-600 # 1ada8 <_ZNSt12length_errorD1Ev>
   1035a:	67858593          	addi	a1,a1,1656 # 34678 <_ZTISt12length_error>
   1035e:	8522                	mv	a0,s0
   10360:	24a050ef          	jal	155aa <__cxa_throw>
   10364:	84aa                	mv	s1,a0
   10366:	8522                	mv	a0,s0
   10368:	46e050ef          	jal	157d6 <__cxa_free_exception>
   1036c:	8526                	mv	a0,s1
   1036e:	37d110ef          	jal	21eea <_Unwind_Resume>

0000000000010372 <_ZSt20__throw_out_of_rangePKc>:
   10372:	7179                	addi	sp,sp,-48
   10374:	e42a                	sd	a0,8(sp)
   10376:	4541                	li	a0,16
   10378:	f022                	sd	s0,32(sp)
   1037a:	f406                	sd	ra,40(sp)
   1037c:	ec26                	sd	s1,24(sp)
   1037e:	41e050ef          	jal	1579c <__cxa_allocate_exception>
   10382:	65a2                	ld	a1,8(sp)
   10384:	842a                	mv	s0,a0
   10386:	5590a0ef          	jal	1b0de <_ZNSt12out_of_rangeC1EPKc>
   1038a:	666d                	lui	a2,0x1b
   1038c:	000345b7          	lui	a1,0x34
   10390:	dca60613          	addi	a2,a2,-566 # 1adca <_ZNSt12out_of_rangeD1Ev>
   10394:	6a858593          	addi	a1,a1,1704 # 346a8 <_ZTISt12out_of_range>
   10398:	8522                	mv	a0,s0
   1039a:	210050ef          	jal	155aa <__cxa_throw>
   1039e:	84aa                	mv	s1,a0
   103a0:	8522                	mv	a0,s0
   103a2:	434050ef          	jal	157d6 <__cxa_free_exception>
   103a6:	8526                	mv	a0,s1
   103a8:	343110ef          	jal	21eea <_Unwind_Resume>

00000000000103ac <_ZSt24__throw_out_of_range_fmtPKcz>:
   103ac:	7159                	addi	sp,sp,-112
   103ae:	f406                	sd	ra,40(sp)
   103b0:	f022                	sd	s0,32(sp)
   103b2:	ec26                	sd	s1,24(sp)
   103b4:	1800                	addi	s0,sp,48
   103b6:	e84a                	sd	s2,16(sp)
   103b8:	84aa                	mv	s1,a0
   103ba:	f018                	sd	a4,32(s0)
   103bc:	03043823          	sd	a6,48(s0)
   103c0:	03143c23          	sd	a7,56(s0)
   103c4:	e40c                	sd	a1,8(s0)
   103c6:	e810                	sd	a2,16(s0)
   103c8:	ec14                	sd	a3,24(s0)
   103ca:	f41c                	sd	a5,40(s0)
   103cc:	661160ef          	jal	2722c <strlen>
   103d0:	20f50793          	addi	a5,a0,527
   103d4:	9bc1                	andi	a5,a5,-16
   103d6:	40f10133          	sub	sp,sp,a5
   103da:	20050593          	addi	a1,a0,512
   103de:	00840693          	addi	a3,s0,8
   103e2:	8626                	mv	a2,s1
   103e4:	850a                	mv	a0,sp
   103e6:	fcd43c23          	sd	a3,-40(s0)
   103ea:	0a0060ef          	jal	1648a <_ZN9__gnu_cxx15__snprintf_liteEPcmPKcPv>
   103ee:	4541                	li	a0,16
   103f0:	3ac050ef          	jal	1579c <__cxa_allocate_exception>
   103f4:	858a                	mv	a1,sp
   103f6:	84aa                	mv	s1,a0
   103f8:	4e70a0ef          	jal	1b0de <_ZNSt12out_of_rangeC1EPKc>
   103fc:	666d                	lui	a2,0x1b
   103fe:	000345b7          	lui	a1,0x34
   10402:	dca60613          	addi	a2,a2,-566 # 1adca <_ZNSt12out_of_rangeD1Ev>
   10406:	6a858593          	addi	a1,a1,1704 # 346a8 <_ZTISt12out_of_range>
   1040a:	8526                	mv	a0,s1
   1040c:	19e050ef          	jal	155aa <__cxa_throw>
   10410:	892a                	mv	s2,a0
   10412:	8526                	mv	a0,s1
   10414:	3c2050ef          	jal	157d6 <__cxa_free_exception>
   10418:	854a                	mv	a0,s2
   1041a:	2d1110ef          	jal	21eea <_Unwind_Resume>

000000000001041e <_ZSt21__throw_runtime_errorPKc>:
   1041e:	7179                	addi	sp,sp,-48
   10420:	e42a                	sd	a0,8(sp)
   10422:	4541                	li	a0,16
   10424:	f022                	sd	s0,32(sp)
   10426:	f406                	sd	ra,40(sp)
   10428:	ec26                	sd	s1,24(sp)
   1042a:	372050ef          	jal	1579c <__cxa_allocate_exception>
   1042e:	65a2                	ld	a1,8(sp)
   10430:	842a                	mv	s0,a0
   10432:	4c90a0ef          	jal	1b0fa <_ZNSt13runtime_errorC1EPKc>
   10436:	666d                	lui	a2,0x1b
   10438:	000345b7          	lui	a1,0x34
   1043c:	c8660613          	addi	a2,a2,-890 # 1ac86 <_ZNSt13runtime_errorD1Ev>
   10440:	6d858593          	addi	a1,a1,1752 # 346d8 <_ZTISt13runtime_error>
   10444:	8522                	mv	a0,s0
   10446:	164050ef          	jal	155aa <__cxa_throw>
   1044a:	84aa                	mv	s1,a0
   1044c:	8522                	mv	a0,s0
   1044e:	388050ef          	jal	157d6 <__cxa_free_exception>
   10452:	8526                	mv	a0,s1
   10454:	297110ef          	jal	21eea <_Unwind_Resume>

0000000000010458 <_ZSt19__throw_range_errorPKc>:
   10458:	7179                	addi	sp,sp,-48
   1045a:	e42a                	sd	a0,8(sp)
   1045c:	4541                	li	a0,16
   1045e:	f022                	sd	s0,32(sp)
   10460:	f406                	sd	ra,40(sp)
   10462:	ec26                	sd	s1,24(sp)
   10464:	338050ef          	jal	1579c <__cxa_allocate_exception>
   10468:	65a2                	ld	a1,8(sp)
   1046a:	842a                	mv	s0,a0
   1046c:	4c50a0ef          	jal	1b130 <_ZNSt11range_errorC1EPKc>
   10470:	666d                	lui	a2,0x1b
   10472:	000345b7          	lui	a1,0x34
   10476:	cc260613          	addi	a2,a2,-830 # 1acc2 <_ZNSt11range_errorD1Ev>
   1047a:	70058593          	addi	a1,a1,1792 # 34700 <_ZTISt11range_error>
   1047e:	8522                	mv	a0,s0
   10480:	12a050ef          	jal	155aa <__cxa_throw>
   10484:	84aa                	mv	s1,a0
   10486:	8522                	mv	a0,s0
   10488:	34e050ef          	jal	157d6 <__cxa_free_exception>
   1048c:	8526                	mv	a0,s1
   1048e:	25d110ef          	jal	21eea <_Unwind_Resume>

0000000000010492 <_ZSt22__throw_overflow_errorPKc>:
   10492:	7179                	addi	sp,sp,-48
   10494:	e42a                	sd	a0,8(sp)
   10496:	4541                	li	a0,16
   10498:	f022                	sd	s0,32(sp)
   1049a:	f406                	sd	ra,40(sp)
   1049c:	ec26                	sd	s1,24(sp)
   1049e:	2fe050ef          	jal	1579c <__cxa_allocate_exception>
   104a2:	65a2                	ld	a1,8(sp)
   104a4:	842a                	mv	s0,a0
   104a6:	4a70a0ef          	jal	1b14c <_ZNSt14overflow_errorC1EPKc>
   104aa:	666d                	lui	a2,0x1b
   104ac:	000345b7          	lui	a1,0x34
   104b0:	ce460613          	addi	a2,a2,-796 # 1ace4 <_ZNSt14overflow_errorD1Ev>
   104b4:	73058593          	addi	a1,a1,1840 # 34730 <_ZTISt14overflow_error>
   104b8:	8522                	mv	a0,s0
   104ba:	0f0050ef          	jal	155aa <__cxa_throw>
   104be:	84aa                	mv	s1,a0
   104c0:	8522                	mv	a0,s0
   104c2:	314050ef          	jal	157d6 <__cxa_free_exception>
   104c6:	8526                	mv	a0,s1
   104c8:	223110ef          	jal	21eea <_Unwind_Resume>

00000000000104cc <_ZSt23__throw_underflow_errorPKc>:
   104cc:	7179                	addi	sp,sp,-48
   104ce:	e42a                	sd	a0,8(sp)
   104d0:	4541                	li	a0,16
   104d2:	f022                	sd	s0,32(sp)
   104d4:	f406                	sd	ra,40(sp)
   104d6:	ec26                	sd	s1,24(sp)
   104d8:	2c4050ef          	jal	1579c <__cxa_allocate_exception>
   104dc:	65a2                	ld	a1,8(sp)
   104de:	842a                	mv	s0,a0
   104e0:	4890a0ef          	jal	1b168 <_ZNSt15underflow_errorC1EPKc>
   104e4:	666d                	lui	a2,0x1b
   104e6:	000345b7          	lui	a1,0x34
   104ea:	d0660613          	addi	a2,a2,-762 # 1ad06 <_ZNSt15underflow_errorD1Ev>
   104ee:	76058593          	addi	a1,a1,1888 # 34760 <_ZTISt15underflow_error>
   104f2:	8522                	mv	a0,s0
   104f4:	0b6050ef          	jal	155aa <__cxa_throw>
   104f8:	84aa                	mv	s1,a0
   104fa:	8522                	mv	a0,s0
   104fc:	2da050ef          	jal	157d6 <__cxa_free_exception>
   10500:	8526                	mv	a0,s1
   10502:	1e9110ef          	jal	21eea <_Unwind_Resume>

0000000000010506 <_ZN9__gnu_cxx26__throw_insufficient_spaceEPKcS1_>:
   10506:	7175                	addi	sp,sp,-144
   10508:	e122                	sd	s0,128(sp)
   1050a:	fca6                	sd	s1,120(sp)
   1050c:	0900                	addi	s0,sp,144
   1050e:	84ae                	mv	s1,a1
   10510:	000315b7          	lui	a1,0x31
   10514:	e506                	sd	ra,136(sp)
   10516:	f8ca                	sd	s2,112(sp)
   10518:	06900613          	li	a2,105
   1051c:	892a                	mv	s2,a0
   1051e:	76058593          	addi	a1,a1,1888 # 31760 <__clzdi2+0x1cae>
   10522:	f7040513          	addi	a0,s0,-144
   10526:	412484b3          	sub	s1,s1,s2
   1052a:	41b160ef          	jal	27144 <memcpy>
   1052e:	07848793          	addi	a5,s1,120
   10532:	9bc1                	andi	a5,a5,-16
   10534:	40f10133          	sub	sp,sp,a5
   10538:	06800613          	li	a2,104
   1053c:	f7040593          	addi	a1,s0,-144
   10540:	850a                	mv	a0,sp
   10542:	403160ef          	jal	27144 <memcpy>
   10546:	8626                	mv	a2,s1
   10548:	85ca                	mv	a1,s2
   1054a:	10a8                	addi	a0,sp,104
   1054c:	3f9160ef          	jal	27144 <memcpy>
   10550:	948a                	add	s1,s1,sp
   10552:	06048423          	sb	zero,104(s1)
   10556:	850a                	mv	a0,sp
   10558:	d33ff0ef          	jal	1028a <_ZSt19__throw_logic_errorPKc>

000000000001055c <__cxa_call_terminate>:
   1055c:	1141                	addi	sp,sp,-16
   1055e:	e406                	sd	ra,8(sp)
   10560:	e022                	sd	s0,0(sp)
   10562:	c905                	beqz	a0,10592 <__cxa_call_terminate+0x36>
   10564:	842a                	mv	s0,a0
   10566:	356050ef          	jal	158bc <__cxa_begin_catch>
   1056a:	b8b1b7b7          	lui	a5,0xb8b1b
   1056e:	abd78793          	addi	a5,a5,-1347 # ffffffffb8b1aabd <__BSS_END__+0xffffffffb8ad4b95>
   10572:	07b2                	slli	a5,a5,0xc
   10574:	bcd78793          	addi	a5,a5,-1075
   10578:	6018                	ld	a4,0(s0)
   1057a:	07b2                	slli	a5,a5,0xc
   1057c:	4d578793          	addi	a5,a5,1237
   10580:	07a2                	slli	a5,a5,0x8
   10582:	97ba                	add	a5,a5,a4
   10584:	4705                	li	a4,1
   10586:	00f76663          	bltu	a4,a5,10592 <__cxa_call_terminate+0x36>
   1058a:	fc843503          	ld	a0,-56(s0)
   1058e:	33d050ef          	jal	160ca <_ZN10__cxxabiv111__terminateEPFvvE>
   10592:	c23ff0ef          	jal	101b4 <_ZSt9terminatev>

0000000000010596 <_ZNSt7__cxx1112basic_stringIcSt11char_traitsIcESaIcEE15_M_replace_coldEPcmPKcmm>:
   10596:	7139                	addi	sp,sp,-64
   10598:	f822                	sd	s0,48(sp)
   1059a:	f426                	sd	s1,40(sp)
   1059c:	f04a                	sd	s2,32(sp)
   1059e:	ec4e                	sd	s3,24(sp)
   105a0:	843a                	mv	s0,a4
   105a2:	fc06                	sd	ra,56(sp)
   105a4:	177d                	addi	a4,a4,-1
   105a6:	84ae                	mv	s1,a1
   105a8:	8932                	mv	s2,a2
   105aa:	89b6                	mv	s3,a3
   105ac:	00c77963          	bgeu	a4,a2,105be <_ZNSt7__cxx1112basic_stringIcSt11char_traitsIcESaIcEE15_M_replace_coldEPcmPKcmm+0x28>
   105b0:	8622                	mv	a2,s0
   105b2:	85b6                	mv	a1,a3
   105b4:	8526                	mv	a0,s1
   105b6:	e43e                	sd	a5,8(sp)
   105b8:	5920d0ef          	jal	1db4a <_ZNSt7__cxx1112basic_stringIcSt11char_traitsIcESaIcEE7_S_moveEPcPKcm>
   105bc:	67a2                	ld	a5,8(sp)
   105be:	cb91                	beqz	a5,105d2 <_ZNSt7__cxx1112basic_stringIcSt11char_traitsIcESaIcEE15_M_replace_coldEPcmPKcmm+0x3c>
   105c0:	07240963          	beq	s0,s2,10632 <_ZNSt7__cxx1112basic_stringIcSt11char_traitsIcESaIcEE15_M_replace_coldEPcmPKcmm+0x9c>
   105c4:	863e                	mv	a2,a5
   105c6:	012485b3          	add	a1,s1,s2
   105ca:	00848533          	add	a0,s1,s0
   105ce:	57c0d0ef          	jal	1db4a <_ZNSt7__cxx1112basic_stringIcSt11char_traitsIcESaIcEE7_S_moveEPcPKcm>
   105d2:	06897063          	bgeu	s2,s0,10632 <_ZNSt7__cxx1112basic_stringIcSt11char_traitsIcESaIcEE15_M_replace_coldEPcmPKcmm+0x9c>
   105d6:	012487b3          	add	a5,s1,s2
   105da:	00898733          	add	a4,s3,s0
   105de:	00e7ed63          	bltu	a5,a4,105f8 <_ZNSt7__cxx1112basic_stringIcSt11char_traitsIcESaIcEE15_M_replace_coldEPcmPKcmm+0x62>
   105e2:	8622                	mv	a2,s0
   105e4:	7442                	ld	s0,48(sp)
   105e6:	70e2                	ld	ra,56(sp)
   105e8:	7902                	ld	s2,32(sp)
   105ea:	85ce                	mv	a1,s3
   105ec:	8526                	mv	a0,s1
   105ee:	69e2                	ld	s3,24(sp)
   105f0:	74a2                	ld	s1,40(sp)
   105f2:	6121                	addi	sp,sp,64
   105f4:	5560d06f          	j	1db4a <_ZNSt7__cxx1112basic_stringIcSt11char_traitsIcESaIcEE7_S_moveEPcPKcm>
   105f8:	00f9ef63          	bltu	s3,a5,10616 <_ZNSt7__cxx1112basic_stringIcSt11char_traitsIcESaIcEE15_M_replace_coldEPcmPKcmm+0x80>
   105fc:	412405b3          	sub	a1,s0,s2
   10600:	8622                	mv	a2,s0
   10602:	95ce                	add	a1,a1,s3
   10604:	8526                	mv	a0,s1
   10606:	7442                	ld	s0,48(sp)
   10608:	70e2                	ld	ra,56(sp)
   1060a:	74a2                	ld	s1,40(sp)
   1060c:	7902                	ld	s2,32(sp)
   1060e:	69e2                	ld	s3,24(sp)
   10610:	6121                	addi	sp,sp,64
   10612:	5240d06f          	j	1db36 <_ZNSt7__cxx1112basic_stringIcSt11char_traitsIcESaIcEE7_S_copyEPcPKcm>
   10616:	41378933          	sub	s2,a5,s3
   1061a:	864a                	mv	a2,s2
   1061c:	85ce                	mv	a1,s3
   1061e:	8526                	mv	a0,s1
   10620:	52a0d0ef          	jal	1db4a <_ZNSt7__cxx1112basic_stringIcSt11char_traitsIcESaIcEE7_S_moveEPcPKcm>
   10624:	41240633          	sub	a2,s0,s2
   10628:	008485b3          	add	a1,s1,s0
   1062c:	01248533          	add	a0,s1,s2
   10630:	bfd9                	j	10606 <_ZNSt7__cxx1112basic_stringIcSt11char_traitsIcESaIcEE15_M_replace_coldEPcmPKcmm+0x70>
   10632:	70e2                	ld	ra,56(sp)
   10634:	7442                	ld	s0,48(sp)
   10636:	74a2                	ld	s1,40(sp)
   10638:	7902                	ld	s2,32(sp)
   1063a:	69e2                	ld	s3,24(sp)
   1063c:	6121                	addi	sp,sp,64
   1063e:	8082                	ret

0000000000010640 <_ZSt20__throw_system_errori>:
   10640:	7139                	addi	sp,sp,-64
   10642:	f04a                	sd	s2,32(sp)
   10644:	892a                	mv	s2,a0
   10646:	02000513          	li	a0,32
   1064a:	f822                	sd	s0,48(sp)
   1064c:	f426                	sd	s1,40(sp)
   1064e:	fc06                	sd	ra,56(sp)
   10650:	14c050ef          	jal	1579c <__cxa_allocate_exception>
   10654:	a301b783          	ld	a5,-1488(gp) # 3f890 <_ZN12_GLOBAL__N_1L25generic_category_instanceE>
   10658:	84aa                	mv	s1,a0
   1065a:	864a                	mv	a2,s2
   1065c:	739c                	ld	a5,32(a5)
   1065e:	a3018593          	addi	a1,gp,-1488 # 3f890 <_ZN12_GLOBAL__N_1L25generic_category_instanceE>
   10662:	850a                	mv	a0,sp
   10664:	9782                	jalr	a5
   10666:	858a                	mv	a1,sp
   10668:	8526                	mv	a0,s1
   1066a:	0740f0ef          	jal	1f6de <_ZNSt13runtime_errorC1ERKNSt7__cxx1112basic_stringIcSt11char_traitsIcESaIcEEE>
   1066e:	850a                	mv	a0,sp
   10670:	44c0d0ef          	jal	1dabc <_ZNSt7__cxx1112basic_stringIcSt11char_traitsIcESaIcEE10_M_disposeEv>
   10674:	000357b7          	lui	a5,0x35
   10678:	ad078793          	addi	a5,a5,-1328 # 34ad0 <_ZTVSt12system_error+0x10>
   1067c:	a3018413          	addi	s0,gp,-1488 # 3f890 <_ZN12_GLOBAL__N_1L25generic_category_instanceE>
   10680:	0001f637          	lui	a2,0x1f
   10684:	000355b7          	lui	a1,0x35
   10688:	e09c                	sd	a5,0(s1)
   1068a:	0124a823          	sw	s2,16(s1)
   1068e:	ec80                	sd	s0,24(s1)
   10690:	4de60613          	addi	a2,a2,1246 # 1f4de <_ZNSt12system_errorD1Ev>
   10694:	92858593          	addi	a1,a1,-1752 # 34928 <_ZTISt12system_error>
   10698:	8526                	mv	a0,s1
   1069a:	711040ef          	jal	155aa <__cxa_throw>
   1069e:	842a                	mv	s0,a0
   106a0:	850a                	mv	a0,sp
   106a2:	41a0d0ef          	jal	1dabc <_ZNSt7__cxx1112basic_stringIcSt11char_traitsIcESaIcEE10_M_disposeEv>
   106a6:	8526                	mv	a0,s1
   106a8:	12e050ef          	jal	157d6 <__cxa_free_exception>
   106ac:	8522                	mv	a0,s0
   106ae:	03d110ef          	jal	21eea <_Unwind_Resume>
   106b2:	842a                	mv	s0,a0
   106b4:	bfcd                	j	106a6 <_ZSt20__throw_system_errori+0x66>

00000000000106b6 <exit>:
   106b6:	1141                	addi	sp,sp,-16
   106b8:	4581                	li	a1,0
   106ba:	e022                	sd	s0,0(sp)
   106bc:	e406                	sd	ra,8(sp)
   106be:	842a                	mv	s0,a0
   106c0:	595160ef          	jal	27454 <__call_exitprocs>
   106c4:	a901b783          	ld	a5,-1392(gp) # 3f8f0 <__stdio_exit_handler>
   106c8:	c391                	beqz	a5,106cc <exit+0x16>
   106ca:	9782                	jalr	a5
   106cc:	8522                	mv	a0,s0
   106ce:	7c11d0ef          	jal	2e68e <_exit>

00000000000106d2 <main>:
   106d2:	00030537          	lui	a0,0x30
   106d6:	1141                	addi	sp,sp,-16
   106d8:	af050513          	addi	a0,a0,-1296 # 2faf0 <__clzdi2+0x3e>
   106dc:	e406                	sd	ra,8(sp)
   106de:	7bc150ef          	jal	25e9a <puts>
   106e2:	0003f737          	lui	a4,0x3f
   106e6:	0003f7b7          	lui	a5,0x3f
   106ea:	0003f6b7          	lui	a3,0x3f
   106ee:	6606b683          	ld	a3,1632(a3) # 3f660 <__SDATA_BEGIN__>
   106f2:	66873603          	ld	a2,1640(a4) # 3f668 <__SDATA_BEGIN__+0x8>
   106f6:	6707b583          	ld	a1,1648(a5) # 3f670 <__SDATA_BEGIN__+0x10>
   106fa:	00030537          	lui	a0,0x30
   106fe:	b0050513          	addi	a0,a0,-1280 # 2fb00 <__clzdi2+0x4e>
   10702:	5bc150ef          	jal	25cbe <printf>
   10706:	0003f737          	lui	a4,0x3f
   1070a:	0003f7b7          	lui	a5,0x3f
   1070e:	67873603          	ld	a2,1656(a4) # 3f678 <__SDATA_BEGIN__+0x18>
   10712:	6807b583          	ld	a1,1664(a5) # 3f680 <__SDATA_BEGIN__+0x20>
   10716:	00030537          	lui	a0,0x30
   1071a:	b1850513          	addi	a0,a0,-1256 # 2fb18 <__clzdi2+0x66>
   1071e:	5a0150ef          	jal	25cbe <printf>
   10722:	0003f7b7          	lui	a5,0x3f
   10726:	6887b583          	ld	a1,1672(a5) # 3f688 <__SDATA_BEGIN__+0x28>
   1072a:	00030537          	lui	a0,0x30
   1072e:	b3850513          	addi	a0,a0,-1224 # 2fb38 <__clzdi2+0x86>
   10732:	58c150ef          	jal	25cbe <printf>
   10736:	00030537          	lui	a0,0x30
   1073a:	b4850513          	addi	a0,a0,-1208 # 2fb48 <__clzdi2+0x96>
   1073e:	75c150ef          	jal	25e9a <puts>
   10742:	60a2                	ld	ra,8(sp)
   10744:	4501                	li	a0,0
   10746:	0141                	addi	sp,sp,16
   10748:	8082                	ret

000000000001074a <_GLOBAL__sub_I__ZN9__gnu_cxx9__freeresEv>:
   1074a:	7175                	addi	sp,sp,-144
   1074c:	fca6                	sd	s1,120(sp)
   1074e:	00031537          	lui	a0,0x31
   10752:	000464b7          	lui	s1,0x46
   10756:	e122                	sd	s0,128(sp)
   10758:	f4ce                	sd	s3,104(sp)
   1075a:	f0d2                	sd	s4,96(sp)
   1075c:	e506                	sd	ra,136(sp)
   1075e:	f8ca                	sd	s2,112(sp)
   10760:	90048493          	addi	s1,s1,-1792 # 45900 <_ZN12_GLOBAL__N_1L14emergency_poolE>
   10764:	65050513          	addi	a0,a0,1616 # 31650 <__clzdi2+0x1b9e>
   10768:	0004b423          	sd	zero,8(s1)
   1076c:	0004b823          	sd	zero,16(s1)
   10770:	0004bc23          	sd	zero,24(s1)
   10774:	3a3120ef          	jal	23316 <getenv>
   10778:	47bd                	li	a5,15
   1077a:	f03e                	sd	a5,32(sp)
   1077c:	000317b7          	lui	a5,0x31
   10780:	66878793          	addi	a5,a5,1640 # 31668 <__clzdi2+0x1bb6>
   10784:	f43e                	sd	a5,40(sp)
   10786:	47a1                	li	a5,8
   10788:	f83e                	sd	a5,48(sp)
   1078a:	000317b7          	lui	a5,0x31
   1078e:	67878793          	addi	a5,a5,1656 # 31678 <__clzdi2+0x1bc6>
   10792:	fc3e                	sd	a5,56(sp)
   10794:	47a5                	li	a5,9
   10796:	e4be                	sd	a5,72(sp)
   10798:	000317b7          	lui	a5,0x31
   1079c:	68878793          	addi	a5,a5,1672 # 31688 <__clzdi2+0x1bd6>
   107a0:	e8be                	sd	a5,80(sp)
   107a2:	4791                	li	a5,4
   107a4:	842a                	mv	s0,a0
   107a6:	e082                	sd	zero,64(sp)
   107a8:	ccbe                	sw	a5,88(sp)
   107aa:	03a00993          	li	s3,58
   107ae:	02e00a13          	li	s4,46
   107b2:	e031                	bnez	s0,107f6 <_GLOBAL__sub_I__ZN9__gnu_cxx9__freeresEv+0xac>
   107b4:	46e6                	lw	a3,88(sp)
   107b6:	04000713          	li	a4,64
   107ba:	0006879b          	sext.w	a5,a3
   107be:	00d75463          	bge	a4,a3,107c6 <_GLOBAL__sub_I__ZN9__gnu_cxx9__freeresEv+0x7c>
   107c2:	0007079b          	sext.w	a5,a4
   107c6:	4406                	lw	s0,64(sp)
   107c8:	e011                	bnez	s0,107cc <_GLOBAL__sub_I__ZN9__gnu_cxx9__freeresEv+0x82>
   107ca:	4419                	li	s0,6
   107cc:	0479                	addi	s0,s0,30
   107ce:	02f40433          	mul	s0,s0,a5
   107d2:	040e                	slli	s0,s0,0x3
   107d4:	ec80                	sd	s0,24(s1)
   107d6:	c801                	beqz	s0,107e6 <_GLOBAL__sub_I__ZN9__gnu_cxx9__freeresEv+0x9c>
   107d8:	8522                	mv	a0,s0
   107da:	427120ef          	jal	23400 <malloc>
   107de:	e888                	sd	a0,16(s1)
   107e0:	e555                	bnez	a0,1088c <_GLOBAL__sub_I__ZN9__gnu_cxx9__freeresEv+0x142>
   107e2:	0004bc23          	sd	zero,24(s1)
   107e6:	60aa                	ld	ra,136(sp)
   107e8:	640a                	ld	s0,128(sp)
   107ea:	74e6                	ld	s1,120(sp)
   107ec:	7946                	ld	s2,112(sp)
   107ee:	79a6                	ld	s3,104(sp)
   107f0:	7a06                	ld	s4,96(sp)
   107f2:	6149                	addi	sp,sp,144
   107f4:	8082                	ret
   107f6:	00044783          	lbu	a5,0(s0)
   107fa:	01379363          	bne	a5,s3,10800 <_GLOBAL__sub_I__ZN9__gnu_cxx9__freeresEv+0xb6>
   107fe:	0405                	addi	s0,s0,1
   10800:	473d                	li	a4,15
   10802:	86a2                	mv	a3,s0
   10804:	863a                	mv	a2,a4
   10806:	4581                	li	a1,0
   10808:	1008                	addi	a0,sp,32
   1080a:	042050ef          	jal	1584c <_ZNKSt17basic_string_viewIcSt11char_traitsIcEE7compareEmmPKcm>
   1080e:	ed1d                	bnez	a0,1084c <_GLOBAL__sub_I__ZN9__gnu_cxx9__freeresEv+0x102>
   10810:	00f44783          	lbu	a5,15(s0)
   10814:	03479c63          	bne	a5,s4,1084c <_GLOBAL__sub_I__ZN9__gnu_cxx9__freeresEv+0x102>
   10818:	0441                	addi	s0,s0,16
   1081a:	03010913          	addi	s2,sp,48
   1081e:	00093703          	ld	a4,0(s2)
   10822:	86a2                	mv	a3,s0
   10824:	4581                	li	a1,0
   10826:	863a                	mv	a2,a4
   10828:	854a                	mv	a0,s2
   1082a:	e43a                	sd	a4,8(sp)
   1082c:	020050ef          	jal	1584c <_ZNKSt17basic_string_viewIcSt11char_traitsIcEE7compareEmmPKcm>
   10830:	e911                	bnez	a0,10844 <_GLOBAL__sub_I__ZN9__gnu_cxx9__freeresEv+0xfa>
   10832:	6722                	ld	a4,8(sp)
   10834:	00e407b3          	add	a5,s0,a4
   10838:	0007c683          	lbu	a3,0(a5)
   1083c:	03d00793          	li	a5,61
   10840:	00f68d63          	beq	a3,a5,1085a <_GLOBAL__sub_I__ZN9__gnu_cxx9__freeresEv+0x110>
   10844:	0961                	addi	s2,s2,24
   10846:	109c                	addi	a5,sp,96
   10848:	fcf91be3          	bne	s2,a5,1081e <_GLOBAL__sub_I__ZN9__gnu_cxx9__freeresEv+0xd4>
   1084c:	8522                	mv	a0,s0
   1084e:	03a00593          	li	a1,58
   10852:	6db150ef          	jal	2672c <strchr>
   10856:	842a                	mv	s0,a0
   10858:	bfa9                	j	107b2 <_GLOBAL__sub_I__ZN9__gnu_cxx9__freeresEv+0x68>
   1085a:	0705                	addi	a4,a4,1
   1085c:	00e40533          	add	a0,s0,a4
   10860:	4601                	li	a2,0
   10862:	082c                	addi	a1,sp,24
   10864:	035130ef          	jal	24098 <strtoul>
   10868:	6462                	ld	s0,24(sp)
   1086a:	00044703          	lbu	a4,0(s0)
   1086e:	fc670793          	addi	a5,a4,-58
   10872:	0017b793          	seqz	a5,a5
   10876:	00173713          	seqz	a4,a4
   1087a:	8fd9                	or	a5,a5,a4
   1087c:	dbe1                	beqz	a5,1084c <_GLOBAL__sub_I__ZN9__gnu_cxx9__freeresEv+0x102>
   1087e:	4785                	li	a5,1
   10880:	07fe                	slli	a5,a5,0x1f
   10882:	fcf575e3          	bgeu	a0,a5,1084c <_GLOBAL__sub_I__ZN9__gnu_cxx9__freeresEv+0x102>
   10886:	00a92823          	sw	a0,16(s2)
   1088a:	b7c9                	j	1084c <_GLOBAL__sub_I__ZN9__gnu_cxx9__freeresEv+0x102>
   1088c:	e488                	sd	a0,8(s1)
   1088e:	e100                	sd	s0,0(a0)
   10890:	00053423          	sd	zero,8(a0)
   10894:	bf89                	j	107e6 <_GLOBAL__sub_I__ZN9__gnu_cxx9__freeresEv+0x9c>

0000000000010896 <_GLOBAL__sub_I__ZSt20__throw_system_errori>:
   10896:	8082                	ret

0000000000010898 <register_fini>:
   10898:	00000793          	li	a5,0
   1089c:	c799                	beqz	a5,108aa <register_fini+0x12>
   1089e:	0002c537          	lui	a0,0x2c
   108a2:	fc250513          	addi	a0,a0,-62 # 2bfc2 <__libc_fini_array>
   108a6:	4811606f          	j	27526 <atexit>
   108aa:	8082                	ret

00000000000108ac <_start>:
   108ac:	0002f197          	auipc	gp,0x2f
   108b0:	5b418193          	addi	gp,gp,1460 # 3fe60 <__global_pointer$>
   108b4:	0002f517          	auipc	a0,0x2f
   108b8:	00450513          	addi	a0,a0,4 # 3f8b8 <_ZZN9__gnu_cxx27__verbose_terminate_handlerEvE11terminating>
   108bc:	00035617          	auipc	a2,0x35
   108c0:	66c60613          	addi	a2,a2,1644 # 45f28 <__BSS_END__>
   108c4:	8e09                	sub	a2,a2,a0
   108c6:	4581                	li	a1,0
   108c8:	7d2160ef          	jal	2709a <memset>
   108cc:	00017517          	auipc	a0,0x17
   108d0:	c5a50513          	addi	a0,a0,-934 # 27526 <atexit>
   108d4:	c519                	beqz	a0,108e2 <_start+0x36>
   108d6:	0001b517          	auipc	a0,0x1b
   108da:	6ec50513          	addi	a0,a0,1772 # 2bfc2 <__libc_fini_array>
   108de:	449160ef          	jal	27526 <atexit>
   108e2:	66c160ef          	jal	26f4e <__libc_init_array>
   108e6:	4502                	lw	a0,0(sp)
   108e8:	002c                	addi	a1,sp,8
   108ea:	4601                	li	a2,0
   108ec:	de7ff0ef          	jal	106d2 <main>
   108f0:	b3d9                	j	106b6 <exit>

00000000000108f2 <__do_global_dtors_aux>:
   108f2:	1141                	addi	sp,sp,-16
   108f4:	e022                	sd	s0,0(sp)
   108f6:	ae01c783          	lbu	a5,-1312(gp) # 3f940 <completed.1>
   108fa:	e406                	sd	ra,8(sp)
   108fc:	ef99                	bnez	a5,1091a <__do_global_dtors_aux+0x28>
   108fe:	000237b7          	lui	a5,0x23
   10902:	1de78793          	addi	a5,a5,478 # 231de <__deregister_frame_info>
   10906:	c799                	beqz	a5,10914 <__do_global_dtors_aux+0x22>
   10908:	00036537          	lui	a0,0x36
   1090c:	19050513          	addi	a0,a0,400 # 36190 <__EH_FRAME_BEGIN__>
   10910:	0cf120ef          	jal	231de <__deregister_frame_info>
   10914:	4785                	li	a5,1
   10916:	aef18023          	sb	a5,-1312(gp) # 3f940 <completed.1>
   1091a:	60a2                	ld	ra,8(sp)
   1091c:	6402                	ld	s0,0(sp)
   1091e:	0141                	addi	sp,sp,16
   10920:	8082                	ret

0000000000010922 <frame_dummy>:
   10922:	000237b7          	lui	a5,0x23
   10926:	10078793          	addi	a5,a5,256 # 23100 <__register_frame_info>
   1092a:	cb89                	beqz	a5,1093c <frame_dummy+0x1a>
   1092c:	00036537          	lui	a0,0x36
   10930:	ae818593          	addi	a1,gp,-1304 # 3f948 <object.0>
   10934:	19050513          	addi	a0,a0,400 # 36190 <__EH_FRAME_BEGIN__>
   10938:	7c81206f          	j	23100 <__register_frame_info>
   1093c:	8082                	ret

000000000001093e <_Z10matrix_sumPsPKsmm.part.0>:
   1093e:	00030537          	lui	a0,0x30
   10942:	1141                	addi	sp,sp,-16
   10944:	b6050513          	addi	a0,a0,-1184 # 2fb60 <__clzdi2+0xae>
   10948:	e406                	sd	ra,8(sp)
   1094a:	550150ef          	jal	25e9a <puts>
   1094e:	00030537          	lui	a0,0x30
   10952:	bb050513          	addi	a0,a0,-1104 # 2fbb0 <__clzdi2+0xfe>
   10956:	544150ef          	jal	25e9a <puts>
   1095a:	557d                	li	a0,-1
   1095c:	d5bff0ef          	jal	106b6 <exit>

0000000000010960 <_Z12vector_equalPsPKsS1_m>:
   10960:	c505                	beqz	a0,10988 <_Z12vector_equalPsPKsS1_m+0x28>
   10962:	c295                	beqz	a3,10986 <_Z12vector_equalPsPKsS1_m+0x26>
   10964:	0686                	slli	a3,a3,0x1
   10966:	96ae                	add	a3,a3,a1
   10968:	00059783          	lh	a5,0(a1)
   1096c:	00061703          	lh	a4,0(a2)
   10970:	0589                	addi	a1,a1,2
   10972:	0609                	addi	a2,a2,2
   10974:	8f99                	sub	a5,a5,a4
   10976:	0017b793          	seqz	a5,a5
   1097a:	00f51023          	sh	a5,0(a0)
   1097e:	0509                	addi	a0,a0,2
   10980:	fed594e3          	bne	a1,a3,10968 <_Z12vector_equalPsPKsS1_m+0x8>
   10984:	8082                	ret
   10986:	8082                	ret
   10988:	00030537          	lui	a0,0x30
   1098c:	1101                	addi	sp,sp,-32
   1098e:	bc850513          	addi	a0,a0,-1080 # 2fbc8 <__clzdi2+0x116>
   10992:	ec06                	sd	ra,24(sp)
   10994:	e436                	sd	a3,8(sp)
   10996:	504150ef          	jal	25e9a <puts>
   1099a:	65a2                	ld	a1,8(sp)
   1099c:	00030537          	lui	a0,0x30
   109a0:	c1850513          	addi	a0,a0,-1000 # 2fc18 <__clzdi2+0x166>
   109a4:	31a150ef          	jal	25cbe <printf>
   109a8:	557d                	li	a0,-1
   109aa:	d0dff0ef          	jal	106b6 <exit>

00000000000109ae <_Z10vector_sumPsPKsm>:
   109ae:	c11d                	beqz	a0,109d4 <_Z10vector_sumPsPKsm+0x26>
   109b0:	4781                	li	a5,0
   109b2:	ce11                	beqz	a2,109ce <_Z10vector_sumPsPKsm+0x20>
   109b4:	0606                	slli	a2,a2,0x1
   109b6:	962e                	add	a2,a2,a1
   109b8:	4781                	li	a5,0
   109ba:	0005d703          	lhu	a4,0(a1)
   109be:	0589                	addi	a1,a1,2
   109c0:	9fb9                	addw	a5,a5,a4
   109c2:	0107979b          	slliw	a5,a5,0x10
   109c6:	4107d79b          	sraiw	a5,a5,0x10
   109ca:	feb618e3          	bne	a2,a1,109ba <_Z10vector_sumPsPKsm+0xc>
   109ce:	00f51023          	sh	a5,0(a0)
   109d2:	8082                	ret
   109d4:	00030537          	lui	a0,0x30
   109d8:	1141                	addi	sp,sp,-16
   109da:	c4050513          	addi	a0,a0,-960 # 2fc40 <__clzdi2+0x18e>
   109de:	e406                	sd	ra,8(sp)
   109e0:	4ba150ef          	jal	25e9a <puts>
   109e4:	00030537          	lui	a0,0x30
   109e8:	bb050513          	addi	a0,a0,-1104 # 2fbb0 <__clzdi2+0xfe>
   109ec:	4ae150ef          	jal	25e9a <puts>
   109f0:	557d                	li	a0,-1
   109f2:	cc5ff0ef          	jal	106b6 <exit>

00000000000109f6 <_Z11vector_meanPsPKsm>:
   109f6:	c515                	beqz	a0,10a22 <_Z11vector_meanPsPKsm+0x2c>
   109f8:	4781                	li	a5,0
   109fa:	c20d                	beqz	a2,10a1c <_Z11vector_meanPsPKsm+0x26>
   109fc:	00161693          	slli	a3,a2,0x1
   10a00:	96ae                	add	a3,a3,a1
   10a02:	4781                	li	a5,0
   10a04:	0005d703          	lhu	a4,0(a1)
   10a08:	0589                	addi	a1,a1,2
   10a0a:	9fb9                	addw	a5,a5,a4
   10a0c:	0107979b          	slliw	a5,a5,0x10
   10a10:	4107d79b          	sraiw	a5,a5,0x10
   10a14:	feb698e3          	bne	a3,a1,10a04 <_Z11vector_meanPsPKsm+0xe>
   10a18:	02c7d7b3          	divu	a5,a5,a2
   10a1c:	00f51023          	sh	a5,0(a0)
   10a20:	8082                	ret
   10a22:	00030537          	lui	a0,0x30
   10a26:	1141                	addi	sp,sp,-16
   10a28:	c9050513          	addi	a0,a0,-880 # 2fc90 <__clzdi2+0x1de>
   10a2c:	e406                	sd	ra,8(sp)
   10a2e:	46c150ef          	jal	25e9a <puts>
   10a32:	00030537          	lui	a0,0x30
   10a36:	bb050513          	addi	a0,a0,-1104 # 2fbb0 <__clzdi2+0xfe>
   10a3a:	460150ef          	jal	25e9a <puts>
   10a3e:	557d                	li	a0,-1
   10a40:	c77ff0ef          	jal	106b6 <exit>

0000000000010a44 <_Z10vector_varPsPKsm>:
   10a44:	7179                	addi	sp,sp,-48
   10a46:	f406                	sd	ra,40(sp)
   10a48:	f022                	sd	s0,32(sp)
   10a4a:	ec26                	sd	s1,24(sp)
   10a4c:	e84a                	sd	s2,16(sp)
   10a4e:	c525                	beqz	a0,10ab6 <_Z10vector_varPsPKsm+0x72>
   10a50:	57cd                	li	a5,-13
   10a52:	8389                	srli	a5,a5,0x2
   10a54:	84b2                	mv	s1,a2
   10a56:	06c7ef63          	bltu	a5,a2,10ad4 <_Z10vector_varPsPKsm+0x90>
   10a5a:	00161413          	slli	s0,a2,0x1
   10a5e:	892a                	mv	s2,a0
   10a60:	8522                	mv	a0,s0
   10a62:	e42e                	sd	a1,8(sp)
   10a64:	3d5040ef          	jal	15638 <_Znam>
   10a68:	65a2                	ld	a1,8(sp)
   10a6a:	c4a1                	beqz	s1,10ab2 <_Z10vector_varPsPKsm+0x6e>
   10a6c:	00858833          	add	a6,a1,s0
   10a70:	87ae                	mv	a5,a1
   10a72:	4601                	li	a2,0
   10a74:	0007d703          	lhu	a4,0(a5)
   10a78:	0789                	addi	a5,a5,2
   10a7a:	9e39                	addw	a2,a2,a4
   10a7c:	0106161b          	slliw	a2,a2,0x10
   10a80:	4106561b          	sraiw	a2,a2,0x10
   10a84:	fef818e3          	bne	a6,a5,10a74 <_Z10vector_varPsPKsm+0x30>
   10a88:	02965633          	divu	a2,a2,s1
   10a8c:	0106161b          	slliw	a2,a2,0x10
   10a90:	4106561b          	sraiw	a2,a2,0x10
   10a94:	86a6                	mv	a3,s1
   10a96:	e42a                	sd	a0,8(sp)
   10a98:	7a0000ef          	jal	11238 <_Z23tiled_vector_sub_scalarPsPKssm>
   10a9c:	6622                	ld	a2,8(sp)
   10a9e:	7402                	ld	s0,32(sp)
   10aa0:	70a2                	ld	ra,40(sp)
   10aa2:	86a6                	mv	a3,s1
   10aa4:	854a                	mv	a0,s2
   10aa6:	64e2                	ld	s1,24(sp)
   10aa8:	6942                	ld	s2,16(sp)
   10aaa:	85b2                	mv	a1,a2
   10aac:	6145                	addi	sp,sp,48
   10aae:	4e80106f          	j	11f96 <_Z13tiled_dotprodPsPKsS1_m>
   10ab2:	4601                	li	a2,0
   10ab4:	b7c5                	j	10a94 <_Z10vector_varPsPKsm+0x50>
   10ab6:	00030537          	lui	a0,0x30
   10aba:	ce050513          	addi	a0,a0,-800 # 2fce0 <__clzdi2+0x22e>
   10abe:	3dc150ef          	jal	25e9a <puts>
   10ac2:	00030537          	lui	a0,0x30
   10ac6:	bb050513          	addi	a0,a0,-1104 # 2fbb0 <__clzdi2+0xfe>
   10aca:	3d0150ef          	jal	25e9a <puts>
   10ace:	557d                	li	a0,-1
   10ad0:	be7ff0ef          	jal	106b6 <exit>
   10ad4:	e98ff0ef          	jal	1016c <__cxa_throw_bad_array_new_length>

0000000000010ad8 <_Z14vector_softmaxPsPKsms>:
   10ad8:	715d                	addi	sp,sp,-80
   10ada:	e486                	sd	ra,72(sp)
   10adc:	e0a2                	sd	s0,64(sp)
   10ade:	fc26                	sd	s1,56(sp)
   10ae0:	f84a                	sd	s2,48(sp)
   10ae2:	f44e                	sd	s3,40(sp)
   10ae4:	c141                	beqz	a0,10b64 <_Z14vector_softmaxPsPKsms+0x8c>
   10ae6:	842a                	mv	s0,a0
   10ae8:	00e10513          	addi	a0,sp,14
   10aec:	8932                	mv	s2,a2
   10aee:	89b6                	mv	s3,a3
   10af0:	84ae                	mv	s1,a1
   10af2:	391000ef          	jal	11682 <_Z16tiled_vector_maxPsPKsm>
   10af6:	00e11603          	lh	a2,14(sp)
   10afa:	86ca                	mv	a3,s2
   10afc:	85a6                	mv	a1,s1
   10afe:	8522                	mv	a0,s0
   10b00:	738000ef          	jal	11238 <_Z23tiled_vector_sub_scalarPsPKssm>
   10b04:	04090963          	beqz	s2,10b56 <_Z14vector_softmaxPsPKsms+0x7e>
   10b08:	ac22                	fsd	fs0,24(sp)
   10b0a:	f2000453          	fmv.d.x	fs0,zero
   10b0e:	0906                	slli	s2,s2,0x1
   10b10:	9922                	add	s2,s2,s0
   10b12:	84a2                	mv	s1,s0
   10b14:	00049783          	lh	a5,0(s1)
   10b18:	0489                	addi	s1,s1,2
   10b1a:	d2078553          	fcvt.d.w	fa0,a5
   10b1e:	5310e0ef          	jal	1f84e <exp>
   10b22:	02a47453          	fadd.d	fs0,fs0,fa0
   10b26:	fe9917e3          	bne	s2,s1,10b14 <_Z14vector_softmaxPsPKsms+0x3c>
   10b2a:	0003f7b7          	lui	a5,0x3f
   10b2e:	6907b707          	fld	fa4,1680(a5) # 3f690 <__SDATA_BEGIN__+0x30>
   10b32:	1a877753          	fdiv.d	fa4,fa4,fs0
   10b36:	00041783          	lh	a5,0(s0)
   10b3a:	0409                	addi	s0,s0,2
   10b3c:	033787bb          	mulw	a5,a5,s3
   10b40:	d20787d3          	fcvt.d.w	fa5,a5
   10b44:	12e7f7d3          	fmul.d	fa5,fa5,fa4
   10b48:	c20797d3          	fcvt.w.d	a5,fa5,rtz
   10b4c:	fef41f23          	sh	a5,-2(s0)
   10b50:	fe8913e3          	bne	s2,s0,10b36 <_Z14vector_softmaxPsPKsms+0x5e>
   10b54:	2462                	fld	fs0,24(sp)
   10b56:	6406                	ld	s0,64(sp)
   10b58:	60a6                	ld	ra,72(sp)
   10b5a:	74e2                	ld	s1,56(sp)
   10b5c:	7942                	ld	s2,48(sp)
   10b5e:	79a2                	ld	s3,40(sp)
   10b60:	6161                	addi	sp,sp,80
   10b62:	8082                	ret
   10b64:	00030537          	lui	a0,0x30
   10b68:	d3050513          	addi	a0,a0,-720 # 2fd30 <__clzdi2+0x27e>
   10b6c:	ac22                	fsd	fs0,24(sp)
   10b6e:	32c150ef          	jal	25e9a <puts>
   10b72:	00030537          	lui	a0,0x30
   10b76:	bb050513          	addi	a0,a0,-1104 # 2fbb0 <__clzdi2+0xfe>
   10b7a:	320150ef          	jal	25e9a <puts>
   10b7e:	557d                	li	a0,-1
   10b80:	b37ff0ef          	jal	106b6 <exit>

0000000000010b84 <_Z10matrix_sumPsPKsmm>:
   10b84:	cd31                	beqz	a0,10be0 <_Z10matrix_sumPsPKsmm+0x5c>
   10b86:	ca19                	beqz	a2,10b9c <_Z10matrix_sumPsPKsmm+0x18>
   10b88:	00169313          	slli	t1,a3,0x1
   10b8c:	959a                	add	a1,a1,t1
   10b8e:	00161e13          	slli	t3,a2,0x1
   10b92:	4881                	li	a7,0
   10b94:	ea81                	bnez	a3,10ba4 <_Z10matrix_sumPsPKsmm+0x20>
   10b96:	0885                	addi	a7,a7,1
   10b98:	ff161fe3          	bne	a2,a7,10b96 <_Z10matrix_sumPsPKsmm+0x12>
   10b9c:	4801                	li	a6,0
   10b9e:	01051023          	sh	a6,0(a0)
   10ba2:	8082                	ret
   10ba4:	4801                	li	a6,0
   10ba6:	40658733          	sub	a4,a1,t1
   10baa:	4781                	li	a5,0
   10bac:	00075683          	lhu	a3,0(a4)
   10bb0:	0709                	addi	a4,a4,2
   10bb2:	9fb5                	addw	a5,a5,a3
   10bb4:	03079693          	slli	a3,a5,0x30
   10bb8:	0107979b          	slliw	a5,a5,0x10
   10bbc:	92c1                	srli	a3,a3,0x30
   10bbe:	4107d79b          	sraiw	a5,a5,0x10
   10bc2:	fee595e3          	bne	a1,a4,10bac <_Z10matrix_sumPsPKsmm+0x28>
   10bc6:	00d8083b          	addw	a6,a6,a3
   10bca:	0108181b          	slliw	a6,a6,0x10
   10bce:	0885                	addi	a7,a7,1
   10bd0:	4108581b          	sraiw	a6,a6,0x10
   10bd4:	95f2                	add	a1,a1,t3
   10bd6:	fcc898e3          	bne	a7,a2,10ba6 <_Z10matrix_sumPsPKsmm+0x22>
   10bda:	01051023          	sh	a6,0(a0)
   10bde:	8082                	ret
   10be0:	1141                	addi	sp,sp,-16
   10be2:	e406                	sd	ra,8(sp)
   10be4:	d5bff0ef          	jal	1093e <_Z10matrix_sumPsPKsmm.part.0>

0000000000010be8 <_Z10matrix_sumPsPKsmmm>:
   10be8:	1141                	addi	sp,sp,-16
   10bea:	e406                	sd	ra,8(sp)
   10bec:	e022                	sd	s0,0(sp)
   10bee:	cd49                	beqz	a0,10c88 <_Z10matrix_sumPsPKsmmm+0xa0>
   10bf0:	842a                	mv	s0,a0
   10bf2:	c741                	beqz	a4,10c7a <_Z10matrix_sumPsPKsmmm+0x92>
   10bf4:	c259                	beqz	a2,10c7a <_Z10matrix_sumPsPKsmmm+0x92>
   10bf6:	00169e93          	slli	t4,a3,0x1
   10bfa:	01d582b3          	add	t0,a1,t4
   10bfe:	00171513          	slli	a0,a4,0x1
   10c02:	00161f13          	slli	t5,a2,0x1
   10c06:	4f81                	li	t6,0
   10c08:	4381                	li	t2,0
   10c0a:	8896                	mv	a7,t0
   10c0c:	4e01                	li	t3,0
   10c0e:	e68d                	bnez	a3,10c38 <_Z10matrix_sumPsPKsmmm+0x50>
   10c10:	0e05                	addi	t3,t3,1
   10c12:	ffc61fe3          	bne	a2,t3,10c10 <_Z10matrix_sumPsPKsmmm+0x28>
   10c16:	4581                	li	a1,0
   10c18:	00bf8fbb          	addw	t6,t6,a1
   10c1c:	010f9f9b          	slliw	t6,t6,0x10
   10c20:	0385                	addi	t2,t2,1
   10c22:	410fdf9b          	sraiw	t6,t6,0x10
   10c26:	92aa                	add	t0,t0,a0
   10c28:	fee391e3          	bne	t2,a4,10c0a <_Z10matrix_sumPsPKsmmm+0x22>
   10c2c:	60a2                	ld	ra,8(sp)
   10c2e:	01f41023          	sh	t6,0(s0)
   10c32:	6402                	ld	s0,0(sp)
   10c34:	0141                	addi	sp,sp,16
   10c36:	8082                	ret
   10c38:	4301                	li	t1,0
   10c3a:	41d885b3          	sub	a1,a7,t4
   10c3e:	4781                	li	a5,0
   10c40:	0005d803          	lhu	a6,0(a1)
   10c44:	0589                	addi	a1,a1,2
   10c46:	00f807bb          	addw	a5,a6,a5
   10c4a:	03079813          	slli	a6,a5,0x30
   10c4e:	0107979b          	slliw	a5,a5,0x10
   10c52:	03085813          	srli	a6,a6,0x30
   10c56:	4107d79b          	sraiw	a5,a5,0x10
   10c5a:	ff1593e3          	bne	a1,a7,10c40 <_Z10matrix_sumPsPKsmmm+0x58>
   10c5e:	010307bb          	addw	a5,t1,a6
   10c62:	03079593          	slli	a1,a5,0x30
   10c66:	0107931b          	slliw	t1,a5,0x10
   10c6a:	0e05                	addi	t3,t3,1
   10c6c:	98fa                	add	a7,a7,t5
   10c6e:	91c1                	srli	a1,a1,0x30
   10c70:	4103531b          	sraiw	t1,t1,0x10
   10c74:	fdc613e3          	bne	a2,t3,10c3a <_Z10matrix_sumPsPKsmmm+0x52>
   10c78:	b745                	j	10c18 <_Z10matrix_sumPsPKsmmm+0x30>
   10c7a:	4f81                	li	t6,0
   10c7c:	60a2                	ld	ra,8(sp)
   10c7e:	01f41023          	sh	t6,0(s0)
   10c82:	6402                	ld	s0,0(sp)
   10c84:	0141                	addi	sp,sp,16
   10c86:	8082                	ret
   10c88:	cb7ff0ef          	jal	1093e <_Z10matrix_sumPsPKsmm.part.0>

0000000000010c8c <_Z11matrix_meanPsPKsmm>:
   10c8c:	c12d                	beqz	a0,10cee <_Z11matrix_meanPsPKsmm+0x62>
   10c8e:	4801                	li	a6,0
   10c90:	c205                	beqz	a2,10cb0 <_Z11matrix_meanPsPKsmm+0x24>
   10c92:	00169313          	slli	t1,a3,0x1
   10c96:	02d60eb3          	mul	t4,a2,a3
   10c9a:	959a                	add	a1,a1,t1
   10c9c:	00161e13          	slli	t3,a2,0x1
   10ca0:	4881                	li	a7,0
   10ca2:	ea91                	bnez	a3,10cb6 <_Z11matrix_meanPsPKsmm+0x2a>
   10ca4:	0885                	addi	a7,a7,1
   10ca6:	ff161fe3          	bne	a2,a7,10ca4 <_Z11matrix_meanPsPKsmm+0x18>
   10caa:	4801                	li	a6,0
   10cac:	03d85833          	divu	a6,a6,t4
   10cb0:	01051023          	sh	a6,0(a0)
   10cb4:	8082                	ret
   10cb6:	4801                	li	a6,0
   10cb8:	40658733          	sub	a4,a1,t1
   10cbc:	4781                	li	a5,0
   10cbe:	00075683          	lhu	a3,0(a4)
   10cc2:	0709                	addi	a4,a4,2
   10cc4:	9fb5                	addw	a5,a5,a3
   10cc6:	03079693          	slli	a3,a5,0x30
   10cca:	0107979b          	slliw	a5,a5,0x10
   10cce:	92c1                	srli	a3,a3,0x30
   10cd0:	4107d79b          	sraiw	a5,a5,0x10
   10cd4:	fee595e3          	bne	a1,a4,10cbe <_Z11matrix_meanPsPKsmm+0x32>
   10cd8:	00d8083b          	addw	a6,a6,a3
   10cdc:	0108181b          	slliw	a6,a6,0x10
   10ce0:	0885                	addi	a7,a7,1
   10ce2:	4108581b          	sraiw	a6,a6,0x10
   10ce6:	95f2                	add	a1,a1,t3
   10ce8:	fd1618e3          	bne	a2,a7,10cb8 <_Z11matrix_meanPsPKsmm+0x2c>
   10cec:	b7c1                	j	10cac <_Z11matrix_meanPsPKsmm+0x20>
   10cee:	00030537          	lui	a0,0x30
   10cf2:	1141                	addi	sp,sp,-16
   10cf4:	d8050513          	addi	a0,a0,-640 # 2fd80 <__clzdi2+0x2ce>
   10cf8:	e406                	sd	ra,8(sp)
   10cfa:	1a0150ef          	jal	25e9a <puts>
   10cfe:	00030537          	lui	a0,0x30
   10d02:	bb050513          	addi	a0,a0,-1104 # 2fbb0 <__clzdi2+0xfe>
   10d06:	194150ef          	jal	25e9a <puts>
   10d0a:	557d                	li	a0,-1
   10d0c:	9abff0ef          	jal	106b6 <exit>

0000000000010d10 <_Z11matrix_meanPsPKsmmm>:
   10d10:	7139                	addi	sp,sp,-64
   10d12:	fc06                	sd	ra,56(sp)
   10d14:	f822                	sd	s0,48(sp)
   10d16:	f426                	sd	s1,40(sp)
   10d18:	f04a                	sd	s2,32(sp)
   10d1a:	ec4e                	sd	s3,24(sp)
   10d1c:	cd05                	beqz	a0,10d54 <_Z11matrix_meanPsPKsmmm+0x44>
   10d1e:	842a                	mv	s0,a0
   10d20:	00e10513          	addi	a0,sp,14
   10d24:	84b2                	mv	s1,a2
   10d26:	8936                	mv	s2,a3
   10d28:	89ba                	mv	s3,a4
   10d2a:	00011723          	sh	zero,14(sp)
   10d2e:	ebbff0ef          	jal	10be8 <_Z10matrix_sumPsPKsmmm>
   10d32:	03390633          	mul	a2,s2,s3
   10d36:	00e11783          	lh	a5,14(sp)
   10d3a:	70e2                	ld	ra,56(sp)
   10d3c:	7902                	ld	s2,32(sp)
   10d3e:	69e2                	ld	s3,24(sp)
   10d40:	02960633          	mul	a2,a2,s1
   10d44:	74a2                	ld	s1,40(sp)
   10d46:	02c7d7b3          	divu	a5,a5,a2
   10d4a:	00f41023          	sh	a5,0(s0)
   10d4e:	7442                	ld	s0,48(sp)
   10d50:	6121                	addi	sp,sp,64
   10d52:	8082                	ret
   10d54:	00030537          	lui	a0,0x30
   10d58:	d8050513          	addi	a0,a0,-640 # 2fd80 <__clzdi2+0x2ce>
   10d5c:	13e150ef          	jal	25e9a <puts>
   10d60:	00030537          	lui	a0,0x30
   10d64:	bb050513          	addi	a0,a0,-1104 # 2fbb0 <__clzdi2+0xfe>
   10d68:	132150ef          	jal	25e9a <puts>
   10d6c:	557d                	li	a0,-1
   10d6e:	949ff0ef          	jal	106b6 <exit>

0000000000010d72 <_Z14fit_vector_addPsPKsS1_m>:
   10d72:	02000793          	li	a5,32
   10d76:	02d7e263          	bltu	a5,a3,10d9a <_Z14fit_vector_addPsPKsS1_m+0x28>
   10d7a:	872a                	mv	a4,a0
   10d7c:	8536                	mv	a0,a3
   10d7e:	1805200b          	.insn	4, 0x1805200b
   10d82:	852e                	mv	a0,a1
   10d84:	1005208b          	.insn	4, 0x1005208b
   10d88:	8532                	mv	a0,a2
   10d8a:	1005210b          	.insn	4, 0x1005210b
   10d8e:	0220818b          	.insn	4, 0x0220818b
   10d92:	853a                	mv	a0,a4
   10d94:	1235200b          	.insn	4, 0x1235200b
   10d98:	8082                	ret
   10d9a:	000306b7          	lui	a3,0x30
   10d9e:	00030637          	lui	a2,0x30
   10da2:	00030537          	lui	a0,0x30
   10da6:	1141                	addi	sp,sp,-16
   10da8:	dd068693          	addi	a3,a3,-560 # 2fdd0 <__clzdi2+0x31e>
   10dac:	de860613          	addi	a2,a2,-536 # 2fde8 <__clzdi2+0x336>
   10db0:	e3050513          	addi	a0,a0,-464 # 2fe30 <__clzdi2+0x37e>
   10db4:	4599                	li	a1,6
   10db6:	e406                	sd	ra,8(sp)
   10db8:	50a120ef          	jal	232c2 <__assert_func>

0000000000010dbc <_Z16tiled_vector_addPsPKsS1_m>:
   10dbc:	cd49                	beqz	a0,10e56 <_Z16tiled_vector_addPsPKsS1_m+0x9a>
   10dbe:	02000793          	li	a5,32
   10dc2:	8e2a                	mv	t3,a0
   10dc4:	06d7fa63          	bgeu	a5,a3,10e38 <_Z16tiled_vector_addPsPKsS1_m+0x7c>
   10dc8:	01f6fe93          	andi	t4,a3,31
   10dcc:	0056d313          	srli	t1,a3,0x5
   10dd0:	88ae                	mv	a7,a1
   10dd2:	8832                	mv	a6,a2
   10dd4:	872a                	mv	a4,a0
   10dd6:	4781                	li	a5,0
   10dd8:	02000513          	li	a0,32
   10ddc:	1805200b          	.insn	4, 0x1805200b
   10de0:	8546                	mv	a0,a7
   10de2:	1005208b          	.insn	4, 0x1005208b
   10de6:	8542                	mv	a0,a6
   10de8:	1005210b          	.insn	4, 0x1005210b
   10dec:	0220818b          	.insn	4, 0x0220818b
   10df0:	853a                	mv	a0,a4
   10df2:	1235200b          	.insn	4, 0x1235200b
   10df6:	0785                	addi	a5,a5,1
   10df8:	04088893          	addi	a7,a7,64
   10dfc:	04080813          	addi	a6,a6,64
   10e00:	04070713          	addi	a4,a4,64
   10e04:	fcf31ae3          	bne	t1,a5,10dd8 <_Z16tiled_vector_addPsPKsS1_m+0x1c>
   10e08:	000e9363          	bnez	t4,10e0e <_Z16tiled_vector_addPsPKsS1_m+0x52>
   10e0c:	8082                	ret
   10e0e:	41d686b3          	sub	a3,a3,t4
   10e12:	0686                	slli	a3,a3,0x1
   10e14:	8576                	mv	a0,t4
   10e16:	1805200b          	.insn	4, 0x1805200b
   10e1a:	00d58533          	add	a0,a1,a3
   10e1e:	1005208b          	.insn	4, 0x1005208b
   10e22:	00d60533          	add	a0,a2,a3
   10e26:	1005210b          	.insn	4, 0x1005210b
   10e2a:	0220818b          	.insn	4, 0x0220818b
   10e2e:	00de0533          	add	a0,t3,a3
   10e32:	1235200b          	.insn	4, 0x1235200b
   10e36:	8082                	ret
   10e38:	8536                	mv	a0,a3
   10e3a:	1805200b          	.insn	4, 0x1805200b
   10e3e:	852e                	mv	a0,a1
   10e40:	1005208b          	.insn	4, 0x1005208b
   10e44:	8532                	mv	a0,a2
   10e46:	1005210b          	.insn	4, 0x1005210b
   10e4a:	0220818b          	.insn	4, 0x0220818b
   10e4e:	8572                	mv	a0,t3
   10e50:	1235200b          	.insn	4, 0x1235200b
   10e54:	8082                	ret
   10e56:	00030537          	lui	a0,0x30
   10e5a:	1101                	addi	sp,sp,-32
   10e5c:	e4850513          	addi	a0,a0,-440 # 2fe48 <__clzdi2+0x396>
   10e60:	ec06                	sd	ra,24(sp)
   10e62:	e436                	sd	a3,8(sp)
   10e64:	036150ef          	jal	25e9a <puts>
   10e68:	65a2                	ld	a1,8(sp)
   10e6a:	00030537          	lui	a0,0x30
   10e6e:	e9850513          	addi	a0,a0,-360 # 2fe98 <__clzdi2+0x3e6>
   10e72:	64d140ef          	jal	25cbe <printf>
   10e76:	557d                	li	a0,-1
   10e78:	83fff0ef          	jal	106b6 <exit>

0000000000010e7c <_Z23tiled_matrix_vector_addPsPKsS1_mm>:
   10e7c:	7139                	addi	sp,sp,-64
   10e7e:	e852                	sd	s4,16(sp)
   10e80:	e456                	sd	s5,8(sp)
   10e82:	fc06                	sd	ra,56(sp)
   10e84:	8a36                	mv	s4,a3
   10e86:	8aba                	mv	s5,a4
   10e88:	c131                	beqz	a0,10ecc <_Z23tiled_matrix_vector_addPsPKsS1_mm+0x50>
   10e8a:	ce85                	beqz	a3,10ec2 <_Z23tiled_matrix_vector_addPsPKsS1_mm+0x46>
   10e8c:	f822                	sd	s0,48(sp)
   10e8e:	f426                	sd	s1,40(sp)
   10e90:	f04a                	sd	s2,32(sp)
   10e92:	ec4e                	sd	s3,24(sp)
   10e94:	e05a                	sd	s6,0(sp)
   10e96:	842a                	mv	s0,a0
   10e98:	8b32                	mv	s6,a2
   10e9a:	84ae                	mv	s1,a1
   10e9c:	00171993          	slli	s3,a4,0x1
   10ea0:	4901                	li	s2,0
   10ea2:	85a6                	mv	a1,s1
   10ea4:	8522                	mv	a0,s0
   10ea6:	86d6                	mv	a3,s5
   10ea8:	865a                	mv	a2,s6
   10eaa:	0905                	addi	s2,s2,1
   10eac:	f11ff0ef          	jal	10dbc <_Z16tiled_vector_addPsPKsS1_m>
   10eb0:	944e                	add	s0,s0,s3
   10eb2:	94ce                	add	s1,s1,s3
   10eb4:	ff2a17e3          	bne	s4,s2,10ea2 <_Z23tiled_matrix_vector_addPsPKsS1_mm+0x26>
   10eb8:	7442                	ld	s0,48(sp)
   10eba:	74a2                	ld	s1,40(sp)
   10ebc:	7902                	ld	s2,32(sp)
   10ebe:	69e2                	ld	s3,24(sp)
   10ec0:	6b02                	ld	s6,0(sp)
   10ec2:	70e2                	ld	ra,56(sp)
   10ec4:	6a42                	ld	s4,16(sp)
   10ec6:	6aa2                	ld	s5,8(sp)
   10ec8:	6121                	addi	sp,sp,64
   10eca:	8082                	ret
   10ecc:	00030537          	lui	a0,0x30
   10ed0:	eb850513          	addi	a0,a0,-328 # 2feb8 <__clzdi2+0x406>
   10ed4:	f822                	sd	s0,48(sp)
   10ed6:	f426                	sd	s1,40(sp)
   10ed8:	f04a                	sd	s2,32(sp)
   10eda:	ec4e                	sd	s3,24(sp)
   10edc:	e05a                	sd	s6,0(sp)
   10ede:	7bd140ef          	jal	25e9a <puts>
   10ee2:	00030537          	lui	a0,0x30
   10ee6:	8656                	mv	a2,s5
   10ee8:	85d2                	mv	a1,s4
   10eea:	f1050513          	addi	a0,a0,-240 # 2ff10 <__clzdi2+0x45e>
   10eee:	5d1140ef          	jal	25cbe <printf>
   10ef2:	557d                	li	a0,-1
   10ef4:	fc2ff0ef          	jal	106b6 <exit>

0000000000010ef8 <_Z14fit_vector_subPsPKsS1_m>:
   10ef8:	02000793          	li	a5,32
   10efc:	02d7e263          	bltu	a5,a3,10f20 <_Z14fit_vector_subPsPKsS1_m+0x28>
   10f00:	872a                	mv	a4,a0
   10f02:	8536                	mv	a0,a3
   10f04:	1805200b          	.insn	4, 0x1805200b
   10f08:	852e                	mv	a0,a1
   10f0a:	1005208b          	.insn	4, 0x1005208b
   10f0e:	8532                	mv	a0,a2
   10f10:	1005210b          	.insn	4, 0x1005210b
   10f14:	0420818b          	.insn	4, 0x0420818b
   10f18:	853a                	mv	a0,a4
   10f1a:	1235200b          	.insn	4, 0x1235200b
   10f1e:	8082                	ret
   10f20:	000306b7          	lui	a3,0x30
   10f24:	00030637          	lui	a2,0x30
   10f28:	00030537          	lui	a0,0x30
   10f2c:	1141                	addi	sp,sp,-16
   10f2e:	dd068693          	addi	a3,a3,-560 # 2fdd0 <__clzdi2+0x31e>
   10f32:	f4060613          	addi	a2,a2,-192 # 2ff40 <__clzdi2+0x48e>
   10f36:	e3050513          	addi	a0,a0,-464 # 2fe30 <__clzdi2+0x37e>
   10f3a:	03600593          	li	a1,54
   10f3e:	e406                	sd	ra,8(sp)
   10f40:	382120ef          	jal	232c2 <__assert_func>

0000000000010f44 <_Z16tiled_vector_subPsPKsS1_m>:
   10f44:	cd49                	beqz	a0,10fde <_Z16tiled_vector_subPsPKsS1_m+0x9a>
   10f46:	02000793          	li	a5,32
   10f4a:	8e2a                	mv	t3,a0
   10f4c:	06d7fa63          	bgeu	a5,a3,10fc0 <_Z16tiled_vector_subPsPKsS1_m+0x7c>
   10f50:	01f6fe93          	andi	t4,a3,31
   10f54:	0056d313          	srli	t1,a3,0x5
   10f58:	88ae                	mv	a7,a1
   10f5a:	8832                	mv	a6,a2
   10f5c:	872a                	mv	a4,a0
   10f5e:	4781                	li	a5,0
   10f60:	02000513          	li	a0,32
   10f64:	1805200b          	.insn	4, 0x1805200b
   10f68:	8546                	mv	a0,a7
   10f6a:	1005208b          	.insn	4, 0x1005208b
   10f6e:	8542                	mv	a0,a6
   10f70:	1005210b          	.insn	4, 0x1005210b
   10f74:	0420818b          	.insn	4, 0x0420818b
   10f78:	853a                	mv	a0,a4
   10f7a:	1235200b          	.insn	4, 0x1235200b
   10f7e:	0785                	addi	a5,a5,1
   10f80:	04088893          	addi	a7,a7,64
   10f84:	04080813          	addi	a6,a6,64
   10f88:	04070713          	addi	a4,a4,64
   10f8c:	fcf31ae3          	bne	t1,a5,10f60 <_Z16tiled_vector_subPsPKsS1_m+0x1c>
   10f90:	000e9363          	bnez	t4,10f96 <_Z16tiled_vector_subPsPKsS1_m+0x52>
   10f94:	8082                	ret
   10f96:	41d686b3          	sub	a3,a3,t4
   10f9a:	0686                	slli	a3,a3,0x1
   10f9c:	8576                	mv	a0,t4
   10f9e:	1805200b          	.insn	4, 0x1805200b
   10fa2:	00d58533          	add	a0,a1,a3
   10fa6:	1005208b          	.insn	4, 0x1005208b
   10faa:	00d60533          	add	a0,a2,a3
   10fae:	1005210b          	.insn	4, 0x1005210b
   10fb2:	0420818b          	.insn	4, 0x0420818b
   10fb6:	00de0533          	add	a0,t3,a3
   10fba:	1235200b          	.insn	4, 0x1235200b
   10fbe:	8082                	ret
   10fc0:	8536                	mv	a0,a3
   10fc2:	1805200b          	.insn	4, 0x1805200b
   10fc6:	852e                	mv	a0,a1
   10fc8:	1005208b          	.insn	4, 0x1005208b
   10fcc:	8532                	mv	a0,a2
   10fce:	1005210b          	.insn	4, 0x1005210b
   10fd2:	0420818b          	.insn	4, 0x0420818b
   10fd6:	8572                	mv	a0,t3
   10fd8:	1235200b          	.insn	4, 0x1235200b
   10fdc:	8082                	ret
   10fde:	00030537          	lui	a0,0x30
   10fe2:	1101                	addi	sp,sp,-32
   10fe4:	f8850513          	addi	a0,a0,-120 # 2ff88 <__clzdi2+0x4d6>
   10fe8:	ec06                	sd	ra,24(sp)
   10fea:	e436                	sd	a3,8(sp)
   10fec:	6af140ef          	jal	25e9a <puts>
   10ff0:	65a2                	ld	a1,8(sp)
   10ff2:	00030537          	lui	a0,0x30
   10ff6:	e9850513          	addi	a0,a0,-360 # 2fe98 <__clzdi2+0x3e6>
   10ffa:	4c5140ef          	jal	25cbe <printf>
   10ffe:	557d                	li	a0,-1
   11000:	eb6ff0ef          	jal	106b6 <exit>

0000000000011004 <_Z23tiled_matrix_vector_subPsPKsS1_mm>:
   11004:	7139                	addi	sp,sp,-64
   11006:	e852                	sd	s4,16(sp)
   11008:	e456                	sd	s5,8(sp)
   1100a:	fc06                	sd	ra,56(sp)
   1100c:	8a36                	mv	s4,a3
   1100e:	8aba                	mv	s5,a4
   11010:	c131                	beqz	a0,11054 <_Z23tiled_matrix_vector_subPsPKsS1_mm+0x50>
   11012:	ce85                	beqz	a3,1104a <_Z23tiled_matrix_vector_subPsPKsS1_mm+0x46>
   11014:	f822                	sd	s0,48(sp)
   11016:	f426                	sd	s1,40(sp)
   11018:	f04a                	sd	s2,32(sp)
   1101a:	ec4e                	sd	s3,24(sp)
   1101c:	e05a                	sd	s6,0(sp)
   1101e:	842a                	mv	s0,a0
   11020:	8b32                	mv	s6,a2
   11022:	84ae                	mv	s1,a1
   11024:	00171993          	slli	s3,a4,0x1
   11028:	4901                	li	s2,0
   1102a:	85a6                	mv	a1,s1
   1102c:	8522                	mv	a0,s0
   1102e:	86d6                	mv	a3,s5
   11030:	865a                	mv	a2,s6
   11032:	0905                	addi	s2,s2,1
   11034:	f11ff0ef          	jal	10f44 <_Z16tiled_vector_subPsPKsS1_m>
   11038:	944e                	add	s0,s0,s3
   1103a:	94ce                	add	s1,s1,s3
   1103c:	ff2a17e3          	bne	s4,s2,1102a <_Z23tiled_matrix_vector_subPsPKsS1_mm+0x26>
   11040:	7442                	ld	s0,48(sp)
   11042:	74a2                	ld	s1,40(sp)
   11044:	7902                	ld	s2,32(sp)
   11046:	69e2                	ld	s3,24(sp)
   11048:	6b02                	ld	s6,0(sp)
   1104a:	70e2                	ld	ra,56(sp)
   1104c:	6a42                	ld	s4,16(sp)
   1104e:	6aa2                	ld	s5,8(sp)
   11050:	6121                	addi	sp,sp,64
   11052:	8082                	ret
   11054:	00030537          	lui	a0,0x30
   11058:	fd850513          	addi	a0,a0,-40 # 2ffd8 <__clzdi2+0x526>
   1105c:	f822                	sd	s0,48(sp)
   1105e:	f426                	sd	s1,40(sp)
   11060:	f04a                	sd	s2,32(sp)
   11062:	ec4e                	sd	s3,24(sp)
   11064:	e05a                	sd	s6,0(sp)
   11066:	635140ef          	jal	25e9a <puts>
   1106a:	00030537          	lui	a0,0x30
   1106e:	8656                	mv	a2,s5
   11070:	85d2                	mv	a1,s4
   11072:	f1050513          	addi	a0,a0,-240 # 2ff10 <__clzdi2+0x45e>
   11076:	449140ef          	jal	25cbe <printf>
   1107a:	557d                	li	a0,-1
   1107c:	e3aff0ef          	jal	106b6 <exit>

0000000000011080 <_Z21fit_vector_add_scalarPsPKssm>:
   11080:	02000793          	li	a5,32
   11084:	02d7e063          	bltu	a5,a3,110a4 <_Z21fit_vector_add_scalarPsPKssm+0x24>
   11088:	872a                	mv	a4,a0
   1108a:	8536                	mv	a0,a3
   1108c:	1805200b          	.insn	4, 0x1805200b
   11090:	852e                	mv	a0,a1
   11092:	1005208b          	.insn	4, 0x1005208b
   11096:	8532                	mv	a0,a2
   11098:	0615210b          	.insn	4, 0x0615210b
   1109c:	853a                	mv	a0,a4
   1109e:	1235200b          	.insn	4, 0x1235200b
   110a2:	8082                	ret
   110a4:	000306b7          	lui	a3,0x30
   110a8:	00030637          	lui	a2,0x30
   110ac:	00030537          	lui	a0,0x30
   110b0:	1141                	addi	sp,sp,-16
   110b2:	dd068693          	addi	a3,a3,-560 # 2fdd0 <__clzdi2+0x31e>
   110b6:	03060613          	addi	a2,a2,48 # 30030 <__clzdi2+0x57e>
   110ba:	e3050513          	addi	a0,a0,-464 # 2fe30 <__clzdi2+0x37e>
   110be:	06600593          	li	a1,102
   110c2:	e406                	sd	ra,8(sp)
   110c4:	1fe120ef          	jal	232c2 <__assert_func>

00000000000110c8 <_Z23tiled_vector_add_scalarPsPKssm>:
   110c8:	c159                	beqz	a0,1114e <_Z23tiled_vector_add_scalarPsPKssm+0x86>
   110ca:	02000793          	li	a5,32
   110ce:	832a                	mv	t1,a0
   110d0:	06d7f263          	bgeu	a5,a3,11134 <_Z23tiled_vector_add_scalarPsPKssm+0x6c>
   110d4:	01f6fe13          	andi	t3,a3,31
   110d8:	0056d893          	srli	a7,a3,0x5
   110dc:	882e                	mv	a6,a1
   110de:	872a                	mv	a4,a0
   110e0:	4781                	li	a5,0
   110e2:	02000513          	li	a0,32
   110e6:	1805200b          	.insn	4, 0x1805200b
   110ea:	8542                	mv	a0,a6
   110ec:	1005208b          	.insn	4, 0x1005208b
   110f0:	8532                	mv	a0,a2
   110f2:	0615210b          	.insn	4, 0x0615210b
   110f6:	853a                	mv	a0,a4
   110f8:	1235200b          	.insn	4, 0x1235200b
   110fc:	0785                	addi	a5,a5,1
   110fe:	04080813          	addi	a6,a6,64
   11102:	04070713          	addi	a4,a4,64
   11106:	fcf89ee3          	bne	a7,a5,110e2 <_Z23tiled_vector_add_scalarPsPKssm+0x1a>
   1110a:	000e1363          	bnez	t3,11110 <_Z23tiled_vector_add_scalarPsPKssm+0x48>
   1110e:	8082                	ret
   11110:	41c686b3          	sub	a3,a3,t3
   11114:	0686                	slli	a3,a3,0x1
   11116:	8572                	mv	a0,t3
   11118:	1805200b          	.insn	4, 0x1805200b
   1111c:	00d58533          	add	a0,a1,a3
   11120:	1005208b          	.insn	4, 0x1005208b
   11124:	8532                	mv	a0,a2
   11126:	0615210b          	.insn	4, 0x0615210b
   1112a:	00d30533          	add	a0,t1,a3
   1112e:	1235200b          	.insn	4, 0x1235200b
   11132:	8082                	ret
   11134:	8536                	mv	a0,a3
   11136:	1805200b          	.insn	4, 0x1805200b
   1113a:	852e                	mv	a0,a1
   1113c:	1005208b          	.insn	4, 0x1005208b
   11140:	8532                	mv	a0,a2
   11142:	0615210b          	.insn	4, 0x0615210b
   11146:	851a                	mv	a0,t1
   11148:	1235200b          	.insn	4, 0x1235200b
   1114c:	8082                	ret
   1114e:	00030537          	lui	a0,0x30
   11152:	1101                	addi	sp,sp,-32
   11154:	07850513          	addi	a0,a0,120 # 30078 <__clzdi2+0x5c6>
   11158:	ec06                	sd	ra,24(sp)
   1115a:	e436                	sd	a3,8(sp)
   1115c:	53f140ef          	jal	25e9a <puts>
   11160:	65a2                	ld	a1,8(sp)
   11162:	00030537          	lui	a0,0x30
   11166:	e9850513          	addi	a0,a0,-360 # 2fe98 <__clzdi2+0x3e6>
   1116a:	355140ef          	jal	25cbe <printf>
   1116e:	557d                	li	a0,-1
   11170:	d46ff0ef          	jal	106b6 <exit>

0000000000011174 <_Z23tiled_matrix_add_scalarPsPKssmm>:
   11174:	7139                	addi	sp,sp,-64
   11176:	e852                	sd	s4,16(sp)
   11178:	e456                	sd	s5,8(sp)
   1117a:	fc06                	sd	ra,56(sp)
   1117c:	8a36                	mv	s4,a3
   1117e:	8aba                	mv	s5,a4
   11180:	c131                	beqz	a0,111c4 <_Z23tiled_matrix_add_scalarPsPKssmm+0x50>
   11182:	ce85                	beqz	a3,111ba <_Z23tiled_matrix_add_scalarPsPKssmm+0x46>
   11184:	f822                	sd	s0,48(sp)
   11186:	f426                	sd	s1,40(sp)
   11188:	f04a                	sd	s2,32(sp)
   1118a:	ec4e                	sd	s3,24(sp)
   1118c:	e05a                	sd	s6,0(sp)
   1118e:	842a                	mv	s0,a0
   11190:	8b32                	mv	s6,a2
   11192:	84ae                	mv	s1,a1
   11194:	00171993          	slli	s3,a4,0x1
   11198:	4901                	li	s2,0
   1119a:	85a6                	mv	a1,s1
   1119c:	8522                	mv	a0,s0
   1119e:	86d6                	mv	a3,s5
   111a0:	865a                	mv	a2,s6
   111a2:	0905                	addi	s2,s2,1
   111a4:	f25ff0ef          	jal	110c8 <_Z23tiled_vector_add_scalarPsPKssm>
   111a8:	944e                	add	s0,s0,s3
   111aa:	94ce                	add	s1,s1,s3
   111ac:	ff2a17e3          	bne	s4,s2,1119a <_Z23tiled_matrix_add_scalarPsPKssmm+0x26>
   111b0:	7442                	ld	s0,48(sp)
   111b2:	74a2                	ld	s1,40(sp)
   111b4:	7902                	ld	s2,32(sp)
   111b6:	69e2                	ld	s3,24(sp)
   111b8:	6b02                	ld	s6,0(sp)
   111ba:	70e2                	ld	ra,56(sp)
   111bc:	6a42                	ld	s4,16(sp)
   111be:	6aa2                	ld	s5,8(sp)
   111c0:	6121                	addi	sp,sp,64
   111c2:	8082                	ret
   111c4:	00030537          	lui	a0,0x30
   111c8:	0d050513          	addi	a0,a0,208 # 300d0 <__clzdi2+0x61e>
   111cc:	f822                	sd	s0,48(sp)
   111ce:	f426                	sd	s1,40(sp)
   111d0:	f04a                	sd	s2,32(sp)
   111d2:	ec4e                	sd	s3,24(sp)
   111d4:	e05a                	sd	s6,0(sp)
   111d6:	4c5140ef          	jal	25e9a <puts>
   111da:	00030537          	lui	a0,0x30
   111de:	8656                	mv	a2,s5
   111e0:	85d2                	mv	a1,s4
   111e2:	f1050513          	addi	a0,a0,-240 # 2ff10 <__clzdi2+0x45e>
   111e6:	2d9140ef          	jal	25cbe <printf>
   111ea:	557d                	li	a0,-1
   111ec:	ccaff0ef          	jal	106b6 <exit>

00000000000111f0 <_Z21fit_vector_sub_scalarPsPKssm>:
   111f0:	02000793          	li	a5,32
   111f4:	02d7e063          	bltu	a5,a3,11214 <_Z21fit_vector_sub_scalarPsPKssm+0x24>
   111f8:	872a                	mv	a4,a0
   111fa:	8536                	mv	a0,a3
   111fc:	1805200b          	.insn	4, 0x1805200b
   11200:	852e                	mv	a0,a1
   11202:	1005208b          	.insn	4, 0x1005208b
   11206:	8532                	mv	a0,a2
   11208:	0815210b          	.insn	4, 0x0815210b
   1120c:	853a                	mv	a0,a4
   1120e:	1235200b          	.insn	4, 0x1235200b
   11212:	8082                	ret
   11214:	000306b7          	lui	a3,0x30
   11218:	00030637          	lui	a2,0x30
   1121c:	00030537          	lui	a0,0x30
   11220:	1141                	addi	sp,sp,-16
   11222:	dd068693          	addi	a3,a3,-560 # 2fdd0 <__clzdi2+0x31e>
   11226:	12860613          	addi	a2,a2,296 # 30128 <__clzdi2+0x676>
   1122a:	e3050513          	addi	a0,a0,-464 # 2fe30 <__clzdi2+0x37e>
   1122e:	09500593          	li	a1,149
   11232:	e406                	sd	ra,8(sp)
   11234:	08e120ef          	jal	232c2 <__assert_func>

0000000000011238 <_Z23tiled_vector_sub_scalarPsPKssm>:
   11238:	c159                	beqz	a0,112be <_Z23tiled_vector_sub_scalarPsPKssm+0x86>
   1123a:	02000793          	li	a5,32
   1123e:	832a                	mv	t1,a0
   11240:	06d7f263          	bgeu	a5,a3,112a4 <_Z23tiled_vector_sub_scalarPsPKssm+0x6c>
   11244:	01f6fe13          	andi	t3,a3,31
   11248:	0056d893          	srli	a7,a3,0x5
   1124c:	882e                	mv	a6,a1
   1124e:	872a                	mv	a4,a0
   11250:	4781                	li	a5,0
   11252:	02000513          	li	a0,32
   11256:	1805200b          	.insn	4, 0x1805200b
   1125a:	8542                	mv	a0,a6
   1125c:	1005208b          	.insn	4, 0x1005208b
   11260:	8532                	mv	a0,a2
   11262:	0815210b          	.insn	4, 0x0815210b
   11266:	853a                	mv	a0,a4
   11268:	1235200b          	.insn	4, 0x1235200b
   1126c:	0785                	addi	a5,a5,1
   1126e:	04080813          	addi	a6,a6,64
   11272:	04070713          	addi	a4,a4,64
   11276:	fcf89ee3          	bne	a7,a5,11252 <_Z23tiled_vector_sub_scalarPsPKssm+0x1a>
   1127a:	000e1363          	bnez	t3,11280 <_Z23tiled_vector_sub_scalarPsPKssm+0x48>
   1127e:	8082                	ret
   11280:	41c686b3          	sub	a3,a3,t3
   11284:	0686                	slli	a3,a3,0x1
   11286:	8572                	mv	a0,t3
   11288:	1805200b          	.insn	4, 0x1805200b
   1128c:	00d58533          	add	a0,a1,a3
   11290:	1005208b          	.insn	4, 0x1005208b
   11294:	8532                	mv	a0,a2
   11296:	0815210b          	.insn	4, 0x0815210b
   1129a:	00d30533          	add	a0,t1,a3
   1129e:	1235200b          	.insn	4, 0x1235200b
   112a2:	8082                	ret
   112a4:	8536                	mv	a0,a3
   112a6:	1805200b          	.insn	4, 0x1805200b
   112aa:	852e                	mv	a0,a1
   112ac:	1005208b          	.insn	4, 0x1005208b
   112b0:	8532                	mv	a0,a2
   112b2:	0815210b          	.insn	4, 0x0815210b
   112b6:	851a                	mv	a0,t1
   112b8:	1235200b          	.insn	4, 0x1235200b
   112bc:	8082                	ret
   112be:	00030537          	lui	a0,0x30
   112c2:	1101                	addi	sp,sp,-32
   112c4:	17050513          	addi	a0,a0,368 # 30170 <__clzdi2+0x6be>
   112c8:	ec06                	sd	ra,24(sp)
   112ca:	e436                	sd	a3,8(sp)
   112cc:	3cf140ef          	jal	25e9a <puts>
   112d0:	65a2                	ld	a1,8(sp)
   112d2:	00030537          	lui	a0,0x30
   112d6:	e9850513          	addi	a0,a0,-360 # 2fe98 <__clzdi2+0x3e6>
   112da:	1e5140ef          	jal	25cbe <printf>
   112de:	557d                	li	a0,-1
   112e0:	bd6ff0ef          	jal	106b6 <exit>

00000000000112e4 <_Z23tiled_matrix_sub_scalarPsPKssmm>:
   112e4:	7139                	addi	sp,sp,-64
   112e6:	e852                	sd	s4,16(sp)
   112e8:	e456                	sd	s5,8(sp)
   112ea:	fc06                	sd	ra,56(sp)
   112ec:	8a36                	mv	s4,a3
   112ee:	8aba                	mv	s5,a4
   112f0:	c131                	beqz	a0,11334 <_Z23tiled_matrix_sub_scalarPsPKssmm+0x50>
   112f2:	ce85                	beqz	a3,1132a <_Z23tiled_matrix_sub_scalarPsPKssmm+0x46>
   112f4:	f822                	sd	s0,48(sp)
   112f6:	f426                	sd	s1,40(sp)
   112f8:	f04a                	sd	s2,32(sp)
   112fa:	ec4e                	sd	s3,24(sp)
   112fc:	e05a                	sd	s6,0(sp)
   112fe:	842a                	mv	s0,a0
   11300:	8b32                	mv	s6,a2
   11302:	84ae                	mv	s1,a1
   11304:	00171993          	slli	s3,a4,0x1
   11308:	4901                	li	s2,0
   1130a:	85a6                	mv	a1,s1
   1130c:	8522                	mv	a0,s0
   1130e:	86d6                	mv	a3,s5
   11310:	865a                	mv	a2,s6
   11312:	0905                	addi	s2,s2,1
   11314:	f25ff0ef          	jal	11238 <_Z23tiled_vector_sub_scalarPsPKssm>
   11318:	944e                	add	s0,s0,s3
   1131a:	94ce                	add	s1,s1,s3
   1131c:	ff2a17e3          	bne	s4,s2,1130a <_Z23tiled_matrix_sub_scalarPsPKssmm+0x26>
   11320:	7442                	ld	s0,48(sp)
   11322:	74a2                	ld	s1,40(sp)
   11324:	7902                	ld	s2,32(sp)
   11326:	69e2                	ld	s3,24(sp)
   11328:	6b02                	ld	s6,0(sp)
   1132a:	70e2                	ld	ra,56(sp)
   1132c:	6a42                	ld	s4,16(sp)
   1132e:	6aa2                	ld	s5,8(sp)
   11330:	6121                	addi	sp,sp,64
   11332:	8082                	ret
   11334:	00030537          	lui	a0,0x30
   11338:	1c850513          	addi	a0,a0,456 # 301c8 <__clzdi2+0x716>
   1133c:	f822                	sd	s0,48(sp)
   1133e:	f426                	sd	s1,40(sp)
   11340:	f04a                	sd	s2,32(sp)
   11342:	ec4e                	sd	s3,24(sp)
   11344:	e05a                	sd	s6,0(sp)
   11346:	355140ef          	jal	25e9a <puts>
   1134a:	00030537          	lui	a0,0x30
   1134e:	8656                	mv	a2,s5
   11350:	85d2                	mv	a1,s4
   11352:	f1050513          	addi	a0,a0,-240 # 2ff10 <__clzdi2+0x45e>
   11356:	169140ef          	jal	25cbe <printf>
   1135a:	557d                	li	a0,-1
   1135c:	b5aff0ef          	jal	106b6 <exit>

0000000000011360 <_Z21fit_vector_mul_scalarPsPKssm>:
   11360:	02000793          	li	a5,32
   11364:	02d7e063          	bltu	a5,a3,11384 <_Z21fit_vector_mul_scalarPsPKssm+0x24>
   11368:	872a                	mv	a4,a0
   1136a:	8536                	mv	a0,a3
   1136c:	1805200b          	.insn	4, 0x1805200b
   11370:	852e                	mv	a0,a1
   11372:	1005208b          	.insn	4, 0x1005208b
   11376:	8532                	mv	a0,a2
   11378:	0a15210b          	.insn	4, 0x0a15210b
   1137c:	853a                	mv	a0,a4
   1137e:	1235200b          	.insn	4, 0x1235200b
   11382:	8082                	ret
   11384:	000306b7          	lui	a3,0x30
   11388:	00030637          	lui	a2,0x30
   1138c:	00030537          	lui	a0,0x30
   11390:	1141                	addi	sp,sp,-16
   11392:	dd068693          	addi	a3,a3,-560 # 2fdd0 <__clzdi2+0x31e>
   11396:	22060613          	addi	a2,a2,544 # 30220 <__clzdi2+0x76e>
   1139a:	e3050513          	addi	a0,a0,-464 # 2fe30 <__clzdi2+0x37e>
   1139e:	0c400593          	li	a1,196
   113a2:	e406                	sd	ra,8(sp)
   113a4:	71f110ef          	jal	232c2 <__assert_func>

00000000000113a8 <_Z23tiled_vector_mul_scalarPsPKssm>:
   113a8:	c159                	beqz	a0,1142e <_Z23tiled_vector_mul_scalarPsPKssm+0x86>
   113aa:	02000793          	li	a5,32
   113ae:	832a                	mv	t1,a0
   113b0:	06d7f263          	bgeu	a5,a3,11414 <_Z23tiled_vector_mul_scalarPsPKssm+0x6c>
   113b4:	01f6fe13          	andi	t3,a3,31
   113b8:	0056d893          	srli	a7,a3,0x5
   113bc:	882e                	mv	a6,a1
   113be:	872a                	mv	a4,a0
   113c0:	4781                	li	a5,0
   113c2:	02000513          	li	a0,32
   113c6:	1805200b          	.insn	4, 0x1805200b
   113ca:	8542                	mv	a0,a6
   113cc:	1005208b          	.insn	4, 0x1005208b
   113d0:	8532                	mv	a0,a2
   113d2:	0a15210b          	.insn	4, 0x0a15210b
   113d6:	853a                	mv	a0,a4
   113d8:	1235200b          	.insn	4, 0x1235200b
   113dc:	0785                	addi	a5,a5,1
   113de:	04080813          	addi	a6,a6,64
   113e2:	04070713          	addi	a4,a4,64
   113e6:	fcf89ee3          	bne	a7,a5,113c2 <_Z23tiled_vector_mul_scalarPsPKssm+0x1a>
   113ea:	000e1363          	bnez	t3,113f0 <_Z23tiled_vector_mul_scalarPsPKssm+0x48>
   113ee:	8082                	ret
   113f0:	41c686b3          	sub	a3,a3,t3
   113f4:	0686                	slli	a3,a3,0x1
   113f6:	8572                	mv	a0,t3
   113f8:	1805200b          	.insn	4, 0x1805200b
   113fc:	00d58533          	add	a0,a1,a3
   11400:	1005208b          	.insn	4, 0x1005208b
   11404:	8532                	mv	a0,a2
   11406:	0a15210b          	.insn	4, 0x0a15210b
   1140a:	00d30533          	add	a0,t1,a3
   1140e:	1235200b          	.insn	4, 0x1235200b
   11412:	8082                	ret
   11414:	8536                	mv	a0,a3
   11416:	1805200b          	.insn	4, 0x1805200b
   1141a:	852e                	mv	a0,a1
   1141c:	1005208b          	.insn	4, 0x1005208b
   11420:	8532                	mv	a0,a2
   11422:	0a15210b          	.insn	4, 0x0a15210b
   11426:	851a                	mv	a0,t1
   11428:	1235200b          	.insn	4, 0x1235200b
   1142c:	8082                	ret
   1142e:	00030537          	lui	a0,0x30
   11432:	1101                	addi	sp,sp,-32
   11434:	26850513          	addi	a0,a0,616 # 30268 <__clzdi2+0x7b6>
   11438:	ec06                	sd	ra,24(sp)
   1143a:	e436                	sd	a3,8(sp)
   1143c:	25f140ef          	jal	25e9a <puts>
   11440:	65a2                	ld	a1,8(sp)
   11442:	00030537          	lui	a0,0x30
   11446:	e9850513          	addi	a0,a0,-360 # 2fe98 <__clzdi2+0x3e6>
   1144a:	075140ef          	jal	25cbe <printf>
   1144e:	557d                	li	a0,-1
   11450:	a66ff0ef          	jal	106b6 <exit>

0000000000011454 <_Z23tiled_matrix_mul_scalarPsPKssmm>:
   11454:	7139                	addi	sp,sp,-64
   11456:	e852                	sd	s4,16(sp)
   11458:	e456                	sd	s5,8(sp)
   1145a:	fc06                	sd	ra,56(sp)
   1145c:	8a36                	mv	s4,a3
   1145e:	8aba                	mv	s5,a4
   11460:	c131                	beqz	a0,114a4 <_Z23tiled_matrix_mul_scalarPsPKssmm+0x50>
   11462:	ce85                	beqz	a3,1149a <_Z23tiled_matrix_mul_scalarPsPKssmm+0x46>
   11464:	f822                	sd	s0,48(sp)
   11466:	f426                	sd	s1,40(sp)
   11468:	f04a                	sd	s2,32(sp)
   1146a:	ec4e                	sd	s3,24(sp)
   1146c:	e05a                	sd	s6,0(sp)
   1146e:	842a                	mv	s0,a0
   11470:	8b32                	mv	s6,a2
   11472:	84ae                	mv	s1,a1
   11474:	00171993          	slli	s3,a4,0x1
   11478:	4901                	li	s2,0
   1147a:	85a6                	mv	a1,s1
   1147c:	8522                	mv	a0,s0
   1147e:	86d6                	mv	a3,s5
   11480:	865a                	mv	a2,s6
   11482:	0905                	addi	s2,s2,1
   11484:	f25ff0ef          	jal	113a8 <_Z23tiled_vector_mul_scalarPsPKssm>
   11488:	944e                	add	s0,s0,s3
   1148a:	94ce                	add	s1,s1,s3
   1148c:	ff2a17e3          	bne	s4,s2,1147a <_Z23tiled_matrix_mul_scalarPsPKssmm+0x26>
   11490:	7442                	ld	s0,48(sp)
   11492:	74a2                	ld	s1,40(sp)
   11494:	7902                	ld	s2,32(sp)
   11496:	69e2                	ld	s3,24(sp)
   11498:	6b02                	ld	s6,0(sp)
   1149a:	70e2                	ld	ra,56(sp)
   1149c:	6a42                	ld	s4,16(sp)
   1149e:	6aa2                	ld	s5,8(sp)
   114a0:	6121                	addi	sp,sp,64
   114a2:	8082                	ret
   114a4:	00030537          	lui	a0,0x30
   114a8:	2c050513          	addi	a0,a0,704 # 302c0 <__clzdi2+0x80e>
   114ac:	f822                	sd	s0,48(sp)
   114ae:	f426                	sd	s1,40(sp)
   114b0:	f04a                	sd	s2,32(sp)
   114b2:	ec4e                	sd	s3,24(sp)
   114b4:	e05a                	sd	s6,0(sp)
   114b6:	1e5140ef          	jal	25e9a <puts>
   114ba:	00030537          	lui	a0,0x30
   114be:	8656                	mv	a2,s5
   114c0:	85d2                	mv	a1,s4
   114c2:	f1050513          	addi	a0,a0,-240 # 2ff10 <__clzdi2+0x45e>
   114c6:	7f8140ef          	jal	25cbe <printf>
   114ca:	557d                	li	a0,-1
   114cc:	9eaff0ef          	jal	106b6 <exit>

00000000000114d0 <_Z21fit_vector_div_scalarPsPKssm>:
   114d0:	02000793          	li	a5,32
   114d4:	02d7e063          	bltu	a5,a3,114f4 <_Z21fit_vector_div_scalarPsPKssm+0x24>
   114d8:	872a                	mv	a4,a0
   114da:	8536                	mv	a0,a3
   114dc:	1805200b          	.insn	4, 0x1805200b
   114e0:	852e                	mv	a0,a1
   114e2:	1005208b          	.insn	4, 0x1005208b
   114e6:	8532                	mv	a0,a2
   114e8:	0c15210b          	.insn	4, 0x0c15210b
   114ec:	853a                	mv	a0,a4
   114ee:	1235200b          	.insn	4, 0x1235200b
   114f2:	8082                	ret
   114f4:	000306b7          	lui	a3,0x30
   114f8:	00030637          	lui	a2,0x30
   114fc:	00030537          	lui	a0,0x30
   11500:	1141                	addi	sp,sp,-16
   11502:	dd068693          	addi	a3,a3,-560 # 2fdd0 <__clzdi2+0x31e>
   11506:	31860613          	addi	a2,a2,792 # 30318 <__clzdi2+0x866>
   1150a:	e3050513          	addi	a0,a0,-464 # 2fe30 <__clzdi2+0x37e>
   1150e:	0f300593          	li	a1,243
   11512:	e406                	sd	ra,8(sp)
   11514:	5af110ef          	jal	232c2 <__assert_func>

0000000000011518 <_Z23tiled_vector_div_scalarPsPKssm>:
   11518:	c159                	beqz	a0,1159e <_Z23tiled_vector_div_scalarPsPKssm+0x86>
   1151a:	02000793          	li	a5,32
   1151e:	832a                	mv	t1,a0
   11520:	06d7f263          	bgeu	a5,a3,11584 <_Z23tiled_vector_div_scalarPsPKssm+0x6c>
   11524:	01f6fe13          	andi	t3,a3,31
   11528:	0056d893          	srli	a7,a3,0x5
   1152c:	882e                	mv	a6,a1
   1152e:	872a                	mv	a4,a0
   11530:	4781                	li	a5,0
   11532:	02000513          	li	a0,32
   11536:	1805200b          	.insn	4, 0x1805200b
   1153a:	8542                	mv	a0,a6
   1153c:	1005208b          	.insn	4, 0x1005208b
   11540:	8532                	mv	a0,a2
   11542:	0c15210b          	.insn	4, 0x0c15210b
   11546:	853a                	mv	a0,a4
   11548:	1235200b          	.insn	4, 0x1235200b
   1154c:	0785                	addi	a5,a5,1
   1154e:	04080813          	addi	a6,a6,64
   11552:	04070713          	addi	a4,a4,64
   11556:	fcf89ee3          	bne	a7,a5,11532 <_Z23tiled_vector_div_scalarPsPKssm+0x1a>
   1155a:	000e1363          	bnez	t3,11560 <_Z23tiled_vector_div_scalarPsPKssm+0x48>
   1155e:	8082                	ret
   11560:	41c686b3          	sub	a3,a3,t3
   11564:	0686                	slli	a3,a3,0x1
   11566:	8572                	mv	a0,t3
   11568:	1805200b          	.insn	4, 0x1805200b
   1156c:	00d58533          	add	a0,a1,a3
   11570:	1005208b          	.insn	4, 0x1005208b
   11574:	8532                	mv	a0,a2
   11576:	0c15210b          	.insn	4, 0x0c15210b
   1157a:	00d30533          	add	a0,t1,a3
   1157e:	1235200b          	.insn	4, 0x1235200b
   11582:	8082                	ret
   11584:	8536                	mv	a0,a3
   11586:	1805200b          	.insn	4, 0x1805200b
   1158a:	852e                	mv	a0,a1
   1158c:	1005208b          	.insn	4, 0x1005208b
   11590:	8532                	mv	a0,a2
   11592:	0c15210b          	.insn	4, 0x0c15210b
   11596:	851a                	mv	a0,t1
   11598:	1235200b          	.insn	4, 0x1235200b
   1159c:	8082                	ret
   1159e:	00030537          	lui	a0,0x30
   115a2:	1101                	addi	sp,sp,-32
   115a4:	36050513          	addi	a0,a0,864 # 30360 <__clzdi2+0x8ae>
   115a8:	ec06                	sd	ra,24(sp)
   115aa:	e436                	sd	a3,8(sp)
   115ac:	0ef140ef          	jal	25e9a <puts>
   115b0:	65a2                	ld	a1,8(sp)
   115b2:	00030537          	lui	a0,0x30
   115b6:	e9850513          	addi	a0,a0,-360 # 2fe98 <__clzdi2+0x3e6>
   115ba:	704140ef          	jal	25cbe <printf>
   115be:	557d                	li	a0,-1
   115c0:	8f6ff0ef          	jal	106b6 <exit>

00000000000115c4 <_Z23tiled_matrix_div_scalarPsPKssmm>:
   115c4:	7139                	addi	sp,sp,-64
   115c6:	e852                	sd	s4,16(sp)
   115c8:	e456                	sd	s5,8(sp)
   115ca:	fc06                	sd	ra,56(sp)
   115cc:	8a36                	mv	s4,a3
   115ce:	8aba                	mv	s5,a4
   115d0:	c131                	beqz	a0,11614 <_Z23tiled_matrix_div_scalarPsPKssmm+0x50>
   115d2:	ce85                	beqz	a3,1160a <_Z23tiled_matrix_div_scalarPsPKssmm+0x46>
   115d4:	f822                	sd	s0,48(sp)
   115d6:	f426                	sd	s1,40(sp)
   115d8:	f04a                	sd	s2,32(sp)
   115da:	ec4e                	sd	s3,24(sp)
   115dc:	e05a                	sd	s6,0(sp)
   115de:	842a                	mv	s0,a0
   115e0:	8b32                	mv	s6,a2
   115e2:	84ae                	mv	s1,a1
   115e4:	00171993          	slli	s3,a4,0x1
   115e8:	4901                	li	s2,0
   115ea:	85a6                	mv	a1,s1
   115ec:	8522                	mv	a0,s0
   115ee:	86d6                	mv	a3,s5
   115f0:	865a                	mv	a2,s6
   115f2:	0905                	addi	s2,s2,1
   115f4:	f25ff0ef          	jal	11518 <_Z23tiled_vector_div_scalarPsPKssm>
   115f8:	944e                	add	s0,s0,s3
   115fa:	94ce                	add	s1,s1,s3
   115fc:	ff2a17e3          	bne	s4,s2,115ea <_Z23tiled_matrix_div_scalarPsPKssmm+0x26>
   11600:	7442                	ld	s0,48(sp)
   11602:	74a2                	ld	s1,40(sp)
   11604:	7902                	ld	s2,32(sp)
   11606:	69e2                	ld	s3,24(sp)
   11608:	6b02                	ld	s6,0(sp)
   1160a:	70e2                	ld	ra,56(sp)
   1160c:	6a42                	ld	s4,16(sp)
   1160e:	6aa2                	ld	s5,8(sp)
   11610:	6121                	addi	sp,sp,64
   11612:	8082                	ret
   11614:	00030537          	lui	a0,0x30
   11618:	3b850513          	addi	a0,a0,952 # 303b8 <__clzdi2+0x906>
   1161c:	f822                	sd	s0,48(sp)
   1161e:	f426                	sd	s1,40(sp)
   11620:	f04a                	sd	s2,32(sp)
   11622:	ec4e                	sd	s3,24(sp)
   11624:	e05a                	sd	s6,0(sp)
   11626:	075140ef          	jal	25e9a <puts>
   1162a:	00030537          	lui	a0,0x30
   1162e:	8656                	mv	a2,s5
   11630:	85d2                	mv	a1,s4
   11632:	f1050513          	addi	a0,a0,-240 # 2ff10 <__clzdi2+0x45e>
   11636:	688140ef          	jal	25cbe <printf>
   1163a:	557d                	li	a0,-1
   1163c:	87aff0ef          	jal	106b6 <exit>

0000000000011640 <_Z14fit_vector_maxPsPKsm>:
   11640:	02000793          	li	a5,32
   11644:	00c7ee63          	bltu	a5,a2,11660 <_Z14fit_vector_maxPsPKsm+0x20>
   11648:	872a                	mv	a4,a0
   1164a:	8532                	mv	a0,a2
   1164c:	1805200b          	.insn	4, 0x1805200b
   11650:	852e                	mv	a0,a1
   11652:	1005208b          	.insn	4, 0x1005208b
   11656:	1600c50b          	.insn	4, 0x1600c50b
   1165a:	00a71023          	sh	a0,0(a4)
   1165e:	8082                	ret
   11660:	000306b7          	lui	a3,0x30
   11664:	00030637          	lui	a2,0x30
   11668:	00030537          	lui	a0,0x30
   1166c:	1141                	addi	sp,sp,-16
   1166e:	dd068693          	addi	a3,a3,-560 # 2fdd0 <__clzdi2+0x31e>
   11672:	41060613          	addi	a2,a2,1040 # 30410 <__clzdi2+0x95e>
   11676:	44850513          	addi	a0,a0,1096 # 30448 <__clzdi2+0x996>
   1167a:	4599                	li	a1,6
   1167c:	e406                	sd	ra,8(sp)
   1167e:	445110ef          	jal	232c2 <__assert_func>

0000000000011682 <_Z16tiled_vector_maxPsPKsm>:
   11682:	c14d                	beqz	a0,11724 <_Z16tiled_vector_maxPsPKsm+0xa2>
   11684:	02000793          	li	a5,32
   11688:	8e2a                	mv	t3,a0
   1168a:	06c7fe63          	bgeu	a5,a2,11706 <_Z16tiled_vector_maxPsPKsm+0x84>
   1168e:	01f67e93          	andi	t4,a2,31
   11692:	00565313          	srli	t1,a2,0x5
   11696:	882e                	mv	a6,a1
   11698:	7761                	lui	a4,0xffff8
   1169a:	4681                	li	a3,0
   1169c:	02000513          	li	a0,32
   116a0:	1805200b          	.insn	4, 0x1805200b
   116a4:	8542                	mv	a0,a6
   116a6:	1005208b          	.insn	4, 0x1005208b
   116aa:	1600c50b          	.insn	4, 0x1600c50b
   116ae:	0105189b          	slliw	a7,a0,0x10
   116b2:	4108d89b          	sraiw	a7,a7,0x10
   116b6:	87aa                	mv	a5,a0
   116b8:	00e8d363          	bge	a7,a4,116be <_Z16tiled_vector_maxPsPKsm+0x3c>
   116bc:	87ba                	mv	a5,a4
   116be:	0107971b          	slliw	a4,a5,0x10
   116c2:	0685                	addi	a3,a3,1
   116c4:	04080813          	addi	a6,a6,64
   116c8:	4107571b          	sraiw	a4,a4,0x10
   116cc:	fcd318e3          	bne	t1,a3,1169c <_Z16tiled_vector_maxPsPKsm+0x1a>
   116d0:	000e9563          	bnez	t4,116da <_Z16tiled_vector_maxPsPKsm+0x58>
   116d4:	00ee1023          	sh	a4,0(t3)
   116d8:	8082                	ret
   116da:	41d60633          	sub	a2,a2,t4
   116de:	0606                	slli	a2,a2,0x1
   116e0:	8576                	mv	a0,t4
   116e2:	1805200b          	.insn	4, 0x1805200b
   116e6:	00c58533          	add	a0,a1,a2
   116ea:	1005208b          	.insn	4, 0x1005208b
   116ee:	1600c50b          	.insn	4, 0x1600c50b
   116f2:	0105169b          	slliw	a3,a0,0x10
   116f6:	4106d69b          	sraiw	a3,a3,0x10
   116fa:	02e6c263          	blt	a3,a4,1171e <_Z16tiled_vector_maxPsPKsm+0x9c>
   116fe:	872a                	mv	a4,a0
   11700:	00ee1023          	sh	a4,0(t3)
   11704:	8082                	ret
   11706:	8532                	mv	a0,a2
   11708:	1805200b          	.insn	4, 0x1805200b
   1170c:	852e                	mv	a0,a1
   1170e:	1005208b          	.insn	4, 0x1005208b
   11712:	1600c50b          	.insn	4, 0x1600c50b
   11716:	872a                	mv	a4,a0
   11718:	00ee1023          	sh	a4,0(t3)
   1171c:	8082                	ret
   1171e:	853e                	mv	a0,a5
   11720:	872a                	mv	a4,a0
   11722:	bff9                	j	11700 <_Z16tiled_vector_maxPsPKsm+0x7e>
   11724:	00030537          	lui	a0,0x30
   11728:	1141                	addi	sp,sp,-16
   1172a:	46050513          	addi	a0,a0,1120 # 30460 <__clzdi2+0x9ae>
   1172e:	e406                	sd	ra,8(sp)
   11730:	76a140ef          	jal	25e9a <puts>
   11734:	00030537          	lui	a0,0x30
   11738:	bb050513          	addi	a0,a0,-1104 # 2fbb0 <__clzdi2+0xfe>
   1173c:	75e140ef          	jal	25e9a <puts>
   11740:	557d                	li	a0,-1
   11742:	f75fe0ef          	jal	106b6 <exit>

0000000000011746 <_Z23tiled_matrix_vector_maxPsPKsmm>:
   11746:	7139                	addi	sp,sp,-64
   11748:	ec4e                	sd	s3,24(sp)
   1174a:	fc06                	sd	ra,56(sp)
   1174c:	89b2                	mv	s3,a2
   1174e:	c121                	beqz	a0,1178e <_Z23tiled_matrix_vector_maxPsPKsmm+0x48>
   11750:	ca1d                	beqz	a2,11786 <_Z23tiled_matrix_vector_maxPsPKsmm+0x40>
   11752:	f822                	sd	s0,48(sp)
   11754:	f426                	sd	s1,40(sp)
   11756:	f04a                	sd	s2,32(sp)
   11758:	e852                	sd	s4,16(sp)
   1175a:	e456                	sd	s5,8(sp)
   1175c:	8a36                	mv	s4,a3
   1175e:	842a                	mv	s0,a0
   11760:	84ae                	mv	s1,a1
   11762:	00169a93          	slli	s5,a3,0x1
   11766:	4901                	li	s2,0
   11768:	85a6                	mv	a1,s1
   1176a:	8522                	mv	a0,s0
   1176c:	8652                	mv	a2,s4
   1176e:	0905                	addi	s2,s2,1
   11770:	f13ff0ef          	jal	11682 <_Z16tiled_vector_maxPsPKsm>
   11774:	0409                	addi	s0,s0,2
   11776:	94d6                	add	s1,s1,s5
   11778:	ff2998e3          	bne	s3,s2,11768 <_Z23tiled_matrix_vector_maxPsPKsmm+0x22>
   1177c:	7442                	ld	s0,48(sp)
   1177e:	74a2                	ld	s1,40(sp)
   11780:	7902                	ld	s2,32(sp)
   11782:	6a42                	ld	s4,16(sp)
   11784:	6aa2                	ld	s5,8(sp)
   11786:	70e2                	ld	ra,56(sp)
   11788:	69e2                	ld	s3,24(sp)
   1178a:	6121                	addi	sp,sp,64
   1178c:	8082                	ret
   1178e:	00030537          	lui	a0,0x30
   11792:	4b050513          	addi	a0,a0,1200 # 304b0 <__clzdi2+0x9fe>
   11796:	f822                	sd	s0,48(sp)
   11798:	f426                	sd	s1,40(sp)
   1179a:	f04a                	sd	s2,32(sp)
   1179c:	e852                	sd	s4,16(sp)
   1179e:	e456                	sd	s5,8(sp)
   117a0:	6fa140ef          	jal	25e9a <puts>
   117a4:	00030537          	lui	a0,0x30
   117a8:	85ce                	mv	a1,s3
   117aa:	50850513          	addi	a0,a0,1288 # 30508 <__clzdi2+0xa56>
   117ae:	510140ef          	jal	25cbe <printf>
   117b2:	557d                	li	a0,-1
   117b4:	f03fe0ef          	jal	106b6 <exit>

00000000000117b8 <_Z14fit_vector_minPsPKsm>:
   117b8:	02000793          	li	a5,32
   117bc:	00c7ee63          	bltu	a5,a2,117d8 <_Z14fit_vector_minPsPKsm+0x20>
   117c0:	872a                	mv	a4,a0
   117c2:	8532                	mv	a0,a2
   117c4:	1805200b          	.insn	4, 0x1805200b
   117c8:	852e                	mv	a0,a1
   117ca:	1005208b          	.insn	4, 0x1005208b
   117ce:	1610c50b          	.insn	4, 0x1610c50b
   117d2:	00a71023          	sh	a0,0(a4) # ffffffffffff8000 <__BSS_END__+0xfffffffffffb20d8>
   117d6:	8082                	ret
   117d8:	000306b7          	lui	a3,0x30
   117dc:	00030637          	lui	a2,0x30
   117e0:	00030537          	lui	a0,0x30
   117e4:	1141                	addi	sp,sp,-16
   117e6:	dd068693          	addi	a3,a3,-560 # 2fdd0 <__clzdi2+0x31e>
   117ea:	52860613          	addi	a2,a2,1320 # 30528 <__clzdi2+0xa76>
   117ee:	44850513          	addi	a0,a0,1096 # 30448 <__clzdi2+0x996>
   117f2:	03400593          	li	a1,52
   117f6:	e406                	sd	ra,8(sp)
   117f8:	2cb110ef          	jal	232c2 <__assert_func>

00000000000117fc <_Z16tiled_vector_minPsPKsm>:
   117fc:	c155                	beqz	a0,118a0 <_Z16tiled_vector_minPsPKsm+0xa4>
   117fe:	02000793          	li	a5,32
   11802:	8e2a                	mv	t3,a0
   11804:	06c7ff63          	bgeu	a5,a2,11882 <_Z16tiled_vector_minPsPKsm+0x86>
   11808:	6721                	lui	a4,0x8
   1180a:	177d                	addi	a4,a4,-1 # 7fff <__cxa_bad_cast-0x8121>
   1180c:	01f67e93          	andi	t4,a2,31
   11810:	00565313          	srli	t1,a2,0x5
   11814:	882e                	mv	a6,a1
   11816:	4681                	li	a3,0
   11818:	02000513          	li	a0,32
   1181c:	1805200b          	.insn	4, 0x1805200b
   11820:	8542                	mv	a0,a6
   11822:	1005208b          	.insn	4, 0x1005208b
   11826:	1610c50b          	.insn	4, 0x1610c50b
   1182a:	0105189b          	slliw	a7,a0,0x10
   1182e:	4108d89b          	sraiw	a7,a7,0x10
   11832:	87aa                	mv	a5,a0
   11834:	01175363          	bge	a4,a7,1183a <_Z16tiled_vector_minPsPKsm+0x3e>
   11838:	87ba                	mv	a5,a4
   1183a:	0107971b          	slliw	a4,a5,0x10
   1183e:	0685                	addi	a3,a3,1
   11840:	04080813          	addi	a6,a6,64
   11844:	4107571b          	sraiw	a4,a4,0x10
   11848:	fcd318e3          	bne	t1,a3,11818 <_Z16tiled_vector_minPsPKsm+0x1c>
   1184c:	000e9563          	bnez	t4,11856 <_Z16tiled_vector_minPsPKsm+0x5a>
   11850:	00ee1023          	sh	a4,0(t3)
   11854:	8082                	ret
   11856:	41d60633          	sub	a2,a2,t4
   1185a:	0606                	slli	a2,a2,0x1
   1185c:	8576                	mv	a0,t4
   1185e:	1805200b          	.insn	4, 0x1805200b
   11862:	00c58533          	add	a0,a1,a2
   11866:	1005208b          	.insn	4, 0x1005208b
   1186a:	1610c50b          	.insn	4, 0x1610c50b
   1186e:	0105169b          	slliw	a3,a0,0x10
   11872:	4106d69b          	sraiw	a3,a3,0x10
   11876:	02d74263          	blt	a4,a3,1189a <_Z16tiled_vector_minPsPKsm+0x9e>
   1187a:	872a                	mv	a4,a0
   1187c:	00ee1023          	sh	a4,0(t3)
   11880:	8082                	ret
   11882:	8532                	mv	a0,a2
   11884:	1805200b          	.insn	4, 0x1805200b
   11888:	852e                	mv	a0,a1
   1188a:	1005208b          	.insn	4, 0x1005208b
   1188e:	1610c50b          	.insn	4, 0x1610c50b
   11892:	872a                	mv	a4,a0
   11894:	00ee1023          	sh	a4,0(t3)
   11898:	8082                	ret
   1189a:	853e                	mv	a0,a5
   1189c:	872a                	mv	a4,a0
   1189e:	bff9                	j	1187c <_Z16tiled_vector_minPsPKsm+0x80>
   118a0:	00030537          	lui	a0,0x30
   118a4:	1141                	addi	sp,sp,-16
   118a6:	56050513          	addi	a0,a0,1376 # 30560 <__clzdi2+0xaae>
   118aa:	e406                	sd	ra,8(sp)
   118ac:	5ee140ef          	jal	25e9a <puts>
   118b0:	00030537          	lui	a0,0x30
   118b4:	bb050513          	addi	a0,a0,-1104 # 2fbb0 <__clzdi2+0xfe>
   118b8:	5e2140ef          	jal	25e9a <puts>
   118bc:	557d                	li	a0,-1
   118be:	df9fe0ef          	jal	106b6 <exit>

00000000000118c2 <_Z23tiled_matrix_vector_minPsPKsmm>:
   118c2:	7139                	addi	sp,sp,-64
   118c4:	ec4e                	sd	s3,24(sp)
   118c6:	fc06                	sd	ra,56(sp)
   118c8:	89b2                	mv	s3,a2
   118ca:	c121                	beqz	a0,1190a <_Z23tiled_matrix_vector_minPsPKsmm+0x48>
   118cc:	ca1d                	beqz	a2,11902 <_Z23tiled_matrix_vector_minPsPKsmm+0x40>
   118ce:	f822                	sd	s0,48(sp)
   118d0:	f426                	sd	s1,40(sp)
   118d2:	f04a                	sd	s2,32(sp)
   118d4:	e852                	sd	s4,16(sp)
   118d6:	e456                	sd	s5,8(sp)
   118d8:	8a36                	mv	s4,a3
   118da:	842a                	mv	s0,a0
   118dc:	84ae                	mv	s1,a1
   118de:	00169a93          	slli	s5,a3,0x1
   118e2:	4901                	li	s2,0
   118e4:	85a6                	mv	a1,s1
   118e6:	8522                	mv	a0,s0
   118e8:	8652                	mv	a2,s4
   118ea:	0905                	addi	s2,s2,1
   118ec:	f11ff0ef          	jal	117fc <_Z16tiled_vector_minPsPKsm>
   118f0:	0409                	addi	s0,s0,2
   118f2:	94d6                	add	s1,s1,s5
   118f4:	ff2998e3          	bne	s3,s2,118e4 <_Z23tiled_matrix_vector_minPsPKsmm+0x22>
   118f8:	7442                	ld	s0,48(sp)
   118fa:	74a2                	ld	s1,40(sp)
   118fc:	7902                	ld	s2,32(sp)
   118fe:	6a42                	ld	s4,16(sp)
   11900:	6aa2                	ld	s5,8(sp)
   11902:	70e2                	ld	ra,56(sp)
   11904:	69e2                	ld	s3,24(sp)
   11906:	6121                	addi	sp,sp,64
   11908:	8082                	ret
   1190a:	00030537          	lui	a0,0x30
   1190e:	5b050513          	addi	a0,a0,1456 # 305b0 <__clzdi2+0xafe>
   11912:	f822                	sd	s0,48(sp)
   11914:	f426                	sd	s1,40(sp)
   11916:	f04a                	sd	s2,32(sp)
   11918:	e852                	sd	s4,16(sp)
   1191a:	e456                	sd	s5,8(sp)
   1191c:	57e140ef          	jal	25e9a <puts>
   11920:	00030537          	lui	a0,0x30
   11924:	85ce                	mv	a1,s3
   11926:	50850513          	addi	a0,a0,1288 # 30508 <__clzdi2+0xa56>
   1192a:	394140ef          	jal	25cbe <printf>
   1192e:	557d                	li	a0,-1
   11930:	d87fe0ef          	jal	106b6 <exit>

0000000000011934 <_Z18fit_vector_dropoutPsPKssm>:
   11934:	02000793          	li	a5,32
   11938:	02d7e163          	bltu	a5,a3,1195a <_Z18fit_vector_dropoutPsPKssm+0x26>
   1193c:	852e                	mv	a0,a1
   1193e:	1005258b          	.insn	4, 0x1005258b
   11942:	8536                	mv	a0,a3
   11944:	1805200b          	.insn	4, 0x1805200b
   11948:	45ad                	li	a1,11
   1194a:	18c5b08b          	.insn	4, 0x18c5b08b
   1194e:	0205858b          	.insn	4, 0x0205858b
   11952:	567d                	li	a2,-1
   11954:	18c5b08b          	.insn	4, 0x18c5b08b
   11958:	8082                	ret
   1195a:	000306b7          	lui	a3,0x30
   1195e:	00030637          	lui	a2,0x30
   11962:	00030537          	lui	a0,0x30
   11966:	1141                	addi	sp,sp,-16
   11968:	dd068693          	addi	a3,a3,-560 # 2fdd0 <__clzdi2+0x31e>
   1196c:	60860613          	addi	a2,a2,1544 # 30608 <__clzdi2+0xb56>
   11970:	44850513          	addi	a0,a0,1096 # 30448 <__clzdi2+0x996>
   11974:	06200593          	li	a1,98
   11978:	e406                	sd	ra,8(sp)
   1197a:	149110ef          	jal	232c2 <__assert_func>

000000000001197e <_Z13vector_argmaxPsPKsm>:
   1197e:	7139                	addi	sp,sp,-64
   11980:	f426                	sd	s1,40(sp)
   11982:	84aa                	mv	s1,a0
   11984:	01e10513          	addi	a0,sp,30
   11988:	f822                	sd	s0,48(sp)
   1198a:	e432                	sd	a2,8(sp)
   1198c:	fc06                	sd	ra,56(sp)
   1198e:	842e                	mv	s0,a1
   11990:	cf3ff0ef          	jal	11682 <_Z16tiled_vector_maxPsPKsm>
   11994:	6622                	ld	a2,8(sp)
   11996:	c60d                	beqz	a2,119c0 <_Z13vector_argmaxPsPKsm+0x42>
   11998:	01e11683          	lh	a3,30(sp)
   1199c:	85a2                	mv	a1,s0
   1199e:	4781                	li	a5,0
   119a0:	a021                	j	119a8 <_Z13vector_argmaxPsPKsm+0x2a>
   119a2:	0785                	addi	a5,a5,1
   119a4:	00f60763          	beq	a2,a5,119b2 <_Z13vector_argmaxPsPKsm+0x34>
   119a8:	00059703          	lh	a4,0(a1)
   119ac:	0589                	addi	a1,a1,2
   119ae:	fed71ae3          	bne	a4,a3,119a2 <_Z13vector_argmaxPsPKsm+0x24>
   119b2:	70e2                	ld	ra,56(sp)
   119b4:	7442                	ld	s0,48(sp)
   119b6:	00f49023          	sh	a5,0(s1)
   119ba:	74a2                	ld	s1,40(sp)
   119bc:	6121                	addi	sp,sp,64
   119be:	8082                	ret
   119c0:	4781                	li	a5,0
   119c2:	bfc5                	j	119b2 <_Z13vector_argmaxPsPKsm+0x34>

00000000000119c4 <_Z20matrix_vector_argmaxPsPKsmm>:
   119c4:	715d                	addi	sp,sp,-80
   119c6:	f052                	sd	s4,32(sp)
   119c8:	e486                	sd	ra,72(sp)
   119ca:	8a32                	mv	s4,a2
   119cc:	c935                	beqz	a0,11a40 <_Z20matrix_vector_argmaxPsPKsmm+0x7c>
   119ce:	ce21                	beqz	a2,11a26 <_Z20matrix_vector_argmaxPsPKsmm+0x62>
   119d0:	e0a2                	sd	s0,64(sp)
   119d2:	fc26                	sd	s1,56(sp)
   119d4:	f84a                	sd	s2,48(sp)
   119d6:	f44e                	sd	s3,40(sp)
   119d8:	ec56                	sd	s5,24(sp)
   119da:	8436                	mv	s0,a3
   119dc:	84ae                	mv	s1,a1
   119de:	892a                	mv	s2,a0
   119e0:	00169a93          	slli	s5,a3,0x1
   119e4:	4981                	li	s3,0
   119e6:	8622                	mv	a2,s0
   119e8:	85a6                	mv	a1,s1
   119ea:	00e10513          	addi	a0,sp,14
   119ee:	c95ff0ef          	jal	11682 <_Z16tiled_vector_maxPsPKsm>
   119f2:	cc15                	beqz	s0,11a2e <_Z20matrix_vector_argmaxPsPKsmm+0x6a>
   119f4:	00e11683          	lh	a3,14(sp)
   119f8:	8726                	mv	a4,s1
   119fa:	4781                	li	a5,0
   119fc:	a029                	j	11a06 <_Z20matrix_vector_argmaxPsPKsmm+0x42>
   119fe:	0785                	addi	a5,a5,1
   11a00:	0709                	addi	a4,a4,2
   11a02:	00f40663          	beq	s0,a5,11a0e <_Z20matrix_vector_argmaxPsPKsmm+0x4a>
   11a06:	00071803          	lh	a6,0(a4)
   11a0a:	fed81ae3          	bne	a6,a3,119fe <_Z20matrix_vector_argmaxPsPKsmm+0x3a>
   11a0e:	00f91023          	sh	a5,0(s2)
   11a12:	0985                	addi	s3,s3,1
   11a14:	94d6                	add	s1,s1,s5
   11a16:	0909                	addi	s2,s2,2
   11a18:	fd3a17e3          	bne	s4,s3,119e6 <_Z20matrix_vector_argmaxPsPKsmm+0x22>
   11a1c:	6406                	ld	s0,64(sp)
   11a1e:	74e2                	ld	s1,56(sp)
   11a20:	7942                	ld	s2,48(sp)
   11a22:	79a2                	ld	s3,40(sp)
   11a24:	6ae2                	ld	s5,24(sp)
   11a26:	60a6                	ld	ra,72(sp)
   11a28:	7a02                	ld	s4,32(sp)
   11a2a:	6161                	addi	sp,sp,80
   11a2c:	8082                	ret
   11a2e:	4781                	li	a5,0
   11a30:	00f91023          	sh	a5,0(s2)
   11a34:	0985                	addi	s3,s3,1
   11a36:	94d6                	add	s1,s1,s5
   11a38:	0909                	addi	s2,s2,2
   11a3a:	fb3a16e3          	bne	s4,s3,119e6 <_Z20matrix_vector_argmaxPsPKsmm+0x22>
   11a3e:	bff9                	j	11a1c <_Z20matrix_vector_argmaxPsPKsmm+0x58>
   11a40:	00030537          	lui	a0,0x30
   11a44:	64850513          	addi	a0,a0,1608 # 30648 <__clzdi2+0xb96>
   11a48:	e0a2                	sd	s0,64(sp)
   11a4a:	fc26                	sd	s1,56(sp)
   11a4c:	f84a                	sd	s2,48(sp)
   11a4e:	f44e                	sd	s3,40(sp)
   11a50:	ec56                	sd	s5,24(sp)
   11a52:	448140ef          	jal	25e9a <puts>
   11a56:	00030537          	lui	a0,0x30
   11a5a:	85d2                	mv	a1,s4
   11a5c:	50850513          	addi	a0,a0,1288 # 30508 <__clzdi2+0xa56>
   11a60:	25e140ef          	jal	25cbe <printf>
   11a64:	557d                	li	a0,-1
   11a66:	c51fe0ef          	jal	106b6 <exit>

0000000000011a6a <_Z12vector_shiftPsmm11direction_t>:
   11a6a:	c215                	beqz	a2,11a8e <_Z12vector_shiftPsmm11direction_t+0x24>
   11a6c:	c121                	beqz	a0,11aac <_Z12vector_shiftPsmm11direction_t+0x42>
   11a6e:	4785                	li	a5,1
   11a70:	02f68063          	beq	a3,a5,11a90 <_Z12vector_shiftPsmm11direction_t+0x26>
   11a74:	00159713          	slli	a4,a1,0x1
   11a78:	972a                	add	a4,a4,a0
   11a7a:	c985                	beqz	a1,11aaa <_Z12vector_shiftPsmm11direction_t+0x40>
   11a7c:	00051783          	lh	a5,0(a0)
   11a80:	0509                	addi	a0,a0,2
   11a82:	00c797bb          	sllw	a5,a5,a2
   11a86:	fef51f23          	sh	a5,-2(a0)
   11a8a:	fea719e3          	bne	a4,a0,11a7c <_Z12vector_shiftPsmm11direction_t+0x12>
   11a8e:	8082                	ret
   11a90:	ddfd                	beqz	a1,11a8e <_Z12vector_shiftPsmm11direction_t+0x24>
   11a92:	0586                	slli	a1,a1,0x1
   11a94:	95aa                	add	a1,a1,a0
   11a96:	00051783          	lh	a5,0(a0)
   11a9a:	0509                	addi	a0,a0,2
   11a9c:	40c7d7bb          	sraw	a5,a5,a2
   11aa0:	fef51f23          	sh	a5,-2(a0)
   11aa4:	fea599e3          	bne	a1,a0,11a96 <_Z12vector_shiftPsmm11direction_t+0x2c>
   11aa8:	8082                	ret
   11aaa:	8082                	ret
   11aac:	00030537          	lui	a0,0x30
   11ab0:	1101                	addi	sp,sp,-32
   11ab2:	6a050513          	addi	a0,a0,1696 # 306a0 <__clzdi2+0xbee>
   11ab6:	ec06                	sd	ra,24(sp)
   11ab8:	e42e                	sd	a1,8(sp)
   11aba:	3e0140ef          	jal	25e9a <puts>
   11abe:	65a2                	ld	a1,8(sp)
   11ac0:	00030537          	lui	a0,0x30
   11ac4:	6f050513          	addi	a0,a0,1776 # 306f0 <__clzdi2+0xc3e>
   11ac8:	1f6140ef          	jal	25cbe <printf>
   11acc:	557d                	li	a0,-1
   11ace:	be9fe0ef          	jal	106b6 <exit>

0000000000011ad2 <_Z13mat_transposePsPKsmm>:
   11ad2:	cd15                	beqz	a0,11b0e <_Z13mat_transposePsPKsmm+0x3c>
   11ad4:	c611                	beqz	a2,11ae0 <_Z13mat_transposePsPKsmm+0xe>
   11ad6:	4881                	li	a7,0
   11ad8:	e689                	bnez	a3,11ae2 <_Z13mat_transposePsPKsmm+0x10>
   11ada:	0885                	addi	a7,a7,1
   11adc:	ff161fe3          	bne	a2,a7,11ada <_Z13mat_transposePsPKsmm+0x8>
   11ae0:	8082                	ret
   11ae2:	00169313          	slli	t1,a3,0x1
   11ae6:	959a                	add	a1,a1,t1
   11ae8:	00161813          	slli	a6,a2,0x1
   11aec:	406587b3          	sub	a5,a1,t1
   11af0:	872a                	mv	a4,a0
   11af2:	00079683          	lh	a3,0(a5)
   11af6:	0789                	addi	a5,a5,2
   11af8:	00d71023          	sh	a3,0(a4)
   11afc:	9742                	add	a4,a4,a6
   11afe:	fef59ae3          	bne	a1,a5,11af2 <_Z13mat_transposePsPKsmm+0x20>
   11b02:	0885                	addi	a7,a7,1
   11b04:	0509                	addi	a0,a0,2
   11b06:	959a                	add	a1,a1,t1
   11b08:	ff1612e3          	bne	a2,a7,11aec <_Z13mat_transposePsPKsmm+0x1a>
   11b0c:	8082                	ret
   11b0e:	00030537          	lui	a0,0x30
   11b12:	1101                	addi	sp,sp,-32
   11b14:	71050513          	addi	a0,a0,1808 # 30710 <__clzdi2+0xc5e>
   11b18:	ec06                	sd	ra,24(sp)
   11b1a:	e436                	sd	a3,8(sp)
   11b1c:	e032                	sd	a2,0(sp)
   11b1e:	37c140ef          	jal	25e9a <puts>
   11b22:	6602                	ld	a2,0(sp)
   11b24:	65a2                	ld	a1,8(sp)
   11b26:	00030537          	lui	a0,0x30
   11b2a:	76050513          	addi	a0,a0,1888 # 30760 <__clzdi2+0xcae>
   11b2e:	190140ef          	jal	25cbe <printf>
   11b32:	557d                	li	a0,-1
   11b34:	b83fe0ef          	jal	106b6 <exit>

0000000000011b38 <_Z15fit_vector_reluPsPKsm>:
   11b38:	02000793          	li	a5,32
   11b3c:	00c7ef63          	bltu	a5,a2,11b5a <_Z15fit_vector_reluPsPKsm+0x22>
   11b40:	872a                	mv	a4,a0
   11b42:	8532                	mv	a0,a2
   11b44:	1805200b          	.insn	4, 0x1805200b
   11b48:	852e                	mv	a0,a1
   11b4a:	1005208b          	.insn	4, 0x1005208b
   11b4e:	0e00810b          	.insn	4, 0x0e00810b
   11b52:	853a                	mv	a0,a4
   11b54:	1225200b          	.insn	4, 0x1225200b
   11b58:	8082                	ret
   11b5a:	000306b7          	lui	a3,0x30
   11b5e:	00030637          	lui	a2,0x30
   11b62:	00030537          	lui	a0,0x30
   11b66:	1141                	addi	sp,sp,-16
   11b68:	dd068693          	addi	a3,a3,-560 # 2fdd0 <__clzdi2+0x31e>
   11b6c:	78860613          	addi	a2,a2,1928 # 30788 <__clzdi2+0xcd6>
   11b70:	7c050513          	addi	a0,a0,1984 # 307c0 <__clzdi2+0xd0e>
   11b74:	4599                	li	a1,6
   11b76:	e406                	sd	ra,8(sp)
   11b78:	74a110ef          	jal	232c2 <__assert_func>

0000000000011b7c <_Z17tiled_vector_reluPsPKsm>:
   11b7c:	c141                	beqz	a0,11bfc <_Z17tiled_vector_reluPsPKsm+0x80>
   11b7e:	02000793          	li	a5,32
   11b82:	88aa                	mv	a7,a0
   11b84:	06c7f063          	bgeu	a5,a2,11be4 <_Z17tiled_vector_reluPsPKsm+0x68>
   11b88:	01f67313          	andi	t1,a2,31
   11b8c:	00565813          	srli	a6,a2,0x5
   11b90:	86ae                	mv	a3,a1
   11b92:	872a                	mv	a4,a0
   11b94:	4781                	li	a5,0
   11b96:	02000513          	li	a0,32
   11b9a:	1805200b          	.insn	4, 0x1805200b
   11b9e:	8536                	mv	a0,a3
   11ba0:	1005208b          	.insn	4, 0x1005208b
   11ba4:	0e00810b          	.insn	4, 0x0e00810b
   11ba8:	853a                	mv	a0,a4
   11baa:	1225200b          	.insn	4, 0x1225200b
   11bae:	0785                	addi	a5,a5,1
   11bb0:	04068693          	addi	a3,a3,64
   11bb4:	04070713          	addi	a4,a4,64
   11bb8:	fcf81fe3          	bne	a6,a5,11b96 <_Z17tiled_vector_reluPsPKsm+0x1a>
   11bbc:	00031363          	bnez	t1,11bc2 <_Z17tiled_vector_reluPsPKsm+0x46>
   11bc0:	8082                	ret
   11bc2:	40660633          	sub	a2,a2,t1
   11bc6:	0606                	slli	a2,a2,0x1
   11bc8:	851a                	mv	a0,t1
   11bca:	1805200b          	.insn	4, 0x1805200b
   11bce:	00c58533          	add	a0,a1,a2
   11bd2:	1005208b          	.insn	4, 0x1005208b
   11bd6:	0e00810b          	.insn	4, 0x0e00810b
   11bda:	00c88533          	add	a0,a7,a2
   11bde:	1225200b          	.insn	4, 0x1225200b
   11be2:	8082                	ret
   11be4:	8532                	mv	a0,a2
   11be6:	1805200b          	.insn	4, 0x1805200b
   11bea:	852e                	mv	a0,a1
   11bec:	1005208b          	.insn	4, 0x1005208b
   11bf0:	0e00810b          	.insn	4, 0x0e00810b
   11bf4:	8546                	mv	a0,a7
   11bf6:	1225200b          	.insn	4, 0x1225200b
   11bfa:	8082                	ret
   11bfc:	00030537          	lui	a0,0x30
   11c00:	1101                	addi	sp,sp,-32
   11c02:	7d850513          	addi	a0,a0,2008 # 307d8 <__clzdi2+0xd26>
   11c06:	ec06                	sd	ra,24(sp)
   11c08:	e432                	sd	a2,8(sp)
   11c0a:	290140ef          	jal	25e9a <puts>
   11c0e:	65a2                	ld	a1,8(sp)
   11c10:	00030537          	lui	a0,0x30
   11c14:	e9850513          	addi	a0,a0,-360 # 2fe98 <__clzdi2+0x3e6>
   11c18:	0a6140ef          	jal	25cbe <printf>
   11c1c:	557d                	li	a0,-1
   11c1e:	a99fe0ef          	jal	106b6 <exit>

0000000000011c22 <_Z17tiled_matrix_reluPsPKsmm>:
   11c22:	7139                	addi	sp,sp,-64
   11c24:	e852                	sd	s4,16(sp)
   11c26:	e456                	sd	s5,8(sp)
   11c28:	fc06                	sd	ra,56(sp)
   11c2a:	8a32                	mv	s4,a2
   11c2c:	8ab6                	mv	s5,a3
   11c2e:	cd15                	beqz	a0,11c6a <_Z17tiled_matrix_reluPsPKsmm+0x48>
   11c30:	ca05                	beqz	a2,11c60 <_Z17tiled_matrix_reluPsPKsmm+0x3e>
   11c32:	f822                	sd	s0,48(sp)
   11c34:	f426                	sd	s1,40(sp)
   11c36:	f04a                	sd	s2,32(sp)
   11c38:	ec4e                	sd	s3,24(sp)
   11c3a:	842a                	mv	s0,a0
   11c3c:	84ae                	mv	s1,a1
   11c3e:	00169993          	slli	s3,a3,0x1
   11c42:	4901                	li	s2,0
   11c44:	85a6                	mv	a1,s1
   11c46:	8522                	mv	a0,s0
   11c48:	8656                	mv	a2,s5
   11c4a:	0905                	addi	s2,s2,1
   11c4c:	f31ff0ef          	jal	11b7c <_Z17tiled_vector_reluPsPKsm>
   11c50:	944e                	add	s0,s0,s3
   11c52:	94ce                	add	s1,s1,s3
   11c54:	ff2a18e3          	bne	s4,s2,11c44 <_Z17tiled_matrix_reluPsPKsmm+0x22>
   11c58:	7442                	ld	s0,48(sp)
   11c5a:	74a2                	ld	s1,40(sp)
   11c5c:	7902                	ld	s2,32(sp)
   11c5e:	69e2                	ld	s3,24(sp)
   11c60:	70e2                	ld	ra,56(sp)
   11c62:	6a42                	ld	s4,16(sp)
   11c64:	6aa2                	ld	s5,8(sp)
   11c66:	6121                	addi	sp,sp,64
   11c68:	8082                	ret
   11c6a:	00031537          	lui	a0,0x31
   11c6e:	83050513          	addi	a0,a0,-2000 # 30830 <__clzdi2+0xd7e>
   11c72:	f822                	sd	s0,48(sp)
   11c74:	f426                	sd	s1,40(sp)
   11c76:	f04a                	sd	s2,32(sp)
   11c78:	ec4e                	sd	s3,24(sp)
   11c7a:	220140ef          	jal	25e9a <puts>
   11c7e:	00031537          	lui	a0,0x31
   11c82:	8656                	mv	a2,s5
   11c84:	85d2                	mv	a1,s4
   11c86:	88850513          	addi	a0,a0,-1912 # 30888 <__clzdi2+0xdd6>
   11c8a:	034140ef          	jal	25cbe <printf>
   11c8e:	557d                	li	a0,-1
   11c90:	a27fe0ef          	jal	106b6 <exit>

0000000000011c94 <_Z15fit_vector_tanhPsPKsm>:
   11c94:	02000793          	li	a5,32
   11c98:	00c7ef63          	bltu	a5,a2,11cb6 <_Z15fit_vector_tanhPsPKsm+0x22>
   11c9c:	872a                	mv	a4,a0
   11c9e:	8532                	mv	a0,a2
   11ca0:	1805200b          	.insn	4, 0x1805200b
   11ca4:	852e                	mv	a0,a1
   11ca6:	1005208b          	.insn	4, 0x1005208b
   11caa:	0e10810b          	.insn	4, 0x0e10810b
   11cae:	853a                	mv	a0,a4
   11cb0:	1225200b          	.insn	4, 0x1225200b
   11cb4:	8082                	ret
   11cb6:	000306b7          	lui	a3,0x30
   11cba:	00031637          	lui	a2,0x31
   11cbe:	00030537          	lui	a0,0x30
   11cc2:	1141                	addi	sp,sp,-16
   11cc4:	dd068693          	addi	a3,a3,-560 # 2fdd0 <__clzdi2+0x31e>
   11cc8:	8b860613          	addi	a2,a2,-1864 # 308b8 <__clzdi2+0xe06>
   11ccc:	7c050513          	addi	a0,a0,1984 # 307c0 <__clzdi2+0xd0e>
   11cd0:	03100593          	li	a1,49
   11cd4:	e406                	sd	ra,8(sp)
   11cd6:	5ec110ef          	jal	232c2 <__assert_func>

0000000000011cda <_Z17tiled_vector_tanhPsPKsm>:
   11cda:	c141                	beqz	a0,11d5a <_Z17tiled_vector_tanhPsPKsm+0x80>
   11cdc:	02000793          	li	a5,32
   11ce0:	88aa                	mv	a7,a0
   11ce2:	06c7f063          	bgeu	a5,a2,11d42 <_Z17tiled_vector_tanhPsPKsm+0x68>
   11ce6:	01f67313          	andi	t1,a2,31
   11cea:	00565813          	srli	a6,a2,0x5
   11cee:	86ae                	mv	a3,a1
   11cf0:	872a                	mv	a4,a0
   11cf2:	4781                	li	a5,0
   11cf4:	02000513          	li	a0,32
   11cf8:	1805200b          	.insn	4, 0x1805200b
   11cfc:	8536                	mv	a0,a3
   11cfe:	1005208b          	.insn	4, 0x1005208b
   11d02:	0e10810b          	.insn	4, 0x0e10810b
   11d06:	853a                	mv	a0,a4
   11d08:	1225200b          	.insn	4, 0x1225200b
   11d0c:	0785                	addi	a5,a5,1
   11d0e:	04068693          	addi	a3,a3,64
   11d12:	04070713          	addi	a4,a4,64
   11d16:	fcf81fe3          	bne	a6,a5,11cf4 <_Z17tiled_vector_tanhPsPKsm+0x1a>
   11d1a:	00031363          	bnez	t1,11d20 <_Z17tiled_vector_tanhPsPKsm+0x46>
   11d1e:	8082                	ret
   11d20:	40660633          	sub	a2,a2,t1
   11d24:	0606                	slli	a2,a2,0x1
   11d26:	851a                	mv	a0,t1
   11d28:	1805200b          	.insn	4, 0x1805200b
   11d2c:	00c58533          	add	a0,a1,a2
   11d30:	1005208b          	.insn	4, 0x1005208b
   11d34:	0e10810b          	.insn	4, 0x0e10810b
   11d38:	00c88533          	add	a0,a7,a2
   11d3c:	1225200b          	.insn	4, 0x1225200b
   11d40:	8082                	ret
   11d42:	8532                	mv	a0,a2
   11d44:	1805200b          	.insn	4, 0x1805200b
   11d48:	852e                	mv	a0,a1
   11d4a:	1005208b          	.insn	4, 0x1005208b
   11d4e:	0e10810b          	.insn	4, 0x0e10810b
   11d52:	8546                	mv	a0,a7
   11d54:	1225200b          	.insn	4, 0x1225200b
   11d58:	8082                	ret
   11d5a:	00031537          	lui	a0,0x31
   11d5e:	1101                	addi	sp,sp,-32
   11d60:	8f050513          	addi	a0,a0,-1808 # 308f0 <__clzdi2+0xe3e>
   11d64:	ec06                	sd	ra,24(sp)
   11d66:	e432                	sd	a2,8(sp)
   11d68:	132140ef          	jal	25e9a <puts>
   11d6c:	65a2                	ld	a1,8(sp)
   11d6e:	00030537          	lui	a0,0x30
   11d72:	e9850513          	addi	a0,a0,-360 # 2fe98 <__clzdi2+0x3e6>
   11d76:	749130ef          	jal	25cbe <printf>
   11d7a:	557d                	li	a0,-1
   11d7c:	93bfe0ef          	jal	106b6 <exit>

0000000000011d80 <_Z17tiled_matrix_tanhPsPKsmm>:
   11d80:	7139                	addi	sp,sp,-64
   11d82:	e852                	sd	s4,16(sp)
   11d84:	e456                	sd	s5,8(sp)
   11d86:	fc06                	sd	ra,56(sp)
   11d88:	8a32                	mv	s4,a2
   11d8a:	8ab6                	mv	s5,a3
   11d8c:	cd15                	beqz	a0,11dc8 <_Z17tiled_matrix_tanhPsPKsmm+0x48>
   11d8e:	ca05                	beqz	a2,11dbe <_Z17tiled_matrix_tanhPsPKsmm+0x3e>
   11d90:	f822                	sd	s0,48(sp)
   11d92:	f426                	sd	s1,40(sp)
   11d94:	f04a                	sd	s2,32(sp)
   11d96:	ec4e                	sd	s3,24(sp)
   11d98:	842a                	mv	s0,a0
   11d9a:	84ae                	mv	s1,a1
   11d9c:	00169993          	slli	s3,a3,0x1
   11da0:	4901                	li	s2,0
   11da2:	85a6                	mv	a1,s1
   11da4:	8522                	mv	a0,s0
   11da6:	8656                	mv	a2,s5
   11da8:	0905                	addi	s2,s2,1
   11daa:	f31ff0ef          	jal	11cda <_Z17tiled_vector_tanhPsPKsm>
   11dae:	944e                	add	s0,s0,s3
   11db0:	94ce                	add	s1,s1,s3
   11db2:	ff2a18e3          	bne	s4,s2,11da2 <_Z17tiled_matrix_tanhPsPKsmm+0x22>
   11db6:	7442                	ld	s0,48(sp)
   11db8:	74a2                	ld	s1,40(sp)
   11dba:	7902                	ld	s2,32(sp)
   11dbc:	69e2                	ld	s3,24(sp)
   11dbe:	70e2                	ld	ra,56(sp)
   11dc0:	6a42                	ld	s4,16(sp)
   11dc2:	6aa2                	ld	s5,8(sp)
   11dc4:	6121                	addi	sp,sp,64
   11dc6:	8082                	ret
   11dc8:	00031537          	lui	a0,0x31
   11dcc:	94850513          	addi	a0,a0,-1720 # 30948 <__clzdi2+0xe96>
   11dd0:	f822                	sd	s0,48(sp)
   11dd2:	f426                	sd	s1,40(sp)
   11dd4:	f04a                	sd	s2,32(sp)
   11dd6:	ec4e                	sd	s3,24(sp)
   11dd8:	0c2140ef          	jal	25e9a <puts>
   11ddc:	00031537          	lui	a0,0x31
   11de0:	8656                	mv	a2,s5
   11de2:	85d2                	mv	a1,s4
   11de4:	88850513          	addi	a0,a0,-1912 # 30888 <__clzdi2+0xdd6>
   11de8:	6d7130ef          	jal	25cbe <printf>
   11dec:	557d                	li	a0,-1
   11dee:	8c9fe0ef          	jal	106b6 <exit>

0000000000011df2 <_Z18fit_vector_sigmoidPsPKsm>:
   11df2:	02000793          	li	a5,32
   11df6:	00c7ef63          	bltu	a5,a2,11e14 <_Z18fit_vector_sigmoidPsPKsm+0x22>
   11dfa:	872a                	mv	a4,a0
   11dfc:	8532                	mv	a0,a2
   11dfe:	1805200b          	.insn	4, 0x1805200b
   11e02:	852e                	mv	a0,a1
   11e04:	1005208b          	.insn	4, 0x1005208b
   11e08:	0e20810b          	.insn	4, 0x0e20810b
   11e0c:	853a                	mv	a0,a4
   11e0e:	1225200b          	.insn	4, 0x1225200b
   11e12:	8082                	ret
   11e14:	000306b7          	lui	a3,0x30
   11e18:	00031637          	lui	a2,0x31
   11e1c:	00030537          	lui	a0,0x30
   11e20:	1141                	addi	sp,sp,-16
   11e22:	dd068693          	addi	a3,a3,-560 # 2fdd0 <__clzdi2+0x31e>
   11e26:	9a060613          	addi	a2,a2,-1632 # 309a0 <__clzdi2+0xeee>
   11e2a:	7c050513          	addi	a0,a0,1984 # 307c0 <__clzdi2+0xd0e>
   11e2e:	05c00593          	li	a1,92
   11e32:	e406                	sd	ra,8(sp)
   11e34:	48e110ef          	jal	232c2 <__assert_func>

0000000000011e38 <_Z20tiled_vector_sigmoidPsPKsm>:
   11e38:	c141                	beqz	a0,11eb8 <_Z20tiled_vector_sigmoidPsPKsm+0x80>
   11e3a:	02000793          	li	a5,32
   11e3e:	88aa                	mv	a7,a0
   11e40:	06c7f063          	bgeu	a5,a2,11ea0 <_Z20tiled_vector_sigmoidPsPKsm+0x68>
   11e44:	01f67313          	andi	t1,a2,31
   11e48:	00565813          	srli	a6,a2,0x5
   11e4c:	86ae                	mv	a3,a1
   11e4e:	872a                	mv	a4,a0
   11e50:	4781                	li	a5,0
   11e52:	02000513          	li	a0,32
   11e56:	1805200b          	.insn	4, 0x1805200b
   11e5a:	8536                	mv	a0,a3
   11e5c:	1005208b          	.insn	4, 0x1005208b
   11e60:	0e20810b          	.insn	4, 0x0e20810b
   11e64:	853a                	mv	a0,a4
   11e66:	1225200b          	.insn	4, 0x1225200b
   11e6a:	0785                	addi	a5,a5,1
   11e6c:	04068693          	addi	a3,a3,64
   11e70:	04070713          	addi	a4,a4,64
   11e74:	fcf81fe3          	bne	a6,a5,11e52 <_Z20tiled_vector_sigmoidPsPKsm+0x1a>
   11e78:	00031363          	bnez	t1,11e7e <_Z20tiled_vector_sigmoidPsPKsm+0x46>
   11e7c:	8082                	ret
   11e7e:	40660633          	sub	a2,a2,t1
   11e82:	0606                	slli	a2,a2,0x1
   11e84:	851a                	mv	a0,t1
   11e86:	1805200b          	.insn	4, 0x1805200b
   11e8a:	00c58533          	add	a0,a1,a2
   11e8e:	1005208b          	.insn	4, 0x1005208b
   11e92:	0e20810b          	.insn	4, 0x0e20810b
   11e96:	00c88533          	add	a0,a7,a2
   11e9a:	1225200b          	.insn	4, 0x1225200b
   11e9e:	8082                	ret
   11ea0:	8532                	mv	a0,a2
   11ea2:	1805200b          	.insn	4, 0x1805200b
   11ea6:	852e                	mv	a0,a1
   11ea8:	1005208b          	.insn	4, 0x1005208b
   11eac:	0e20810b          	.insn	4, 0x0e20810b
   11eb0:	8546                	mv	a0,a7
   11eb2:	1225200b          	.insn	4, 0x1225200b
   11eb6:	8082                	ret
   11eb8:	00031537          	lui	a0,0x31
   11ebc:	1101                	addi	sp,sp,-32
   11ebe:	9d850513          	addi	a0,a0,-1576 # 309d8 <__clzdi2+0xf26>
   11ec2:	ec06                	sd	ra,24(sp)
   11ec4:	e432                	sd	a2,8(sp)
   11ec6:	7d5130ef          	jal	25e9a <puts>
   11eca:	65a2                	ld	a1,8(sp)
   11ecc:	00030537          	lui	a0,0x30
   11ed0:	e9850513          	addi	a0,a0,-360 # 2fe98 <__clzdi2+0x3e6>
   11ed4:	5eb130ef          	jal	25cbe <printf>
   11ed8:	557d                	li	a0,-1
   11eda:	fdcfe0ef          	jal	106b6 <exit>

0000000000011ede <_Z20tiled_matrix_sigmoidPsPKsmm>:
   11ede:	7139                	addi	sp,sp,-64
   11ee0:	e852                	sd	s4,16(sp)
   11ee2:	e456                	sd	s5,8(sp)
   11ee4:	fc06                	sd	ra,56(sp)
   11ee6:	8a32                	mv	s4,a2
   11ee8:	8ab6                	mv	s5,a3
   11eea:	cd15                	beqz	a0,11f26 <_Z20tiled_matrix_sigmoidPsPKsmm+0x48>
   11eec:	ca05                	beqz	a2,11f1c <_Z20tiled_matrix_sigmoidPsPKsmm+0x3e>
   11eee:	f822                	sd	s0,48(sp)
   11ef0:	f426                	sd	s1,40(sp)
   11ef2:	f04a                	sd	s2,32(sp)
   11ef4:	ec4e                	sd	s3,24(sp)
   11ef6:	842a                	mv	s0,a0
   11ef8:	84ae                	mv	s1,a1
   11efa:	00169993          	slli	s3,a3,0x1
   11efe:	4901                	li	s2,0
   11f00:	85a6                	mv	a1,s1
   11f02:	8522                	mv	a0,s0
   11f04:	8656                	mv	a2,s5
   11f06:	0905                	addi	s2,s2,1
   11f08:	f31ff0ef          	jal	11e38 <_Z20tiled_vector_sigmoidPsPKsm>
   11f0c:	944e                	add	s0,s0,s3
   11f0e:	94ce                	add	s1,s1,s3
   11f10:	ff2a18e3          	bne	s4,s2,11f00 <_Z20tiled_matrix_sigmoidPsPKsmm+0x22>
   11f14:	7442                	ld	s0,48(sp)
   11f16:	74a2                	ld	s1,40(sp)
   11f18:	7902                	ld	s2,32(sp)
   11f1a:	69e2                	ld	s3,24(sp)
   11f1c:	70e2                	ld	ra,56(sp)
   11f1e:	6a42                	ld	s4,16(sp)
   11f20:	6aa2                	ld	s5,8(sp)
   11f22:	6121                	addi	sp,sp,64
   11f24:	8082                	ret
   11f26:	00031537          	lui	a0,0x31
   11f2a:	a3050513          	addi	a0,a0,-1488 # 30a30 <__clzdi2+0xf7e>
   11f2e:	f822                	sd	s0,48(sp)
   11f30:	f426                	sd	s1,40(sp)
   11f32:	f04a                	sd	s2,32(sp)
   11f34:	ec4e                	sd	s3,24(sp)
   11f36:	765130ef          	jal	25e9a <puts>
   11f3a:	00031537          	lui	a0,0x31
   11f3e:	8656                	mv	a2,s5
   11f40:	85d2                	mv	a1,s4
   11f42:	88850513          	addi	a0,a0,-1912 # 30888 <__clzdi2+0xdd6>
   11f46:	579130ef          	jal	25cbe <printf>
   11f4a:	557d                	li	a0,-1
   11f4c:	f6afe0ef          	jal	106b6 <exit>

0000000000011f50 <_Z11fit_dotprodPsPKsS1_m>:
   11f50:	47a1                	li	a5,8
   11f52:	02d7e163          	bltu	a5,a3,11f74 <_Z11fit_dotprodPsPKsS1_m+0x24>
   11f56:	872a                	mv	a4,a0
   11f58:	8536                	mv	a0,a3
   11f5a:	1805200b          	.insn	4, 0x1805200b
   11f5e:	852e                	mv	a0,a1
   11f60:	1005208b          	.insn	4, 0x1005208b
   11f64:	8532                	mv	a0,a2
   11f66:	1005210b          	.insn	4, 0x1005210b
   11f6a:	1a20c50b          	.insn	4, 0x1a20c50b
   11f6e:	00a71023          	sh	a0,0(a4)
   11f72:	8082                	ret
   11f74:	000316b7          	lui	a3,0x31
   11f78:	00031637          	lui	a2,0x31
   11f7c:	00031537          	lui	a0,0x31
   11f80:	1141                	addi	sp,sp,-16
   11f82:	a8868693          	addi	a3,a3,-1400 # 30a88 <__clzdi2+0xfd6>
   11f86:	aa060613          	addi	a2,a2,-1376 # 30aa0 <__clzdi2+0xfee>
   11f8a:	ae050513          	addi	a0,a0,-1312 # 30ae0 <__clzdi2+0x102e>
   11f8e:	4591                	li	a1,4
   11f90:	e406                	sd	ra,8(sp)
   11f92:	330110ef          	jal	232c2 <__assert_func>

0000000000011f96 <_Z13tiled_dotprodPsPKsS1_m>:
   11f96:	47a1                	li	a5,8
   11f98:	8eaa                	mv	t4,a0
   11f9a:	06d7fa63          	bgeu	a5,a3,1200e <_Z13tiled_dotprodPsPKsS1_m+0x78>
   11f9e:	0076ff13          	andi	t5,a3,7
   11fa2:	0036de13          	srli	t3,a3,0x3
   11fa6:	88ae                	mv	a7,a1
   11fa8:	8832                	mv	a6,a2
   11faa:	4301                	li	t1,0
   11fac:	4701                	li	a4,0
   11fae:	4521                	li	a0,8
   11fb0:	1805200b          	.insn	4, 0x1805200b
   11fb4:	8546                	mv	a0,a7
   11fb6:	1005208b          	.insn	4, 0x1005208b
   11fba:	8542                	mv	a0,a6
   11fbc:	1005210b          	.insn	4, 0x1005210b
   11fc0:	1a20c50b          	.insn	4, 0x1a20c50b
   11fc4:	00a307bb          	addw	a5,t1,a0
   11fc8:	0107931b          	slliw	t1,a5,0x10
   11fcc:	0705                	addi	a4,a4,1
   11fce:	08c1                	addi	a7,a7,16
   11fd0:	0841                	addi	a6,a6,16
   11fd2:	4103531b          	sraiw	t1,t1,0x10
   11fd6:	fcee1ce3          	bne	t3,a4,11fae <_Z13tiled_dotprodPsPKsS1_m+0x18>
   11fda:	000f1563          	bnez	t5,11fe4 <_Z13tiled_dotprodPsPKsS1_m+0x4e>
   11fde:	006e9023          	sh	t1,0(t4)
   11fe2:	8082                	ret
   11fe4:	41e686b3          	sub	a3,a3,t5
   11fe8:	0686                	slli	a3,a3,0x1
   11fea:	857a                	mv	a0,t5
   11fec:	1805200b          	.insn	4, 0x1805200b
   11ff0:	00d58533          	add	a0,a1,a3
   11ff4:	1005208b          	.insn	4, 0x1005208b
   11ff8:	00d60533          	add	a0,a2,a3
   11ffc:	1005210b          	.insn	4, 0x1005210b
   12000:	1a20c50b          	.insn	4, 0x1a20c50b
   12004:	00f5033b          	addw	t1,a0,a5
   12008:	006e9023          	sh	t1,0(t4)
   1200c:	8082                	ret
   1200e:	8536                	mv	a0,a3
   12010:	1805200b          	.insn	4, 0x1805200b
   12014:	852e                	mv	a0,a1
   12016:	1005208b          	.insn	4, 0x1005208b
   1201a:	8532                	mv	a0,a2
   1201c:	1005210b          	.insn	4, 0x1005210b
   12020:	1a20c50b          	.insn	4, 0x1a20c50b
   12024:	832a                	mv	t1,a0
   12026:	006e9023          	sh	t1,0(t4)
   1202a:	8082                	ret

000000000001202c <_Z9tiled_mvmPsPKsS1_mm>:
   1202c:	7139                	addi	sp,sp,-64
   1202e:	ec4e                	sd	s3,24(sp)
   12030:	fc06                	sd	ra,56(sp)
   12032:	89b6                	mv	s3,a3
   12034:	c521                	beqz	a0,1207c <_Z9tiled_mvmPsPKsS1_mm+0x50>
   12036:	ce9d                	beqz	a3,12074 <_Z9tiled_mvmPsPKsS1_mm+0x48>
   12038:	f822                	sd	s0,48(sp)
   1203a:	f426                	sd	s1,40(sp)
   1203c:	f04a                	sd	s2,32(sp)
   1203e:	e852                	sd	s4,16(sp)
   12040:	e456                	sd	s5,8(sp)
   12042:	e05a                	sd	s6,0(sp)
   12044:	8ab2                	mv	s5,a2
   12046:	8a3a                	mv	s4,a4
   12048:	842a                	mv	s0,a0
   1204a:	84ae                	mv	s1,a1
   1204c:	00171b13          	slli	s6,a4,0x1
   12050:	4901                	li	s2,0
   12052:	85a6                	mv	a1,s1
   12054:	8522                	mv	a0,s0
   12056:	86d2                	mv	a3,s4
   12058:	8656                	mv	a2,s5
   1205a:	0905                	addi	s2,s2,1
   1205c:	f3bff0ef          	jal	11f96 <_Z13tiled_dotprodPsPKsS1_m>
   12060:	0409                	addi	s0,s0,2
   12062:	94da                	add	s1,s1,s6
   12064:	ff2997e3          	bne	s3,s2,12052 <_Z9tiled_mvmPsPKsS1_mm+0x26>
   12068:	7442                	ld	s0,48(sp)
   1206a:	74a2                	ld	s1,40(sp)
   1206c:	7902                	ld	s2,32(sp)
   1206e:	6a42                	ld	s4,16(sp)
   12070:	6aa2                	ld	s5,8(sp)
   12072:	6b02                	ld	s6,0(sp)
   12074:	70e2                	ld	ra,56(sp)
   12076:	69e2                	ld	s3,24(sp)
   12078:	6121                	addi	sp,sp,64
   1207a:	8082                	ret
   1207c:	00031537          	lui	a0,0x31
   12080:	af850513          	addi	a0,a0,-1288 # 30af8 <__clzdi2+0x1046>
   12084:	f822                	sd	s0,48(sp)
   12086:	f426                	sd	s1,40(sp)
   12088:	f04a                	sd	s2,32(sp)
   1208a:	e852                	sd	s4,16(sp)
   1208c:	e456                	sd	s5,8(sp)
   1208e:	e05a                	sd	s6,0(sp)
   12090:	60b130ef          	jal	25e9a <puts>
   12094:	00030537          	lui	a0,0x30
   12098:	85ce                	mv	a1,s3
   1209a:	50850513          	addi	a0,a0,1288 # 30508 <__clzdi2+0xa56>
   1209e:	421130ef          	jal	25cbe <printf>
   120a2:	557d                	li	a0,-1
   120a4:	e12fe0ef          	jal	106b6 <exit>

00000000000120a8 <_Z22tiled_matmul_transposePsPKsS1_mmm>:
   120a8:	7159                	addi	sp,sp,-112
   120aa:	e4ce                	sd	s3,72(sp)
   120ac:	f062                	sd	s8,32(sp)
   120ae:	f486                	sd	ra,104(sp)
   120b0:	89b6                	mv	s3,a3
   120b2:	8c3e                	mv	s8,a5
   120b4:	c92d                	beqz	a0,12126 <_Z22tiled_matmul_transposePsPKsS1_mmm+0x7e>
   120b6:	c3bd                	beqz	a5,1211c <_Z22tiled_matmul_transposePsPKsS1_mmm+0x74>
   120b8:	c2b5                	beqz	a3,1211c <_Z22tiled_matmul_transposePsPKsS1_mmm+0x74>
   120ba:	e8ca                	sd	s2,80(sp)
   120bc:	e0d2                	sd	s4,64(sp)
   120be:	fc56                	sd	s5,56(sp)
   120c0:	f85a                	sd	s6,48(sp)
   120c2:	f45e                	sd	s7,40(sp)
   120c4:	ec66                	sd	s9,24(sp)
   120c6:	e86a                	sd	s10,16(sp)
   120c8:	f0a2                	sd	s0,96(sp)
   120ca:	eca6                	sd	s1,88(sp)
   120cc:	e46e                	sd	s11,8(sp)
   120ce:	8caa                	mv	s9,a0
   120d0:	8d2e                	mv	s10,a1
   120d2:	8aba                	mv	s5,a4
   120d4:	8932                	mv	s2,a2
   120d6:	00171a13          	slli	s4,a4,0x1
   120da:	4b81                	li	s7,0
   120dc:	4b01                	li	s6,0
   120de:	001b9413          	slli	s0,s7,0x1
   120e2:	9466                	add	s0,s0,s9
   120e4:	8dea                	mv	s11,s10
   120e6:	4481                	li	s1,0
   120e8:	85ee                	mv	a1,s11
   120ea:	8522                	mv	a0,s0
   120ec:	86d6                	mv	a3,s5
   120ee:	864a                	mv	a2,s2
   120f0:	0485                	addi	s1,s1,1
   120f2:	ea5ff0ef          	jal	11f96 <_Z13tiled_dotprodPsPKsS1_m>
   120f6:	0409                	addi	s0,s0,2
   120f8:	9dd2                	add	s11,s11,s4
   120fa:	fe9997e3          	bne	s3,s1,120e8 <_Z22tiled_matmul_transposePsPKsS1_mmm+0x40>
   120fe:	0b05                	addi	s6,s6,1
   12100:	9bce                	add	s7,s7,s3
   12102:	9952                	add	s2,s2,s4
   12104:	fd8b1de3          	bne	s6,s8,120de <_Z22tiled_matmul_transposePsPKsS1_mmm+0x36>
   12108:	7406                	ld	s0,96(sp)
   1210a:	64e6                	ld	s1,88(sp)
   1210c:	6946                	ld	s2,80(sp)
   1210e:	6a06                	ld	s4,64(sp)
   12110:	7ae2                	ld	s5,56(sp)
   12112:	7b42                	ld	s6,48(sp)
   12114:	7ba2                	ld	s7,40(sp)
   12116:	6ce2                	ld	s9,24(sp)
   12118:	6d42                	ld	s10,16(sp)
   1211a:	6da2                	ld	s11,8(sp)
   1211c:	70a6                	ld	ra,104(sp)
   1211e:	69a6                	ld	s3,72(sp)
   12120:	7c02                	ld	s8,32(sp)
   12122:	6165                	addi	sp,sp,112
   12124:	8082                	ret
   12126:	00031537          	lui	a0,0x31
   1212a:	b4850513          	addi	a0,a0,-1208 # 30b48 <__clzdi2+0x1096>
   1212e:	f0a2                	sd	s0,96(sp)
   12130:	eca6                	sd	s1,88(sp)
   12132:	e8ca                	sd	s2,80(sp)
   12134:	e0d2                	sd	s4,64(sp)
   12136:	fc56                	sd	s5,56(sp)
   12138:	f85a                	sd	s6,48(sp)
   1213a:	f45e                	sd	s7,40(sp)
   1213c:	ec66                	sd	s9,24(sp)
   1213e:	e86a                	sd	s10,16(sp)
   12140:	e46e                	sd	s11,8(sp)
   12142:	559130ef          	jal	25e9a <puts>
   12146:	00031537          	lui	a0,0x31
   1214a:	864e                	mv	a2,s3
   1214c:	85e2                	mv	a1,s8
   1214e:	ba050513          	addi	a0,a0,-1120 # 30ba0 <__clzdi2+0x10ee>
   12152:	36d130ef          	jal	25cbe <printf>
   12156:	557d                	li	a0,-1
   12158:	d5efe0ef          	jal	106b6 <exit>

000000000001215c <_Z21tiled_dotprod_stridedPsPKsS1_mm>:
   1215c:	47a1                	li	a5,8
   1215e:	8eaa                	mv	t4,a0
   12160:	06d7f963          	bgeu	a5,a3,121d2 <_Z21tiled_dotprod_stridedPsPKsS1_mm+0x76>
   12164:	0076ff13          	andi	t5,a3,7
   12168:	0706                	slli	a4,a4,0x1
   1216a:	828d                	srli	a3,a3,0x3
   1216c:	832e                	mv	t1,a1
   1216e:	88b2                	mv	a7,a2
   12170:	4e01                	li	t3,0
   12172:	4801                	li	a6,0
   12174:	4521                	li	a0,8
   12176:	1805200b          	.insn	4, 0x1805200b
   1217a:	851a                	mv	a0,t1
   1217c:	1005208b          	.insn	4, 0x1005208b
   12180:	8546                	mv	a0,a7
   12182:	1005210b          	.insn	4, 0x1005210b
   12186:	1a20c50b          	.insn	4, 0x1a20c50b
   1218a:	00ae07bb          	addw	a5,t3,a0
   1218e:	01079e1b          	slliw	t3,a5,0x10
   12192:	0805                	addi	a6,a6,1
   12194:	933a                	add	t1,t1,a4
   12196:	98ba                	add	a7,a7,a4
   12198:	410e5e1b          	sraiw	t3,t3,0x10
   1219c:	fd069ce3          	bne	a3,a6,12174 <_Z21tiled_dotprod_stridedPsPKsS1_mm+0x18>
   121a0:	000f1563          	bnez	t5,121aa <_Z21tiled_dotprod_stridedPsPKsS1_mm+0x4e>
   121a4:	01ce9023          	sh	t3,0(t4)
   121a8:	8082                	ret
   121aa:	02d70733          	mul	a4,a4,a3
   121ae:	857a                	mv	a0,t5
   121b0:	1805200b          	.insn	4, 0x1805200b
   121b4:	00e58533          	add	a0,a1,a4
   121b8:	1005208b          	.insn	4, 0x1005208b
   121bc:	00e60533          	add	a0,a2,a4
   121c0:	1005210b          	.insn	4, 0x1005210b
   121c4:	1a20c50b          	.insn	4, 0x1a20c50b
   121c8:	00f50e3b          	addw	t3,a0,a5
   121cc:	01ce9023          	sh	t3,0(t4)
   121d0:	8082                	ret
   121d2:	8536                	mv	a0,a3
   121d4:	1805200b          	.insn	4, 0x1805200b
   121d8:	852e                	mv	a0,a1
   121da:	1005208b          	.insn	4, 0x1005208b
   121de:	8532                	mv	a0,a2
   121e0:	1005210b          	.insn	4, 0x1005210b
   121e4:	1a20c50b          	.insn	4, 0x1a20c50b
   121e8:	8e2a                	mv	t3,a0
   121ea:	01ce9023          	sh	t3,0(t4)
   121ee:	8082                	ret

00000000000121f0 <_Z17tiled_mvm_stridedPsPKsS1_mmm>:
   121f0:	7139                	addi	sp,sp,-64
   121f2:	e852                	sd	s4,16(sp)
   121f4:	fc06                	sd	ra,56(sp)
   121f6:	8a36                	mv	s4,a3
   121f8:	c531                	beqz	a0,12244 <_Z17tiled_mvm_stridedPsPKsS1_mmm+0x54>
   121fa:	c2a9                	beqz	a3,1223c <_Z17tiled_mvm_stridedPsPKsS1_mmm+0x4c>
   121fc:	f822                	sd	s0,48(sp)
   121fe:	f426                	sd	s1,40(sp)
   12200:	f04a                	sd	s2,32(sp)
   12202:	ec4e                	sd	s3,24(sp)
   12204:	e456                	sd	s5,8(sp)
   12206:	e05a                	sd	s6,0(sp)
   12208:	8ab2                	mv	s5,a2
   1220a:	8b3a                	mv	s6,a4
   1220c:	842a                	mv	s0,a0
   1220e:	00179993          	slli	s3,a5,0x1
   12212:	84ae                	mv	s1,a1
   12214:	4901                	li	s2,0
   12216:	85a6                	mv	a1,s1
   12218:	8522                	mv	a0,s0
   1221a:	02000713          	li	a4,32
   1221e:	86da                	mv	a3,s6
   12220:	8656                	mv	a2,s5
   12222:	0905                	addi	s2,s2,1
   12224:	f39ff0ef          	jal	1215c <_Z21tiled_dotprod_stridedPsPKsS1_mm>
   12228:	0409                	addi	s0,s0,2
   1222a:	94ce                	add	s1,s1,s3
   1222c:	ff2a15e3          	bne	s4,s2,12216 <_Z17tiled_mvm_stridedPsPKsS1_mmm+0x26>
   12230:	7442                	ld	s0,48(sp)
   12232:	74a2                	ld	s1,40(sp)
   12234:	7902                	ld	s2,32(sp)
   12236:	69e2                	ld	s3,24(sp)
   12238:	6aa2                	ld	s5,8(sp)
   1223a:	6b02                	ld	s6,0(sp)
   1223c:	70e2                	ld	ra,56(sp)
   1223e:	6a42                	ld	s4,16(sp)
   12240:	6121                	addi	sp,sp,64
   12242:	8082                	ret
   12244:	00031537          	lui	a0,0x31
   12248:	bc850513          	addi	a0,a0,-1080 # 30bc8 <__clzdi2+0x1116>
   1224c:	f822                	sd	s0,48(sp)
   1224e:	f426                	sd	s1,40(sp)
   12250:	f04a                	sd	s2,32(sp)
   12252:	ec4e                	sd	s3,24(sp)
   12254:	e456                	sd	s5,8(sp)
   12256:	e05a                	sd	s6,0(sp)
   12258:	443130ef          	jal	25e9a <puts>
   1225c:	00030537          	lui	a0,0x30
   12260:	85d2                	mv	a1,s4
   12262:	50850513          	addi	a0,a0,1288 # 30508 <__clzdi2+0xa56>
   12266:	259130ef          	jal	25cbe <printf>
   1226a:	557d                	li	a0,-1
   1226c:	c4afe0ef          	jal	106b6 <exit>

0000000000012270 <_Z30tiled_matmul_transpose_stridedPsPKsS1_mmmmm>:
   12270:	7119                	addi	sp,sp,-128
   12272:	f0ca                	sd	s2,96(sp)
   12274:	f862                	sd	s8,48(sp)
   12276:	fc86                	sd	ra,120(sp)
   12278:	e42e                	sd	a1,8(sp)
   1227a:	8936                	mv	s2,a3
   1227c:	8c3e                	mv	s8,a5
   1227e:	cd25                	beqz	a0,122f6 <_Z30tiled_matmul_transpose_stridedPsPKsS1_mmmmm+0x86>
   12280:	c7b5                	beqz	a5,122ec <_Z30tiled_matmul_transpose_stridedPsPKsS1_mmmmm+0x7c>
   12282:	c6ad                	beqz	a3,122ec <_Z30tiled_matmul_transpose_stridedPsPKsS1_mmmmm+0x7c>
   12284:	f4a6                	sd	s1,104(sp)
   12286:	ecce                	sd	s3,88(sp)
   12288:	e8d2                	sd	s4,80(sp)
   1228a:	e4d6                	sd	s5,72(sp)
   1228c:	e0da                	sd	s6,64(sp)
   1228e:	fc5e                	sd	s7,56(sp)
   12290:	f466                	sd	s9,40(sp)
   12292:	f8a2                	sd	s0,112(sp)
   12294:	f06a                	sd	s10,32(sp)
   12296:	ec6e                	sd	s11,24(sp)
   12298:	8caa                	mv	s9,a0
   1229a:	8a3a                	mv	s4,a4
   1229c:	00189b93          	slli	s7,a7,0x1
   122a0:	84b2                	mv	s1,a2
   122a2:	00181993          	slli	s3,a6,0x1
   122a6:	4b01                	li	s6,0
   122a8:	4a81                	li	s5,0
   122aa:	6d22                	ld	s10,8(sp)
   122ac:	001b1413          	slli	s0,s6,0x1
   122b0:	9466                	add	s0,s0,s9
   122b2:	4d81                	li	s11,0
   122b4:	85ea                	mv	a1,s10
   122b6:	8522                	mv	a0,s0
   122b8:	02000713          	li	a4,32
   122bc:	86d2                	mv	a3,s4
   122be:	8626                	mv	a2,s1
   122c0:	0d85                	addi	s11,s11,1
   122c2:	e9bff0ef          	jal	1215c <_Z21tiled_dotprod_stridedPsPKsS1_mm>
   122c6:	0409                	addi	s0,s0,2
   122c8:	9d4e                	add	s10,s10,s3
   122ca:	ffb915e3          	bne	s2,s11,122b4 <_Z30tiled_matmul_transpose_stridedPsPKsS1_mmmmm+0x44>
   122ce:	0a85                	addi	s5,s5,1
   122d0:	9b4a                	add	s6,s6,s2
   122d2:	94de                	add	s1,s1,s7
   122d4:	fd5c1be3          	bne	s8,s5,122aa <_Z30tiled_matmul_transpose_stridedPsPKsS1_mmmmm+0x3a>
   122d8:	7446                	ld	s0,112(sp)
   122da:	74a6                	ld	s1,104(sp)
   122dc:	69e6                	ld	s3,88(sp)
   122de:	6a46                	ld	s4,80(sp)
   122e0:	6aa6                	ld	s5,72(sp)
   122e2:	6b06                	ld	s6,64(sp)
   122e4:	7be2                	ld	s7,56(sp)
   122e6:	7ca2                	ld	s9,40(sp)
   122e8:	7d02                	ld	s10,32(sp)
   122ea:	6de2                	ld	s11,24(sp)
   122ec:	70e6                	ld	ra,120(sp)
   122ee:	7906                	ld	s2,96(sp)
   122f0:	7c42                	ld	s8,48(sp)
   122f2:	6109                	addi	sp,sp,128
   122f4:	8082                	ret
   122f6:	00031537          	lui	a0,0x31
   122fa:	c2050513          	addi	a0,a0,-992 # 30c20 <__clzdi2+0x116e>
   122fe:	f8a2                	sd	s0,112(sp)
   12300:	f4a6                	sd	s1,104(sp)
   12302:	ecce                	sd	s3,88(sp)
   12304:	e8d2                	sd	s4,80(sp)
   12306:	e4d6                	sd	s5,72(sp)
   12308:	e0da                	sd	s6,64(sp)
   1230a:	fc5e                	sd	s7,56(sp)
   1230c:	f466                	sd	s9,40(sp)
   1230e:	f06a                	sd	s10,32(sp)
   12310:	ec6e                	sd	s11,24(sp)
   12312:	389130ef          	jal	25e9a <puts>
   12316:	00031537          	lui	a0,0x31
   1231a:	864a                	mv	a2,s2
   1231c:	85e2                	mv	a1,s8
   1231e:	ba050513          	addi	a0,a0,-1120 # 30ba0 <__clzdi2+0x10ee>
   12322:	19d130ef          	jal	25cbe <printf>
   12326:	557d                	li	a0,-1
   12328:	b8efe0ef          	jal	106b6 <exit>

000000000001232c <_Z35tiled_matmul_transpose_full_stridedPsPKsS1_mmmmmm>:
   1232c:	7119                	addi	sp,sp,-128
   1232e:	f862                	sd	s8,48(sp)
   12330:	fc86                	sd	ra,120(sp)
   12332:	e42e                	sd	a1,8(sp)
   12334:	8c3e                	mv	s8,a5
   12336:	c149                	beqz	a0,123b8 <_Z35tiled_matmul_transpose_full_stridedPsPKsS1_mmmmmm+0x8c>
   12338:	cbb5                	beqz	a5,123ac <_Z35tiled_matmul_transpose_full_stridedPsPKsS1_mmmmmm+0x80>
   1233a:	ecce                	sd	s3,88(sp)
   1233c:	89b6                	mv	s3,a3
   1233e:	cabd                	beqz	a3,123b4 <_Z35tiled_matmul_transpose_full_stridedPsPKsS1_mmmmmm+0x88>
   12340:	f4a6                	sd	s1,104(sp)
   12342:	f0ca                	sd	s2,96(sp)
   12344:	e8d2                	sd	s4,80(sp)
   12346:	e4d6                	sd	s5,72(sp)
   12348:	e0da                	sd	s6,64(sp)
   1234a:	fc5e                	sd	s7,56(sp)
   1234c:	f466                	sd	s9,40(sp)
   1234e:	f8a2                	sd	s0,112(sp)
   12350:	f06a                	sd	s10,32(sp)
   12352:	ec6e                	sd	s11,24(sp)
   12354:	8caa                	mv	s9,a0
   12356:	8a3a                	mv	s4,a4
   12358:	00189b93          	slli	s7,a7,0x1
   1235c:	84b2                	mv	s1,a2
   1235e:	00181913          	slli	s2,a6,0x1
   12362:	4b01                	li	s6,0
   12364:	4a81                	li	s5,0
   12366:	6da2                	ld	s11,8(sp)
   12368:	001b1413          	slli	s0,s6,0x1
   1236c:	9466                	add	s0,s0,s9
   1236e:	4d01                	li	s10,0
   12370:	85ee                	mv	a1,s11
   12372:	8522                	mv	a0,s0
   12374:	02000713          	li	a4,32
   12378:	86d2                	mv	a3,s4
   1237a:	8626                	mv	a2,s1
   1237c:	0d05                	addi	s10,s10,1
   1237e:	ddfff0ef          	jal	1215c <_Z21tiled_dotprod_stridedPsPKsS1_mm>
   12382:	0409                	addi	s0,s0,2
   12384:	9dca                	add	s11,s11,s2
   12386:	ffa995e3          	bne	s3,s10,12370 <_Z35tiled_matmul_transpose_full_stridedPsPKsS1_mmmmmm+0x44>
   1238a:	678a                	ld	a5,128(sp)
   1238c:	0a85                	addi	s5,s5,1
   1238e:	94de                	add	s1,s1,s7
   12390:	9b3e                	add	s6,s6,a5
   12392:	fd5c1ae3          	bne	s8,s5,12366 <_Z35tiled_matmul_transpose_full_stridedPsPKsS1_mmmmmm+0x3a>
   12396:	7446                	ld	s0,112(sp)
   12398:	74a6                	ld	s1,104(sp)
   1239a:	7906                	ld	s2,96(sp)
   1239c:	69e6                	ld	s3,88(sp)
   1239e:	6a46                	ld	s4,80(sp)
   123a0:	6aa6                	ld	s5,72(sp)
   123a2:	6b06                	ld	s6,64(sp)
   123a4:	7be2                	ld	s7,56(sp)
   123a6:	7ca2                	ld	s9,40(sp)
   123a8:	7d02                	ld	s10,32(sp)
   123aa:	6de2                	ld	s11,24(sp)
   123ac:	70e6                	ld	ra,120(sp)
   123ae:	7c42                	ld	s8,48(sp)
   123b0:	6109                	addi	sp,sp,128
   123b2:	8082                	ret
   123b4:	69e6                	ld	s3,88(sp)
   123b6:	bfdd                	j	123ac <_Z35tiled_matmul_transpose_full_stridedPsPKsS1_mmmmmm+0x80>
   123b8:	00031537          	lui	a0,0x31
   123bc:	c8050513          	addi	a0,a0,-896 # 30c80 <__clzdi2+0x11ce>
   123c0:	f8a2                	sd	s0,112(sp)
   123c2:	f4a6                	sd	s1,104(sp)
   123c4:	f0ca                	sd	s2,96(sp)
   123c6:	ecce                	sd	s3,88(sp)
   123c8:	e8d2                	sd	s4,80(sp)
   123ca:	e4d6                	sd	s5,72(sp)
   123cc:	e0da                	sd	s6,64(sp)
   123ce:	fc5e                	sd	s7,56(sp)
   123d0:	f466                	sd	s9,40(sp)
   123d2:	f06a                	sd	s10,32(sp)
   123d4:	ec6e                	sd	s11,24(sp)
   123d6:	2c5130ef          	jal	25e9a <puts>
   123da:	660a                	ld	a2,128(sp)
   123dc:	00031537          	lui	a0,0x31
   123e0:	85e2                	mv	a1,s8
   123e2:	ce850513          	addi	a0,a0,-792 # 30ce8 <__clzdi2+0x1236>
   123e6:	0d9130ef          	jal	25cbe <printf>
   123ea:	557d                	li	a0,-1
   123ec:	acafe0ef          	jal	106b6 <exit>

00000000000123f0 <_Z10array_initPsms>:
   123f0:	c981                	beqz	a1,12400 <_Z10array_initPsms+0x10>
   123f2:	0586                	slli	a1,a1,0x1
   123f4:	95aa                	add	a1,a1,a0
   123f6:	00c51023          	sh	a2,0(a0)
   123fa:	0509                	addi	a0,a0,2
   123fc:	feb51de3          	bne	a0,a1,123f6 <_Z10array_initPsms+0x6>
   12400:	8082                	ret

0000000000012402 <_Z12conv2d_shapePmS_S_mmmmmmmm>:
   12402:	6e02                	ld	t3,0(sp)
   12404:	6842                	ld	a6,16(sp)
   12406:	6322                	ld	t1,8(sp)
   12408:	41c70733          	sub	a4,a4,t3
   1240c:	0806                	slli	a6,a6,0x1
   1240e:	9742                	add	a4,a4,a6
   12410:	02675733          	divu	a4,a4,t1
   12414:	41c787b3          	sub	a5,a5,t3
   12418:	97c2                	add	a5,a5,a6
   1241a:	0267d7b3          	divu	a5,a5,t1
   1241e:	0705                	addi	a4,a4,1
   12420:	031686b3          	mul	a3,a3,a7
   12424:	0785                	addi	a5,a5,1
   12426:	02e686b3          	mul	a3,a3,a4
   1242a:	02f686b3          	mul	a3,a3,a5
   1242e:	e114                	sd	a3,0(a0)
   12430:	e198                	sd	a4,0(a1)
   12432:	e21c                	sd	a5,0(a2)
   12434:	8082                	ret

0000000000012436 <_Z15padding2d_shapePmS_S_mmmmm>:
   12436:	03180833          	mul	a6,a6,a7
   1243a:	0686                	slli	a3,a3,0x1
   1243c:	9736                	add	a4,a4,a3
   1243e:	e198                	sd	a4,0(a1)
   12440:	96be                	add	a3,a3,a5
   12442:	e214                	sd	a3,0(a2)
   12444:	619c                	ld	a5,0(a1)
   12446:	02f80833          	mul	a6,a6,a5
   1244a:	02d80833          	mul	a6,a6,a3
   1244e:	01053023          	sd	a6,0(a0)
   12452:	8082                	ret

0000000000012454 <_Z9padding2dPsPKsmsmm>:
   12454:	7159                	addi	sp,sp,-112
   12456:	e4ce                	sd	s3,72(sp)
   12458:	00161993          	slli	s3,a2,0x1
   1245c:	f062                	sd	s8,32(sp)
   1245e:	00f98c33          	add	s8,s3,a5
   12462:	eca6                	sd	s1,88(sp)
   12464:	02cc04b3          	mul	s1,s8,a2
   12468:	f0a2                	sd	s0,96(sp)
   1246a:	e8ca                	sd	s2,80(sp)
   1246c:	fc56                	sd	s5,56(sp)
   1246e:	f45e                	sd	s7,40(sp)
   12470:	f486                	sd	ra,104(sp)
   12472:	8bb2                	mv	s7,a2
   12474:	8aaa                	mv	s5,a0
   12476:	8436                	mv	s0,a3
   12478:	893a                	mv	s2,a4
   1247a:	cce9                	beqz	s1,12554 <_Z9padding2dPsPKsmsmm+0x100>
   1247c:	00149693          	slli	a3,s1,0x1
   12480:	96aa                	add	a3,a3,a0
   12482:	872a                	mv	a4,a0
   12484:	00871023          	sh	s0,0(a4)
   12488:	0709                	addi	a4,a4,2
   1248a:	fed71de3          	bne	a4,a3,12484 <_Z9padding2dPsPKsmsmm+0x30>
   1248e:	8726                	mv	a4,s1
   12490:	08090263          	beqz	s2,12514 <_Z9padding2dPsPKsmsmm+0xc0>
   12494:	f85a                	sd	s6,48(sp)
   12496:	417c0b33          	sub	s6,s8,s7
   1249a:	e0d2                	sd	s4,64(sp)
   1249c:	ec66                	sd	s9,24(sp)
   1249e:	e86a                	sd	s10,16(sp)
   124a0:	e46e                	sd	s11,8(sp)
   124a2:	00179a13          	slli	s4,a5,0x1
   124a6:	8d2e                	mv	s10,a1
   124a8:	99d6                	add	s3,s3,s5
   124aa:	9b26                	add	s6,s6,s1
   124ac:	8ca6                	mv	s9,s1
   124ae:	4d81                	li	s11,0
   124b0:	001c9793          	slli	a5,s9,0x1
   124b4:	00f98533          	add	a0,s3,a5
   124b8:	080b8363          	beqz	s7,1253e <_Z9padding2dPsPKsmsmm+0xea>
   124bc:	019b8733          	add	a4,s7,s9
   124c0:	0706                	slli	a4,a4,0x1
   124c2:	97d6                	add	a5,a5,s5
   124c4:	9756                	add	a4,a4,s5
   124c6:	00879023          	sh	s0,0(a5)
   124ca:	0789                	addi	a5,a5,2
   124cc:	fee79de3          	bne	a5,a4,124c6 <_Z9padding2dPsPKsmsmm+0x72>
   124d0:	8652                	mv	a2,s4
   124d2:	85ea                	mv	a1,s10
   124d4:	471140ef          	jal	27144 <memcpy>
   124d8:	016b8733          	add	a4,s7,s6
   124dc:	0706                	slli	a4,a4,0x1
   124de:	001b1793          	slli	a5,s6,0x1
   124e2:	9756                	add	a4,a4,s5
   124e4:	97d6                	add	a5,a5,s5
   124e6:	00879023          	sh	s0,0(a5)
   124ea:	0789                	addi	a5,a5,2
   124ec:	fee79de3          	bne	a5,a4,124e6 <_Z9padding2dPsPKsmsmm+0x92>
   124f0:	0d85                	addi	s11,s11,1
   124f2:	9ce2                	add	s9,s9,s8
   124f4:	9d52                	add	s10,s10,s4
   124f6:	9b62                	add	s6,s6,s8
   124f8:	fb2dece3          	bltu	s11,s2,124b0 <_Z9padding2dPsPKsmsmm+0x5c>
   124fc:	ccb1                	beqz	s1,12558 <_Z9padding2dPsPKsmsmm+0x104>
   124fe:	fff90713          	addi	a4,s2,-1
   12502:	03870733          	mul	a4,a4,s8
   12506:	6a06                	ld	s4,64(sp)
   12508:	7b42                	ld	s6,48(sp)
   1250a:	6ce2                	ld	s9,24(sp)
   1250c:	6d42                	ld	s10,16(sp)
   1250e:	6da2                	ld	s11,8(sp)
   12510:	9c26                	add	s8,s8,s1
   12512:	9762                	add	a4,a4,s8
   12514:	00e487b3          	add	a5,s1,a4
   12518:	0786                	slli	a5,a5,0x1
   1251a:	0706                	slli	a4,a4,0x1
   1251c:	97d6                	add	a5,a5,s5
   1251e:	9aba                	add	s5,s5,a4
   12520:	008a9023          	sh	s0,0(s5)
   12524:	0a89                	addi	s5,s5,2
   12526:	ff579de3          	bne	a5,s5,12520 <_Z9padding2dPsPKsmsmm+0xcc>
   1252a:	70a6                	ld	ra,104(sp)
   1252c:	7406                	ld	s0,96(sp)
   1252e:	64e6                	ld	s1,88(sp)
   12530:	6946                	ld	s2,80(sp)
   12532:	69a6                	ld	s3,72(sp)
   12534:	7ae2                	ld	s5,56(sp)
   12536:	7ba2                	ld	s7,40(sp)
   12538:	7c02                	ld	s8,32(sp)
   1253a:	6165                	addi	sp,sp,112
   1253c:	8082                	ret
   1253e:	85ea                	mv	a1,s10
   12540:	8652                	mv	a2,s4
   12542:	0d85                	addi	s11,s11,1
   12544:	401140ef          	jal	27144 <memcpy>
   12548:	9ce2                	add	s9,s9,s8
   1254a:	9d52                	add	s10,s10,s4
   1254c:	9b62                	add	s6,s6,s8
   1254e:	f72de1e3          	bltu	s11,s2,124b0 <_Z9padding2dPsPKsmsmm+0x5c>
   12552:	b76d                	j	124fc <_Z9padding2dPsPKsmsmm+0xa8>
   12554:	f321                	bnez	a4,12494 <_Z9padding2dPsPKsmsmm+0x40>
   12556:	bfd1                	j	1252a <_Z9padding2dPsPKsmsmm+0xd6>
   12558:	6a06                	ld	s4,64(sp)
   1255a:	7b42                	ld	s6,48(sp)
   1255c:	6ce2                	ld	s9,24(sp)
   1255e:	6d42                	ld	s10,16(sp)
   12560:	6da2                	ld	s11,8(sp)
   12562:	b7e1                	j	1252a <_Z9padding2dPsPKsmsmm+0xd6>

0000000000012564 <_Z9padding2dPsPKsmsmmm>:
   12564:	06080b63          	beqz	a6,125da <_Z9padding2dPsPKsmsmmm+0x76>
   12568:	711d                	addi	sp,sp,-96
   1256a:	fc4e                	sd	s3,56(sp)
   1256c:	89be                	mv	s3,a5
   1256e:	00161793          	slli	a5,a2,0x1
   12572:	f456                	sd	s5,40(sp)
   12574:	00e78ab3          	add	s5,a5,a4
   12578:	97ce                	add	a5,a5,s3
   1257a:	02fa8ab3          	mul	s5,s5,a5
   1257e:	e466                	sd	s9,8(sp)
   12580:	e8a2                	sd	s0,80(sp)
   12582:	e4a6                	sd	s1,72(sp)
   12584:	e0ca                	sd	s2,64(sp)
   12586:	f852                	sd	s4,48(sp)
   12588:	f05a                	sd	s6,32(sp)
   1258a:	ec5e                	sd	s7,24(sp)
   1258c:	e862                	sd	s8,16(sp)
   1258e:	ec86                	sd	ra,88(sp)
   12590:	03370cb3          	mul	s9,a4,s3
   12594:	8a3a                	mv	s4,a4
   12596:	8bb6                	mv	s7,a3
   12598:	8b32                	mv	s6,a2
   1259a:	8c42                	mv	s8,a6
   1259c:	84aa                	mv	s1,a0
   1259e:	842e                	mv	s0,a1
   125a0:	4901                	li	s2,0
   125a2:	0a86                	slli	s5,s5,0x1
   125a4:	0c86                	slli	s9,s9,0x1
   125a6:	85a2                	mv	a1,s0
   125a8:	8526                	mv	a0,s1
   125aa:	87ce                	mv	a5,s3
   125ac:	8752                	mv	a4,s4
   125ae:	86de                	mv	a3,s7
   125b0:	865a                	mv	a2,s6
   125b2:	0905                	addi	s2,s2,1
   125b4:	ea1ff0ef          	jal	12454 <_Z9padding2dPsPKsmsmm>
   125b8:	94d6                	add	s1,s1,s5
   125ba:	9466                	add	s0,s0,s9
   125bc:	ff2c15e3          	bne	s8,s2,125a6 <_Z9padding2dPsPKsmsmmm+0x42>
   125c0:	60e6                	ld	ra,88(sp)
   125c2:	6446                	ld	s0,80(sp)
   125c4:	64a6                	ld	s1,72(sp)
   125c6:	6906                	ld	s2,64(sp)
   125c8:	79e2                	ld	s3,56(sp)
   125ca:	7a42                	ld	s4,48(sp)
   125cc:	7aa2                	ld	s5,40(sp)
   125ce:	7b02                	ld	s6,32(sp)
   125d0:	6be2                	ld	s7,24(sp)
   125d2:	6c42                	ld	s8,16(sp)
   125d4:	6ca2                	ld	s9,8(sp)
   125d6:	6125                	addi	sp,sp,96
   125d8:	8082                	ret
   125da:	8082                	ret

00000000000125dc <_Z9padding2dPsPKsmsmmmm>:
   125dc:	0c088163          	beqz	a7,1269e <_Z9padding2dPsPKsmsmmmm+0xc2>
   125e0:	0a080f63          	beqz	a6,1269e <_Z9padding2dPsPKsmsmmmm+0xc2>
   125e4:	7135                	addi	sp,sp,-160
   125e6:	e526                	sd	s1,136(sp)
   125e8:	e14a                	sd	s2,128(sp)
   125ea:	84be                	mv	s1,a5
   125ec:	893a                	mv	s2,a4
   125ee:	00161713          	slli	a4,a2,0x1
   125f2:	012707b3          	add	a5,a4,s2
   125f6:	9726                	add	a4,a4,s1
   125f8:	02e787b3          	mul	a5,a5,a4
   125fc:	f0da                	sd	s6,96(sp)
   125fe:	e922                	sd	s0,144(sp)
   12600:	fcce                	sd	s3,120(sp)
   12602:	f8d2                	sd	s4,112(sp)
   12604:	f4d6                	sd	s5,104(sp)
   12606:	e8e2                	sd	s8,80(sp)
   12608:	e4e6                	sd	s9,72(sp)
   1260a:	ed06                	sd	ra,152(sp)
   1260c:	ecde                	sd	s7,88(sp)
   1260e:	02990733          	mul	a4,s2,s1
   12612:	00179b13          	slli	s6,a5,0x1
   12616:	e0ea                	sd	s10,64(sp)
   12618:	fc6e                	sd	s11,56(sp)
   1261a:	8442                	mv	s0,a6
   1261c:	8a36                	mv	s4,a3
   1261e:	89b2                	mv	s3,a2
   12620:	f42e                	sd	a1,40(sp)
   12622:	f02a                	sd	a0,32(sp)
   12624:	ec46                	sd	a7,24(sp)
   12626:	030787b3          	mul	a5,a5,a6
   1262a:	4c81                	li	s9,0
   1262c:	4c01                	li	s8,0
   1262e:	e002                	sd	zero,0(sp)
   12630:	00171a93          	slli	s5,a4,0x1
   12634:	e43e                	sd	a5,8(sp)
   12636:	030707b3          	mul	a5,a4,a6
   1263a:	e83e                	sd	a5,16(sp)
   1263c:	7782                	ld	a5,32(sp)
   1263e:	001c1513          	slli	a0,s8,0x1
   12642:	001c9593          	slli	a1,s9,0x1
   12646:	00a78bb3          	add	s7,a5,a0
   1264a:	77a2                	ld	a5,40(sp)
   1264c:	4d01                	li	s10,0
   1264e:	00b78db3          	add	s11,a5,a1
   12652:	85ee                	mv	a1,s11
   12654:	855e                	mv	a0,s7
   12656:	87a6                	mv	a5,s1
   12658:	874a                	mv	a4,s2
   1265a:	86d2                	mv	a3,s4
   1265c:	864e                	mv	a2,s3
   1265e:	0d05                	addi	s10,s10,1
   12660:	df5ff0ef          	jal	12454 <_Z9padding2dPsPKsmsmm>
   12664:	9bda                	add	s7,s7,s6
   12666:	9dd6                	add	s11,s11,s5
   12668:	ffa415e3          	bne	s0,s10,12652 <_Z9padding2dPsPKsmsmmmm+0x76>
   1266c:	6722                	ld	a4,8(sp)
   1266e:	6782                	ld	a5,0(sp)
   12670:	9c3a                	add	s8,s8,a4
   12672:	6742                	ld	a4,16(sp)
   12674:	0785                	addi	a5,a5,1
   12676:	e03e                	sd	a5,0(sp)
   12678:	9cba                	add	s9,s9,a4
   1267a:	6762                	ld	a4,24(sp)
   1267c:	fce790e3          	bne	a5,a4,1263c <_Z9padding2dPsPKsmsmmmm+0x60>
   12680:	60ea                	ld	ra,152(sp)
   12682:	644a                	ld	s0,144(sp)
   12684:	64aa                	ld	s1,136(sp)
   12686:	690a                	ld	s2,128(sp)
   12688:	79e6                	ld	s3,120(sp)
   1268a:	7a46                	ld	s4,112(sp)
   1268c:	7aa6                	ld	s5,104(sp)
   1268e:	7b06                	ld	s6,96(sp)
   12690:	6be6                	ld	s7,88(sp)
   12692:	6c46                	ld	s8,80(sp)
   12694:	6ca6                	ld	s9,72(sp)
   12696:	6d06                	ld	s10,64(sp)
   12698:	7de2                	ld	s11,56(sp)
   1269a:	610d                	addi	sp,sp,160
   1269c:	8082                	ret
   1269e:	8082                	ret

00000000000126a0 <_Z15pooling2d_shapePmS_S_mmmmmmm>:
   126a0:	6e22                	ld	t3,8(sp)
   126a2:	6302                	ld	t1,0(sp)
   126a4:	000e1363          	bnez	t3,126aa <_Z15pooling2d_shapePmS_S_mmmmmmm+0xa>
   126a8:	8e46                	mv	t3,a7
   126aa:	0306                	slli	t1,t1,0x1
   126ac:	969a                	add	a3,a3,t1
   126ae:	411686b3          	sub	a3,a3,a7
   126b2:	971a                	add	a4,a4,t1
   126b4:	03c6d6b3          	divu	a3,a3,t3
   126b8:	41170733          	sub	a4,a4,a7
   126bc:	03c75733          	divu	a4,a4,t3
   126c0:	0685                	addi	a3,a3,1
   126c2:	e194                	sd	a3,0(a1)
   126c4:	0705                	addi	a4,a4,1
   126c6:	e218                	sd	a4,0(a2)
   126c8:	6194                	ld	a3,0(a1)
   126ca:	02d80833          	mul	a6,a6,a3
   126ce:	02f80833          	mul	a6,a6,a5
   126d2:	02e80833          	mul	a6,a6,a4
   126d6:	01053023          	sd	a6,0(a0)
   126da:	8082                	ret

00000000000126dc <_Z9nn_conv2dPsPKsS1_mmmmmmmm>:
   126dc:	7109                	addi	sp,sp,-384
   126de:	faa2                	sd	s0,368(sp)
   126e0:	f6a6                	sd	s1,360(sp)
   126e2:	0300                	addi	s0,sp,384
   126e4:	e6d6                	sd	s5,328(sp)
   126e6:	fa62                	sd	s8,304(sp)
   126e8:	fe86                	sd	ra,376(sp)
   126ea:	f2ca                	sd	s2,352(sp)
   126ec:	eece                	sd	s3,344(sp)
   126ee:	ead2                	sd	s4,336(sp)
   126f0:	e2da                	sd	s6,320(sp)
   126f2:	fe5e                	sd	s7,312(sp)
   126f4:	f666                	sd	s9,296(sp)
   126f6:	f26a                	sd	s10,288(sp)
   126f8:	ee6e                	sd	s11,280(sp)
   126fa:	00843c03          	ld	s8,8(s0)
   126fe:	f2a43c23          	sd	a0,-200(s0)
   12702:	eab43423          	sd	a1,-344(s0)
   12706:	f0d43c23          	sd	a3,-232(s0)
   1270a:	f1143823          	sd	a7,-240(s0)
   1270e:	f3043023          	sd	a6,-224(s0)
   12712:	00043a83          	ld	s5,0(s0)
   12716:	6804                	ld	s1,16(s0)
   12718:	2a0c0c63          	beqz	s8,129d0 <_Z9nn_conv2dPsPKsS1_mmmmmmmm+0x2f4>
   1271c:	f3843683          	ld	a3,-200(s0)
   12720:	2c068763          	beqz	a3,129ee <_Z9nn_conv2dPsPKsS1_mmmmmmmm+0x312>
   12724:	f1843b03          	ld	s6,-232(s0)
   12728:	8a32                	mv	s4,a2
   1272a:	86a6                	mv	a3,s1
   1272c:	88da                	mv	a7,s6
   1272e:	f8840613          	addi	a2,s0,-120
   12732:	f8040593          	addi	a1,s0,-128
   12736:	f7840513          	addi	a0,s0,-136
   1273a:	89be                	mv	s3,a5
   1273c:	893a                	mv	s2,a4
   1273e:	cf9ff0ef          	jal	12436 <_Z15padding2d_shapePmS_S_mmmmm>
   12742:	f7843783          	ld	a5,-136(s0)
   12746:	f2043c83          	ld	s9,-224(s0)
   1274a:	85d2                	mv	a1,s4
   1274c:	0786                	slli	a5,a5,0x1
   1274e:	07bd                	addi	a5,a5,15
   12750:	9bc1                	andi	a5,a5,-16
   12752:	40f10133          	sub	sp,sp,a5
   12756:	88da                	mv	a7,s6
   12758:	850a                	mv	a0,sp
   1275a:	8866                	mv	a6,s9
   1275c:	87ce                	mv	a5,s3
   1275e:	874a                	mv	a4,s2
   12760:	8626                	mv	a2,s1
   12762:	4681                	li	a3,0
   12764:	f6243023          	sd	sp,-160(s0)
   12768:	e75ff0ef          	jal	125dc <_Z9padding2dPsPKsmsmmmm>
   1276c:	100b0363          	beqz	s6,12872 <_Z9nn_conv2dPsPKsS1_mmmmmmmm+0x196>
   12770:	f1043703          	ld	a4,-240(s0)
   12774:	cf7d                	beqz	a4,12872 <_Z9nn_conv2dPsPKsS1_mmmmmmmm+0x196>
   12776:	00149793          	slli	a5,s1,0x1
   1277a:	41598633          	sub	a2,s3,s5
   1277e:	415904b3          	sub	s1,s2,s5
   12782:	94be                	add	s1,s1,a5
   12784:	963e                	add	a2,a2,a5
   12786:	0384d4b3          	divu	s1,s1,s8
   1278a:	85e2                	mv	a1,s8
   1278c:	00199b93          	slli	s7,s3,0x1
   12790:	001a9b13          	slli	s6,s5,0x1
   12794:	4d81                	li	s11,0
   12796:	03865633          	divu	a2,a2,s8
   1279a:	00148e13          	addi	t3,s1,1
   1279e:	00160513          	addi	a0,a2,1
   127a2:	02ae06b3          	mul	a3,t3,a0
   127a6:	8a32                	mv	s4,a2
   127a8:	033c0833          	mul	a6,s8,s3
   127ac:	4c01                	li	s8,0
   127ae:	033908b3          	mul	a7,s2,s3
   127b2:	f3043423          	sd	a6,-216(s0)
   127b6:	8826                	mv	a6,s1
   127b8:	84b6                	mv	s1,a3
   127ba:	035a8333          	mul	t1,s5,s5
   127be:	02e68933          	mul	s2,a3,a4
   127c2:	03930eb3          	mul	t4,t1,s9
   127c6:	031c8d33          	mul	s10,s9,a7
   127ca:	4c81                	li	s9,0
   127cc:	f2043603          	ld	a2,-224(s0)
   127d0:	876e                	mv	a4,s11
   127d2:	ca49                	beqz	a2,12864 <_Z9nn_conv2dPsPKsS1_mmmmmmmm+0x188>
   127d4:	e9a43c23          	sd	s10,-360(s0)
   127d8:	eb843023          	sd	s8,-352(s0)
   127dc:	8d52                	mv	s10,s4
   127de:	4981                	li	s3,0
   127e0:	4a01                	li	s4,0
   127e2:	879a                	mv	a5,t1
   127e4:	e9243823          	sd	s2,-368(s0)
   127e8:	e9b43423          	sd	s11,-376(s0)
   127ec:	f1343423          	sd	s3,-248(s0)
   127f0:	8c56                	mv	s8,s5
   127f2:	8de6                	mv	s11,s9
   127f4:	f1443023          	sd	s4,-256(s0)
   127f8:	efd43c23          	sd	t4,-264(s0)
   127fc:	ee943823          	sd	s1,-272(s0)
   12800:	ef943423          	sd	s9,-280(s0)
   12804:	4981                	li	s3,0
   12806:	8652                	mv	a2,s4
   12808:	8aae                	mv	s5,a1
   1280a:	180e0063          	beqz	t3,1298a <_Z9nn_conv2dPsPKsS1_mmmmmmmm+0x2ae>
   1280e:	4481                	li	s1,0
   12810:	e151                	bnez	a0,12894 <_Z9nn_conv2dPsPKsS1_mmmmmmmm+0x1b8>
   12812:	00980563          	beq	a6,s1,1281c <_Z9nn_conv2dPsPKsS1_mmmmmmmm+0x140>
   12816:	0485                	addi	s1,s1,1
   12818:	fe981fe3          	bne	a6,s1,12816 <_Z9nn_conv2dPsPKsS1_mmmmmmmm+0x13a>
   1281c:	f2043683          	ld	a3,-224(s0)
   12820:	0985                	addi	s3,s3,1
   12822:	9dc6                	add	s11,s11,a7
   12824:	963e                	add	a2,a2,a5
   12826:	ff3694e3          	bne	a3,s3,1280e <_Z9nn_conv2dPsPKsS1_mmmmmmmm+0x132>
   1282a:	f0843983          	ld	s3,-248(s0)
   1282e:	f0043a03          	ld	s4,-256(s0)
   12832:	ef843e83          	ld	t4,-264(s0)
   12836:	ef043483          	ld	s1,-272(s0)
   1283a:	f1043683          	ld	a3,-240(s0)
   1283e:	0985                	addi	s3,s3,1
   12840:	85d6                	mv	a1,s5
   12842:	ee843c83          	ld	s9,-280(s0)
   12846:	8ae2                	mv	s5,s8
   12848:	9726                	add	a4,a4,s1
   1284a:	9a76                	add	s4,s4,t4
   1284c:	fb3690e3          	bne	a3,s3,127ec <_Z9nn_conv2dPsPKsS1_mmmmmmmm+0x110>
   12850:	8a6a                	mv	s4,s10
   12852:	ea043c03          	ld	s8,-352(s0)
   12856:	e9843d03          	ld	s10,-360(s0)
   1285a:	e9043903          	ld	s2,-368(s0)
   1285e:	e8843d83          	ld	s11,-376(s0)
   12862:	833e                	mv	t1,a5
   12864:	f1843783          	ld	a5,-232(s0)
   12868:	0c05                	addi	s8,s8,1
   1286a:	9cea                	add	s9,s9,s10
   1286c:	9dca                	add	s11,s11,s2
   1286e:	f5879fe3          	bne	a5,s8,127cc <_Z9nn_conv2dPsPKsS1_mmmmmmmm+0xf0>
   12872:	e8040113          	addi	sp,s0,-384
   12876:	70f6                	ld	ra,376(sp)
   12878:	7456                	ld	s0,368(sp)
   1287a:	74b6                	ld	s1,360(sp)
   1287c:	7916                	ld	s2,352(sp)
   1287e:	69f6                	ld	s3,344(sp)
   12880:	6a56                	ld	s4,336(sp)
   12882:	6ab6                	ld	s5,328(sp)
   12884:	6b16                	ld	s6,320(sp)
   12886:	7bf2                	ld	s7,312(sp)
   12888:	7c52                	ld	s8,304(sp)
   1288a:	7cb2                	ld	s9,296(sp)
   1288c:	7d12                	ld	s10,288(sp)
   1288e:	6df2                	ld	s11,280(sp)
   12890:	6119                	addi	sp,sp,384
   12892:	8082                	ret
   12894:	ea843683          	ld	a3,-344(s0)
   12898:	00161c93          	slli	s9,a2,0x1
   1289c:	eee43023          	sd	a4,-288(s0)
   128a0:	96e6                	add	a3,a3,s9
   128a2:	f6d43423          	sd	a3,-152(s0)
   128a6:	ecf43c23          	sd	a5,-296(s0)
   128aa:	86a6                	mv	a3,s1
   128ac:	f5043023          	sd	a6,-192(s0)
   128b0:	edc43823          	sd	t3,-304(s0)
   128b4:	f2a43823          	sd	a0,-208(s0)
   128b8:	ed143423          	sd	a7,-312(s0)
   128bc:	ed343023          	sd	s3,-320(s0)
   128c0:	ebb43c23          	sd	s11,-328(s0)
   128c4:	eac43823          	sd	a2,-336(s0)
   128c8:	84e2                	mv	s1,s8
   128ca:	87ba                	mv	a5,a4
   128cc:	876e                	mv	a4,s11
   128ce:	c4c9                	beqz	s1,12958 <_Z9nn_conv2dPsPKsS1_mmmmmmmm+0x27c>
   128d0:	f3843603          	ld	a2,-200(s0)
   128d4:	00179813          	slli	a6,a5,0x1
   128d8:	8ca6                	mv	s9,s1
   128da:	01060933          	add	s2,a2,a6
   128de:	8a3a                	mv	s4,a4
   128e0:	f4f43c23          	sd	a5,-168(s0)
   128e4:	f4d43823          	sd	a3,-176(s0)
   128e8:	f4e43423          	sd	a4,-184(s0)
   128ec:	4481                	li	s1,0
   128ee:	f6043783          	ld	a5,-160(s0)
   128f2:	f6843983          	ld	s3,-152(s0)
   128f6:	001a1613          	slli	a2,s4,0x1
   128fa:	00c78c33          	add	s8,a5,a2
   128fe:	4d81                	li	s11,0
   12900:	8662                	mv	a2,s8
   12902:	85ce                	mv	a1,s3
   12904:	86e6                	mv	a3,s9
   12906:	f7640513          	addi	a0,s0,-138
   1290a:	e8cff0ef          	jal	11f96 <_Z13tiled_dotprodPsPKsS1_m>
   1290e:	00095783          	lhu	a5,0(s2)
   12912:	f7645703          	lhu	a4,-138(s0)
   12916:	0d85                	addi	s11,s11,1
   12918:	99da                	add	s3,s3,s6
   1291a:	9fb9                	addw	a5,a5,a4
   1291c:	00f91023          	sh	a5,0(s2)
   12920:	9c5e                	add	s8,s8,s7
   12922:	fdbc9fe3          	bne	s9,s11,12900 <_Z9nn_conv2dPsPKsS1_mmmmmmmm+0x224>
   12926:	9a56                	add	s4,s4,s5
   12928:	0909                	addi	s2,s2,2
   1292a:	009d0463          	beq	s10,s1,12932 <_Z9nn_conv2dPsPKsS1_mmmmmmmm+0x256>
   1292e:	0485                	addi	s1,s1,1
   12930:	bf7d                	j	128ee <_Z9nn_conv2dPsPKsS1_mmmmmmmm+0x212>
   12932:	f5043683          	ld	a3,-176(s0)
   12936:	f4043603          	ld	a2,-192(s0)
   1293a:	f5843783          	ld	a5,-168(s0)
   1293e:	f4843703          	ld	a4,-184(s0)
   12942:	84e6                	mv	s1,s9
   12944:	04d60b63          	beq	a2,a3,1299a <_Z9nn_conv2dPsPKsS1_mmmmmmmm+0x2be>
   12948:	f3043603          	ld	a2,-208(s0)
   1294c:	0685                	addi	a3,a3,1
   1294e:	97b2                	add	a5,a5,a2
   12950:	f2843603          	ld	a2,-216(s0)
   12954:	9732                	add	a4,a4,a2
   12956:	fcad                	bnez	s1,128d0 <_Z9nn_conv2dPsPKsS1_mmmmmmmm+0x1f4>
   12958:	f4043803          	ld	a6,-192(s0)
   1295c:	8c26                	mv	s8,s1
   1295e:	84b6                	mv	s1,a3
   12960:	ee043703          	ld	a4,-288(s0)
   12964:	ed843783          	ld	a5,-296(s0)
   12968:	ed043e03          	ld	t3,-304(s0)
   1296c:	f3043503          	ld	a0,-208(s0)
   12970:	ec843883          	ld	a7,-312(s0)
   12974:	ec043983          	ld	s3,-320(s0)
   12978:	eb843d83          	ld	s11,-328(s0)
   1297c:	eb043603          	ld	a2,-336(s0)
   12980:	00980563          	beq	a6,s1,1298a <_Z9nn_conv2dPsPKsS1_mmmmmmmm+0x2ae>
   12984:	0485                	addi	s1,s1,1
   12986:	fe981fe3          	bne	a6,s1,12984 <_Z9nn_conv2dPsPKsS1_mmmmmmmm+0x2a8>
   1298a:	f2043683          	ld	a3,-224(s0)
   1298e:	0985                	addi	s3,s3,1
   12990:	9dc6                	add	s11,s11,a7
   12992:	963e                	add	a2,a2,a5
   12994:	e7369be3          	bne	a3,s3,1280a <_Z9nn_conv2dPsPKsS1_mmmmmmmm+0x12e>
   12998:	bd49                	j	1282a <_Z9nn_conv2dPsPKsS1_mmmmmmmm+0x14e>
   1299a:	ec043983          	ld	s3,-320(s0)
   1299e:	ed843783          	ld	a5,-296(s0)
   129a2:	ec843883          	ld	a7,-312(s0)
   129a6:	eb843d83          	ld	s11,-328(s0)
   129aa:	eb043603          	ld	a2,-336(s0)
   129ae:	f2043683          	ld	a3,-224(s0)
   129b2:	0985                	addi	s3,s3,1
   129b4:	f4043803          	ld	a6,-192(s0)
   129b8:	ee043703          	ld	a4,-288(s0)
   129bc:	ed043e03          	ld	t3,-304(s0)
   129c0:	f3043503          	ld	a0,-208(s0)
   129c4:	8c66                	mv	s8,s9
   129c6:	9dc6                	add	s11,s11,a7
   129c8:	963e                	add	a2,a2,a5
   129ca:	e53690e3          	bne	a3,s3,1280a <_Z9nn_conv2dPsPKsS1_mmmmmmmm+0x12e>
   129ce:	bdb1                	j	1282a <_Z9nn_conv2dPsPKsS1_mmmmmmmm+0x14e>
   129d0:	000316b7          	lui	a3,0x31
   129d4:	00031637          	lui	a2,0x31
   129d8:	00031537          	lui	a0,0x31
   129dc:	d1868693          	addi	a3,a3,-744 # 30d18 <__clzdi2+0x1266>
   129e0:	d2860613          	addi	a2,a2,-728 # 30d28 <__clzdi2+0x1276>
   129e4:	da050513          	addi	a0,a0,-608 # 30da0 <__clzdi2+0x12ee>
   129e8:	45a9                	li	a1,10
   129ea:	0d9100ef          	jal	232c2 <__assert_func>
   129ee:	00031537          	lui	a0,0x31
   129f2:	db850513          	addi	a0,a0,-584 # 30db8 <__clzdi2+0x1306>
   129f6:	4a4130ef          	jal	25e9a <puts>
   129fa:	00031537          	lui	a0,0x31
   129fe:	e0850513          	addi	a0,a0,-504 # 30e08 <__clzdi2+0x1356>
   12a02:	498130ef          	jal	25e9a <puts>
   12a06:	00031537          	lui	a0,0x31
   12a0a:	e4850513          	addi	a0,a0,-440 # 30e48 <__clzdi2+0x1396>
   12a0e:	48c130ef          	jal	25e9a <puts>
   12a12:	557d                	li	a0,-1
   12a14:	ca3fd0ef          	jal	106b6 <exit>

0000000000012a18 <_Z9nn_linearPsPKsS1_mmm>:
   12a18:	883a                	mv	a6,a4
   12a1a:	c509                	beqz	a0,12a24 <_Z9nn_linearPsPKsS1_mmm+0xc>
   12a1c:	8736                	mv	a4,a3
   12a1e:	86c2                	mv	a3,a6
   12a20:	e88ff06f          	j	120a8 <_Z22tiled_matmul_transposePsPKsS1_mmm>
   12a24:	00031537          	lui	a0,0x31
   12a28:	1101                	addi	sp,sp,-32
   12a2a:	e8850513          	addi	a0,a0,-376 # 30e88 <__clzdi2+0x13d6>
   12a2e:	ec06                	sd	ra,24(sp)
   12a30:	e43e                	sd	a5,8(sp)
   12a32:	e03a                	sd	a4,0(sp)
   12a34:	466130ef          	jal	25e9a <puts>
   12a38:	6602                	ld	a2,0(sp)
   12a3a:	65a2                	ld	a1,8(sp)
   12a3c:	00031537          	lui	a0,0x31
   12a40:	ed850513          	addi	a0,a0,-296 # 30ed8 <__clzdi2+0x1426>
   12a44:	27a130ef          	jal	25cbe <printf>
   12a48:	557d                	li	a0,-1
   12a4a:	c6dfd0ef          	jal	106b6 <exit>

0000000000012a4e <_Z9nn_linearPsPKsS1_S1_mmm>:
   12a4e:	7179                	addi	sp,sp,-48
   12a50:	ec26                	sd	s1,24(sp)
   12a52:	f406                	sd	ra,40(sp)
   12a54:	f022                	sd	s0,32(sp)
   12a56:	84b6                	mv	s1,a3
   12a58:	86be                	mv	a3,a5
   12a5a:	c115                	beqz	a0,12a7e <_Z9nn_linearPsPKsS1_S1_mmm+0x30>
   12a5c:	87c2                	mv	a5,a6
   12a5e:	842a                	mv	s0,a0
   12a60:	e036                	sd	a3,0(sp)
   12a62:	e442                	sd	a6,8(sp)
   12a64:	e44ff0ef          	jal	120a8 <_Z22tiled_matmul_transposePsPKsS1_mmm>
   12a68:	85a2                	mv	a1,s0
   12a6a:	8522                	mv	a0,s0
   12a6c:	7402                	ld	s0,32(sp)
   12a6e:	6702                	ld	a4,0(sp)
   12a70:	66a2                	ld	a3,8(sp)
   12a72:	70a2                	ld	ra,40(sp)
   12a74:	8626                	mv	a2,s1
   12a76:	64e2                	ld	s1,24(sp)
   12a78:	6145                	addi	sp,sp,48
   12a7a:	c02fe06f          	j	10e7c <_Z23tiled_matrix_vector_addPsPKsS1_mm>
   12a7e:	00031537          	lui	a0,0x31
   12a82:	e8850513          	addi	a0,a0,-376 # 30e88 <__clzdi2+0x13d6>
   12a86:	e442                	sd	a6,8(sp)
   12a88:	e03e                	sd	a5,0(sp)
   12a8a:	410130ef          	jal	25e9a <puts>
   12a8e:	6602                	ld	a2,0(sp)
   12a90:	65a2                	ld	a1,8(sp)
   12a92:	00031537          	lui	a0,0x31
   12a96:	ed850513          	addi	a0,a0,-296 # 30ed8 <__clzdi2+0x1426>
   12a9a:	224130ef          	jal	25cbe <printf>
   12a9e:	557d                	li	a0,-1
   12aa0:	c17fd0ef          	jal	106b6 <exit>

0000000000012aa4 <_Z17nn_linear_stridedPsPKsS1_mmmmm>:
   12aa4:	833a                	mv	t1,a4
   12aa6:	c509                	beqz	a0,12ab0 <_Z17nn_linear_stridedPsPKsS1_mmmmm+0xc>
   12aa8:	8736                	mv	a4,a3
   12aaa:	869a                	mv	a3,t1
   12aac:	fc4ff06f          	j	12270 <_Z30tiled_matmul_transpose_stridedPsPKsS1_mmmmm>
   12ab0:	00031537          	lui	a0,0x31
   12ab4:	1101                	addi	sp,sp,-32
   12ab6:	f1050513          	addi	a0,a0,-240 # 30f10 <__clzdi2+0x145e>
   12aba:	ec06                	sd	ra,24(sp)
   12abc:	e43e                	sd	a5,8(sp)
   12abe:	e03a                	sd	a4,0(sp)
   12ac0:	3da130ef          	jal	25e9a <puts>
   12ac4:	6602                	ld	a2,0(sp)
   12ac6:	65a2                	ld	a1,8(sp)
   12ac8:	00031537          	lui	a0,0x31
   12acc:	ed850513          	addi	a0,a0,-296 # 30ed8 <__clzdi2+0x1426>
   12ad0:	1ee130ef          	jal	25cbe <printf>
   12ad4:	557d                	li	a0,-1
   12ad6:	be1fd0ef          	jal	106b6 <exit>

0000000000012ada <_Z22nn_linear_full_stridedPsPKsS1_mmmmmm>:
   12ada:	1101                	addi	sp,sp,-32
   12adc:	ec06                	sd	ra,24(sp)
   12ade:	833a                	mv	t1,a4
   12ae0:	7702                	ld	a4,32(sp)
   12ae2:	c901                	beqz	a0,12af2 <_Z22nn_linear_full_stridedPsPKsS1_mmmmmm+0x18>
   12ae4:	60e2                	ld	ra,24(sp)
   12ae6:	f03a                	sd	a4,32(sp)
   12ae8:	8736                	mv	a4,a3
   12aea:	6105                	addi	sp,sp,32
   12aec:	869a                	mv	a3,t1
   12aee:	83fff06f          	j	1232c <_Z35tiled_matmul_transpose_full_stridedPsPKsS1_mmmmmm>
   12af2:	00031537          	lui	a0,0x31
   12af6:	f6850513          	addi	a0,a0,-152 # 30f68 <__clzdi2+0x14b6>
   12afa:	e43a                	sd	a4,8(sp)
   12afc:	e03e                	sd	a5,0(sp)
   12afe:	39c130ef          	jal	25e9a <puts>
   12b02:	6622                	ld	a2,8(sp)
   12b04:	6582                	ld	a1,0(sp)
   12b06:	00031537          	lui	a0,0x31
   12b0a:	fc050513          	addi	a0,a0,-64 # 30fc0 <__clzdi2+0x150e>
   12b0e:	1b0130ef          	jal	25cbe <printf>
   12b12:	557d                	li	a0,-1
   12b14:	ba3fd0ef          	jal	106b6 <exit>

0000000000012b18 <_Z14nn_batchnorm2dPsPKsmmmmR14BatchNormParam7stage_t>:
   12b18:	7135                	addi	sp,sp,-160
   12b1a:	fcce                	sd	s3,120(sp)
   12b1c:	f8d2                	sd	s4,112(sp)
   12b1e:	f4d6                	sd	s5,104(sp)
   12b20:	ed06                	sd	ra,152(sp)
   12b22:	e82e                	sd	a1,16(sp)
   12b24:	e432                	sd	a2,8(sp)
   12b26:	8ab6                	mv	s5,a3
   12b28:	8a3a                	mv	s4,a4
   12b2a:	89be                	mv	s3,a5
   12b2c:	12050363          	beqz	a0,12c52 <_Z14nn_batchnorm2dPsPKsmmmmR14BatchNormParam7stage_t+0x13a>
   12b30:	0e089563          	bnez	a7,12c1a <_Z14nn_batchnorm2dPsPKsmmmmR14BatchNormParam7stage_t+0x102>
   12b34:	67a2                	ld	a5,8(sp)
   12b36:	c7ed                	beqz	a5,12c20 <_Z14nn_batchnorm2dPsPKsmmmmR14BatchNormParam7stage_t+0x108>
   12b38:	c6e5                	beqz	a3,12c20 <_Z14nn_batchnorm2dPsPKsmmmmR14BatchNormParam7stage_t+0x108>
   12b3a:	033708b3          	mul	a7,a4,s3
   12b3e:	e526                	sd	s1,136(sp)
   12b40:	f0da                	sd	s6,96(sp)
   12b42:	ecde                	sd	s7,88(sp)
   12b44:	e8e2                	sd	s8,80(sp)
   12b46:	fc6e                	sd	s11,56(sp)
   12b48:	e922                	sd	s0,144(sp)
   12b4a:	e14a                	sd	s2,128(sp)
   12b4c:	e4e6                	sd	s9,72(sp)
   12b4e:	e0ea                	sd	s10,64(sp)
   12b50:	02d887b3          	mul	a5,a7,a3
   12b54:	b422                	fsd	fs0,40(sp)
   12b56:	8c2a                	mv	s8,a0
   12b58:	84c2                	mv	s1,a6
   12b5a:	4b81                	li	s7,0
   12b5c:	4b01                	li	s6,0
   12b5e:	00189d93          	slli	s11,a7,0x1
   12b62:	ec3e                	sd	a5,24(sp)
   12b64:	67c2                	ld	a5,16(sp)
   12b66:	001b1813          	slli	a6,s6,0x1
   12b6a:	010c0433          	add	s0,s8,a6
   12b6e:	01078cb3          	add	s9,a5,a6
   12b72:	4d01                	li	s10,0
   12b74:	6c98                	ld	a4,24(s1)
   12b76:	001d1913          	slli	s2,s10,0x1
   12b7a:	0204a787          	flw	fa5,32(s1)
   12b7e:	974a                	add	a4,a4,s2
   12b80:	00071603          	lh	a2,0(a4)
   12b84:	6894                	ld	a3,16(s1)
   12b86:	85e6                	mv	a1,s9
   12b88:	d0067453          	fcvt.s.w	fs0,a2
   12b8c:	96ca                	add	a3,a3,s2
   12b8e:	00069603          	lh	a2,0(a3)
   12b92:	00f47453          	fadd.s	fs0,fs0,fa5
   12b96:	8522                	mv	a0,s0
   12b98:	874e                	mv	a4,s3
   12b9a:	86d2                	mv	a3,s4
   12b9c:	f48fe0ef          	jal	112e4 <_Z23tiled_matrix_sub_scalarPsPKssmm>
   12ba0:	58047453          	fsqrt.s	fs0,fs0
   12ba4:	85a2                	mv	a1,s0
   12ba6:	8522                	mv	a0,s0
   12ba8:	874e                	mv	a4,s3
   12baa:	86d2                	mv	a3,s4
   12bac:	0d05                	addi	s10,s10,1
   12bae:	9cee                	add	s9,s9,s11
   12bb0:	c0041653          	fcvt.w.s	a2,fs0,rtz
   12bb4:	0106161b          	slliw	a2,a2,0x10
   12bb8:	4106561b          	sraiw	a2,a2,0x10
   12bbc:	a09fe0ef          	jal	115c4 <_Z23tiled_matrix_div_scalarPsPKssmm>
   12bc0:	6090                	ld	a2,0(s1)
   12bc2:	85a2                	mv	a1,s0
   12bc4:	8522                	mv	a0,s0
   12bc6:	964a                	add	a2,a2,s2
   12bc8:	00061603          	lh	a2,0(a2)
   12bcc:	874e                	mv	a4,s3
   12bce:	86d2                	mv	a3,s4
   12bd0:	885fe0ef          	jal	11454 <_Z23tiled_matrix_mul_scalarPsPKssmm>
   12bd4:	6490                	ld	a2,8(s1)
   12bd6:	85a2                	mv	a1,s0
   12bd8:	8522                	mv	a0,s0
   12bda:	964a                	add	a2,a2,s2
   12bdc:	00061603          	lh	a2,0(a2)
   12be0:	874e                	mv	a4,s3
   12be2:	86d2                	mv	a3,s4
   12be4:	d90fe0ef          	jal	11174 <_Z23tiled_matrix_add_scalarPsPKssmm>
   12be8:	946e                	add	s0,s0,s11
   12bea:	f9aa95e3          	bne	s5,s10,12b74 <_Z14nn_batchnorm2dPsPKsmmmmR14BatchNormParam7stage_t+0x5c>
   12bee:	67e2                	ld	a5,24(sp)
   12bf0:	0b85                	addi	s7,s7,1
   12bf2:	9b3e                	add	s6,s6,a5
   12bf4:	67a2                	ld	a5,8(sp)
   12bf6:	f77797e3          	bne	a5,s7,12b64 <_Z14nn_batchnorm2dPsPKsmmmmR14BatchNormParam7stage_t+0x4c>
   12bfa:	644a                	ld	s0,144(sp)
   12bfc:	60ea                	ld	ra,152(sp)
   12bfe:	64aa                	ld	s1,136(sp)
   12c00:	690a                	ld	s2,128(sp)
   12c02:	7b06                	ld	s6,96(sp)
   12c04:	6be6                	ld	s7,88(sp)
   12c06:	6c46                	ld	s8,80(sp)
   12c08:	6ca6                	ld	s9,72(sp)
   12c0a:	6d06                	ld	s10,64(sp)
   12c0c:	7de2                	ld	s11,56(sp)
   12c0e:	3422                	fld	fs0,40(sp)
   12c10:	79e6                	ld	s3,120(sp)
   12c12:	7a46                	ld	s4,112(sp)
   12c14:	7aa6                	ld	s5,104(sp)
   12c16:	610d                	addi	sp,sp,160
   12c18:	8082                	ret
   12c1a:	4785                	li	a5,1
   12c1c:	00f88863          	beq	a7,a5,12c2c <_Z14nn_batchnorm2dPsPKsmmmmR14BatchNormParam7stage_t+0x114>
   12c20:	60ea                	ld	ra,152(sp)
   12c22:	79e6                	ld	s3,120(sp)
   12c24:	7a46                	ld	s4,112(sp)
   12c26:	7aa6                	ld	s5,104(sp)
   12c28:	610d                	addi	sp,sp,160
   12c2a:	8082                	ret
   12c2c:	00031537          	lui	a0,0x31
   12c30:	08850513          	addi	a0,a0,136 # 31088 <__clzdi2+0x15d6>
   12c34:	e922                	sd	s0,144(sp)
   12c36:	e526                	sd	s1,136(sp)
   12c38:	e14a                	sd	s2,128(sp)
   12c3a:	f0da                	sd	s6,96(sp)
   12c3c:	ecde                	sd	s7,88(sp)
   12c3e:	e8e2                	sd	s8,80(sp)
   12c40:	e4e6                	sd	s9,72(sp)
   12c42:	e0ea                	sd	s10,64(sp)
   12c44:	fc6e                	sd	s11,56(sp)
   12c46:	b422                	fsd	fs0,40(sp)
   12c48:	076130ef          	jal	25cbe <printf>
   12c4c:	557d                	li	a0,-1
   12c4e:	a69fd0ef          	jal	106b6 <exit>
   12c52:	00031537          	lui	a0,0x31
   12c56:	ff050513          	addi	a0,a0,-16 # 30ff0 <__clzdi2+0x153e>
   12c5a:	e922                	sd	s0,144(sp)
   12c5c:	e526                	sd	s1,136(sp)
   12c5e:	e14a                	sd	s2,128(sp)
   12c60:	f0da                	sd	s6,96(sp)
   12c62:	ecde                	sd	s7,88(sp)
   12c64:	e8e2                	sd	s8,80(sp)
   12c66:	e4e6                	sd	s9,72(sp)
   12c68:	e0ea                	sd	s10,64(sp)
   12c6a:	fc6e                	sd	s11,56(sp)
   12c6c:	b422                	fsd	fs0,40(sp)
   12c6e:	22c130ef          	jal	25e9a <puts>
   12c72:	65a2                	ld	a1,8(sp)
   12c74:	00031537          	lui	a0,0x31
   12c78:	874e                	mv	a4,s3
   12c7a:	86d2                	mv	a3,s4
   12c7c:	8656                	mv	a2,s5
   12c7e:	04050513          	addi	a0,a0,64 # 31040 <__clzdi2+0x158e>
   12c82:	03c130ef          	jal	25cbe <printf>
   12c86:	557d                	li	a0,-1
   12c88:	a2ffd0ef          	jal	106b6 <exit>

0000000000012c8c <_Z14nn_layernorm2dPsPKsmmmmR14LayerNormParam7stage_t>:
   12c8c:	7135                	addi	sp,sp,-160
   12c8e:	e526                	sd	s1,136(sp)
   12c90:	e14a                	sd	s2,128(sp)
   12c92:	ecde                	sd	s7,88(sp)
   12c94:	ed06                	sd	ra,152(sp)
   12c96:	ec2a                	sd	a0,24(sp)
   12c98:	e82e                	sd	a1,16(sp)
   12c9a:	e432                	sd	a2,8(sp)
   12c9c:	8bb6                	mv	s7,a3
   12c9e:	893a                	mv	s2,a4
   12ca0:	84be                	mv	s1,a5
   12ca2:	12050c63          	beqz	a0,12dda <_Z14nn_layernorm2dPsPKsmmmmR14LayerNormParam7stage_t+0x14e>
   12ca6:	0e089f63          	bnez	a7,12da4 <_Z14nn_layernorm2dPsPKsmmmmR14LayerNormParam7stage_t+0x118>
   12caa:	67a2                	ld	a5,8(sp)
   12cac:	0e078f63          	beqz	a5,12daa <_Z14nn_layernorm2dPsPKsmmmmR14LayerNormParam7stage_t+0x11e>
   12cb0:	f4d6                	sd	s5,104(sp)
   12cb2:	02970ab3          	mul	s5,a4,s1
   12cb6:	fcce                	sd	s3,120(sp)
   12cb8:	e8e2                	sd	s8,80(sp)
   12cba:	e4e6                	sd	s9,72(sp)
   12cbc:	e922                	sd	s0,144(sp)
   12cbe:	f8d2                	sd	s4,112(sp)
   12cc0:	f0da                	sd	s6,96(sp)
   12cc2:	e0ea                	sd	s10,64(sp)
   12cc4:	fc6e                	sd	s11,56(sp)
   12cc6:	89c2                	mv	s3,a6
   12cc8:	02da87b3          	mul	a5,s5,a3
   12ccc:	4c81                	li	s9,0
   12cce:	4c01                	li	s8,0
   12cd0:	0a86                	slli	s5,s5,0x1
   12cd2:	e03e                	sd	a5,0(sp)
   12cd4:	67c2                	ld	a5,16(sp)
   12cd6:	001c9413          	slli	s0,s9,0x1
   12cda:	864a                	mv	a2,s2
   12cdc:	00878d33          	add	s10,a5,s0
   12ce0:	85ea                	mv	a1,s10
   12ce2:	1068                	addi	a0,sp,44
   12ce4:	875e                	mv	a4,s7
   12ce6:	86a6                	mv	a3,s1
   12ce8:	828fe0ef          	jal	10d10 <_Z11matrix_meanPsPKsmmm>
   12cec:	6602                	ld	a2,0(sp)
   12cee:	85ea                	mv	a1,s10
   12cf0:	02e10513          	addi	a0,sp,46
   12cf4:	d51fd0ef          	jal	10a44 <_Z10vector_varPsPKsm>
   12cf8:	080b8163          	beqz	s7,12d7a <_Z14nn_layernorm2dPsPKsmmmmR14LayerNormParam7stage_t+0xee>
   12cfc:	02e11783          	lh	a5,46(sp)
   12d00:	0109a707          	flw	fa4,16(s3)
   12d04:	6762                	ld	a4,24(sp)
   12d06:	d007f7d3          	fcvt.s.w	fa5,a5
   12d0a:	001c1a13          	slli	s4,s8,0x1
   12d0e:	943a                	add	s0,s0,a4
   12d10:	00e7f7d3          	fadd.s	fa5,fa5,fa4
   12d14:	4d81                	li	s11,0
   12d16:	5807f7d3          	fsqrt.s	fa5,fa5
   12d1a:	c0079b53          	fcvt.w.s	s6,fa5,rtz
   12d1e:	010b1b1b          	slliw	s6,s6,0x10
   12d22:	410b5b1b          	sraiw	s6,s6,0x10
   12d26:	02c11603          	lh	a2,44(sp)
   12d2a:	85ea                	mv	a1,s10
   12d2c:	8522                	mv	a0,s0
   12d2e:	8726                	mv	a4,s1
   12d30:	86ca                	mv	a3,s2
   12d32:	db2fe0ef          	jal	112e4 <_Z23tiled_matrix_sub_scalarPsPKssmm>
   12d36:	85a2                	mv	a1,s0
   12d38:	8522                	mv	a0,s0
   12d3a:	8726                	mv	a4,s1
   12d3c:	86ca                	mv	a3,s2
   12d3e:	865a                	mv	a2,s6
   12d40:	885fe0ef          	jal	115c4 <_Z23tiled_matrix_div_scalarPsPKssmm>
   12d44:	0009b783          	ld	a5,0(s3)
   12d48:	85a2                	mv	a1,s0
   12d4a:	8522                	mv	a0,s0
   12d4c:	97d2                	add	a5,a5,s4
   12d4e:	00079603          	lh	a2,0(a5)
   12d52:	8726                	mv	a4,s1
   12d54:	86ca                	mv	a3,s2
   12d56:	efefe0ef          	jal	11454 <_Z23tiled_matrix_mul_scalarPsPKssmm>
   12d5a:	0089b783          	ld	a5,8(s3)
   12d5e:	85a2                	mv	a1,s0
   12d60:	8522                	mv	a0,s0
   12d62:	97d2                	add	a5,a5,s4
   12d64:	00079603          	lh	a2,0(a5)
   12d68:	8726                	mv	a4,s1
   12d6a:	86ca                	mv	a3,s2
   12d6c:	0d85                	addi	s11,s11,1
   12d6e:	c06fe0ef          	jal	11174 <_Z23tiled_matrix_add_scalarPsPKssmm>
   12d72:	9456                	add	s0,s0,s5
   12d74:	9d56                	add	s10,s10,s5
   12d76:	fbbb98e3          	bne	s7,s11,12d26 <_Z14nn_layernorm2dPsPKsmmmmR14LayerNormParam7stage_t+0x9a>
   12d7a:	6782                	ld	a5,0(sp)
   12d7c:	0c05                	addi	s8,s8,1
   12d7e:	9cbe                	add	s9,s9,a5
   12d80:	67a2                	ld	a5,8(sp)
   12d82:	f58799e3          	bne	a5,s8,12cd4 <_Z14nn_layernorm2dPsPKsmmmmR14LayerNormParam7stage_t+0x48>
   12d86:	644a                	ld	s0,144(sp)
   12d88:	60ea                	ld	ra,152(sp)
   12d8a:	79e6                	ld	s3,120(sp)
   12d8c:	7a46                	ld	s4,112(sp)
   12d8e:	7aa6                	ld	s5,104(sp)
   12d90:	7b06                	ld	s6,96(sp)
   12d92:	6c46                	ld	s8,80(sp)
   12d94:	6ca6                	ld	s9,72(sp)
   12d96:	6d06                	ld	s10,64(sp)
   12d98:	7de2                	ld	s11,56(sp)
   12d9a:	64aa                	ld	s1,136(sp)
   12d9c:	690a                	ld	s2,128(sp)
   12d9e:	6be6                	ld	s7,88(sp)
   12da0:	610d                	addi	sp,sp,160
   12da2:	8082                	ret
   12da4:	4785                	li	a5,1
   12da6:	00f88863          	beq	a7,a5,12db6 <_Z14nn_layernorm2dPsPKsmmmmR14LayerNormParam7stage_t+0x12a>
   12daa:	60ea                	ld	ra,152(sp)
   12dac:	64aa                	ld	s1,136(sp)
   12dae:	690a                	ld	s2,128(sp)
   12db0:	6be6                	ld	s7,88(sp)
   12db2:	610d                	addi	sp,sp,160
   12db4:	8082                	ret
   12db6:	00031537          	lui	a0,0x31
   12dba:	10850513          	addi	a0,a0,264 # 31108 <__clzdi2+0x1656>
   12dbe:	e922                	sd	s0,144(sp)
   12dc0:	fcce                	sd	s3,120(sp)
   12dc2:	f8d2                	sd	s4,112(sp)
   12dc4:	f4d6                	sd	s5,104(sp)
   12dc6:	f0da                	sd	s6,96(sp)
   12dc8:	e8e2                	sd	s8,80(sp)
   12dca:	e4e6                	sd	s9,72(sp)
   12dcc:	e0ea                	sd	s10,64(sp)
   12dce:	fc6e                	sd	s11,56(sp)
   12dd0:	6ef120ef          	jal	25cbe <printf>
   12dd4:	557d                	li	a0,-1
   12dd6:	8e1fd0ef          	jal	106b6 <exit>
   12dda:	00031537          	lui	a0,0x31
   12dde:	0b850513          	addi	a0,a0,184 # 310b8 <__clzdi2+0x1606>
   12de2:	e922                	sd	s0,144(sp)
   12de4:	fcce                	sd	s3,120(sp)
   12de6:	f8d2                	sd	s4,112(sp)
   12de8:	f4d6                	sd	s5,104(sp)
   12dea:	f0da                	sd	s6,96(sp)
   12dec:	e8e2                	sd	s8,80(sp)
   12dee:	e4e6                	sd	s9,72(sp)
   12df0:	e0ea                	sd	s10,64(sp)
   12df2:	fc6e                	sd	s11,56(sp)
   12df4:	0a6130ef          	jal	25e9a <puts>
   12df8:	65a2                	ld	a1,8(sp)
   12dfa:	00031537          	lui	a0,0x31
   12dfe:	8726                	mv	a4,s1
   12e00:	86ca                	mv	a3,s2
   12e02:	865e                	mv	a2,s7
   12e04:	04050513          	addi	a0,a0,64 # 31040 <__clzdi2+0x158e>
   12e08:	6b7120ef          	jal	25cbe <printf>
   12e0c:	557d                	li	a0,-1
   12e0e:	8a9fd0ef          	jal	106b6 <exit>

0000000000012e12 <_Z15nn_maxpooling2dPsPKsmmmmmmm>:
   12e12:	7115                	addi	sp,sp,-224
   12e14:	f952                	sd	s4,176(sp)
   12e16:	ed86                	sd	ra,216(sp)
   12e18:	e9a2                	sd	s0,208(sp)
   12e1a:	7a0e                	ld	s4,224(sp)
   12e1c:	18050e63          	beqz	a0,12fb8 <_Z15nn_maxpooling2dPsPKsmmmmmmm+0x1a6>
   12e20:	e5a6                	sd	s1,200(sp)
   12e22:	e1ca                	sd	s2,192(sp)
   12e24:	fd4e                	sd	s3,184(sp)
   12e26:	8442                	mv	s0,a6
   12e28:	1c080763          	beqz	a6,12ff6 <_Z15nn_maxpooling2dPsPKsmmmmmmm+0x1e4>
   12e2c:	f15a                	sd	s6,160(sp)
   12e2e:	ed5e                	sd	s7,152(sp)
   12e30:	e962                	sd	s8,144(sp)
   12e32:	e566                	sd	s9,136(sp)
   12e34:	89aa                	mv	s3,a0
   12e36:	8cae                	mv	s9,a1
   12e38:	8b32                	mv	s6,a2
   12e3a:	8bb6                	mv	s7,a3
   12e3c:	84ba                	mv	s1,a4
   12e3e:	893e                	mv	s2,a5
   12e40:	8c46                	mv	s8,a7
   12e42:	160a0963          	beqz	s4,12fb4 <_Z15nn_maxpooling2dPsPKsmmmmmmm+0x1a2>
   12e46:	87de                	mv	a5,s7
   12e48:	0088                	addi	a0,sp,64
   12e4a:	88ca                	mv	a7,s2
   12e4c:	8826                	mv	a6,s1
   12e4e:	875a                	mv	a4,s6
   12e50:	86e2                	mv	a3,s8
   12e52:	0890                	addi	a2,sp,80
   12e54:	00ac                	addi	a1,sp,72
   12e56:	de0ff0ef          	jal	12436 <_Z15padding2d_shapePmS_S_mmmmm>
   12e5a:	6506                	ld	a0,64(sp)
   12e5c:	57cd                	li	a5,-13
   12e5e:	8389                	srli	a5,a5,0x2
   12e60:	f556                	sd	s5,168(sp)
   12e62:	1ca7e063          	bltu	a5,a0,13022 <_Z15nn_maxpooling2dPsPKsmmmmmmm+0x210>
   12e66:	0506                	slli	a0,a0,0x1
   12e68:	7d0020ef          	jal	15638 <_Znam>
   12e6c:	88ca                	mv	a7,s2
   12e6e:	8826                	mv	a6,s1
   12e70:	87de                	mv	a5,s7
   12e72:	875a                	mv	a4,s6
   12e74:	85e6                	mv	a1,s9
   12e76:	8662                	mv	a2,s8
   12e78:	76e1                	lui	a3,0xffff8
   12e7a:	8aaa                	mv	s5,a0
   12e7c:	f60ff0ef          	jal	125dc <_Z9padding2dPsPKsmsmmmm>
   12e80:	875e                	mv	a4,s7
   12e82:	e062                	sd	s8,0(sp)
   12e84:	e452                	sd	s4,8(sp)
   12e86:	86da                	mv	a3,s6
   12e88:	88a2                	mv	a7,s0
   12e8a:	884a                	mv	a6,s2
   12e8c:	87a6                	mv	a5,s1
   12e8e:	10b0                	addi	a2,sp,104
   12e90:	108c                	addi	a1,sp,96
   12e92:	08a8                	addi	a0,sp,88
   12e94:	80dff0ef          	jal	126a0 <_Z15pooling2d_shapePmS_S_mmmmmmm>
   12e98:	06090863          	beqz	s2,12f08 <_Z15nn_maxpooling2dPsPKsmmmmmmm+0xf6>
   12e9c:	c4b5                	beqz	s1,12f08 <_Z15nn_maxpooling2dPsPKsmmmmmmm+0xf6>
   12e9e:	6746                	ld	a4,80(sp)
   12ea0:	65a6                	ld	a1,72(sp)
   12ea2:	7506                	ld	a0,96(sp)
   12ea4:	7f26                	ld	t5,104(sp)
   12ea6:	02b70eb3          	mul	t4,a4,a1
   12eaa:	00141813          	slli	a6,s0,0x1
   12eae:	010a8e33          	add	t3,s5,a6
   12eb2:	00171893          	slli	a7,a4,0x1
   12eb6:	4301                	li	t1,0
   12eb8:	4681                	li	a3,0
   12eba:	4781                	li	a5,0
   12ebc:	03e50633          	mul	a2,a0,t5
   12ec0:	03d485b3          	mul	a1,s1,t4
   12ec4:	02c48ab3          	mul	s5,s1,a2
   12ec8:	03470b33          	mul	s6,a4,s4
   12ecc:	8732                	mv	a4,a2
   12ece:	c905                	beqz	a0,12efe <_Z15nn_maxpooling2dPsPKsmmmmmmm+0xec>
   12ed0:	863e                	mv	a2,a5
   12ed2:	e16a                	sd	s10,128(sp)
   12ed4:	fcee                	sd	s11,120(sp)
   12ed6:	8f9a                	mv	t6,t1
   12ed8:	82b6                	mv	t0,a3
   12eda:	4b81                	li	s7,0
   12edc:	87b6                	mv	a5,a3
   12ede:	8396                	mv	t2,t0
   12ee0:	4681                	li	a3,0
   12ee2:	040f1063          	bnez	t5,12f22 <_Z15nn_maxpooling2dPsPKsmmmmmmm+0x110>
   12ee6:	0685                	addi	a3,a3,1 # ffffffffffff8001 <__BSS_END__+0xfffffffffffb20d9>
   12ee8:	fed51fe3          	bne	a0,a3,12ee6 <_Z15nn_maxpooling2dPsPKsmmmmmmm+0xd4>
   12eec:	0b85                	addi	s7,s7,1
   12eee:	92f6                	add	t0,t0,t4
   12ef0:	9fba                	add	t6,t6,a4
   12ef2:	ff7496e3          	bne	s1,s7,12ede <_Z15nn_maxpooling2dPsPKsmmmmmmm+0xcc>
   12ef6:	6d0a                	ld	s10,128(sp)
   12ef8:	7de6                	ld	s11,120(sp)
   12efa:	86be                	mv	a3,a5
   12efc:	87b2                	mv	a5,a2
   12efe:	0785                	addi	a5,a5,1
   12f00:	96ae                	add	a3,a3,a1
   12f02:	9356                	add	t1,t1,s5
   12f04:	fd2795e3          	bne	a5,s2,12ece <_Z15nn_maxpooling2dPsPKsmmmmmmm+0xbc>
   12f08:	644e                	ld	s0,208(sp)
   12f0a:	60ee                	ld	ra,216(sp)
   12f0c:	64ae                	ld	s1,200(sp)
   12f0e:	690e                	ld	s2,192(sp)
   12f10:	79ea                	ld	s3,184(sp)
   12f12:	7aaa                	ld	s5,168(sp)
   12f14:	7b0a                	ld	s6,160(sp)
   12f16:	6bea                	ld	s7,152(sp)
   12f18:	6c4a                	ld	s8,144(sp)
   12f1a:	6caa                	ld	s9,136(sp)
   12f1c:	7a4a                	ld	s4,176(sp)
   12f1e:	612d                	addi	sp,sp,224
   12f20:	8082                	ret
   12f22:	ec3e                	sd	a5,24(sp)
   12f24:	f03a                	sd	a4,32(sp)
   12f26:	8cfe                	mv	s9,t6
   12f28:	87f6                	mv	a5,t4
   12f2a:	8736                	mv	a4,a3
   12f2c:	019f0db3          	add	s11,t5,s9
   12f30:	001c9e93          	slli	t4,s9,0x1
   12f34:	001d9693          	slli	a3,s11,0x1
   12f38:	9ece                	add	t4,t4,s3
   12f3a:	96ce                	add	a3,a3,s3
   12f3c:	8c9e                	mv	s9,t2
   12f3e:	f42a                	sd	a0,40(sp)
   12f40:	f87a                	sd	t5,48(sp)
   12f42:	fc32                	sd	a2,56(sp)
   12f44:	001c9c13          	slli	s8,s9,0x1
   12f48:	9c72                	add	s8,s8,t3
   12f4a:	4d01                	li	s10,0
   12f4c:	7f61                	lui	t5,0xffff8
   12f4e:	e866                	sd	s9,16(sp)
   12f50:	410c0533          	sub	a0,s8,a6
   12f54:	00055603          	lhu	a2,0(a0)
   12f58:	01061c9b          	slliw	s9,a2,0x10
   12f5c:	410cdc9b          	sraiw	s9,s9,0x10
   12f60:	01ecd363          	bge	s9,t5,12f66 <_Z15nn_maxpooling2dPsPKsmmmmmmm+0x154>
   12f64:	867a                	mv	a2,t5
   12f66:	01061f1b          	slliw	t5,a2,0x10
   12f6a:	0509                	addi	a0,a0,2
   12f6c:	410f5f1b          	sraiw	t5,t5,0x10
   12f70:	feac12e3          	bne	s8,a0,12f54 <_Z15nn_maxpooling2dPsPKsmmmmmmm+0x142>
   12f74:	0d05                	addi	s10,s10,1
   12f76:	9c46                	add	s8,s8,a7
   12f78:	fda41ce3          	bne	s0,s10,12f50 <_Z15nn_maxpooling2dPsPKsmmmmmmm+0x13e>
   12f7c:	6cc2                	ld	s9,16(sp)
   12f7e:	00ce9023          	sh	a2,0(t4)
   12f82:	0e89                	addi	t4,t4,2
   12f84:	9cd2                	add	s9,s9,s4
   12f86:	fade9fe3          	bne	t4,a3,12f44 <_Z15nn_maxpooling2dPsPKsmmmmmmm+0x132>
   12f8a:	7522                	ld	a0,40(sp)
   12f8c:	0705                	addi	a4,a4,1
   12f8e:	7f42                	ld	t5,48(sp)
   12f90:	7662                	ld	a2,56(sp)
   12f92:	93da                	add	t2,t2,s6
   12f94:	8cee                	mv	s9,s11
   12f96:	f8e51be3          	bne	a0,a4,12f2c <_Z15nn_maxpooling2dPsPKsmmmmmmm+0x11a>
   12f9a:	7702                	ld	a4,32(sp)
   12f9c:	8ebe                	mv	t4,a5
   12f9e:	0b85                	addi	s7,s7,1
   12fa0:	67e2                	ld	a5,24(sp)
   12fa2:	92f6                	add	t0,t0,t4
   12fa4:	9fba                	add	t6,t6,a4
   12fa6:	f3749ce3          	bne	s1,s7,12ede <_Z15nn_maxpooling2dPsPKsmmmmmmm+0xcc>
   12faa:	86be                	mv	a3,a5
   12fac:	6d0a                	ld	s10,128(sp)
   12fae:	7de6                	ld	s11,120(sp)
   12fb0:	87b2                	mv	a5,a2
   12fb2:	b7b1                	j	12efe <_Z15nn_maxpooling2dPsPKsmmmmmmm+0xec>
   12fb4:	8a42                	mv	s4,a6
   12fb6:	bd41                	j	12e46 <_Z15nn_maxpooling2dPsPKsmmmmmmm+0x34>
   12fb8:	00031537          	lui	a0,0x31
   12fbc:	13850513          	addi	a0,a0,312 # 31138 <__clzdi2+0x1686>
   12fc0:	e5a6                	sd	s1,200(sp)
   12fc2:	e1ca                	sd	s2,192(sp)
   12fc4:	fd4e                	sd	s3,184(sp)
   12fc6:	f556                	sd	s5,168(sp)
   12fc8:	f15a                	sd	s6,160(sp)
   12fca:	ed5e                	sd	s7,152(sp)
   12fcc:	e962                	sd	s8,144(sp)
   12fce:	e566                	sd	s9,136(sp)
   12fd0:	e16a                	sd	s10,128(sp)
   12fd2:	fcee                	sd	s11,120(sp)
   12fd4:	6c7120ef          	jal	25e9a <puts>
   12fd8:	00031537          	lui	a0,0x31
   12fdc:	e0850513          	addi	a0,a0,-504 # 30e08 <__clzdi2+0x1356>
   12fe0:	6bb120ef          	jal	25e9a <puts>
   12fe4:	00031537          	lui	a0,0x31
   12fe8:	18850513          	addi	a0,a0,392 # 31188 <__clzdi2+0x16d6>
   12fec:	6af120ef          	jal	25e9a <puts>
   12ff0:	557d                	li	a0,-1
   12ff2:	ec4fd0ef          	jal	106b6 <exit>
   12ff6:	000316b7          	lui	a3,0x31
   12ffa:	00031637          	lui	a2,0x31
   12ffe:	00031537          	lui	a0,0x31
   13002:	1c868693          	addi	a3,a3,456 # 311c8 <__clzdi2+0x1716>
   13006:	1d860613          	addi	a2,a2,472 # 311d8 <__clzdi2+0x1726>
   1300a:	24050513          	addi	a0,a0,576 # 31240 <__clzdi2+0x178e>
   1300e:	45b5                	li	a1,13
   13010:	f556                	sd	s5,168(sp)
   13012:	f15a                	sd	s6,160(sp)
   13014:	ed5e                	sd	s7,152(sp)
   13016:	e962                	sd	s8,144(sp)
   13018:	e566                	sd	s9,136(sp)
   1301a:	e16a                	sd	s10,128(sp)
   1301c:	fcee                	sd	s11,120(sp)
   1301e:	2a4100ef          	jal	232c2 <__assert_func>
   13022:	e16a                	sd	s10,128(sp)
   13024:	fcee                	sd	s11,120(sp)
   13026:	946fd0ef          	jal	1016c <__cxa_throw_bad_array_new_length>

000000000001302a <_Z9mean_fp32PKfm>:
   1302a:	f00007d3          	fmv.w.x	fa5,zero
   1302e:	c999                	beqz	a1,13044 <_Z9mean_fp32PKfm+0x1a>
   13030:	00259793          	slli	a5,a1,0x2
   13034:	97aa                	add	a5,a5,a0
   13036:	00052707          	flw	fa4,0(a0)
   1303a:	0511                	addi	a0,a0,4
   1303c:	00e7f7d3          	fadd.s	fa5,fa5,fa4
   13040:	fef51be3          	bne	a0,a5,13036 <_Z9mean_fp32PKfm+0xc>
   13044:	d025f553          	fcvt.s.l	fa0,a1
   13048:	18a7f553          	fdiv.s	fa0,fa5,fa0
   1304c:	8082                	ret

000000000001304e <_Z13variance_fp32PKfm>:
   1304e:	c1a1                	beqz	a1,1308e <_Z13variance_fp32PKfm+0x40>
   13050:	f00007d3          	fmv.w.x	fa5,zero
   13054:	00259713          	slli	a4,a1,0x2
   13058:	972a                	add	a4,a4,a0
   1305a:	87aa                	mv	a5,a0
   1305c:	0007a707          	flw	fa4,0(a5)
   13060:	0791                	addi	a5,a5,4
   13062:	00e7f7d3          	fadd.s	fa5,fa5,fa4
   13066:	fef71be3          	bne	a4,a5,1305c <_Z13variance_fp32PKfm+0xe>
   1306a:	d025f6d3          	fcvt.s.l	fa3,a1
   1306e:	f0000553          	fmv.w.x	fa0,zero
   13072:	18d7f753          	fdiv.s	fa4,fa5,fa3
   13076:	00052787          	flw	fa5,0(a0)
   1307a:	0511                	addi	a0,a0,4
   1307c:	08e7f7d3          	fsub.s	fa5,fa5,fa4
   13080:	50f7f543          	fmadd.s	fa0,fa5,fa5,fa0
   13084:	fea719e3          	bne	a4,a0,13076 <_Z13variance_fp32PKfm+0x28>
   13088:	18d57553          	fdiv.s	fa0,fa0,fa3
   1308c:	8082                	ret
   1308e:	8d01a507          	flw	fa0,-1840(gp) # 3f730 <mask+0x68>
   13092:	8082                	ret

0000000000013094 <_Z8max_fp32PKfm>:
   13094:	8d41a507          	flw	fa0,-1836(gp) # 3f734 <mask+0x6c>
   13098:	c999                	beqz	a1,130ae <_Z8max_fp32PKfm+0x1a>
   1309a:	058a                	slli	a1,a1,0x2
   1309c:	95aa                	add	a1,a1,a0
   1309e:	00052787          	flw	fa5,0(a0)
   130a2:	0511                	addi	a0,a0,4
   130a4:	28f51553          	fmax.s	fa0,fa0,fa5
   130a8:	feb51be3          	bne	a0,a1,1309e <_Z8max_fp32PKfm+0xa>
   130ac:	8082                	ret
   130ae:	8082                	ret

00000000000130b0 <_Z11argmax_fp32PKfm>:
   130b0:	4785                	li	a5,1
   130b2:	02b7f463          	bgeu	a5,a1,130da <_Z11argmax_fp32PKfm+0x2a>
   130b6:	00052707          	flw	fa4,0(a0)
   130ba:	00450713          	addi	a4,a0,4
   130be:	4501                	li	a0,0
   130c0:	00072787          	flw	fa5,0(a4)
   130c4:	0711                	addi	a4,a4,4
   130c6:	a0e786d3          	fle.s	a3,fa5,fa4
   130ca:	e681                	bnez	a3,130d2 <_Z11argmax_fp32PKfm+0x22>
   130cc:	20f78753          	fmv.s	fa4,fa5
   130d0:	853e                	mv	a0,a5
   130d2:	0785                	addi	a5,a5,1
   130d4:	fef596e3          	bne	a1,a5,130c0 <_Z11argmax_fp32PKfm+0x10>
   130d8:	8082                	ret
   130da:	4501                	li	a0,0
   130dc:	8082                	ret

00000000000130de <_Z12softmax_fp32PfPKfm>:
   130de:	c659                	beqz	a2,1316c <_Z12softmax_fp32PfPKfm+0x8e>
   130e0:	715d                	addi	sp,sp,-80
   130e2:	ec56                	sd	s5,24(sp)
   130e4:	00261a93          	slli	s5,a2,0x2
   130e8:	fc26                	sd	s1,56(sp)
   130ea:	f44e                	sd	s3,40(sp)
   130ec:	a422                	fsd	fs0,8(sp)
   130ee:	e486                	sd	ra,72(sp)
   130f0:	8d41a407          	flw	fs0,-1836(gp) # 3f734 <mask+0x6c>
   130f4:	e0a2                	sd	s0,64(sp)
   130f6:	f84a                	sd	s2,48(sp)
   130f8:	f052                	sd	s4,32(sp)
   130fa:	a026                	fsd	fs1,0(sp)
   130fc:	84ae                	mv	s1,a1
   130fe:	015589b3          	add	s3,a1,s5
   13102:	87ae                	mv	a5,a1
   13104:	0007a787          	flw	fa5,0(a5)
   13108:	0791                	addi	a5,a5,4
   1310a:	28f41453          	fmax.s	fs0,fs0,fa5
   1310e:	ff379be3          	bne	a5,s3,13104 <_Z12softmax_fp32PfPKfm+0x26>
   13112:	f00004d3          	fmv.w.x	fs1,zero
   13116:	8a2a                	mv	s4,a0
   13118:	842a                	mv	s0,a0
   1311a:	892a                	mv	s2,a0
   1311c:	0004a507          	flw	fa0,0(s1)
   13120:	0491                	addi	s1,s1,4
   13122:	0911                	addi	s2,s2,4
   13124:	08857553          	fsub.s	fa0,fa0,fs0
   13128:	3fb0c0ef          	jal	1fd22 <expf>
   1312c:	fea92e27          	fsw	fa0,-4(s2)
   13130:	00a4f4d3          	fadd.s	fs1,fs1,fa0
   13134:	ff3494e3          	bne	s1,s3,1311c <_Z12softmax_fp32PfPKfm+0x3e>
   13138:	8d81a707          	flw	fa4,-1832(gp) # 3f738 <mask+0x70>
   1313c:	015a0533          	add	a0,s4,s5
   13140:	18977753          	fdiv.s	fa4,fa4,fs1
   13144:	00042787          	flw	fa5,0(s0)
   13148:	0411                	addi	s0,s0,4
   1314a:	10e7f7d3          	fmul.s	fa5,fa5,fa4
   1314e:	fef42e27          	fsw	fa5,-4(s0)
   13152:	fe8519e3          	bne	a0,s0,13144 <_Z12softmax_fp32PfPKfm+0x66>
   13156:	60a6                	ld	ra,72(sp)
   13158:	6406                	ld	s0,64(sp)
   1315a:	74e2                	ld	s1,56(sp)
   1315c:	7942                	ld	s2,48(sp)
   1315e:	79a2                	ld	s3,40(sp)
   13160:	7a02                	ld	s4,32(sp)
   13162:	6ae2                	ld	s5,24(sp)
   13164:	2422                	fld	fs0,8(sp)
   13166:	2482                	fld	fs1,0(sp)
   13168:	6161                	addi	sp,sp,80
   1316a:	8082                	ret
   1316c:	8082                	ret

000000000001316e <_Z15softmax_2d_fp32PfPKfmm>:
   1316e:	c239                	beqz	a2,131b4 <_Z15softmax_2d_fp32PfPKfmm+0x46>
   13170:	7139                	addi	sp,sp,-64
   13172:	f822                	sd	s0,48(sp)
   13174:	f426                	sd	s1,40(sp)
   13176:	f04a                	sd	s2,32(sp)
   13178:	ec4e                	sd	s3,24(sp)
   1317a:	e852                	sd	s4,16(sp)
   1317c:	e456                	sd	s5,8(sp)
   1317e:	fc06                	sd	ra,56(sp)
   13180:	8ab6                	mv	s5,a3
   13182:	8a32                	mv	s4,a2
   13184:	84aa                	mv	s1,a0
   13186:	842e                	mv	s0,a1
   13188:	00269993          	slli	s3,a3,0x2
   1318c:	4901                	li	s2,0
   1318e:	85a2                	mv	a1,s0
   13190:	8526                	mv	a0,s1
   13192:	8656                	mv	a2,s5
   13194:	0905                	addi	s2,s2,1
   13196:	f49ff0ef          	jal	130de <_Z12softmax_fp32PfPKfm>
   1319a:	94ce                	add	s1,s1,s3
   1319c:	944e                	add	s0,s0,s3
   1319e:	ff2a18e3          	bne	s4,s2,1318e <_Z15softmax_2d_fp32PfPKfmm+0x20>
   131a2:	70e2                	ld	ra,56(sp)
   131a4:	7442                	ld	s0,48(sp)
   131a6:	74a2                	ld	s1,40(sp)
   131a8:	7902                	ld	s2,32(sp)
   131aa:	69e2                	ld	s3,24(sp)
   131ac:	6a42                	ld	s4,16(sp)
   131ae:	6aa2                	ld	s5,8(sp)
   131b0:	6121                	addi	sp,sp,64
   131b2:	8082                	ret
   131b4:	8082                	ret

00000000000131b6 <_Z9gelu_fp32PfPKfm>:
   131b6:	ca3d                	beqz	a2,1322c <_Z9gelu_fp32PfPKfm+0x76>
   131b8:	715d                	addi	sp,sp,-80
   131ba:	b026                	fsd	fs1,32(sp)
   131bc:	ac4a                	fsd	fs2,24(sp)
   131be:	a84e                	fsd	fs3,16(sp)
   131c0:	a452                	fsd	fs4,8(sp)
   131c2:	8d81a487          	flw	fs1,-1832(gp) # 3f738 <mask+0x70>
   131c6:	8dc1aa07          	flw	fs4,-1828(gp) # 3f73c <mask+0x74>
   131ca:	8e01a987          	flw	fs3,-1824(gp) # 3f740 <mask+0x78>
   131ce:	8e41a907          	flw	fs2,-1820(gp) # 3f744 <mask+0x7c>
   131d2:	f84a                	sd	s2,48(sp)
   131d4:	00261913          	slli	s2,a2,0x2
   131d8:	e0a2                	sd	s0,64(sp)
   131da:	fc26                	sd	s1,56(sp)
   131dc:	e486                	sd	ra,72(sp)
   131de:	b422                	fsd	fs0,40(sp)
   131e0:	842e                	mv	s0,a1
   131e2:	992e                	add	s2,s2,a1
   131e4:	84aa                	mv	s1,a0
   131e6:	00042407          	flw	fs0,0(s0)
   131ea:	0411                	addi	s0,s0,4
   131ec:	0491                	addi	s1,s1,4
   131ee:	10847553          	fmul.s	fa0,fs0,fs0
   131f2:	49457543          	fmadd.s	fa0,fa0,fs4,fs1
   131f6:	10857553          	fmul.s	fa0,fa0,fs0
   131fa:	11357553          	fmul.s	fa0,fa0,fs3
   131fe:	5680c0ef          	jal	1f766 <tanhf>
   13202:	00957553          	fadd.s	fa0,fa0,fs1
   13206:	11257553          	fmul.s	fa0,fa0,fs2
   1320a:	10857553          	fmul.s	fa0,fa0,fs0
   1320e:	fea4ae27          	fsw	fa0,-4(s1)
   13212:	fc891ae3          	bne	s2,s0,131e6 <_Z9gelu_fp32PfPKfm+0x30>
   13216:	60a6                	ld	ra,72(sp)
   13218:	6406                	ld	s0,64(sp)
   1321a:	74e2                	ld	s1,56(sp)
   1321c:	7942                	ld	s2,48(sp)
   1321e:	3422                	fld	fs0,40(sp)
   13220:	3482                	fld	fs1,32(sp)
   13222:	2962                	fld	fs2,24(sp)
   13224:	29c2                	fld	fs3,16(sp)
   13226:	2a22                	fld	fs4,8(sp)
   13228:	6161                	addi	sp,sp,80
   1322a:	8082                	ret
   1322c:	8082                	ret

000000000001322e <_Z14gelu_tanh_fp32PfPKfm>:
   1322e:	b761                	j	131b6 <_Z9gelu_fp32PfPKfm>

0000000000013230 <_Z12gelu_2d_fp32PfPKfmm>:
   13230:	02d60633          	mul	a2,a2,a3
   13234:	b749                	j	131b6 <_Z9gelu_fp32PfPKfm>

0000000000013236 <_Z9silu_fp32PfPKfm>:
   13236:	c639                	beqz	a2,13284 <_Z9silu_fp32PfPKfm+0x4e>
   13238:	7179                	addi	sp,sp,-48
   1323a:	a026                	fsd	fs1,0(sp)
   1323c:	8d81a487          	flw	fs1,-1832(gp) # 3f738 <mask+0x70>
   13240:	e84a                	sd	s2,16(sp)
   13242:	00261913          	slli	s2,a2,0x2
   13246:	f022                	sd	s0,32(sp)
   13248:	ec26                	sd	s1,24(sp)
   1324a:	f406                	sd	ra,40(sp)
   1324c:	a422                	fsd	fs0,8(sp)
   1324e:	842e                	mv	s0,a1
   13250:	992e                	add	s2,s2,a1
   13252:	84aa                	mv	s1,a0
   13254:	00042407          	flw	fs0,0(s0)
   13258:	0411                	addi	s0,s0,4
   1325a:	0491                	addi	s1,s1,4
   1325c:	20841553          	fneg.s	fa0,fs0
   13260:	2c30c0ef          	jal	1fd22 <expf>
   13264:	00957553          	fadd.s	fa0,fa0,fs1
   13268:	18a47453          	fdiv.s	fs0,fs0,fa0
   1326c:	fe84ae27          	fsw	fs0,-4(s1)
   13270:	fe8912e3          	bne	s2,s0,13254 <_Z9silu_fp32PfPKfm+0x1e>
   13274:	70a2                	ld	ra,40(sp)
   13276:	7402                	ld	s0,32(sp)
   13278:	64e2                	ld	s1,24(sp)
   1327a:	6942                	ld	s2,16(sp)
   1327c:	2422                	fld	fs0,8(sp)
   1327e:	2482                	fld	fs1,0(sp)
   13280:	6145                	addi	sp,sp,48
   13282:	8082                	ret
   13284:	8082                	ret

0000000000013286 <_Z12silu_2d_fp32PfPKfmm>:
   13286:	02d60633          	mul	a2,a2,a3
   1328a:	c639                	beqz	a2,132d8 <_Z12silu_2d_fp32PfPKfmm+0x52>
   1328c:	7179                	addi	sp,sp,-48
   1328e:	a026                	fsd	fs1,0(sp)
   13290:	8d81a487          	flw	fs1,-1832(gp) # 3f738 <mask+0x70>
   13294:	060a                	slli	a2,a2,0x2
   13296:	f022                	sd	s0,32(sp)
   13298:	ec26                	sd	s1,24(sp)
   1329a:	e84a                	sd	s2,16(sp)
   1329c:	f406                	sd	ra,40(sp)
   1329e:	a422                	fsd	fs0,8(sp)
   132a0:	842e                	mv	s0,a1
   132a2:	00c58933          	add	s2,a1,a2
   132a6:	84aa                	mv	s1,a0
   132a8:	00042407          	flw	fs0,0(s0)
   132ac:	0411                	addi	s0,s0,4
   132ae:	0491                	addi	s1,s1,4
   132b0:	20841553          	fneg.s	fa0,fs0
   132b4:	26f0c0ef          	jal	1fd22 <expf>
   132b8:	00957553          	fadd.s	fa0,fa0,fs1
   132bc:	18a47453          	fdiv.s	fs0,fs0,fa0
   132c0:	fe84ae27          	fsw	fs0,-4(s1)
   132c4:	fe8912e3          	bne	s2,s0,132a8 <_Z12silu_2d_fp32PfPKfmm+0x22>
   132c8:	70a2                	ld	ra,40(sp)
   132ca:	7402                	ld	s0,32(sp)
   132cc:	64e2                	ld	s1,24(sp)
   132ce:	6942                	ld	s2,16(sp)
   132d0:	2422                	fld	fs0,8(sp)
   132d2:	2482                	fld	fs1,0(sp)
   132d4:	6145                	addi	sp,sp,48
   132d6:	8082                	ret
   132d8:	8082                	ret

00000000000132da <_Z14layernorm_fp32PfPKfmS1_S1_f>:
   132da:	c259                	beqz	a2,13360 <_Z14layernorm_fp32PfPKfmS1_S1_f+0x86>
   132dc:	f00007d3          	fmv.w.x	fa5,zero
   132e0:	00261313          	slli	t1,a2,0x2
   132e4:	006588b3          	add	a7,a1,t1
   132e8:	87ae                	mv	a5,a1
   132ea:	882e                	mv	a6,a1
   132ec:	00082707          	flw	fa4,0(a6)
   132f0:	0811                	addi	a6,a6,4
   132f2:	00e7f7d3          	fadd.s	fa5,fa5,fa4
   132f6:	ff089be3          	bne	a7,a6,132ec <_Z14layernorm_fp32PfPKfmS1_S1_f+0x12>
   132fa:	d0267653          	fcvt.s.l	fa2,a2
   132fe:	f00006d3          	fmv.w.x	fa3,zero
   13302:	18c7f753          	fdiv.s	fa4,fa5,fa2
   13306:	0007a787          	flw	fa5,0(a5)
   1330a:	0791                	addi	a5,a5,4
   1330c:	08e7f7d3          	fsub.s	fa5,fa5,fa4
   13310:	68f7f6c3          	fmadd.s	fa3,fa5,fa5,fa3
   13314:	fef899e3          	bne	a7,a5,13306 <_Z14layernorm_fp32PfPKfmS1_S1_f+0x2c>
   13318:	8d81a587          	flw	fa1,-1832(gp) # 3f738 <mask+0x70>
   1331c:	4781                	li	a5,0
   1331e:	18c6f6d3          	fdiv.s	fa3,fa3,fa2
   13322:	00a6f6d3          	fadd.s	fa3,fa3,fa0
   13326:	5806f6d3          	fsqrt.s	fa3,fa3
   1332a:	18d5f5d3          	fdiv.s	fa1,fa1,fa3
   1332e:	00f68633          	add	a2,a3,a5
   13332:	00f58833          	add	a6,a1,a5
   13336:	00062687          	flw	fa3,0(a2)
   1333a:	00082787          	flw	fa5,0(a6)
   1333e:	00f70633          	add	a2,a4,a5
   13342:	10d5f6d3          	fmul.s	fa3,fa1,fa3
   13346:	08e7f7d3          	fsub.s	fa5,fa5,fa4
   1334a:	00062607          	flw	fa2,0(a2)
   1334e:	00f50633          	add	a2,a0,a5
   13352:	0791                	addi	a5,a5,4
   13354:	60d7f7c3          	fmadd.s	fa5,fa5,fa3,fa2
   13358:	00f62027          	fsw	fa5,0(a2)
   1335c:	fcf319e3          	bne	t1,a5,1332e <_Z14layernorm_fp32PfPKfmS1_S1_f+0x54>
   13360:	8082                	ret

0000000000013362 <_Z17layernorm_2d_fp32PfPKfmmRK18LayerNormParamFP32>:
   13362:	c235                	beqz	a2,133c6 <_Z17layernorm_2d_fp32PfPKfmmRK18LayerNormParamFP32+0x64>
   13364:	715d                	addi	sp,sp,-80
   13366:	e45e                	sd	s7,8(sp)
   13368:	e062                	sd	s8,0(sp)
   1336a:	00873b83          	ld	s7,8(a4)
   1336e:	00073c03          	ld	s8,0(a4)
   13372:	e0a2                	sd	s0,64(sp)
   13374:	fc26                	sd	s1,56(sp)
   13376:	f84a                	sd	s2,48(sp)
   13378:	f44e                	sd	s3,40(sp)
   1337a:	f052                	sd	s4,32(sp)
   1337c:	ec56                	sd	s5,24(sp)
   1337e:	e85a                	sd	s6,16(sp)
   13380:	e486                	sd	ra,72(sp)
   13382:	8a3a                	mv	s4,a4
   13384:	8b36                	mv	s6,a3
   13386:	8ab2                	mv	s5,a2
   13388:	84aa                	mv	s1,a0
   1338a:	842e                	mv	s0,a1
   1338c:	00269993          	slli	s3,a3,0x2
   13390:	4901                	li	s2,0
   13392:	010a2507          	flw	fa0,16(s4)
   13396:	85a2                	mv	a1,s0
   13398:	8526                	mv	a0,s1
   1339a:	875e                	mv	a4,s7
   1339c:	86e2                	mv	a3,s8
   1339e:	865a                	mv	a2,s6
   133a0:	0905                	addi	s2,s2,1
   133a2:	f39ff0ef          	jal	132da <_Z14layernorm_fp32PfPKfmS1_S1_f>
   133a6:	94ce                	add	s1,s1,s3
   133a8:	944e                	add	s0,s0,s3
   133aa:	ff2a94e3          	bne	s5,s2,13392 <_Z17layernorm_2d_fp32PfPKfmmRK18LayerNormParamFP32+0x30>
   133ae:	60a6                	ld	ra,72(sp)
   133b0:	6406                	ld	s0,64(sp)
   133b2:	74e2                	ld	s1,56(sp)
   133b4:	7942                	ld	s2,48(sp)
   133b6:	79a2                	ld	s3,40(sp)
   133b8:	7a02                	ld	s4,32(sp)
   133ba:	6ae2                	ld	s5,24(sp)
   133bc:	6b42                	ld	s6,16(sp)
   133be:	6ba2                	ld	s7,8(sp)
   133c0:	6c02                	ld	s8,0(sp)
   133c2:	6161                	addi	sp,sp,80
   133c4:	8082                	ret
   133c6:	8082                	ret

00000000000133c8 <_Z12rmsnorm_fp32PfPKfmS1_f>:
   133c8:	ce21                	beqz	a2,13420 <_Z12rmsnorm_fp32PfPKfmS1_f+0x58>
   133ca:	f0000753          	fmv.w.x	fa4,zero
   133ce:	00261713          	slli	a4,a2,0x2
   133d2:	00e58833          	add	a6,a1,a4
   133d6:	87ae                	mv	a5,a1
   133d8:	0007a787          	flw	fa5,0(a5)
   133dc:	0791                	addi	a5,a5,4
   133de:	70f7f743          	fmadd.s	fa4,fa5,fa5,fa4
   133e2:	ff079be3          	bne	a5,a6,133d8 <_Z12rmsnorm_fp32PfPKfmS1_f+0x10>
   133e6:	d02677d3          	fcvt.s.l	fa5,a2
   133ea:	8d81a687          	flw	fa3,-1832(gp) # 3f738 <mask+0x70>
   133ee:	18f77753          	fdiv.s	fa4,fa4,fa5
   133f2:	00e687b3          	add	a5,a3,a4
   133f6:	00a77753          	fadd.s	fa4,fa4,fa0
   133fa:	58077753          	fsqrt.s	fa4,fa4
   133fe:	18e6f6d3          	fdiv.s	fa3,fa3,fa4
   13402:	0006a787          	flw	fa5,0(a3)
   13406:	0005a707          	flw	fa4,0(a1)
   1340a:	0691                	addi	a3,a3,4
   1340c:	0591                	addi	a1,a1,4
   1340e:	10e7f7d3          	fmul.s	fa5,fa5,fa4
   13412:	0511                	addi	a0,a0,4
   13414:	10d7f7d3          	fmul.s	fa5,fa5,fa3
   13418:	fef52e27          	fsw	fa5,-4(a0)
   1341c:	fed793e3          	bne	a5,a3,13402 <_Z12rmsnorm_fp32PfPKfmS1_f+0x3a>
   13420:	8082                	ret

0000000000013422 <_Z15rmsnorm_2d_fp32PfPKfmmS1_f>:
   13422:	ce29                	beqz	a2,1347c <_Z15rmsnorm_2d_fp32PfPKfmmS1_f+0x5a>
   13424:	715d                	addi	sp,sp,-80
   13426:	a422                	fsd	fs0,8(sp)
   13428:	20a50453          	fmv.s	fs0,fa0
   1342c:	e0a2                	sd	s0,64(sp)
   1342e:	fc26                	sd	s1,56(sp)
   13430:	f84a                	sd	s2,48(sp)
   13432:	f44e                	sd	s3,40(sp)
   13434:	f052                	sd	s4,32(sp)
   13436:	ec56                	sd	s5,24(sp)
   13438:	e85a                	sd	s6,16(sp)
   1343a:	e486                	sd	ra,72(sp)
   1343c:	8b3a                	mv	s6,a4
   1343e:	8ab6                	mv	s5,a3
   13440:	8a32                	mv	s4,a2
   13442:	84aa                	mv	s1,a0
   13444:	842e                	mv	s0,a1
   13446:	00269993          	slli	s3,a3,0x2
   1344a:	4901                	li	s2,0
   1344c:	20840553          	fmv.s	fa0,fs0
   13450:	85a2                	mv	a1,s0
   13452:	8526                	mv	a0,s1
   13454:	86da                	mv	a3,s6
   13456:	8656                	mv	a2,s5
   13458:	0905                	addi	s2,s2,1
   1345a:	f6fff0ef          	jal	133c8 <_Z12rmsnorm_fp32PfPKfmS1_f>
   1345e:	94ce                	add	s1,s1,s3
   13460:	944e                	add	s0,s0,s3
   13462:	ff2a15e3          	bne	s4,s2,1344c <_Z15rmsnorm_2d_fp32PfPKfmmS1_f+0x2a>
   13466:	60a6                	ld	ra,72(sp)
   13468:	6406                	ld	s0,64(sp)
   1346a:	74e2                	ld	s1,56(sp)
   1346c:	7942                	ld	s2,48(sp)
   1346e:	79a2                	ld	s3,40(sp)
   13470:	7a02                	ld	s4,32(sp)
   13472:	6ae2                	ld	s5,24(sp)
   13474:	6b42                	ld	s6,16(sp)
   13476:	2422                	fld	fs0,8(sp)
   13478:	6161                	addi	sp,sp,80
   1347a:	8082                	ret
   1347c:	8082                	ret

000000000001347e <_Z20elementwise_mul_fp32PfPKfS1_m>:
   1347e:	c285                	beqz	a3,1349e <_Z20elementwise_mul_fp32PfPKfS1_m+0x20>
   13480:	068a                	slli	a3,a3,0x2
   13482:	96ae                	add	a3,a3,a1
   13484:	0005a787          	flw	fa5,0(a1)
   13488:	00062707          	flw	fa4,0(a2)
   1348c:	0591                	addi	a1,a1,4
   1348e:	0611                	addi	a2,a2,4
   13490:	10e7f7d3          	fmul.s	fa5,fa5,fa4
   13494:	0511                	addi	a0,a0,4
   13496:	fef52e27          	fsw	fa5,-4(a0)
   1349a:	fed595e3          	bne	a1,a3,13484 <_Z20elementwise_mul_fp32PfPKfS1_m+0x6>
   1349e:	8082                	ret

00000000000134a0 <_Z20elementwise_add_fp32PfPKfS1_m>:
   134a0:	c285                	beqz	a3,134c0 <_Z20elementwise_add_fp32PfPKfS1_m+0x20>
   134a2:	068a                	slli	a3,a3,0x2
   134a4:	96ae                	add	a3,a3,a1
   134a6:	0005a787          	flw	fa5,0(a1)
   134aa:	00062707          	flw	fa4,0(a2)
   134ae:	0591                	addi	a1,a1,4
   134b0:	0611                	addi	a2,a2,4
   134b2:	00e7f7d3          	fadd.s	fa5,fa5,fa4
   134b6:	0511                	addi	a0,a0,4
   134b8:	fef52e27          	fsw	fa5,-4(a0)
   134bc:	fed595e3          	bne	a1,a3,134a6 <_Z20elementwise_add_fp32PfPKfS1_m+0x6>
   134c0:	8082                	ret

00000000000134c2 <_Z10scale_fp32PfPKffm>:
   134c2:	ce09                	beqz	a2,134dc <_Z10scale_fp32PfPKffm+0x1a>
   134c4:	060a                	slli	a2,a2,0x2
   134c6:	962e                	add	a2,a2,a1
   134c8:	0005a787          	flw	fa5,0(a1)
   134cc:	0591                	addi	a1,a1,4
   134ce:	0511                	addi	a0,a0,4
   134d0:	10a7f7d3          	fmul.s	fa5,fa5,fa0
   134d4:	fef52e27          	fsw	fa5,-4(a0)
   134d8:	fec598e3          	bne	a1,a2,134c8 <_Z10scale_fp32PfPKffm+0x6>
   134dc:	8082                	ret

00000000000134de <_Z13scale_2d_fp32PfPKffmm>:
   134de:	02d60633          	mul	a2,a2,a3
   134e2:	ce11                	beqz	a2,134fe <_Z13scale_2d_fp32PfPKffmm+0x20>
   134e4:	060a                	slli	a2,a2,0x2
   134e6:	00c587b3          	add	a5,a1,a2
   134ea:	0005a787          	flw	fa5,0(a1)
   134ee:	0591                	addi	a1,a1,4
   134f0:	0511                	addi	a0,a0,4
   134f2:	10a7f7d3          	fmul.s	fa5,fa5,fa0
   134f6:	fef52e27          	fsw	fa5,-4(a0)
   134fa:	fef598e3          	bne	a1,a5,134ea <_Z13scale_2d_fp32PfPKffmm+0xc>
   134fe:	8082                	ret

0000000000013500 <_Z22apply_causal_mask_fp32PfPKfmf>:
   13500:	ce0d                	beqz	a2,1353a <_Z22apply_causal_mask_fp32PfPKfmf+0x3a>
   13502:	00261313          	slli	t1,a2,0x2
   13506:	4881                	li	a7,0
   13508:	882e                	mv	a6,a1
   1350a:	872a                	mv	a4,a0
   1350c:	4781                	li	a5,0
   1350e:	a011                	j	13512 <_Z22apply_causal_mask_fp32PfPKfmf+0x12>
   13510:	87b6                	mv	a5,a3
   13512:	20a507d3          	fmv.s	fa5,fa0
   13516:	00178693          	addi	a3,a5,1
   1351a:	00f8e463          	bltu	a7,a5,13522 <_Z22apply_causal_mask_fp32PfPKfmf+0x22>
   1351e:	00082787          	flw	fa5,0(a6)
   13522:	00f72027          	fsw	fa5,0(a4)
   13526:	0811                	addi	a6,a6,4
   13528:	0711                	addi	a4,a4,4
   1352a:	fed613e3          	bne	a2,a3,13510 <_Z22apply_causal_mask_fp32PfPKfmf+0x10>
   1352e:	951a                	add	a0,a0,t1
   13530:	959a                	add	a1,a1,t1
   13532:	00f88463          	beq	a7,a5,1353a <_Z22apply_causal_mask_fp32PfPKfmf+0x3a>
   13536:	0885                	addi	a7,a7,1
   13538:	bfc1                	j	13508 <_Z22apply_causal_mask_fp32PfPKfmf+0x8>
   1353a:	8082                	ret

000000000001353c <_Z23apply_padding_mask_fp32PfPKfPKbmmf>:
   1353c:	4e01                	li	t3,0
   1353e:	c2b1                	beqz	a3,13582 <_Z23apply_padding_mask_fp32PfPKfPKbmmf+0x46>
   13540:	e709                	bnez	a4,1354a <_Z23apply_padding_mask_fp32PfPKfPKbmmf+0xe>
   13542:	0e05                	addi	t3,t3,1
   13544:	ffc69fe3          	bne	a3,t3,13542 <_Z23apply_padding_mask_fp32PfPKfPKbmmf+0x6>
   13548:	8082                	ret
   1354a:	00271e93          	slli	t4,a4,0x2
   1354e:	00e60333          	add	t1,a2,a4
   13552:	87b2                	mv	a5,a2
   13554:	882e                	mv	a6,a1
   13556:	872a                	mv	a4,a0
   13558:	0007c883          	lbu	a7,0(a5)
   1355c:	20a507d3          	fmv.s	fa5,fa0
   13560:	0785                	addi	a5,a5,1
   13562:	00089463          	bnez	a7,1356a <_Z23apply_padding_mask_fp32PfPKfPKbmmf+0x2e>
   13566:	00082787          	flw	fa5,0(a6)
   1356a:	00f72027          	fsw	fa5,0(a4)
   1356e:	0811                	addi	a6,a6,4
   13570:	0711                	addi	a4,a4,4
   13572:	fe6793e3          	bne	a5,t1,13558 <_Z23apply_padding_mask_fp32PfPKfPKbmmf+0x1c>
   13576:	0e05                	addi	t3,t3,1
   13578:	9576                	add	a0,a0,t4
   1357a:	95f6                	add	a1,a1,t4
   1357c:	fcde1be3          	bne	t3,a3,13552 <_Z23apply_padding_mask_fp32PfPKfPKbmmf+0x16>
   13580:	8082                	ret
   13582:	8082                	ret

0000000000013584 <_Z22photonic_mvm_tile_fp32PfPKfS1_mm>:
   13584:	b1818f93          	addi	t6,gp,-1256 # 3f978 <_ZL12pho_temp_vec>
   13588:	8832                	mv	a6,a2
   1358a:	8f2a                	mv	t5,a0
   1358c:	867e                	mv	a2,t6
   1358e:	4781                	li	a5,0
   13590:	02000513          	li	a0,32
   13594:	f00007d3          	fmv.w.x	fa5,zero
   13598:	00e7f463          	bgeu	a5,a4,135a0 <_Z22photonic_mvm_tile_fp32PfPKfS1_mm+0x1c>
   1359c:	00082787          	flw	fa5,0(a6)
   135a0:	00f62027          	fsw	fa5,0(a2)
   135a4:	0785                	addi	a5,a5,1
   135a6:	0811                	addi	a6,a6,4
   135a8:	0611                	addi	a2,a2,4
   135aa:	fea795e3          	bne	a5,a0,13594 <_Z22photonic_mvm_tile_fp32PfPKfS1_mm+0x10>
   135ae:	000402b7          	lui	t0,0x40
   135b2:	a7828e93          	addi	t4,t0,-1416 # 3fa78 <_ZL12pho_temp_mat>
   135b6:	4e01                	li	t3,0
   135b8:	4501                	li	a0,0
   135ba:	02000893          	li	a7,32
   135be:	002e1813          	slli	a6,t3,0x2
   135c2:	982e                	add	a6,a6,a1
   135c4:	00d53333          	sltu	t1,a0,a3
   135c8:	8676                	mv	a2,t4
   135ca:	4781                	li	a5,0
   135cc:	f00007d3          	fmv.w.x	fa5,zero
   135d0:	00e7f663          	bgeu	a5,a4,135dc <_Z22photonic_mvm_tile_fp32PfPKfS1_mm+0x58>
   135d4:	00030463          	beqz	t1,135dc <_Z22photonic_mvm_tile_fp32PfPKfS1_mm+0x58>
   135d8:	00082787          	flw	fa5,0(a6)
   135dc:	00f62027          	fsw	fa5,0(a2)
   135e0:	0785                	addi	a5,a5,1
   135e2:	0811                	addi	a6,a6,4
   135e4:	0611                	addi	a2,a2,4
   135e6:	ff1793e3          	bne	a5,a7,135cc <_Z22photonic_mvm_tile_fp32PfPKfS1_mm+0x48>
   135ea:	0505                	addi	a0,a0,1
   135ec:	9e3a                	add	t3,t3,a4
   135ee:	080e8e93          	addi	t4,t4,128
   135f2:	fcf516e3          	bne	a0,a5,135be <_Z22photonic_mvm_tile_fp32PfPKfS1_mm+0x3a>
   135f6:	2605200b          	.insn	4, 0x2605200b
   135fa:	857e                	mv	a0,t6
   135fc:	2005208b          	.insn	4, 0x2005208b
   13600:	a7828513          	addi	a0,t0,-1416
   13604:	2605210b          	.insn	4, 0x2605210b
   13608:	2400800b          	.insn	4, 0x2400800b
   1360c:	080f8513          	addi	a0,t6,128
   13610:	2205200b          	.insn	4, 0x2205200b
   13614:	ce89                	beqz	a3,1362e <_Z22photonic_mvm_tile_fp32PfPKfS1_mm+0xaa>
   13616:	00269793          	slli	a5,a3,0x2
   1361a:	877a                	mv	a4,t5
   1361c:	97fa                	add	a5,a5,t5
   1361e:	00052787          	flw	fa5,0(a0)
   13622:	0711                	addi	a4,a4,4
   13624:	0511                	addi	a0,a0,4
   13626:	fef72e27          	fsw	fa5,-4(a4)
   1362a:	fef71ae3          	bne	a4,a5,1361e <_Z22photonic_mvm_tile_fp32PfPKfS1_mm+0x9a>
   1362e:	8082                	ret

0000000000013630 <_Z17photonic_mvm_fp32PfPKfS1_mm>:
   13630:	1a068663          	beqz	a3,137dc <_Z17photonic_mvm_fp32PfPKfS1_mm+0x1ac>
   13634:	7125                	addi	sp,sp,-416
   13636:	ef06                	sd	ra,408(sp)
   13638:	eb22                	sd	s0,400(sp)
   1363a:	e726                	sd	s1,392(sp)
   1363c:	e34a                	sd	s2,384(sp)
   1363e:	fece                	sd	s3,376(sp)
   13640:	fad2                	sd	s4,368(sp)
   13642:	f6d6                	sd	s5,360(sp)
   13644:	f2da                	sd	s6,352(sp)
   13646:	eede                	sd	s7,344(sp)
   13648:	eae2                	sd	s8,336(sp)
   1364a:	e6e6                	sd	s9,328(sp)
   1364c:	e2ea                	sd	s10,320(sp)
   1364e:	fe6e                	sd	s11,312(sp)
   13650:	00269813          	slli	a6,a3,0x2
   13654:	80010113          	addi	sp,sp,-2048
   13658:	80010113          	addi	sp,sp,-2048
   1365c:	982a                	add	a6,a6,a0
   1365e:	87aa                	mv	a5,a0
   13660:	0007a023          	sw	zero,0(a5)
   13664:	0791                	addi	a5,a5,4
   13666:	ff079de3          	bne	a5,a6,13660 <_Z17photonic_mvm_fp32PfPKfS1_mm+0x30>
   1366a:	f432                	sd	a2,40(sp)
   1366c:	f02a                	sd	a0,32(sp)
   1366e:	ec36                	sd	a3,24(sp)
   13670:	47fd                	li	a5,31
   13672:	89ba                	mv	s3,a4
   13674:	8bae                	mv	s7,a1
   13676:	14d7f563          	bgeu	a5,a3,137c0 <_Z17photonic_mvm_fp32PfPKfS1_mm+0x190>
   1367a:	02000793          	li	a5,32
   1367e:	e43e                	sd	a5,8(sp)
   13680:	e802                	sd	zero,16(sp)
   13682:	4781                	li	a5,0
   13684:	02000d13          	li	s10,32
   13688:	10098263          	beqz	s3,1378c <_Z17photonic_mvm_fp32PfPKfS1_mm+0x15c>
   1368c:	1a00                	addi	s0,sp,304
   1368e:	00299d93          	slli	s11,s3,0x2
   13692:	7702                	ld	a4,32(sp)
   13694:	00fd0833          	add	a6,s10,a5
   13698:	7922                	ld	s2,40(sp)
   1369a:	078a                	slli	a5,a5,0x2
   1369c:	64c2                	ld	s1,16(sp)
   1369e:	080a                	slli	a6,a6,0x2
   136a0:	00f70b33          	add	s6,a4,a5
   136a4:	f0040793          	addi	a5,s0,-256
   136a8:	01070cb3          	add	s9,a4,a6
   136ac:	4c01                	li	s8,0
   136ae:	e03e                	sd	a5,0(sp)
   136b0:	87e2                	mv	a5,s8
   136b2:	020c0c13          	addi	s8,s8,32
   136b6:	02000a93          	li	s5,32
   136ba:	0189f463          	bgeu	s3,s8,136c2 <_Z17photonic_mvm_fp32PfPKfS1_mm+0x92>
   136be:	40f98ab3          	sub	s5,s3,a5
   136c2:	6502                	ld	a0,0(sp)
   136c4:	08000613          	li	a2,128
   136c8:	4581                	li	a1,0
   136ca:	1d1130ef          	jal	2709a <memset>
   136ce:	6605                	lui	a2,0x1
   136d0:	4581                	li	a1,0
   136d2:	8522                	mv	a0,s0
   136d4:	1c7130ef          	jal	2709a <memset>
   136d8:	08000613          	li	a2,128
   136dc:	4581                	li	a1,0
   136de:	f8040513          	addi	a0,s0,-128
   136e2:	1b9130ef          	jal	2709a <memset>
   136e6:	181c                	addi	a5,sp,48
   136e8:	002a9e93          	slli	t4,s5,0x2
   136ec:	01d785b3          	add	a1,a5,t4
   136f0:	864a                	mv	a2,s2
   136f2:	00062787          	flw	fa5,0(a2) # 1000 <__cxa_bad_cast-0xf120>
   136f6:	0791                	addi	a5,a5,4
   136f8:	0611                	addi	a2,a2,4
   136fa:	fef7ae27          	fsw	fa5,-4(a5)
   136fe:	feb79ae3          	bne	a5,a1,136f2 <_Z17photonic_mvm_fp32PfPKfS1_mm+0xc2>
   13702:	009a85b3          	add	a1,s5,s1
   13706:	058a                	slli	a1,a1,0x2
   13708:	95de                	add	a1,a1,s7
   1370a:	8e22                	mv	t3,s0
   1370c:	4501                	li	a0,0
   1370e:	41d587b3          	sub	a5,a1,t4
   13712:	8672                	mv	a2,t3
   13714:	0007a787          	flw	fa5,0(a5)
   13718:	0791                	addi	a5,a5,4
   1371a:	0611                	addi	a2,a2,4
   1371c:	fef62e27          	fsw	fa5,-4(a2)
   13720:	feb79ae3          	bne	a5,a1,13714 <_Z17photonic_mvm_fp32PfPKfS1_mm+0xe4>
   13724:	0505                	addi	a0,a0,1
   13726:	9e76                	add	t3,t3,t4
   13728:	01b785b3          	add	a1,a5,s11
   1372c:	ffa511e3          	bne	a0,s10,1370e <_Z17photonic_mvm_fp32PfPKfS1_mm+0xde>
   13730:	8756                	mv	a4,s5
   13732:	86ea                	mv	a3,s10
   13734:	1810                	addi	a2,sp,48
   13736:	85a2                	mv	a1,s0
   13738:	1908                	addi	a0,sp,176
   1373a:	e4bff0ef          	jal	13584 <_Z22photonic_mvm_tile_fp32PfPKfS1_mm>
   1373e:	1918                	addi	a4,sp,176
   13740:	87da                	mv	a5,s6
   13742:	0007a787          	flw	fa5,0(a5)
   13746:	00072707          	flw	fa4,0(a4)
   1374a:	0791                	addi	a5,a5,4
   1374c:	0711                	addi	a4,a4,4
   1374e:	00e7f7d3          	fadd.s	fa5,fa5,fa4
   13752:	fef7ae27          	fsw	fa5,-4(a5)
   13756:	fefc96e3          	bne	s9,a5,13742 <_Z17photonic_mvm_fp32PfPKfS1_mm+0x112>
   1375a:	02048493          	addi	s1,s1,32
   1375e:	08090913          	addi	s2,s2,128
   13762:	f53c67e3          	bltu	s8,s3,136b0 <_Z17photonic_mvm_fp32PfPKfS1_mm+0x80>
   13766:	66a2                	ld	a3,8(sp)
   13768:	6662                	ld	a2,24(sp)
   1376a:	02c6fa63          	bgeu	a3,a2,1379e <_Z17photonic_mvm_fp32PfPKfS1_mm+0x16e>
   1376e:	65c2                	ld	a1,16(sp)
   13770:	00599793          	slli	a5,s3,0x5
   13774:	02068713          	addi	a4,a3,32
   13778:	97ae                	add	a5,a5,a1
   1377a:	e83e                	sd	a5,16(sp)
   1377c:	04e66a63          	bltu	a2,a4,137d0 <_Z17photonic_mvm_fp32PfPKfS1_mm+0x1a0>
   13780:	e43a                	sd	a4,8(sp)
   13782:	87b6                	mv	a5,a3
   13784:	02000d13          	li	s10,32
   13788:	f00992e3          	bnez	s3,1368c <_Z17photonic_mvm_fp32PfPKfS1_mm+0x5c>
   1378c:	6762                	ld	a4,24(sp)
   1378e:	67a2                	ld	a5,8(sp)
   13790:	00e7f763          	bgeu	a5,a4,1379e <_Z17photonic_mvm_fp32PfPKfS1_mm+0x16e>
   13794:	02078793          	addi	a5,a5,32
   13798:	e43e                	sd	a5,8(sp)
   1379a:	fef779e3          	bgeu	a4,a5,1378c <_Z17photonic_mvm_fp32PfPKfS1_mm+0x15c>
   1379e:	6285                	lui	t0,0x1
   137a0:	9116                	add	sp,sp,t0
   137a2:	60fa                	ld	ra,408(sp)
   137a4:	645a                	ld	s0,400(sp)
   137a6:	64ba                	ld	s1,392(sp)
   137a8:	691a                	ld	s2,384(sp)
   137aa:	79f6                	ld	s3,376(sp)
   137ac:	7a56                	ld	s4,368(sp)
   137ae:	7ab6                	ld	s5,360(sp)
   137b0:	7b16                	ld	s6,352(sp)
   137b2:	6bf6                	ld	s7,344(sp)
   137b4:	6c56                	ld	s8,336(sp)
   137b6:	6cb6                	ld	s9,328(sp)
   137b8:	6d16                	ld	s10,320(sp)
   137ba:	7df2                	ld	s11,312(sp)
   137bc:	611d                	addi	sp,sp,416
   137be:	8082                	ret
   137c0:	df79                	beqz	a4,1379e <_Z17photonic_mvm_fp32PfPKfS1_mm+0x16e>
   137c2:	1a00                	addi	s0,sp,304
   137c4:	02000713          	li	a4,32
   137c8:	e802                	sd	zero,16(sp)
   137ca:	e402                	sd	zero,8(sp)
   137cc:	00299d93          	slli	s11,s3,0x2
   137d0:	67a2                	ld	a5,8(sp)
   137d2:	66e2                	ld	a3,24(sp)
   137d4:	e43a                	sd	a4,8(sp)
   137d6:	40f68d33          	sub	s10,a3,a5
   137da:	bd65                	j	13692 <_Z17photonic_mvm_fp32PfPKfS1_mm+0x62>
   137dc:	8082                	ret

00000000000137de <_Z20photonic_linear_fp32PfPKfS1_S1_mm>:
   137de:	1101                	addi	sp,sp,-32
   137e0:	e426                	sd	s1,8(sp)
   137e2:	84ba                	mv	s1,a4
   137e4:	e822                	sd	s0,16(sp)
   137e6:	873e                	mv	a4,a5
   137e8:	8436                	mv	s0,a3
   137ea:	86a6                	mv	a3,s1
   137ec:	e04a                	sd	s2,0(sp)
   137ee:	ec06                	sd	ra,24(sp)
   137f0:	892a                	mv	s2,a0
   137f2:	e3fff0ef          	jal	13630 <_Z17photonic_mvm_fp32PfPKfS1_mm>
   137f6:	c01d                	beqz	s0,1381c <_Z20photonic_linear_fp32PfPKfS1_S1_mm+0x3e>
   137f8:	c095                	beqz	s1,1381c <_Z20photonic_linear_fp32PfPKfS1_S1_mm+0x3e>
   137fa:	00249793          	slli	a5,s1,0x2
   137fe:	854a                	mv	a0,s2
   13800:	97ca                	add	a5,a5,s2
