
build-fiona/text_gen_transformer.elf:     file format elf64-littleriscv


Disassembly of section .text:

0000000000010120 <__cxa_bad_cast>:
   10120:	1141                	addi	sp,sp,-16
   10122:	4521                	li	a0,8
   10124:	e406                	sd	ra,8(sp)
   10126:	1d1060ef          	jal	16af6 <__cxa_allocate_exception>
   1012a:	000357b7          	lui	a5,0x35
   1012e:	e3878793          	addi	a5,a5,-456 # 34e38 <_ZTVSt8bad_cast+0x10>
   10132:	665d                	lui	a2,0x17
   10134:	000355b7          	lui	a1,0x35
   10138:	e11c                	sd	a5,0(a0)
   1013a:	9cc60613          	addi	a2,a2,-1588 # 169cc <_ZNSt8bad_castD1Ev>
   1013e:	e1058593          	addi	a1,a1,-496 # 34e10 <_ZTISt8bad_cast>
   10142:	7c2060ef          	jal	16904 <__cxa_throw>

0000000000010146 <__cxa_bad_typeid>:
   10146:	1141                	addi	sp,sp,-16
   10148:	4521                	li	a0,8
   1014a:	e406                	sd	ra,8(sp)
   1014c:	1ab060ef          	jal	16af6 <__cxa_allocate_exception>
   10150:	000357b7          	lui	a5,0x35
   10154:	e8878793          	addi	a5,a5,-376 # 34e88 <_ZTVSt10bad_typeid+0x10>
   10158:	665d                	lui	a2,0x17
   1015a:	000355b7          	lui	a1,0x35
   1015e:	e11c                	sd	a5,0(a0)
   10160:	9f660613          	addi	a2,a2,-1546 # 169f6 <_ZNSt10bad_typeidD1Ev>
   10164:	e6058593          	addi	a1,a1,-416 # 34e60 <_ZTISt10bad_typeid>
   10168:	79c060ef          	jal	16904 <__cxa_throw>

000000000001016c <__cxa_throw_bad_array_new_length>:
   1016c:	1141                	addi	sp,sp,-16
   1016e:	4521                	li	a0,8
   10170:	e406                	sd	ra,8(sp)
   10172:	185060ef          	jal	16af6 <__cxa_allocate_exception>
   10176:	000357b7          	lui	a5,0x35
   1017a:	de878793          	addi	a5,a5,-536 # 34de8 <_ZTVSt20bad_array_new_length+0x10>
   1017e:	665d                	lui	a2,0x17
   10180:	000355b7          	lui	a1,0x35
   10184:	e11c                	sd	a5,0(a0)
   10186:	9a060613          	addi	a2,a2,-1632 # 169a0 <_ZNSt20bad_array_new_lengthD1Ev>
   1018a:	dc058593          	addi	a1,a1,-576 # 34dc0 <_ZTISt20bad_array_new_length>
   1018e:	776060ef          	jal	16904 <__cxa_throw>

0000000000010192 <_ZN9__gnu_cxx9__freeresEv>:
   10192:	1141                	addi	sp,sp,-16
   10194:	e022                	sd	s0,0(sp)
   10196:	0008b437          	lui	s0,0x8b
   1019a:	90040413          	addi	s0,s0,-1792 # 8a900 <_ZN12_GLOBAL__N_1L14emergency_poolE>
   1019e:	6808                	ld	a0,16(s0)
   101a0:	e406                	sd	ra,8(sp)
   101a2:	c509                	beqz	a0,101ac <_ZN9__gnu_cxx9__freeresEv+0x1a>
   101a4:	185140ef          	jal	24b28 <free>
   101a8:	00043823          	sd	zero,16(s0)
   101ac:	60a2                	ld	ra,8(sp)
   101ae:	6402                	ld	s0,0(sp)
   101b0:	0141                	addi	sp,sp,16
   101b2:	8082                	ret

00000000000101b4 <_ZSt9terminatev>:
   101b4:	1141                	addi	sp,sp,-16
   101b6:	e406                	sd	ra,8(sp)
   101b8:	290070ef          	jal	17448 <_ZSt13get_terminatev>
   101bc:	268070ef          	jal	17424 <_ZN10__cxxabiv111__terminateEPFvvE>

00000000000101c0 <_ZSt10unexpectedv>:
   101c0:	1141                	addi	sp,sp,-16
   101c2:	e406                	sd	ra,8(sp)
   101c4:	2ac070ef          	jal	17470 <_ZSt14get_unexpectedv>
   101c8:	28c070ef          	jal	17454 <_ZN10__cxxabiv112__unexpectedEPFvvE>

00000000000101cc <_ZSt21__throw_bad_exceptionv>:
   101cc:	1141                	addi	sp,sp,-16
   101ce:	4521                	li	a0,8
   101d0:	e406                	sd	ra,8(sp)
   101d2:	125060ef          	jal	16af6 <__cxa_allocate_exception>
   101d6:	000357b7          	lui	a5,0x35
   101da:	f9078793          	addi	a5,a5,-112 # 34f90 <_ZTVSt13bad_exception+0x10>
   101de:	665d                	lui	a2,0x17
   101e0:	000355b7          	lui	a1,0x35
   101e4:	e11c                	sd	a5,0(a0)
   101e6:	d1460613          	addi	a2,a2,-748 # 16d14 <_ZNSt13bad_exceptionD1Ev>
   101ea:	ed858593          	addi	a1,a1,-296 # 34ed8 <_ZTISt13bad_exception>
   101ee:	716060ef          	jal	16904 <__cxa_throw>

00000000000101f2 <_ZSt17__throw_bad_allocv>:
   101f2:	1141                	addi	sp,sp,-16
   101f4:	4521                	li	a0,8
   101f6:	e406                	sd	ra,8(sp)
   101f8:	0ff060ef          	jal	16af6 <__cxa_allocate_exception>
   101fc:	000357b7          	lui	a5,0x35
   10200:	16078793          	addi	a5,a5,352 # 35160 <_ZTVSt9bad_alloc+0x10>
   10204:	6661                	lui	a2,0x18
   10206:	000355b7          	lui	a1,0x35
   1020a:	e11c                	sd	a5,0(a0)
   1020c:	8aa60613          	addi	a2,a2,-1878 # 178aa <_ZNSt9bad_allocD1Ev>
   10210:	13858593          	addi	a1,a1,312 # 35138 <_ZTISt9bad_alloc>
   10214:	6f0060ef          	jal	16904 <__cxa_throw>

0000000000010218 <_ZSt28__throw_bad_array_new_lengthv>:
   10218:	1141                	addi	sp,sp,-16
   1021a:	4521                	li	a0,8
   1021c:	e406                	sd	ra,8(sp)
   1021e:	0d9060ef          	jal	16af6 <__cxa_allocate_exception>
   10222:	000357b7          	lui	a5,0x35
   10226:	de878793          	addi	a5,a5,-536 # 34de8 <_ZTVSt20bad_array_new_length+0x10>
   1022a:	665d                	lui	a2,0x17
   1022c:	000355b7          	lui	a1,0x35
   10230:	e11c                	sd	a5,0(a0)
   10232:	9a060613          	addi	a2,a2,-1632 # 169a0 <_ZNSt20bad_array_new_lengthD1Ev>
   10236:	dc058593          	addi	a1,a1,-576 # 34dc0 <_ZTISt20bad_array_new_length>
   1023a:	6ca060ef          	jal	16904 <__cxa_throw>

000000000001023e <_ZSt16__throw_bad_castv>:
   1023e:	1141                	addi	sp,sp,-16
   10240:	4521                	li	a0,8
   10242:	e406                	sd	ra,8(sp)
   10244:	0b3060ef          	jal	16af6 <__cxa_allocate_exception>
   10248:	000357b7          	lui	a5,0x35
   1024c:	e3878793          	addi	a5,a5,-456 # 34e38 <_ZTVSt8bad_cast+0x10>
   10250:	665d                	lui	a2,0x17
   10252:	000355b7          	lui	a1,0x35
   10256:	e11c                	sd	a5,0(a0)
   10258:	9cc60613          	addi	a2,a2,-1588 # 169cc <_ZNSt8bad_castD1Ev>
   1025c:	e1058593          	addi	a1,a1,-496 # 34e10 <_ZTISt8bad_cast>
   10260:	6a4060ef          	jal	16904 <__cxa_throw>

0000000000010264 <_ZSt18__throw_bad_typeidv>:
   10264:	1141                	addi	sp,sp,-16
   10266:	4521                	li	a0,8
   10268:	e406                	sd	ra,8(sp)
   1026a:	08d060ef          	jal	16af6 <__cxa_allocate_exception>
   1026e:	000357b7          	lui	a5,0x35
   10272:	e8878793          	addi	a5,a5,-376 # 34e88 <_ZTVSt10bad_typeid+0x10>
   10276:	665d                	lui	a2,0x17
   10278:	000355b7          	lui	a1,0x35
   1027c:	e11c                	sd	a5,0(a0)
   1027e:	9f660613          	addi	a2,a2,-1546 # 169f6 <_ZNSt10bad_typeidD1Ev>
   10282:	e6058593          	addi	a1,a1,-416 # 34e60 <_ZTISt10bad_typeid>
   10286:	67e060ef          	jal	16904 <__cxa_throw>

000000000001028a <_ZSt19__throw_logic_errorPKc>:
   1028a:	7179                	addi	sp,sp,-48
   1028c:	e42a                	sd	a0,8(sp)
   1028e:	4541                	li	a0,16
   10290:	f022                	sd	s0,32(sp)
   10292:	f406                	sd	ra,40(sp)
   10294:	ec26                	sd	s1,24(sp)
   10296:	061060ef          	jal	16af6 <__cxa_allocate_exception>
   1029a:	65a2                	ld	a1,8(sp)
   1029c:	842a                	mv	s0,a0
   1029e:	1100c0ef          	jal	1c3ae <_ZNSt11logic_errorC1EPKc>
   102a2:	6671                	lui	a2,0x1c
   102a4:	000365b7          	lui	a1,0x36
   102a8:	08260613          	addi	a2,a2,130 # 1c082 <_ZNSt11logic_errorD1Ev>
   102ac:	38058593          	addi	a1,a1,896 # 36380 <_ZTISt11logic_error>
   102b0:	8522                	mv	a0,s0
   102b2:	652060ef          	jal	16904 <__cxa_throw>
   102b6:	84aa                	mv	s1,a0
   102b8:	8522                	mv	a0,s0
   102ba:	077060ef          	jal	16b30 <__cxa_free_exception>
   102be:	8526                	mv	a0,s1
   102c0:	34a130ef          	jal	2360a <_Unwind_Resume>

00000000000102c4 <_ZSt20__throw_domain_errorPKc>:
   102c4:	7179                	addi	sp,sp,-48
   102c6:	e42a                	sd	a0,8(sp)
   102c8:	4541                	li	a0,16
   102ca:	f022                	sd	s0,32(sp)
   102cc:	f406                	sd	ra,40(sp)
   102ce:	ec26                	sd	s1,24(sp)
   102d0:	027060ef          	jal	16af6 <__cxa_allocate_exception>
   102d4:	65a2                	ld	a1,8(sp)
   102d6:	842a                	mv	s0,a0
   102d8:	10c0c0ef          	jal	1c3e4 <_ZNSt12domain_errorC1EPKc>
   102dc:	6671                	lui	a2,0x1c
   102de:	000365b7          	lui	a1,0x36
   102e2:	0be60613          	addi	a2,a2,190 # 1c0be <_ZNSt12domain_errorD1Ev>
   102e6:	3b058593          	addi	a1,a1,944 # 363b0 <_ZTISt12domain_error>
   102ea:	8522                	mv	a0,s0
   102ec:	618060ef          	jal	16904 <__cxa_throw>
   102f0:	84aa                	mv	s1,a0
   102f2:	8522                	mv	a0,s0
   102f4:	03d060ef          	jal	16b30 <__cxa_free_exception>
   102f8:	8526                	mv	a0,s1
   102fa:	310130ef          	jal	2360a <_Unwind_Resume>

00000000000102fe <_ZSt24__throw_invalid_argumentPKc>:
   102fe:	7179                	addi	sp,sp,-48
   10300:	e42a                	sd	a0,8(sp)
   10302:	4541                	li	a0,16
   10304:	f022                	sd	s0,32(sp)
   10306:	f406                	sd	ra,40(sp)
   10308:	ec26                	sd	s1,24(sp)
   1030a:	7ec060ef          	jal	16af6 <__cxa_allocate_exception>
   1030e:	65a2                	ld	a1,8(sp)
   10310:	842a                	mv	s0,a0
   10312:	0ee0c0ef          	jal	1c400 <_ZNSt16invalid_argumentC1EPKc>
   10316:	6671                	lui	a2,0x1c
   10318:	000365b7          	lui	a1,0x36
   1031c:	0e060613          	addi	a2,a2,224 # 1c0e0 <_ZNSt16invalid_argumentD1Ev>
   10320:	3e058593          	addi	a1,a1,992 # 363e0 <_ZTISt16invalid_argument>
   10324:	8522                	mv	a0,s0
   10326:	5de060ef          	jal	16904 <__cxa_throw>
   1032a:	84aa                	mv	s1,a0
   1032c:	8522                	mv	a0,s0
   1032e:	003060ef          	jal	16b30 <__cxa_free_exception>
   10332:	8526                	mv	a0,s1
   10334:	2d6130ef          	jal	2360a <_Unwind_Resume>

0000000000010338 <_ZSt20__throw_length_errorPKc>:
   10338:	7179                	addi	sp,sp,-48
   1033a:	e42a                	sd	a0,8(sp)
   1033c:	4541                	li	a0,16
   1033e:	f022                	sd	s0,32(sp)
   10340:	f406                	sd	ra,40(sp)
   10342:	ec26                	sd	s1,24(sp)
   10344:	7b2060ef          	jal	16af6 <__cxa_allocate_exception>
   10348:	65a2                	ld	a1,8(sp)
   1034a:	842a                	mv	s0,a0
   1034c:	0d00c0ef          	jal	1c41c <_ZNSt12length_errorC1EPKc>
   10350:	6671                	lui	a2,0x1c
   10352:	000365b7          	lui	a1,0x36
   10356:	10260613          	addi	a2,a2,258 # 1c102 <_ZNSt12length_errorD1Ev>
   1035a:	41058593          	addi	a1,a1,1040 # 36410 <_ZTISt12length_error>
   1035e:	8522                	mv	a0,s0
   10360:	5a4060ef          	jal	16904 <__cxa_throw>
   10364:	84aa                	mv	s1,a0
   10366:	8522                	mv	a0,s0
   10368:	7c8060ef          	jal	16b30 <__cxa_free_exception>
   1036c:	8526                	mv	a0,s1
   1036e:	29c130ef          	jal	2360a <_Unwind_Resume>

0000000000010372 <_ZSt20__throw_out_of_rangePKc>:
   10372:	7179                	addi	sp,sp,-48
   10374:	e42a                	sd	a0,8(sp)
   10376:	4541                	li	a0,16
   10378:	f022                	sd	s0,32(sp)
   1037a:	f406                	sd	ra,40(sp)
   1037c:	ec26                	sd	s1,24(sp)
   1037e:	778060ef          	jal	16af6 <__cxa_allocate_exception>
   10382:	65a2                	ld	a1,8(sp)
   10384:	842a                	mv	s0,a0
   10386:	0b20c0ef          	jal	1c438 <_ZNSt12out_of_rangeC1EPKc>
   1038a:	6671                	lui	a2,0x1c
   1038c:	000365b7          	lui	a1,0x36
   10390:	12460613          	addi	a2,a2,292 # 1c124 <_ZNSt12out_of_rangeD1Ev>
   10394:	44058593          	addi	a1,a1,1088 # 36440 <_ZTISt12out_of_range>
   10398:	8522                	mv	a0,s0
   1039a:	56a060ef          	jal	16904 <__cxa_throw>
   1039e:	84aa                	mv	s1,a0
   103a0:	8522                	mv	a0,s0
   103a2:	78e060ef          	jal	16b30 <__cxa_free_exception>
   103a6:	8526                	mv	a0,s1
   103a8:	262130ef          	jal	2360a <_Unwind_Resume>

00000000000103ac <_ZSt24__throw_out_of_range_fmtPKcz>:
   103ac:	7159                	addi	sp,sp,-112
   103ae:	f406                	sd	ra,40(sp)
   103b0:	f022                	sd	s0,32(sp)
   103b2:	ec26                	sd	s1,24(sp)
   103b4:	1800                	addi	s0,sp,48
   103b6:	e84a                	sd	s2,16(sp)
   103b8:	84aa                	mv	s1,a0
   103ba:	f018                	sd	a4,32(s0)
   103bc:	03043823          	sd	a6,48(s0)
   103c0:	03143c23          	sd	a7,56(s0)
   103c4:	e40c                	sd	a1,8(s0)
   103c6:	e810                	sd	a2,16(s0)
   103c8:	ec14                	sd	a3,24(s0)
   103ca:	f41c                	sd	a5,40(s0)
   103cc:	580180ef          	jal	2894c <strlen>
   103d0:	20f50793          	addi	a5,a0,527
   103d4:	9bc1                	andi	a5,a5,-16
   103d6:	40f10133          	sub	sp,sp,a5
   103da:	20050593          	addi	a1,a0,512
   103de:	00840693          	addi	a3,s0,8
   103e2:	8626                	mv	a2,s1
   103e4:	850a                	mv	a0,sp
   103e6:	fcd43c23          	sd	a3,-40(s0)
   103ea:	3fa070ef          	jal	177e4 <_ZN9__gnu_cxx15__snprintf_liteEPcmPKcPv>
   103ee:	4541                	li	a0,16
   103f0:	706060ef          	jal	16af6 <__cxa_allocate_exception>
   103f4:	858a                	mv	a1,sp
   103f6:	84aa                	mv	s1,a0
   103f8:	0400c0ef          	jal	1c438 <_ZNSt12out_of_rangeC1EPKc>
   103fc:	6671                	lui	a2,0x1c
   103fe:	000365b7          	lui	a1,0x36
   10402:	12460613          	addi	a2,a2,292 # 1c124 <_ZNSt12out_of_rangeD1Ev>
   10406:	44058593          	addi	a1,a1,1088 # 36440 <_ZTISt12out_of_range>
   1040a:	8526                	mv	a0,s1
   1040c:	4f8060ef          	jal	16904 <__cxa_throw>
   10410:	892a                	mv	s2,a0
   10412:	8526                	mv	a0,s1
   10414:	71c060ef          	jal	16b30 <__cxa_free_exception>
   10418:	854a                	mv	a0,s2
   1041a:	1f0130ef          	jal	2360a <_Unwind_Resume>

000000000001041e <_ZSt21__throw_runtime_errorPKc>:
   1041e:	7179                	addi	sp,sp,-48
   10420:	e42a                	sd	a0,8(sp)
   10422:	4541                	li	a0,16
   10424:	f022                	sd	s0,32(sp)
   10426:	f406                	sd	ra,40(sp)
   10428:	ec26                	sd	s1,24(sp)
   1042a:	6cc060ef          	jal	16af6 <__cxa_allocate_exception>
   1042e:	65a2                	ld	a1,8(sp)
   10430:	842a                	mv	s0,a0
   10432:	0220c0ef          	jal	1c454 <_ZNSt13runtime_errorC1EPKc>
   10436:	6671                	lui	a2,0x1c
   10438:	000365b7          	lui	a1,0x36
   1043c:	fe060613          	addi	a2,a2,-32 # 1bfe0 <_ZNSt13runtime_errorD1Ev>
   10440:	47058593          	addi	a1,a1,1136 # 36470 <_ZTISt13runtime_error>
   10444:	8522                	mv	a0,s0
   10446:	4be060ef          	jal	16904 <__cxa_throw>
   1044a:	84aa                	mv	s1,a0
   1044c:	8522                	mv	a0,s0
   1044e:	6e2060ef          	jal	16b30 <__cxa_free_exception>
   10452:	8526                	mv	a0,s1
   10454:	1b6130ef          	jal	2360a <_Unwind_Resume>

0000000000010458 <_ZSt19__throw_range_errorPKc>:
   10458:	7179                	addi	sp,sp,-48
   1045a:	e42a                	sd	a0,8(sp)
   1045c:	4541                	li	a0,16
   1045e:	f022                	sd	s0,32(sp)
   10460:	f406                	sd	ra,40(sp)
   10462:	ec26                	sd	s1,24(sp)
   10464:	692060ef          	jal	16af6 <__cxa_allocate_exception>
   10468:	65a2                	ld	a1,8(sp)
   1046a:	842a                	mv	s0,a0
   1046c:	01e0c0ef          	jal	1c48a <_ZNSt11range_errorC1EPKc>
   10470:	6671                	lui	a2,0x1c
   10472:	000365b7          	lui	a1,0x36
   10476:	01c60613          	addi	a2,a2,28 # 1c01c <_ZNSt11range_errorD1Ev>
   1047a:	49858593          	addi	a1,a1,1176 # 36498 <_ZTISt11range_error>
   1047e:	8522                	mv	a0,s0
   10480:	484060ef          	jal	16904 <__cxa_throw>
   10484:	84aa                	mv	s1,a0
   10486:	8522                	mv	a0,s0
   10488:	6a8060ef          	jal	16b30 <__cxa_free_exception>
   1048c:	8526                	mv	a0,s1
   1048e:	17c130ef          	jal	2360a <_Unwind_Resume>

0000000000010492 <_ZSt22__throw_overflow_errorPKc>:
   10492:	7179                	addi	sp,sp,-48
   10494:	e42a                	sd	a0,8(sp)
   10496:	4541                	li	a0,16
   10498:	f022                	sd	s0,32(sp)
   1049a:	f406                	sd	ra,40(sp)
   1049c:	ec26                	sd	s1,24(sp)
   1049e:	658060ef          	jal	16af6 <__cxa_allocate_exception>
   104a2:	65a2                	ld	a1,8(sp)
   104a4:	842a                	mv	s0,a0
   104a6:	0000c0ef          	jal	1c4a6 <_ZNSt14overflow_errorC1EPKc>
   104aa:	6671                	lui	a2,0x1c
   104ac:	000365b7          	lui	a1,0x36
   104b0:	03e60613          	addi	a2,a2,62 # 1c03e <_ZNSt14overflow_errorD1Ev>
   104b4:	4c858593          	addi	a1,a1,1224 # 364c8 <_ZTISt14overflow_error>
   104b8:	8522                	mv	a0,s0
   104ba:	44a060ef          	jal	16904 <__cxa_throw>
   104be:	84aa                	mv	s1,a0
   104c0:	8522                	mv	a0,s0
   104c2:	66e060ef          	jal	16b30 <__cxa_free_exception>
   104c6:	8526                	mv	a0,s1
   104c8:	142130ef          	jal	2360a <_Unwind_Resume>

00000000000104cc <_ZSt23__throw_underflow_errorPKc>:
   104cc:	7179                	addi	sp,sp,-48
   104ce:	e42a                	sd	a0,8(sp)
   104d0:	4541                	li	a0,16
   104d2:	f022                	sd	s0,32(sp)
   104d4:	f406                	sd	ra,40(sp)
   104d6:	ec26                	sd	s1,24(sp)
   104d8:	61e060ef          	jal	16af6 <__cxa_allocate_exception>
   104dc:	65a2                	ld	a1,8(sp)
   104de:	842a                	mv	s0,a0
   104e0:	7e30b0ef          	jal	1c4c2 <_ZNSt15underflow_errorC1EPKc>
   104e4:	6671                	lui	a2,0x1c
   104e6:	000365b7          	lui	a1,0x36
   104ea:	06060613          	addi	a2,a2,96 # 1c060 <_ZNSt15underflow_errorD1Ev>
   104ee:	4f858593          	addi	a1,a1,1272 # 364f8 <_ZTISt15underflow_error>
   104f2:	8522                	mv	a0,s0
   104f4:	410060ef          	jal	16904 <__cxa_throw>
   104f8:	84aa                	mv	s1,a0
   104fa:	8522                	mv	a0,s0
   104fc:	634060ef          	jal	16b30 <__cxa_free_exception>
   10500:	8526                	mv	a0,s1
   10502:	108130ef          	jal	2360a <_Unwind_Resume>

0000000000010506 <_ZN9__gnu_cxx26__throw_insufficient_spaceEPKcS1_>:
   10506:	7175                	addi	sp,sp,-144
   10508:	e122                	sd	s0,128(sp)
   1050a:	fca6                	sd	s1,120(sp)
   1050c:	0900                	addi	s0,sp,144
   1050e:	84ae                	mv	s1,a1
   10510:	000335b7          	lui	a1,0x33
   10514:	e506                	sd	ra,136(sp)
   10516:	f8ca                	sd	s2,112(sp)
   10518:	06900613          	li	a2,105
   1051c:	892a                	mv	s2,a0
   1051e:	52058593          	addi	a1,a1,1312 # 33520 <__clzdi2+0x234e>
   10522:	f7040513          	addi	a0,s0,-144
   10526:	412484b3          	sub	s1,s1,s2
   1052a:	33a180ef          	jal	28864 <memcpy>
   1052e:	07848793          	addi	a5,s1,120
   10532:	9bc1                	andi	a5,a5,-16
   10534:	40f10133          	sub	sp,sp,a5
   10538:	06800613          	li	a2,104
   1053c:	f7040593          	addi	a1,s0,-144
   10540:	850a                	mv	a0,sp
   10542:	322180ef          	jal	28864 <memcpy>
   10546:	8626                	mv	a2,s1
   10548:	85ca                	mv	a1,s2
   1054a:	10a8                	addi	a0,sp,104
   1054c:	318180ef          	jal	28864 <memcpy>
   10550:	948a                	add	s1,s1,sp
   10552:	06048423          	sb	zero,104(s1)
   10556:	850a                	mv	a0,sp
   10558:	d33ff0ef          	jal	1028a <_ZSt19__throw_logic_errorPKc>

000000000001055c <__cxa_call_terminate>:
   1055c:	1141                	addi	sp,sp,-16
   1055e:	e406                	sd	ra,8(sp)
   10560:	e022                	sd	s0,0(sp)
   10562:	c905                	beqz	a0,10592 <__cxa_call_terminate+0x36>
   10564:	842a                	mv	s0,a0
   10566:	6b0060ef          	jal	16c16 <__cxa_begin_catch>
   1056a:	b8b1b7b7          	lui	a5,0xb8b1b
   1056e:	abd78793          	addi	a5,a5,-1347 # ffffffffb8b1aabd <__BSS_END__+0xffffffffb8a8fb95>
   10572:	07b2                	slli	a5,a5,0xc
   10574:	bcd78793          	addi	a5,a5,-1075
   10578:	6018                	ld	a4,0(s0)
   1057a:	07b2                	slli	a5,a5,0xc
   1057c:	4d578793          	addi	a5,a5,1237
   10580:	07a2                	slli	a5,a5,0x8
   10582:	97ba                	add	a5,a5,a4
   10584:	4705                	li	a4,1
   10586:	00f76663          	bltu	a4,a5,10592 <__cxa_call_terminate+0x36>
   1058a:	fc843503          	ld	a0,-56(s0)
   1058e:	697060ef          	jal	17424 <_ZN10__cxxabiv111__terminateEPFvvE>
   10592:	c23ff0ef          	jal	101b4 <_ZSt9terminatev>

0000000000010596 <_ZNSt7__cxx1112basic_stringIcSt11char_traitsIcESaIcEE15_M_replace_coldEPcmPKcmm>:
   10596:	7139                	addi	sp,sp,-64
   10598:	f822                	sd	s0,48(sp)
   1059a:	f426                	sd	s1,40(sp)
   1059c:	f04a                	sd	s2,32(sp)
   1059e:	ec4e                	sd	s3,24(sp)
   105a0:	843a                	mv	s0,a4
   105a2:	fc06                	sd	ra,56(sp)
   105a4:	177d                	addi	a4,a4,-1
   105a6:	84ae                	mv	s1,a1
   105a8:	8932                	mv	s2,a2
   105aa:	89b6                	mv	s3,a3
   105ac:	00c77963          	bgeu	a4,a2,105be <_ZNSt7__cxx1112basic_stringIcSt11char_traitsIcESaIcEE15_M_replace_coldEPcmPKcmm+0x28>
   105b0:	8622                	mv	a2,s0
   105b2:	85b6                	mv	a1,a3
   105b4:	8526                	mv	a0,s1
   105b6:	e43e                	sd	a5,8(sp)
   105b8:	0ed0e0ef          	jal	1eea4 <_ZNSt7__cxx1112basic_stringIcSt11char_traitsIcESaIcEE7_S_moveEPcPKcm>
   105bc:	67a2                	ld	a5,8(sp)
   105be:	cb91                	beqz	a5,105d2 <_ZNSt7__cxx1112basic_stringIcSt11char_traitsIcESaIcEE15_M_replace_coldEPcmPKcmm+0x3c>
   105c0:	07240963          	beq	s0,s2,10632 <_ZNSt7__cxx1112basic_stringIcSt11char_traitsIcESaIcEE15_M_replace_coldEPcmPKcmm+0x9c>
   105c4:	863e                	mv	a2,a5
   105c6:	012485b3          	add	a1,s1,s2
   105ca:	00848533          	add	a0,s1,s0
   105ce:	0d70e0ef          	jal	1eea4 <_ZNSt7__cxx1112basic_stringIcSt11char_traitsIcESaIcEE7_S_moveEPcPKcm>
   105d2:	06897063          	bgeu	s2,s0,10632 <_ZNSt7__cxx1112basic_stringIcSt11char_traitsIcESaIcEE15_M_replace_coldEPcmPKcmm+0x9c>
   105d6:	012487b3          	add	a5,s1,s2
   105da:	00898733          	add	a4,s3,s0
   105de:	00e7ed63          	bltu	a5,a4,105f8 <_ZNSt7__cxx1112basic_stringIcSt11char_traitsIcESaIcEE15_M_replace_coldEPcmPKcmm+0x62>
   105e2:	8622                	mv	a2,s0
   105e4:	7442                	ld	s0,48(sp)
   105e6:	70e2                	ld	ra,56(sp)
   105e8:	7902                	ld	s2,32(sp)
   105ea:	85ce                	mv	a1,s3
   105ec:	8526                	mv	a0,s1
   105ee:	69e2                	ld	s3,24(sp)
   105f0:	74a2                	ld	s1,40(sp)
   105f2:	6121                	addi	sp,sp,64
   105f4:	0b10e06f          	j	1eea4 <_ZNSt7__cxx1112basic_stringIcSt11char_traitsIcESaIcEE7_S_moveEPcPKcm>
   105f8:	00f9ef63          	bltu	s3,a5,10616 <_ZNSt7__cxx1112basic_stringIcSt11char_traitsIcESaIcEE15_M_replace_coldEPcmPKcmm+0x80>
   105fc:	412405b3          	sub	a1,s0,s2
   10600:	8622                	mv	a2,s0
   10602:	95ce                	add	a1,a1,s3
   10604:	8526                	mv	a0,s1
   10606:	7442                	ld	s0,48(sp)
   10608:	70e2                	ld	ra,56(sp)
   1060a:	74a2                	ld	s1,40(sp)
   1060c:	7902                	ld	s2,32(sp)
   1060e:	69e2                	ld	s3,24(sp)
   10610:	6121                	addi	sp,sp,64
   10612:	07f0e06f          	j	1ee90 <_ZNSt7__cxx1112basic_stringIcSt11char_traitsIcESaIcEE7_S_copyEPcPKcm>
   10616:	41378933          	sub	s2,a5,s3
   1061a:	864a                	mv	a2,s2
   1061c:	85ce                	mv	a1,s3
   1061e:	8526                	mv	a0,s1
   10620:	0850e0ef          	jal	1eea4 <_ZNSt7__cxx1112basic_stringIcSt11char_traitsIcESaIcEE7_S_moveEPcPKcm>
   10624:	41240633          	sub	a2,s0,s2
   10628:	008485b3          	add	a1,s1,s0
   1062c:	01248533          	add	a0,s1,s2
   10630:	bfd9                	j	10606 <_ZNSt7__cxx1112basic_stringIcSt11char_traitsIcESaIcEE15_M_replace_coldEPcmPKcmm+0x70>
   10632:	70e2                	ld	ra,56(sp)
   10634:	7442                	ld	s0,48(sp)
   10636:	74a2                	ld	s1,40(sp)
   10638:	7902                	ld	s2,32(sp)
   1063a:	69e2                	ld	s3,24(sp)
   1063c:	6121                	addi	sp,sp,64
   1063e:	8082                	ret

0000000000010640 <_ZSt20__throw_system_errori>:
   10640:	7139                	addi	sp,sp,-64
   10642:	f04a                	sd	s2,32(sp)
   10644:	892a                	mv	s2,a0
   10646:	02000513          	li	a0,32
   1064a:	f822                	sd	s0,48(sp)
   1064c:	f426                	sd	s1,40(sp)
   1064e:	fc06                	sd	ra,56(sp)
   10650:	4a6060ef          	jal	16af6 <__cxa_allocate_exception>
   10654:	a381b783          	ld	a5,-1480(gp) # 41898 <_ZN12_GLOBAL__N_1L25generic_category_instanceE>
   10658:	84aa                	mv	s1,a0
   1065a:	864a                	mv	a2,s2
   1065c:	739c                	ld	a5,32(a5)
   1065e:	a3818593          	addi	a1,gp,-1480 # 41898 <_ZN12_GLOBAL__N_1L25generic_category_instanceE>
   10662:	850a                	mv	a0,sp
   10664:	9782                	jalr	a5
   10666:	858a                	mv	a1,sp
   10668:	8526                	mv	a0,s1
   1066a:	3ce100ef          	jal	20a38 <_ZNSt13runtime_errorC1ERKNSt7__cxx1112basic_stringIcSt11char_traitsIcESaIcEEE>
   1066e:	850a                	mv	a0,sp
   10670:	7a60e0ef          	jal	1ee16 <_ZNSt7__cxx1112basic_stringIcSt11char_traitsIcESaIcEE10_M_disposeEv>
   10674:	000377b7          	lui	a5,0x37
   10678:	86878793          	addi	a5,a5,-1944 # 36868 <_ZTVSt12system_error+0x10>
   1067c:	a3818413          	addi	s0,gp,-1480 # 41898 <_ZN12_GLOBAL__N_1L25generic_category_instanceE>
   10680:	00021637          	lui	a2,0x21
   10684:	000365b7          	lui	a1,0x36
   10688:	e09c                	sd	a5,0(s1)
   1068a:	0124a823          	sw	s2,16(s1)
   1068e:	ec80                	sd	s0,24(s1)
   10690:	83860613          	addi	a2,a2,-1992 # 20838 <_ZNSt12system_errorD1Ev>
   10694:	6c058593          	addi	a1,a1,1728 # 366c0 <_ZTISt12system_error>
   10698:	8526                	mv	a0,s1
   1069a:	26a060ef          	jal	16904 <__cxa_throw>
   1069e:	842a                	mv	s0,a0
   106a0:	850a                	mv	a0,sp
   106a2:	7740e0ef          	jal	1ee16 <_ZNSt7__cxx1112basic_stringIcSt11char_traitsIcESaIcEE10_M_disposeEv>
   106a6:	8526                	mv	a0,s1
   106a8:	488060ef          	jal	16b30 <__cxa_free_exception>
   106ac:	8522                	mv	a0,s0
   106ae:	75d120ef          	jal	2360a <_Unwind_Resume>
   106b2:	842a                	mv	s0,a0
   106b4:	bfcd                	j	106a6 <_ZSt20__throw_system_errori+0x66>

00000000000106b6 <exit>:
   106b6:	1141                	addi	sp,sp,-16
   106b8:	4581                	li	a1,0
   106ba:	e022                	sd	s0,0(sp)
   106bc:	e406                	sd	ra,8(sp)
   106be:	842a                	mv	s0,a0
   106c0:	4b4180ef          	jal	28b74 <__call_exitprocs>
   106c4:	a981b783          	ld	a5,-1384(gp) # 418f8 <__stdio_exit_handler>
   106c8:	c391                	beqz	a5,106cc <exit+0x16>
   106ca:	9782                	jalr	a5
   106cc:	8522                	mv	a0,s0
   106ce:	6e01f0ef          	jal	2fdae <_exit>

00000000000106d2 <main>:
   106d2:	1101                	addi	sp,sp,-32
   106d4:	e426                	sd	s1,8(sp)
   106d6:	000314b7          	lui	s1,0x31
   106da:	55048513          	addi	a0,s1,1360 # 31550 <__clzdi2+0x37e>
   106de:	ec06                	sd	ra,24(sp)
   106e0:	e822                	sd	s0,16(sp)
   106e2:	6d9160ef          	jal	275ba <puts>
   106e6:	00031537          	lui	a0,0x31
   106ea:	59850513          	addi	a0,a0,1432 # 31598 <__clzdi2+0x3c6>
   106ee:	6cd160ef          	jal	275ba <puts>
   106f2:	00031537          	lui	a0,0x31
   106f6:	5c050513          	addi	a0,a0,1472 # 315c0 <__clzdi2+0x3ee>
   106fa:	6c1160ef          	jal	275ba <puts>
   106fe:	00031537          	lui	a0,0x31
   10702:	5e050513          	addi	a0,a0,1504 # 315e0 <__clzdi2+0x40e>
   10706:	6b5160ef          	jal	275ba <puts>
   1070a:	00031537          	lui	a0,0x31
   1070e:	62850513          	addi	a0,a0,1576 # 31628 <__clzdi2+0x456>
   10712:	6a9160ef          	jal	275ba <puts>
   10716:	00031537          	lui	a0,0x31
   1071a:	08000593          	li	a1,128
   1071e:	64050513          	addi	a0,a0,1600 # 31640 <__clzdi2+0x46e>
   10722:	4bd160ef          	jal	273de <printf>
   10726:	00031537          	lui	a0,0x31
   1072a:	02000593          	li	a1,32
   1072e:	66050513          	addi	a0,a0,1632 # 31660 <__clzdi2+0x48e>
   10732:	4ad160ef          	jal	273de <printf>
   10736:	00031537          	lui	a0,0x31
   1073a:	04000593          	li	a1,64
   1073e:	67850513          	addi	a0,a0,1656 # 31678 <__clzdi2+0x4a6>
   10742:	49d160ef          	jal	273de <printf>
   10746:	00031537          	lui	a0,0x31
   1074a:	02000593          	li	a1,32
   1074e:	69050513          	addi	a0,a0,1680 # 31690 <__clzdi2+0x4be>
   10752:	48d160ef          	jal	273de <printf>
   10756:	00031537          	lui	a0,0x31
   1075a:	08000593          	li	a1,128
   1075e:	6a850513          	addi	a0,a0,1704 # 316a8 <__clzdi2+0x4d6>
   10762:	47d160ef          	jal	273de <printf>
   10766:	00031537          	lui	a0,0x31
   1076a:	4589                	li	a1,2
   1076c:	6c050513          	addi	a0,a0,1728 # 316c0 <__clzdi2+0x4ee>
   10770:	46f160ef          	jal	273de <printf>
   10774:	4529                	li	a0,10
   10776:	5b1160ef          	jal	27526 <putchar>
   1077a:	00031537          	lui	a0,0x31
   1077e:	6d850513          	addi	a0,a0,1752 # 316d8 <__clzdi2+0x506>
   10782:	2b4140ef          	jal	24a36 <getenv>
   10786:	85aa                	mv	a1,a0
   10788:	12050763          	beqz	a0,108b6 <main+0x1e4>
   1078c:	00031537          	lui	a0,0x31
   10790:	6f050513          	addi	a0,a0,1776 # 316f0 <__clzdi2+0x51e>
   10794:	44b160ef          	jal	273de <printf>
   10798:	7e0000ef          	jal	10f78 <_Z16init_all_weightsv>
   1079c:	172010ef          	jal	1190e <_Z17demo_forward_passv>
   107a0:	00031537          	lui	a0,0x31
   107a4:	3f050513          	addi	a0,a0,1008 # 313f0 <__clzdi2+0x21e>
   107a8:	613160ef          	jal	275ba <puts>
   107ac:	00031537          	lui	a0,0x31
   107b0:	70850513          	addi	a0,a0,1800 # 31708 <__clzdi2+0x536>
   107b4:	607160ef          	jal	275ba <puts>
   107b8:	00031537          	lui	a0,0x31
   107bc:	56850513          	addi	a0,a0,1384 # 31568 <__clzdi2+0x396>
   107c0:	5fb160ef          	jal	275ba <puts>
   107c4:	00031537          	lui	a0,0x31
   107c8:	72850513          	addi	a0,a0,1832 # 31728 <__clzdi2+0x556>
   107cc:	5ef160ef          	jal	275ba <puts>
   107d0:	8b81a507          	flw	fa0,-1864(gp) # 41718 <mask+0x78>
   107d4:	00031537          	lui	a0,0x31
   107d8:	4601                	li	a2,0
   107da:	03200593          	li	a1,50
   107de:	75050513          	addi	a0,a0,1872 # 31750 <__clzdi2+0x57e>
   107e2:	353000ef          	jal	11334 <_Z13generate_textPKcifb>
   107e6:	00031537          	lui	a0,0x31
   107ea:	75850513          	addi	a0,a0,1880 # 31758 <__clzdi2+0x586>
   107ee:	5cd160ef          	jal	275ba <puts>
   107f2:	8d41a507          	flw	fa0,-1836(gp) # 41734 <mask+0x94>
   107f6:	00031537          	lui	a0,0x31
   107fa:	02a00793          	li	a5,42
   107fe:	4605                	li	a2,1
   10800:	03200593          	li	a1,50
   10804:	78850513          	addi	a0,a0,1928 # 31788 <__clzdi2+0x5b6>
   10808:	a0f1a023          	sw	a5,-1536(gp) # 41860 <_ZL6g_seed>
   1080c:	329000ef          	jal	11334 <_Z13generate_textPKcifb>
   10810:	00031537          	lui	a0,0x31
   10814:	79050513          	addi	a0,a0,1936 # 31790 <__clzdi2+0x5be>
   10818:	5a3160ef          	jal	275ba <puts>
   1081c:	8d81a507          	flw	fa0,-1832(gp) # 41738 <mask+0x98>
   10820:	00031537          	lui	a0,0x31
   10824:	07b00793          	li	a5,123
   10828:	4605                	li	a2,1
   1082a:	03200593          	li	a1,50
   1082e:	7c050513          	addi	a0,a0,1984 # 317c0 <__clzdi2+0x5ee>
   10832:	a0f1a023          	sw	a5,-1536(gp) # 41860 <_ZL6g_seed>
   10836:	2ff000ef          	jal	11334 <_Z13generate_textPKcifb>
   1083a:	00031537          	lui	a0,0x31
   1083e:	7c850513          	addi	a0,a0,1992 # 317c8 <__clzdi2+0x5f6>
   10842:	579160ef          	jal	275ba <puts>
   10846:	8dc1a507          	flw	fa0,-1828(gp) # 4173c <mask+0x9c>
   1084a:	00031537          	lui	a0,0x31
   1084e:	1c800793          	li	a5,456
   10852:	4605                	li	a2,1
   10854:	45f9                	li	a1,30
   10856:	7f850513          	addi	a0,a0,2040 # 317f8 <__clzdi2+0x626>
   1085a:	a0f1a023          	sw	a5,-1536(gp) # 41860 <_ZL6g_seed>
   1085e:	2d7000ef          	jal	11334 <_Z13generate_textPKcifb>
   10862:	00032537          	lui	a0,0x32
   10866:	80050513          	addi	a0,a0,-2048 # 31800 <__clzdi2+0x62e>
   1086a:	551160ef          	jal	275ba <puts>
   1086e:	00032537          	lui	a0,0x32
   10872:	84850513          	addi	a0,a0,-1976 # 31848 <__clzdi2+0x676>
   10876:	545160ef          	jal	275ba <puts>
   1087a:	55048513          	addi	a0,s1,1360
   1087e:	53d160ef          	jal	275ba <puts>
   10882:	00032537          	lui	a0,0x32
   10886:	86050513          	addi	a0,a0,-1952 # 31860 <__clzdi2+0x68e>
   1088a:	531160ef          	jal	275ba <puts>
   1088e:	00032537          	lui	a0,0x32
   10892:	89850513          	addi	a0,a0,-1896 # 31898 <__clzdi2+0x6c6>
   10896:	525160ef          	jal	275ba <puts>
   1089a:	00032537          	lui	a0,0x32
   1089e:	8d850513          	addi	a0,a0,-1832 # 318d8 <__clzdi2+0x706>
   108a2:	519160ef          	jal	275ba <puts>
   108a6:	1e00000b          	.insn	4, 0x1e00000b
   108aa:	60e2                	ld	ra,24(sp)
   108ac:	6442                	ld	s0,16(sp)
   108ae:	64a2                	ld	s1,8(sp)
   108b0:	4501                	li	a0,0
   108b2:	6105                	addi	sp,sp,32
   108b4:	8082                	ret
   108b6:	000315b7          	lui	a1,0x31
   108ba:	54058593          	addi	a1,a1,1344 # 31540 <__clzdi2+0x36e>
   108be:	b5f9                	j	1078c <main+0xba>

00000000000108c0 <_GLOBAL__sub_I__ZN9__gnu_cxx9__freeresEv>:
   108c0:	7175                	addi	sp,sp,-144
   108c2:	fca6                	sd	s1,120(sp)
   108c4:	00033537          	lui	a0,0x33
   108c8:	0008b4b7          	lui	s1,0x8b
   108cc:	e122                	sd	s0,128(sp)
   108ce:	f4ce                	sd	s3,104(sp)
   108d0:	f0d2                	sd	s4,96(sp)
   108d2:	e506                	sd	ra,136(sp)
   108d4:	f8ca                	sd	s2,112(sp)
   108d6:	90048493          	addi	s1,s1,-1792 # 8a900 <_ZN12_GLOBAL__N_1L14emergency_poolE>
   108da:	41050513          	addi	a0,a0,1040 # 33410 <__clzdi2+0x223e>
   108de:	0004b423          	sd	zero,8(s1)
   108e2:	0004b823          	sd	zero,16(s1)
   108e6:	0004bc23          	sd	zero,24(s1)
   108ea:	14c140ef          	jal	24a36 <getenv>
   108ee:	47bd                	li	a5,15
   108f0:	f03e                	sd	a5,32(sp)
   108f2:	000337b7          	lui	a5,0x33
   108f6:	42878793          	addi	a5,a5,1064 # 33428 <__clzdi2+0x2256>
   108fa:	f43e                	sd	a5,40(sp)
   108fc:	47a1                	li	a5,8
   108fe:	f83e                	sd	a5,48(sp)
   10900:	000337b7          	lui	a5,0x33
   10904:	43878793          	addi	a5,a5,1080 # 33438 <__clzdi2+0x2266>
   10908:	fc3e                	sd	a5,56(sp)
   1090a:	47a5                	li	a5,9
   1090c:	e4be                	sd	a5,72(sp)
   1090e:	000337b7          	lui	a5,0x33
   10912:	44878793          	addi	a5,a5,1096 # 33448 <__clzdi2+0x2276>
   10916:	e8be                	sd	a5,80(sp)
   10918:	4791                	li	a5,4
   1091a:	842a                	mv	s0,a0
   1091c:	e082                	sd	zero,64(sp)
   1091e:	ccbe                	sw	a5,88(sp)
   10920:	03a00993          	li	s3,58
   10924:	02e00a13          	li	s4,46
   10928:	e031                	bnez	s0,1096c <_GLOBAL__sub_I__ZN9__gnu_cxx9__freeresEv+0xac>
   1092a:	46e6                	lw	a3,88(sp)
   1092c:	04000713          	li	a4,64
   10930:	0006879b          	sext.w	a5,a3
   10934:	00d75463          	bge	a4,a3,1093c <_GLOBAL__sub_I__ZN9__gnu_cxx9__freeresEv+0x7c>
   10938:	0007079b          	sext.w	a5,a4
   1093c:	4406                	lw	s0,64(sp)
   1093e:	e011                	bnez	s0,10942 <_GLOBAL__sub_I__ZN9__gnu_cxx9__freeresEv+0x82>
   10940:	4419                	li	s0,6
   10942:	0479                	addi	s0,s0,30
   10944:	02f40433          	mul	s0,s0,a5
   10948:	040e                	slli	s0,s0,0x3
   1094a:	ec80                	sd	s0,24(s1)
   1094c:	c801                	beqz	s0,1095c <_GLOBAL__sub_I__ZN9__gnu_cxx9__freeresEv+0x9c>
   1094e:	8522                	mv	a0,s0
   10950:	1d0140ef          	jal	24b20 <malloc>
   10954:	e888                	sd	a0,16(s1)
   10956:	e555                	bnez	a0,10a02 <_GLOBAL__sub_I__ZN9__gnu_cxx9__freeresEv+0x142>
   10958:	0004bc23          	sd	zero,24(s1)
   1095c:	60aa                	ld	ra,136(sp)
   1095e:	640a                	ld	s0,128(sp)
   10960:	74e6                	ld	s1,120(sp)
   10962:	7946                	ld	s2,112(sp)
   10964:	79a6                	ld	s3,104(sp)
   10966:	7a06                	ld	s4,96(sp)
   10968:	6149                	addi	sp,sp,144
   1096a:	8082                	ret
   1096c:	00044783          	lbu	a5,0(s0)
   10970:	01379363          	bne	a5,s3,10976 <_GLOBAL__sub_I__ZN9__gnu_cxx9__freeresEv+0xb6>
   10974:	0405                	addi	s0,s0,1
   10976:	473d                	li	a4,15
   10978:	86a2                	mv	a3,s0
   1097a:	863a                	mv	a2,a4
   1097c:	4581                	li	a1,0
   1097e:	1008                	addi	a0,sp,32
   10980:	226060ef          	jal	16ba6 <_ZNKSt17basic_string_viewIcSt11char_traitsIcEE7compareEmmPKcm>
   10984:	ed1d                	bnez	a0,109c2 <_GLOBAL__sub_I__ZN9__gnu_cxx9__freeresEv+0x102>
   10986:	00f44783          	lbu	a5,15(s0)
   1098a:	03479c63          	bne	a5,s4,109c2 <_GLOBAL__sub_I__ZN9__gnu_cxx9__freeresEv+0x102>
   1098e:	0441                	addi	s0,s0,16
   10990:	03010913          	addi	s2,sp,48
   10994:	00093703          	ld	a4,0(s2)
   10998:	86a2                	mv	a3,s0
   1099a:	4581                	li	a1,0
   1099c:	863a                	mv	a2,a4
   1099e:	854a                	mv	a0,s2
   109a0:	e43a                	sd	a4,8(sp)
   109a2:	204060ef          	jal	16ba6 <_ZNKSt17basic_string_viewIcSt11char_traitsIcEE7compareEmmPKcm>
   109a6:	e911                	bnez	a0,109ba <_GLOBAL__sub_I__ZN9__gnu_cxx9__freeresEv+0xfa>
   109a8:	6722                	ld	a4,8(sp)
   109aa:	00e407b3          	add	a5,s0,a4
   109ae:	0007c683          	lbu	a3,0(a5)
   109b2:	03d00793          	li	a5,61
   109b6:	00f68d63          	beq	a3,a5,109d0 <_GLOBAL__sub_I__ZN9__gnu_cxx9__freeresEv+0x110>
   109ba:	0961                	addi	s2,s2,24
   109bc:	109c                	addi	a5,sp,96
   109be:	fcf91be3          	bne	s2,a5,10994 <_GLOBAL__sub_I__ZN9__gnu_cxx9__freeresEv+0xd4>
   109c2:	8522                	mv	a0,s0
   109c4:	03a00593          	li	a1,58
   109c8:	484170ef          	jal	27e4c <strchr>
   109cc:	842a                	mv	s0,a0
   109ce:	bfa9                	j	10928 <_GLOBAL__sub_I__ZN9__gnu_cxx9__freeresEv+0x68>
   109d0:	0705                	addi	a4,a4,1
   109d2:	00e40533          	add	a0,s0,a4
   109d6:	4601                	li	a2,0
   109d8:	082c                	addi	a1,sp,24
   109da:	5df140ef          	jal	257b8 <strtoul>
   109de:	6462                	ld	s0,24(sp)
   109e0:	00044703          	lbu	a4,0(s0)
   109e4:	fc670793          	addi	a5,a4,-58
   109e8:	0017b793          	seqz	a5,a5
   109ec:	00173713          	seqz	a4,a4
   109f0:	8fd9                	or	a5,a5,a4
   109f2:	dbe1                	beqz	a5,109c2 <_GLOBAL__sub_I__ZN9__gnu_cxx9__freeresEv+0x102>
   109f4:	4785                	li	a5,1
   109f6:	07fe                	slli	a5,a5,0x1f
   109f8:	fcf575e3          	bgeu	a0,a5,109c2 <_GLOBAL__sub_I__ZN9__gnu_cxx9__freeresEv+0x102>
   109fc:	00a92823          	sw	a0,16(s2)
   10a00:	b7c9                	j	109c2 <_GLOBAL__sub_I__ZN9__gnu_cxx9__freeresEv+0x102>
   10a02:	e488                	sd	a0,8(s1)
   10a04:	e100                	sd	s0,0(a0)
   10a06:	00053423          	sd	zero,8(a0)
   10a0a:	bf89                	j	1095c <_GLOBAL__sub_I__ZN9__gnu_cxx9__freeresEv+0x9c>

0000000000010a0c <_GLOBAL__sub_I__ZSt20__throw_system_errori>:
   10a0c:	8082                	ret

0000000000010a0e <register_fini>:
   10a0e:	00000793          	li	a5,0
   10a12:	c799                	beqz	a5,10a20 <register_fini+0x12>
   10a14:	0002d537          	lui	a0,0x2d
   10a18:	6e250513          	addi	a0,a0,1762 # 2d6e2 <__libc_fini_array>
   10a1c:	22a1806f          	j	28c46 <atexit>
   10a20:	8082                	ret

0000000000010a22 <_start>:
   10a22:	00031197          	auipc	gp,0x31
   10a26:	43e18193          	addi	gp,gp,1086 # 41e60 <__global_pointer$>
   10a2a:	00031517          	auipc	a0,0x31
   10a2e:	e9650513          	addi	a0,a0,-362 # 418c0 <_ZZN9__gnu_cxx27__verbose_terminate_handlerEvE11terminating>
   10a32:	0007a617          	auipc	a2,0x7a
   10a36:	4f660613          	addi	a2,a2,1270 # 8af28 <__BSS_END__>
   10a3a:	8e09                	sub	a2,a2,a0
   10a3c:	4581                	li	a1,0
   10a3e:	57d170ef          	jal	287ba <memset>
   10a42:	00018517          	auipc	a0,0x18
   10a46:	20450513          	addi	a0,a0,516 # 28c46 <atexit>
   10a4a:	c519                	beqz	a0,10a58 <_start+0x36>
   10a4c:	0001d517          	auipc	a0,0x1d
   10a50:	c9650513          	addi	a0,a0,-874 # 2d6e2 <__libc_fini_array>
   10a54:	1f2180ef          	jal	28c46 <atexit>
   10a58:	417170ef          	jal	2866e <__libc_init_array>
   10a5c:	4502                	lw	a0,0(sp)
   10a5e:	002c                	addi	a1,sp,8
   10a60:	4601                	li	a2,0
   10a62:	c71ff0ef          	jal	106d2 <main>
   10a66:	b981                	j	106b6 <exit>

0000000000010a68 <__do_global_dtors_aux>:
   10a68:	1141                	addi	sp,sp,-16
   10a6a:	e022                	sd	s0,0(sp)
   10a6c:	ae01c783          	lbu	a5,-1312(gp) # 41940 <completed.1>
   10a70:	e406                	sd	ra,8(sp)
   10a72:	ef99                	bnez	a5,10a90 <__do_global_dtors_aux+0x28>
   10a74:	000257b7          	lui	a5,0x25
   10a78:	8fe78793          	addi	a5,a5,-1794 # 248fe <__deregister_frame_info>
   10a7c:	c799                	beqz	a5,10a8a <__do_global_dtors_aux+0x22>
   10a7e:	00038537          	lui	a0,0x38
   10a82:	06050513          	addi	a0,a0,96 # 38060 <__EH_FRAME_BEGIN__>
   10a86:	679130ef          	jal	248fe <__deregister_frame_info>
   10a8a:	4785                	li	a5,1
   10a8c:	aef18023          	sb	a5,-1312(gp) # 41940 <completed.1>
   10a90:	60a2                	ld	ra,8(sp)
   10a92:	6402                	ld	s0,0(sp)
   10a94:	0141                	addi	sp,sp,16
   10a96:	8082                	ret

0000000000010a98 <frame_dummy>:
   10a98:	000257b7          	lui	a5,0x25
   10a9c:	82078793          	addi	a5,a5,-2016 # 24820 <__register_frame_info>
   10aa0:	cb89                	beqz	a5,10ab2 <frame_dummy+0x1a>
   10aa2:	00038537          	lui	a0,0x38
   10aa6:	ae818593          	addi	a1,gp,-1304 # 41948 <object.0>
   10aaa:	06050513          	addi	a0,a0,96 # 38060 <__EH_FRAME_BEGIN__>
   10aae:	5731306f          	j	24820 <__register_frame_info>
   10ab2:	8082                	ret

0000000000010ab4 <_Z5randfv>:
   10ab4:	a001a783          	lw	a5,-1536(gp) # 41860 <_ZL6g_seed>
   10ab8:	41c65637          	lui	a2,0x41c65
   10abc:	e6d6061b          	addiw	a2,a2,-403 # 41c64e6d <__BSS_END__+0x41bd9f45>
   10ac0:	02f6063b          	mulw	a2,a2,a5
   10ac4:	678d                	lui	a5,0x3
   10ac6:	0397879b          	addiw	a5,a5,57 # 3039 <__cxa_bad_cast-0xd0e7>
   10aca:	000d2737          	lui	a4,0xd2
   10ace:	b7170713          	addi	a4,a4,-1167 # d1b71 <__BSS_END__+0x46c49>
   10ad2:	0732                	slli	a4,a4,0xc
   10ad4:	75970713          	addi	a4,a4,1881
   10ad8:	6689                	lui	a3,0x2
   10ada:	7106869b          	addiw	a3,a3,1808 # 2710 <__cxa_bad_cast-0xda10>
   10ade:	9fb1                	addw	a5,a5,a2
   10ae0:	02079613          	slli	a2,a5,0x20
   10ae4:	9201                	srli	a2,a2,0x20
   10ae6:	02e60733          	mul	a4,a2,a4
   10aea:	a0f1a023          	sw	a5,-1536(gp) # 41860 <_ZL6g_seed>
   10aee:	8a81a707          	flw	fa4,-1880(gp) # 41708 <mask+0x68>
   10af2:	8ac1a787          	flw	fa5,-1876(gp) # 4170c <mask+0x6c>
   10af6:	9335                	srli	a4,a4,0x2d
   10af8:	02e6873b          	mulw	a4,a3,a4
   10afc:	9f99                	subw	a5,a5,a4
   10afe:	d007f553          	fcvt.s.w	fa0,a5
   10b02:	78e57543          	fmadd.s	fa0,fa0,fa4,fa5
   10b06:	8082                	ret

0000000000010b08 <_Z8set_seedj>:
   10b08:	a0a1a023          	sw	a0,-1536(gp) # 41860 <_ZL6g_seed>
   10b0c:	8082                	ret

0000000000010b0e <_Z11xavier_initmm>:
   10b0e:	952e                	add	a0,a0,a1
   10b10:	d0357753          	fcvt.s.lu	fa4,a0
   10b14:	8b01a787          	flw	fa5,-1872(gp) # 41710 <mask+0x70>
   10b18:	a001a783          	lw	a5,-1536(gp) # 41860 <_ZL6g_seed>
   10b1c:	18e7f7d3          	fdiv.s	fa5,fa5,fa4
   10b20:	41c65637          	lui	a2,0x41c65
   10b24:	e6d6061b          	addiw	a2,a2,-403 # 41c64e6d <__BSS_END__+0x41bd9f45>
   10b28:	02f6063b          	mulw	a2,a2,a5
   10b2c:	678d                	lui	a5,0x3
   10b2e:	0397879b          	addiw	a5,a5,57 # 3039 <__cxa_bad_cast-0xd0e7>
   10b32:	000d2737          	lui	a4,0xd2
   10b36:	b7170713          	addi	a4,a4,-1167 # d1b71 <__BSS_END__+0x46c49>
   10b3a:	0732                	slli	a4,a4,0xc
   10b3c:	75970713          	addi	a4,a4,1881
   10b40:	6689                	lui	a3,0x2
   10b42:	7106869b          	addiw	a3,a3,1808 # 2710 <__cxa_bad_cast-0xda10>
   10b46:	9fb1                	addw	a5,a5,a2
   10b48:	02079613          	slli	a2,a5,0x20
   10b4c:	9201                	srli	a2,a2,0x20
   10b4e:	02e60733          	mul	a4,a2,a4
   10b52:	a0f1a023          	sw	a5,-1536(gp) # 41860 <_ZL6g_seed>
   10b56:	8a81a687          	flw	fa3,-1880(gp) # 41708 <mask+0x68>
   10b5a:	5807f7d3          	fsqrt.s	fa5,fa5
   10b5e:	8ac1a707          	flw	fa4,-1876(gp) # 4170c <mask+0x6c>
   10b62:	9335                	srli	a4,a4,0x2d
   10b64:	02e6873b          	mulw	a4,a3,a4
   10b68:	9f99                	subw	a5,a5,a4
   10b6a:	d007f553          	fcvt.s.w	fa0,a5
   10b6e:	70d57543          	fmadd.s	fa0,fa0,fa3,fa4
   10b72:	10f57553          	fmul.s	fa0,fa0,fa5
   10b76:	8082                	ret

0000000000010b78 <_Z14init_embeddingv>:
   10b78:	8a81a607          	flw	fa2,-1880(gp) # 41708 <mask+0x68>
   10b7c:	8ac1a687          	flw	fa3,-1876(gp) # 4170c <mask+0x6c>
   10b80:	000d2637          	lui	a2,0xd2
   10b84:	0007d6b7          	lui	a3,0x7d
   10b88:	b7160613          	addi	a2,a2,-1167 # d1b71 <__BSS_END__+0x46c49>
   10b8c:	8b41a707          	flw	fa4,-1868(gp) # 41714 <mask+0x74>
   10b90:	a001a703          	lw	a4,-1536(gp) # 41860 <_ZL6g_seed>
   10b94:	97868693          	addi	a3,a3,-1672 # 7c978 <_ZL16embedding_weight>
   10b98:	68a1                	lui	a7,0x8
   10b9a:	0632                	slli	a2,a2,0xc
   10b9c:	41c65837          	lui	a6,0x41c65
   10ba0:	650d                	lui	a0,0x3
   10ba2:	6589                	lui	a1,0x2
   10ba4:	75960613          	addi	a2,a2,1881
   10ba8:	98b6                	add	a7,a7,a3
   10baa:	e6d8081b          	addiw	a6,a6,-403 # 41c64e6d <__BSS_END__+0x41bd9f45>
   10bae:	0395051b          	addiw	a0,a0,57 # 3039 <__cxa_bad_cast-0xd0e7>
   10bb2:	7105859b          	addiw	a1,a1,1808 # 2710 <__cxa_bad_cast-0xda10>
   10bb6:	0307073b          	mulw	a4,a4,a6
   10bba:	0691                	addi	a3,a3,4
   10bbc:	9f29                	addw	a4,a4,a0
   10bbe:	02071793          	slli	a5,a4,0x20
   10bc2:	9381                	srli	a5,a5,0x20
   10bc4:	02c787b3          	mul	a5,a5,a2
   10bc8:	93b5                	srli	a5,a5,0x2d
   10bca:	02f587bb          	mulw	a5,a1,a5
   10bce:	40f707bb          	subw	a5,a4,a5
   10bd2:	d007f7d3          	fcvt.s.w	fa5,a5
   10bd6:	68c7f7c3          	fmadd.s	fa5,fa5,fa2,fa3
   10bda:	10e7f7d3          	fmul.s	fa5,fa5,fa4
   10bde:	fef6ae27          	fsw	fa5,-4(a3)
   10be2:	fcd89ae3          	bne	a7,a3,10bb6 <_Z14init_embeddingv+0x3e>
   10be6:	a0e1a023          	sw	a4,-1536(gp) # 41860 <_ZL6g_seed>
   10bea:	8082                	ret

0000000000010bec <_Z24init_positional_encodingv>:
   10bec:	711d                	addi	sp,sp,-96
   10bee:	a04e                	fsd	fs3,0(sp)
   10bf0:	8b81a987          	flw	fs3,-1864(gp) # 41718 <mask+0x78>
   10bf4:	a44a                	fsd	fs2,8(sp)
   10bf6:	8bc1a907          	flw	fs2,-1860(gp) # 4171c <mask+0x7c>
   10bfa:	a826                	fsd	fs1,16(sp)
   10bfc:	8c01a487          	flw	fs1,-1856(gp) # 41720 <mask+0x80>
   10c00:	f852                	sd	s4,48(sp)
   10c02:	0007ba37          	lui	s4,0x7b
   10c06:	e0ca                	sd	s2,64(sp)
   10c08:	fc4e                	sd	s3,56(sp)
   10c0a:	f456                	sd	s5,40(sp)
   10c0c:	ec86                	sd	ra,88(sp)
   10c0e:	e8a2                	sd	s0,80(sp)
   10c10:	e4a6                	sd	s1,72(sp)
   10c12:	ac22                	fsd	fs0,24(sp)
   10c14:	978a0a13          	addi	s4,s4,-1672 # 7a978 <_ZL12pos_encoding>
   10c18:	4981                	li	s3,0
   10c1a:	04000913          	li	s2,64
   10c1e:	02000a93          	li	s5,32
   10c22:	d029f453          	fcvt.s.l	fs0,s3
   10c26:	21398553          	fmv.s	fa0,fs3
   10c2a:	84d2                	mv	s1,s4
   10c2c:	4401                	li	s0,0
   10c2e:	a01d                	j	10c54 <_Z24init_positional_encodingv+0x68>
   10c30:	532100ef          	jal	21162 <sinf>
   10c34:	00a4a027          	fsw	fa0,0(s1)
   10c38:	0405                	addi	s0,s0,1
   10c3a:	0491                	addi	s1,s1,4
   10c3c:	ffe47793          	andi	a5,s0,-2
   10c40:	d027f553          	fcvt.s.l	fa0,a5
   10c44:	11257553          	fmul.s	fa0,fa0,fs2
   10c48:	20a51553          	fneg.s	fa0,fa0
   10c4c:	10957553          	fmul.s	fa0,fa0,fs1
   10c50:	448100ef          	jal	21098 <expf>
   10c54:	00147793          	andi	a5,s0,1
   10c58:	10a47553          	fmul.s	fa0,fs0,fa0
   10c5c:	dbf1                	beqz	a5,10c30 <_Z24init_positional_encodingv+0x44>
   10c5e:	6fa100ef          	jal	21358 <cosf>
   10c62:	0405                	addi	s0,s0,1
   10c64:	00a4a027          	fsw	fa0,0(s1)
   10c68:	01240463          	beq	s0,s2,10c70 <_Z24init_positional_encodingv+0x84>
   10c6c:	0491                	addi	s1,s1,4
   10c6e:	b7f9                	j	10c3c <_Z24init_positional_encodingv+0x50>
   10c70:	0985                	addi	s3,s3,1
   10c72:	100a0a13          	addi	s4,s4,256
   10c76:	fb5996e3          	bne	s3,s5,10c22 <_Z24init_positional_encodingv+0x36>
   10c7a:	60e6                	ld	ra,88(sp)
   10c7c:	6446                	ld	s0,80(sp)
   10c7e:	64a6                	ld	s1,72(sp)
   10c80:	6906                	ld	s2,64(sp)
   10c82:	79e2                	ld	s3,56(sp)
   10c84:	7a42                	ld	s4,48(sp)
   10c86:	7aa2                	ld	s5,40(sp)
   10c88:	2462                	fld	fs0,24(sp)
   10c8a:	24c2                	fld	fs1,16(sp)
   10c8c:	2922                	fld	fs2,8(sp)
   10c8e:	2982                	fld	fs3,0(sp)
   10c90:	6125                	addi	sp,sp,96
   10c92:	8082                	ret

0000000000010c94 <_Z24init_transformer_weightsv>:
   10c94:	8b81a007          	flw	ft0,-1864(gp) # 41718 <mask+0x78>
   10c98:	711d                	addi	sp,sp,-96
   10c9a:	8a81a707          	flw	fa4,-1880(gp) # 41708 <mask+0x68>
   10c9e:	8ac1a787          	flw	fa5,-1876(gp) # 4170c <mask+0x6c>
   10ca2:	eca2                	sd	s0,88(sp)
   10ca4:	0004a437          	lui	s0,0x4a
   10ca8:	68e1                	lui	a7,0x18
   10caa:	62e1                	lui	t0,0x18
   10cac:	6f41                	lui	t5,0x10
   10cae:	6ec1                	lui	t4,0x10
   10cb0:	6e21                	lui	t3,0x8
   10cb2:	6fa1                	lui	t6,0x8
   10cb4:	6309                	lui	t1,0x2
   10cb6:	000497b7          	lui	a5,0x49
   10cba:	b7840413          	addi	s0,s0,-1160 # 49b78 <_ZL13layer_weights>
   10cbe:	40078793          	addi	a5,a5,1024 # 49400 <__global_pointer$+0x75a0>
   10cc2:	8c41a587          	flw	fa1,-1852(gp) # 41724 <mask+0x84>
   10cc6:	f856                	sd	s5,48(sp)
   10cc8:	60088893          	addi	a7,a7,1536 # 18600 <d_print_comp_inner+0x284>
   10ccc:	70028293          	addi	t0,t0,1792 # 18700 <d_print_comp_inner+0x384>
   10cd0:	600f0f13          	addi	t5,t5,1536 # 10600 <_ZNSt7__cxx1112basic_stringIcSt11char_traitsIcESaIcEE15_M_replace_coldEPcmPKcmm+0x6a>
   10cd4:	400e8e93          	addi	t4,t4,1024 # 10400 <_ZSt24__throw_out_of_range_fmtPKcz+0x54>
   10cd8:	200e0e13          	addi	t3,t3,512 # 8200 <__cxa_bad_cast-0x7f20>
   10cdc:	300f8f93          	addi	t6,t6,768 # 8300 <__cxa_bad_cast-0x7e20>
   10ce0:	20030313          	addi	t1,t1,512 # 2200 <__cxa_bad_cast-0xdf20>
   10ce4:	000d2637          	lui	a2,0xd2
   10ce8:	b7160613          	addi	a2,a2,-1167 # d1b71 <__BSS_END__+0x46c49>
   10cec:	98a2                	add	a7,a7,s0
   10cee:	92a2                	add	t0,t0,s0
   10cf0:	9f22                	add	t5,t5,s0
   10cf2:	9ea2                	add	t4,t4,s0
   10cf4:	9e22                	add	t3,t3,s0
   10cf6:	9fa2                	add	t6,t6,s0
   10cf8:	9322                	add	t1,t1,s0
   10cfa:	10040393          	addi	t2,s0,256
   10cfe:	8b41a507          	flw	fa0,-1868(gp) # 41714 <mask+0x74>
   10d02:	943e                	add	s0,s0,a5
   10d04:	a001a783          	lw	a5,-1536(gp) # 41860 <_ZL6g_seed>
   10d08:	e8a6                	sd	s1,80(sp)
   10d0a:	e4ca                	sd	s2,72(sp)
   10d0c:	e0ce                	sd	s3,64(sp)
   10d0e:	fc52                	sd	s4,56(sp)
   10d10:	0632                	slli	a2,a2,0xc
   10d12:	7a21                	lui	s4,0xfffe8
   10d14:	79a1                	lui	s3,0xfffe8
   10d16:	7931                	lui	s2,0xfffec
   10d18:	41c65837          	lui	a6,0x41c65
   10d1c:	650d                	lui	a0,0x3
   10d1e:	6589                	lui	a1,0x2
   10d20:	74b9                	lui	s1,0xfffee
   10d22:	f45a                	sd	s6,40(sp)
   10d24:	f05e                	sd	s7,32(sp)
   10d26:	ec62                	sd	s8,24(sp)
   10d28:	e866                	sd	s9,16(sp)
   10d2a:	e46a                	sd	s10,8(sp)
   10d2c:	e06e                	sd	s11,0(sp)
   10d2e:	75960613          	addi	a2,a2,1881
   10d32:	a00a0a13          	addi	s4,s4,-1536 # fffffffffffe7a00 <__BSS_END__+0xfffffffffff5cad8>
   10d36:	c0098993          	addi	s3,s3,-1024 # fffffffffffe7c00 <__BSS_END__+0xfffffffffff5ccd8>
   10d3a:	c0090913          	addi	s2,s2,-1024 # fffffffffffebc00 <__BSS_END__+0xfffffffffff60cd8>
   10d3e:	e6d8081b          	addiw	a6,a6,-403 # 41c64e6d <__BSS_END__+0x41bd9f45>
   10d42:	0395051b          	addiw	a0,a0,57 # 3039 <__cxa_bad_cast-0xd0e7>
   10d46:	7105859b          	addiw	a1,a1,1808 # 2710 <__cxa_bad_cast-0xda10>
   10d4a:	c0048493          	addi	s1,s1,-1024 # fffffffffffedc00 <__BSS_END__+0xfffffffffff62cd8>
   10d4e:	01488733          	add	a4,a7,s4
   10d52:	00072027          	fsw	ft0,0(a4)
   10d56:	10072023          	sw	zero,256(a4)
   10d5a:	0711                	addi	a4,a4,4
   10d5c:	fee39be3          	bne	t2,a4,10d52 <_Z24init_transformer_weightsv+0xbe>
   10d60:	01388bb3          	add	s7,a7,s3
   10d64:	01288cb3          	add	s9,a7,s2
   10d68:	8c1a                	mv	s8,t1
   10d6a:	0307873b          	mulw	a4,a5,a6
   10d6e:	0b91                	addi	s7,s7,4
   10d70:	0c11                	addi	s8,s8,4
   10d72:	0c91                	addi	s9,s9,4
   10d74:	9f29                	addw	a4,a4,a0
   10d76:	02e80d3b          	mulw	s10,a6,a4
   10d7a:	02071693          	slli	a3,a4,0x20
   10d7e:	9281                	srli	a3,a3,0x20
   10d80:	01a50d3b          	addw	s10,a0,s10
   10d84:	03a807bb          	mulw	a5,a6,s10
   10d88:	020d1d93          	slli	s11,s10,0x20
   10d8c:	020ddd93          	srli	s11,s11,0x20
   10d90:	02c686b3          	mul	a3,a3,a2
   10d94:	9fa9                	addw	a5,a5,a0
   10d96:	02079b13          	slli	s6,a5,0x20
   10d9a:	020b5b13          	srli	s6,s6,0x20
   10d9e:	92b5                	srli	a3,a3,0x2d
   10da0:	02d586bb          	mulw	a3,a1,a3
   10da4:	02cd8db3          	mul	s11,s11,a2
   10da8:	9f15                	subw	a4,a4,a3
   10daa:	d00776d3          	fcvt.s.w	fa3,a4
   10dae:	78e6f6c3          	fmadd.s	fa3,fa3,fa4,fa5
   10db2:	02cb0b33          	mul	s6,s6,a2
   10db6:	02dddd93          	srli	s11,s11,0x2d
   10dba:	10b6f6d3          	fmul.s	fa3,fa3,fa1
   10dbe:	fedbae27          	fsw	fa3,-4(s7)
   10dc2:	03b58dbb          	mulw	s11,a1,s11
   10dc6:	02db5b13          	srli	s6,s6,0x2d
   10dca:	0365873b          	mulw	a4,a1,s6
   10dce:	41bd0d3b          	subw	s10,s10,s11
   10dd2:	d00d7653          	fcvt.s.w	fa2,s10
   10dd6:	78e67643          	fmadd.s	fa2,fa2,fa4,fa5
   10dda:	40e7873b          	subw	a4,a5,a4
   10dde:	d00776d3          	fcvt.s.w	fa3,a4
   10de2:	10b67653          	fmul.s	fa2,fa2,fa1
   10de6:	78e6f6c3          	fmadd.s	fa3,fa3,fa4,fa5
   10dea:	fecc2e27          	fsw	fa2,-4(s8)
   10dee:	10b6f6d3          	fmul.s	fa3,fa3,fa1
   10df2:	fedcae27          	fsw	fa3,-4(s9)
   10df6:	f7731ae3          	bne	t1,s7,10d6a <_Z24init_transformer_weightsv+0xd6>
   10dfa:	009886b3          	add	a3,a7,s1
   10dfe:	030787bb          	mulw	a5,a5,a6
   10e02:	0691                	addi	a3,a3,4
   10e04:	9fa9                	addw	a5,a5,a0
   10e06:	02079713          	slli	a4,a5,0x20
   10e0a:	9301                	srli	a4,a4,0x20
   10e0c:	02c70733          	mul	a4,a4,a2
   10e10:	9335                	srli	a4,a4,0x2d
   10e12:	02e5873b          	mulw	a4,a1,a4
   10e16:	40e7873b          	subw	a4,a5,a4
   10e1a:	d00776d3          	fcvt.s.w	fa3,a4
   10e1e:	78e6f6c3          	fmadd.s	fa3,fa3,fa4,fa5
   10e22:	10b6f6d3          	fmul.s	fa3,fa3,fa1
   10e26:	fed6ae27          	fsw	fa3,-4(a3)
   10e2a:	fcde1ae3          	bne	t3,a3,10dfe <_Z24init_transformer_weightsv+0x16a>
   10e2e:	0006a027          	fsw	ft0,0(a3)
   10e32:	1006a023          	sw	zero,256(a3)
   10e36:	0691                	addi	a3,a3,4
   10e38:	fedf9be3          	bne	t6,a3,10e2e <_Z24init_transformer_weightsv+0x19a>
   10e3c:	7741                	lui	a4,0xffff0
   10e3e:	e0070713          	addi	a4,a4,-512 # fffffffffffefe00 <__BSS_END__+0xfffffffffff64ed8>
   10e42:	9746                	add	a4,a4,a7
   10e44:	030787bb          	mulw	a5,a5,a6
   10e48:	0711                	addi	a4,a4,4
   10e4a:	9fa9                	addw	a5,a5,a0
   10e4c:	02079693          	slli	a3,a5,0x20
   10e50:	9281                	srli	a3,a3,0x20
   10e52:	02c686b3          	mul	a3,a3,a2
   10e56:	92b5                	srli	a3,a3,0x2d
   10e58:	02d586bb          	mulw	a3,a1,a3
   10e5c:	40d786bb          	subw	a3,a5,a3
   10e60:	d006f6d3          	fcvt.s.w	fa3,a3
   10e64:	78e6f6c3          	fmadd.s	fa3,fa3,fa4,fa5
   10e68:	10a6f6d3          	fmul.s	fa3,fa3,fa0
   10e6c:	fed72e27          	fsw	fa3,-4(a4)
   10e70:	fcee9ae3          	bne	t4,a4,10e44 <_Z24init_transformer_weightsv+0x1b0>
   10e74:	00072023          	sw	zero,0(a4)
   10e78:	0711                	addi	a4,a4,4
   10e7a:	feef1de3          	bne	t5,a4,10e74 <_Z24init_transformer_weightsv+0x1e0>
   10e7e:	030787bb          	mulw	a5,a5,a6
   10e82:	0711                	addi	a4,a4,4
   10e84:	9fa9                	addw	a5,a5,a0
   10e86:	02079693          	slli	a3,a5,0x20
   10e8a:	9281                	srli	a3,a3,0x20
   10e8c:	02c686b3          	mul	a3,a3,a2
   10e90:	92b5                	srli	a3,a3,0x2d
   10e92:	02d586bb          	mulw	a3,a1,a3
   10e96:	40d786bb          	subw	a3,a5,a3
   10e9a:	d006f6d3          	fcvt.s.w	fa3,a3
   10e9e:	78e6f6c3          	fmadd.s	fa3,fa3,fa4,fa5
   10ea2:	10a6f6d3          	fmul.s	fa3,fa3,fa0
   10ea6:	fed72e27          	fsw	fa3,-4(a4)
   10eaa:	fce89ae3          	bne	a7,a4,10e7e <_Z24init_transformer_weightsv+0x1ea>
   10eae:	00072023          	sw	zero,0(a4)
   10eb2:	0711                	addi	a4,a4,4
   10eb4:	fee29de3          	bne	t0,a4,10eae <_Z24init_transformer_weightsv+0x21a>
   10eb8:	6761                	lui	a4,0x18
   10eba:	70070713          	addi	a4,a4,1792 # 18700 <d_print_comp_inner+0x384>
   10ebe:	98ba                	add	a7,a7,a4
   10ec0:	92ba                	add	t0,t0,a4
   10ec2:	9f3a                	add	t5,t5,a4
   10ec4:	9eba                	add	t4,t4,a4
   10ec6:	9e3a                	add	t3,t3,a4
   10ec8:	9fba                	add	t6,t6,a4
   10eca:	933a                	add	t1,t1,a4
   10ecc:	93ba                	add	t2,t2,a4
   10ece:	e91410e3          	bne	s0,a7,10d4e <_Z24init_transformer_weightsv+0xba>
   10ed2:	6466                	ld	s0,88(sp)
   10ed4:	a0f1a023          	sw	a5,-1536(gp) # 41860 <_ZL6g_seed>
   10ed8:	64c6                	ld	s1,80(sp)
   10eda:	6926                	ld	s2,72(sp)
   10edc:	6986                	ld	s3,64(sp)
   10ede:	7a62                	ld	s4,56(sp)
   10ee0:	7ac2                	ld	s5,48(sp)
   10ee2:	7b22                	ld	s6,40(sp)
   10ee4:	7b82                	ld	s7,32(sp)
   10ee6:	6c62                	ld	s8,24(sp)
   10ee8:	6cc2                	ld	s9,16(sp)
   10eea:	6d22                	ld	s10,8(sp)
   10eec:	6d82                	ld	s11,0(sp)
   10eee:	6125                	addi	sp,sp,96
   10ef0:	8082                	ret

0000000000010ef2 <_Z17init_output_layerv>:
   10ef2:	8a81a607          	flw	fa2,-1880(gp) # 41708 <mask+0x68>
   10ef6:	8ac1a687          	flw	fa3,-1876(gp) # 4170c <mask+0x6c>
   10efa:	000d2637          	lui	a2,0xd2
   10efe:	000426b7          	lui	a3,0x42
   10f02:	b7160613          	addi	a2,a2,-1167 # d1b71 <__BSS_END__+0x46c49>
   10f06:	8b41a707          	flw	fa4,-1868(gp) # 41714 <mask+0x74>
   10f0a:	a001a703          	lw	a4,-1536(gp) # 41860 <_ZL6g_seed>
   10f0e:	b7868693          	addi	a3,a3,-1160 # 41b78 <_ZL13output_weight>
   10f12:	68a1                	lui	a7,0x8
   10f14:	0632                	slli	a2,a2,0xc
   10f16:	41c65837          	lui	a6,0x41c65
   10f1a:	650d                	lui	a0,0x3
   10f1c:	6589                	lui	a1,0x2
   10f1e:	75960613          	addi	a2,a2,1881
   10f22:	98b6                	add	a7,a7,a3
   10f24:	e6d8081b          	addiw	a6,a6,-403 # 41c64e6d <__BSS_END__+0x41bd9f45>
   10f28:	0395051b          	addiw	a0,a0,57 # 3039 <__cxa_bad_cast-0xd0e7>
   10f2c:	7105859b          	addiw	a1,a1,1808 # 2710 <__cxa_bad_cast-0xda10>
   10f30:	0307073b          	mulw	a4,a4,a6
   10f34:	0691                	addi	a3,a3,4
   10f36:	9f29                	addw	a4,a4,a0
   10f38:	02071793          	slli	a5,a4,0x20
   10f3c:	9381                	srli	a5,a5,0x20
   10f3e:	02c787b3          	mul	a5,a5,a2
   10f42:	93b5                	srli	a5,a5,0x2d
   10f44:	02f587bb          	mulw	a5,a1,a5
   10f48:	40f707bb          	subw	a5,a4,a5
   10f4c:	d007f7d3          	fcvt.s.w	fa5,a5
   10f50:	68c7f7c3          	fmadd.s	fa5,fa5,fa2,fa3
   10f54:	10e7f7d3          	fmul.s	fa5,fa5,fa4
   10f58:	fef6ae27          	fsw	fa5,-4(a3)
   10f5c:	fcd89ae3          	bne	a7,a3,10f30 <_Z17init_output_layerv+0x3e>
   10f60:	b1818793          	addi	a5,gp,-1256 # 41978 <_ZL11output_bias>
   10f64:	a0e1a023          	sw	a4,-1536(gp) # 41860 <_ZL6g_seed>
   10f68:	20078713          	addi	a4,a5,512
   10f6c:	0007a023          	sw	zero,0(a5)
   10f70:	0791                	addi	a5,a5,4
   10f72:	fef71de3          	bne	a4,a5,10f6c <_Z17init_output_layerv+0x7a>
   10f76:	8082                	ret

0000000000010f78 <_Z16init_all_weightsv>:
   10f78:	00031537          	lui	a0,0x31
   10f7c:	1141                	addi	sp,sp,-16
   10f7e:	21050513          	addi	a0,a0,528 # 31210 <__clzdi2+0x3e>
   10f82:	e406                	sd	ra,8(sp)
   10f84:	636160ef          	jal	275ba <puts>
   10f88:	678d                	lui	a5,0x3
   10f8a:	03978793          	addi	a5,a5,57 # 3039 <__cxa_bad_cast-0xd0e7>
   10f8e:	a0f1a023          	sw	a5,-1536(gp) # 41860 <_ZL6g_seed>
   10f92:	be7ff0ef          	jal	10b78 <_Z14init_embeddingv>
   10f96:	c57ff0ef          	jal	10bec <_Z24init_positional_encodingv>
   10f9a:	cfbff0ef          	jal	10c94 <_Z24init_transformer_weightsv>
   10f9e:	f55ff0ef          	jal	10ef2 <_Z17init_output_layerv>
   10fa2:	00031537          	lui	a0,0x31
   10fa6:	23050513          	addi	a0,a0,560 # 31230 <__clzdi2+0x5e>
   10faa:	610160ef          	jal	275ba <puts>
   10fae:	00031537          	lui	a0,0x31
   10fb2:	04000613          	li	a2,64
   10fb6:	08000593          	li	a1,128
   10fba:	25050513          	addi	a0,a0,592 # 31250 <__clzdi2+0x7e>
   10fbe:	420160ef          	jal	273de <printf>
   10fc2:	00031537          	lui	a0,0x31
   10fc6:	04000613          	li	a2,64
   10fca:	02000593          	li	a1,32
   10fce:	26850513          	addi	a0,a0,616 # 31268 <__clzdi2+0x96>
   10fd2:	40c160ef          	jal	273de <printf>
   10fd6:	00031537          	lui	a0,0x31
   10fda:	4589                	li	a1,2
   10fdc:	29050513          	addi	a0,a0,656 # 31290 <__clzdi2+0xbe>
   10fe0:	3fe160ef          	jal	273de <printf>
   10fe4:	00031537          	lui	a0,0x31
   10fe8:	2b050513          	addi	a0,a0,688 # 312b0 <__clzdi2+0xde>
   10fec:	04000613          	li	a2,64
   10ff0:	08000593          	li	a1,128
   10ff4:	3ea160ef          	jal	273de <printf>
   10ff8:	60a2                	ld	ra,8(sp)
   10ffa:	00031537          	lui	a0,0x31
   10ffe:	2d050513          	addi	a0,a0,720 # 312d0 <__clzdi2+0xfe>
   11002:	0141                	addi	sp,sp,16
   11004:	5b61606f          	j	275ba <puts>

0000000000011008 <_Z11char_to_idxc>:
   11008:	07f00793          	li	a5,127
   1100c:	00a7d363          	bge	a5,a0,11012 <_Z11char_to_idxc+0xa>
   11010:	4501                	li	a0,0
   11012:	8082                	ret

0000000000011014 <_Z11idx_to_chari>:
   11014:	07f00793          	li	a5,127
   11018:	00a7f463          	bgeu	a5,a0,11020 <_Z11idx_to_chari+0xc>
   1101c:	03f00513          	li	a0,63
   11020:	0ff57513          	zext.b	a0,a0
   11024:	8082                	ret

0000000000011026 <_Z13encode_stringPKcPim>:
   11026:	1101                	addi	sp,sp,-32
   11028:	e822                	sd	s0,16(sp)
   1102a:	e42e                	sd	a1,8(sp)
   1102c:	e032                	sd	a2,0(sp)
   1102e:	ec06                	sd	ra,24(sp)
   11030:	842a                	mv	s0,a0
   11032:	11b170ef          	jal	2894c <strlen>
   11036:	6602                	ld	a2,0(sp)
   11038:	65a2                	ld	a1,8(sp)
   1103a:	00a67363          	bgeu	a2,a0,11040 <_Z13encode_stringPKcPim+0x1a>
   1103e:	8532                	mv	a0,a2
   11040:	c10d                	beqz	a0,11062 <_Z13encode_stringPKcPim+0x3c>
   11042:	050a                	slli	a0,a0,0x2
   11044:	00a58733          	add	a4,a1,a0
   11048:	07f00693          	li	a3,127
   1104c:	8522                	mv	a0,s0
   1104e:	00054783          	lbu	a5,0(a0)
   11052:	0505                	addi	a0,a0,1
   11054:	00f6d363          	bge	a3,a5,1105a <_Z13encode_stringPKcPim+0x34>
   11058:	4781                	li	a5,0
   1105a:	c19c                	sw	a5,0(a1)
   1105c:	0591                	addi	a1,a1,4
   1105e:	fee598e3          	bne	a1,a4,1104e <_Z13encode_stringPKcPim+0x28>
   11062:	60e2                	ld	ra,24(sp)
   11064:	6442                	ld	s0,16(sp)
   11066:	6105                	addi	sp,sp,32
   11068:	8082                	ret

000000000001106a <_Z12embed_tokensPfPKim>:
   1106a:	c621                	beqz	a2,110b2 <_Z12embed_tokensPfPKim+0x48>
   1106c:	0007d337          	lui	t1,0x7d
   11070:	0007d8b7          	lui	a7,0x7d
   11074:	882e                	mv	a6,a1
   11076:	97830313          	addi	t1,t1,-1672 # 7c978 <_ZL16embedding_weight>
   1107a:	85aa                	mv	a1,a0
   1107c:	a7888893          	addi	a7,a7,-1416 # 7ca78 <_ZL16embedding_weight+0x100>
   11080:	00661513          	slli	a0,a2,0x6
   11084:	4601                	li	a2,0
   11086:	00082683          	lw	a3,0(a6)
   1108a:	872e                	mv	a4,a1
   1108c:	06a2                	slli	a3,a3,0x8
   1108e:	00d307b3          	add	a5,t1,a3
   11092:	96c6                	add	a3,a3,a7
   11094:	0007a787          	flw	fa5,0(a5)
   11098:	0791                	addi	a5,a5,4
   1109a:	0711                	addi	a4,a4,4
   1109c:	fef72e27          	fsw	fa5,-4(a4)
   110a0:	fed79ae3          	bne	a5,a3,11094 <_Z12embed_tokensPfPKim+0x2a>
   110a4:	04060613          	addi	a2,a2,64
   110a8:	0811                	addi	a6,a6,4
   110aa:	10058593          	addi	a1,a1,256
   110ae:	fca61ce3          	bne	a2,a0,11086 <_Z12embed_tokensPfPKim+0x1c>
   110b2:	8082                	ret

00000000000110b4 <_Z23add_positional_encodingPfm>:
   110b4:	c1a9                	beqz	a1,110f6 <_Z23add_positional_encodingPfm+0x42>
   110b6:	0007b637          	lui	a2,0x7b
   110ba:	10050693          	addi	a3,a0,256
   110be:	97860613          	addi	a2,a2,-1672 # 7a978 <_ZL12pos_encoding>
   110c2:	00659513          	slli	a0,a1,0x6
   110c6:	4581                	li	a1,0
   110c8:	f0068793          	addi	a5,a3,-256
   110cc:	8732                	mv	a4,a2
   110ce:	0007a787          	flw	fa5,0(a5)
   110d2:	00072707          	flw	fa4,0(a4)
   110d6:	0791                	addi	a5,a5,4
   110d8:	0711                	addi	a4,a4,4
   110da:	00e7f7d3          	fadd.s	fa5,fa5,fa4
   110de:	fef7ae27          	fsw	fa5,-4(a5)
   110e2:	fed796e3          	bne	a5,a3,110ce <_Z23add_positional_encodingPfm+0x1a>
   110e6:	04058593          	addi	a1,a1,64
   110ea:	10060613          	addi	a2,a2,256
   110ee:	10068693          	addi	a3,a3,256
   110f2:	fca59be3          	bne	a1,a0,110c8 <_Z23add_positional_encodingPfm+0x14>
   110f6:	8082                	ret

00000000000110f8 <_Z25forward_transformer_blockPfPKfRK23TransformerBlockWeightsm>:
   110f8:	6fe1                	lui	t6,0x18
   110fa:	6f41                	lui	t5,0x10
   110fc:	6ec1                	lui	t4,0x10
   110fe:	600f8f93          	addi	t6,t6,1536 # 18600 <d_print_comp_inner+0x284>
   11102:	600f0f13          	addi	t5,t5,1536 # 10600 <_ZNSt7__cxx1112basic_stringIcSt11char_traitsIcESaIcEE15_M_replace_coldEPcmPKcmm+0x6a>
   11106:	400e8e93          	addi	t4,t4,1024 # 10400 <_ZSt24__throw_out_of_range_fmtPKcz+0x54>
   1110a:	6e21                	lui	t3,0x8
   1110c:	6321                	lui	t1,0x8
   1110e:	6721                	lui	a4,0x8
   11110:	7159                	addi	sp,sp,-112
   11112:	9fb2                	add	t6,t6,a2
   11114:	9f32                	add	t5,t5,a2
   11116:	9eb2                	add	t4,t4,a2
   11118:	400e0e13          	addi	t3,t3,1024 # 8400 <__cxa_bad_cast-0x7d20>
   1111c:	30030313          	addi	t1,t1,768 # 8300 <__cxa_bad_cast-0x7e20>
   11120:	20070713          	addi	a4,a4,512 # 8200 <__cxa_bad_cast-0x7f20>
   11124:	6899                	lui	a7,0x6
   11126:	6811                	lui	a6,0x4
   11128:	6789                	lui	a5,0x2
   1112a:	9732                	add	a4,a4,a2
   1112c:	f47e                	sd	t6,40(sp)
   1112e:	f07a                	sd	t5,32(sp)
   11130:	ec76                	sd	t4,24(sp)
   11132:	9e32                	add	t3,t3,a2
   11134:	9332                	add	t1,t1,a2
   11136:	4285                	li	t0,1
   11138:	08000f93          	li	t6,128
   1113c:	02000f13          	li	t5,32
   11140:	04000e93          	li	t4,64
   11144:	20088893          	addi	a7,a7,512 # 6200 <__cxa_bad_cast-0x9f20>
   11148:	20080813          	addi	a6,a6,512 # 4200 <__cxa_bad_cast-0xbf20>
   1114c:	20078793          	addi	a5,a5,512 # 2200 <__cxa_bad_cast-0xdf20>
   11150:	f836                	sd	a3,48(sp)
   11152:	e03a                	sd	a4,0(sp)
   11154:	e872                	sd	t3,16(sp)
   11156:	e41a                	sd	t1,8(sp)
   11158:	e896                	sd	t0,80(sp)
   1115a:	e4fe                	sd	t6,72(sp)
   1115c:	e0fa                	sd	t5,64(sp)
   1115e:	fc76                	sd	t4,56(sp)
   11160:	98b2                	add	a7,a7,a2
   11162:	9832                	add	a6,a6,a2
   11164:	97b2                	add	a5,a5,a2
   11166:	20060713          	addi	a4,a2,512
   1116a:	10060693          	addi	a3,a2,256
   1116e:	f486                	sd	ra,104(sp)
   11170:	7af030ef          	jal	1511e <_Z22transformer_block_fp32PfPKfS1_S1_S1_S1_S1_S1_S1_S1_S1_S1_S1_S1_mmmmb>
   11174:	70a6                	ld	ra,104(sp)
   11176:	6165                	addi	sp,sp,112
   11178:	8082                	ret

000000000001117a <_Z16project_to_vocabPfPKfm>:
   1117a:	00861713          	slli	a4,a2,0x8
   1117e:	f0058813          	addi	a6,a1,-256
   11182:	b1818613          	addi	a2,gp,-1256 # 41978 <_ZL11output_bias>
   11186:	000427b7          	lui	a5,0x42
   1118a:	00e586b3          	add	a3,a1,a4
   1118e:	983a                	add	a6,a6,a4
   11190:	20060893          	addi	a7,a2,512
   11194:	b7878593          	addi	a1,a5,-1160 # 41b78 <_ZL13output_weight>
   11198:	00062787          	flw	fa5,0(a2)
   1119c:	872e                	mv	a4,a1
   1119e:	87c2                	mv	a5,a6
   111a0:	0007a687          	flw	fa3,0(a5)
   111a4:	00072707          	flw	fa4,0(a4)
   111a8:	0791                	addi	a5,a5,4
   111aa:	0711                	addi	a4,a4,4
   111ac:	78e6f7c3          	fmadd.s	fa5,fa3,fa4,fa5
   111b0:	fef698e3          	bne	a3,a5,111a0 <_Z16project_to_vocabPfPKfm+0x26>
   111b4:	00f52027          	fsw	fa5,0(a0)
   111b8:	0611                	addi	a2,a2,4
   111ba:	0511                	addi	a0,a0,4
   111bc:	10058593          	addi	a1,a1,256
   111c0:	fd161ce3          	bne	a2,a7,11198 <_Z16project_to_vocabPfPKfm+0x1e>
   111c4:	8082                	ret

00000000000111c6 <_Z14softmax_logitsPfPKfmf>:
   111c6:	711d                	addi	sp,sp,-96
   111c8:	ac22                	fsd	fs0,24(sp)
   111ca:	ec86                	sd	ra,88(sp)
   111cc:	f456                	sd	s5,40(sp)
   111ce:	4785                	li	a5,1
   111d0:	0005a407          	flw	fs0,0(a1)
   111d4:	08c7ff63          	bgeu	a5,a2,11272 <_Z14softmax_logitsPfPKfmf+0xac>
   111d8:	00261a93          	slli	s5,a2,0x2
   111dc:	e8a2                	sd	s0,80(sp)
   111de:	e4a6                	sd	s1,72(sp)
   111e0:	e0ca                	sd	s2,64(sp)
   111e2:	fc4e                	sd	s3,56(sp)
   111e4:	f852                	sd	s4,48(sp)
   111e6:	f05a                	sd	s6,32(sp)
   111e8:	a826                	fsd	fs1,16(sp)
   111ea:	a44a                	fsd	fs2,8(sp)
   111ec:	01558733          	add	a4,a1,s5
   111f0:	00458793          	addi	a5,a1,4
   111f4:	0007a787          	flw	fa5,0(a5)
   111f8:	0791                	addi	a5,a5,4
   111fa:	28f41453          	fmax.s	fs0,fs0,fa5
   111fe:	fee79be3          	bne	a5,a4,111f4 <_Z14softmax_logitsPfPKfmf+0x2e>
   11202:	8b81a907          	flw	fs2,-1864(gp) # 41718 <mask+0x78>
   11206:	f00004d3          	fmv.w.x	fs1,zero
   1120a:	89aa                	mv	s3,a0
   1120c:	18a97953          	fdiv.s	fs2,fs2,fa0
   11210:	84ae                	mv	s1,a1
   11212:	01558a33          	add	s4,a1,s5
   11216:	842a                	mv	s0,a0
   11218:	892a                	mv	s2,a0
   1121a:	0004a507          	flw	fa0,0(s1)
   1121e:	0491                	addi	s1,s1,4
   11220:	0911                	addi	s2,s2,4
   11222:	08857553          	fsub.s	fa0,fa0,fs0
   11226:	11257553          	fmul.s	fa0,fa0,fs2
   1122a:	66f0f0ef          	jal	21098 <expf>
   1122e:	fea92e27          	fsw	fa0,-4(s2)
   11232:	00a4f4d3          	fadd.s	fs1,fs1,fa0
   11236:	ff4492e3          	bne	s1,s4,1121a <_Z14softmax_logitsPfPKfmf+0x54>
   1123a:	8b81a707          	flw	fa4,-1864(gp) # 41718 <mask+0x78>
   1123e:	01598533          	add	a0,s3,s5
   11242:	18977753          	fdiv.s	fa4,fa4,fs1
   11246:	00042787          	flw	fa5,0(s0)
   1124a:	0411                	addi	s0,s0,4
   1124c:	10e7f7d3          	fmul.s	fa5,fa5,fa4
   11250:	fef42e27          	fsw	fa5,-4(s0)
   11254:	fe8519e3          	bne	a0,s0,11246 <_Z14softmax_logitsPfPKfmf+0x80>
   11258:	6446                	ld	s0,80(sp)
   1125a:	64a6                	ld	s1,72(sp)
   1125c:	6906                	ld	s2,64(sp)
   1125e:	79e2                	ld	s3,56(sp)
   11260:	7a42                	ld	s4,48(sp)
   11262:	7b02                	ld	s6,32(sp)
   11264:	24c2                	fld	fs1,16(sp)
   11266:	2922                	fld	fs2,8(sp)
   11268:	60e6                	ld	ra,88(sp)
   1126a:	7aa2                	ld	s5,40(sp)
   1126c:	2462                	fld	fs0,24(sp)
   1126e:	6125                	addi	sp,sp,96
   11270:	8082                	ret
   11272:	da7d                	beqz	a2,11268 <_Z14softmax_logitsPfPKfmf+0xa2>
   11274:	e8a2                	sd	s0,80(sp)
   11276:	e4a6                	sd	s1,72(sp)
   11278:	e0ca                	sd	s2,64(sp)
   1127a:	fc4e                	sd	s3,56(sp)
   1127c:	f852                	sd	s4,48(sp)
   1127e:	f05a                	sd	s6,32(sp)
   11280:	a826                	fsd	fs1,16(sp)
   11282:	a44a                	fsd	fs2,8(sp)
   11284:	00261a93          	slli	s5,a2,0x2
   11288:	bfad                	j	11202 <_Z14softmax_logitsPfPKfmf+0x3c>

000000000001128a <_Z17sample_from_probsPKfm>:
   1128a:	a001a683          	lw	a3,-1536(gp) # 41860 <_ZL6g_seed>
   1128e:	41c65737          	lui	a4,0x41c65
   11292:	e6d7071b          	addiw	a4,a4,-403 # 41c64e6d <__BSS_END__+0x41bd9f45>
   11296:	02e6873b          	mulw	a4,a3,a4
   1129a:	678d                	lui	a5,0x3
   1129c:	0397879b          	addiw	a5,a5,57 # 3039 <__cxa_bad_cast-0xd0e7>
   112a0:	9fb9                	addw	a5,a5,a4
   112a2:	a0f1a023          	sw	a5,-1536(gp) # 41860 <_ZL6g_seed>
   112a6:	cda1                	beqz	a1,112fe <_Z17sample_from_probsPKfm+0x74>
   112a8:	000d27b7          	lui	a5,0xd2
   112ac:	b7178793          	addi	a5,a5,-1167 # d1b71 <__BSS_END__+0x46c49>
   112b0:	02069613          	slli	a2,a3,0x20
   112b4:	07b2                	slli	a5,a5,0xc
   112b6:	75978793          	addi	a5,a5,1881
   112ba:	9201                	srli	a2,a2,0x20
   112bc:	02f60633          	mul	a2,a2,a5
   112c0:	6709                	lui	a4,0x2
   112c2:	7107071b          	addiw	a4,a4,1808 # 2710 <__cxa_bad_cast-0xda10>
   112c6:	8c81a707          	flw	fa4,-1848(gp) # 41728 <mask+0x88>
   112ca:	f00007d3          	fmv.w.x	fa5,zero
   112ce:	4781                	li	a5,0
   112d0:	9235                	srli	a2,a2,0x2d
   112d2:	02c7073b          	mulw	a4,a4,a2
   112d6:	9e99                	subw	a3,a3,a4
   112d8:	d006f6d3          	fcvt.s.w	fa3,a3
   112dc:	10e6f6d3          	fmul.s	fa3,fa3,fa4
   112e0:	a021                	j	112e8 <_Z17sample_from_probsPKfm+0x5e>
   112e2:	0785                	addi	a5,a5,1
   112e4:	00f58d63          	beq	a1,a5,112fe <_Z17sample_from_probsPKfm+0x74>
   112e8:	00052707          	flw	fa4,0(a0)
   112ec:	0511                	addi	a0,a0,4
   112ee:	00e7f7d3          	fadd.s	fa5,fa5,fa4
   112f2:	a0d78753          	fle.s	a4,fa5,fa3
   112f6:	f775                	bnez	a4,112e2 <_Z17sample_from_probsPKfm+0x58>
   112f8:	0007851b          	sext.w	a0,a5
   112fc:	8082                	ret
   112fe:	fff5851b          	addiw	a0,a1,-1
   11302:	8082                	ret

0000000000011304 <_Z6argmaxPKfm>:
   11304:	4785                	li	a5,1
   11306:	02b7f563          	bgeu	a5,a1,11330 <_Z6argmaxPKfm+0x2c>
   1130a:	00052707          	flw	fa4,0(a0)
   1130e:	00450713          	addi	a4,a0,4
   11312:	4501                	li	a0,0
   11314:	00072787          	flw	fa5,0(a4)
   11318:	0711                	addi	a4,a4,4
   1131a:	a0e786d3          	fle.s	a3,fa5,fa4
   1131e:	e689                	bnez	a3,11328 <_Z6argmaxPKfm+0x24>
   11320:	20f78753          	fmv.s	fa4,fa5
   11324:	0007851b          	sext.w	a0,a5
   11328:	0785                	addi	a5,a5,1
   1132a:	fef595e3          	bne	a1,a5,11314 <_Z6argmaxPKfm+0x10>
   1132e:	8082                	ret
   11330:	4501                	li	a0,0
   11332:	8082                	ret

0000000000011334 <_Z13generate_textPKcifb>:
   11334:	c1010113          	addi	sp,sp,-1008
   11338:	3e813023          	sd	s0,992(sp)
   1133c:	36913827          	fsd	fs1,880(sp)
   11340:	842a                	mv	s0,a0
   11342:	20a504d3          	fmv.s	fs1,fa0
   11346:	00031537          	lui	a0,0x31
   1134a:	ec2e                	sd	a1,24(sp)
   1134c:	2f050513          	addi	a0,a0,752 # 312f0 <__clzdi2+0x11e>
   11350:	85a2                	mv	a1,s0
   11352:	3c913c23          	sd	s1,984(sp)
   11356:	e8b2                	sd	a2,80(sp)
   11358:	84b2                	mv	s1,a2
   1135a:	3e113423          	sd	ra,1000(sp)
   1135e:	3d213823          	sd	s2,976(sp)
   11362:	3d313423          	sd	s3,968(sp)
   11366:	3d413023          	sd	s4,960(sp)
   1136a:	3b513c23          	sd	s5,952(sp)
   1136e:	3b613823          	sd	s6,944(sp)
   11372:	39913c23          	sd	s9,920(sp)
   11376:	39a13823          	sd	s10,912(sp)
   1137a:	36813c27          	fsd	fs0,888(sp)
   1137e:	060160ef          	jal	273de <printf>
   11382:	420487d3          	fcvt.d.s	fa5,fs1
   11386:	e2078653          	fmv.x.d	a2,fa5
   1138a:	4c048c63          	beqz	s1,11862 <_Z13generate_textPKcifb+0x52e>
   1138e:	000316b7          	lui	a3,0x31
   11392:	2d868693          	addi	a3,a3,728 # 312d8 <__clzdi2+0x106>
   11396:	65e2                	ld	a1,24(sp)
   11398:	00031537          	lui	a0,0x31
   1139c:	30050513          	addi	a0,a0,768 # 31300 <__clzdi2+0x12e>
   113a0:	03e160ef          	jal	273de <printf>
   113a4:	08000613          	li	a2,128
   113a8:	4581                	li	a1,0
   113aa:	0988                	addi	a0,sp,208
   113ac:	40e170ef          	jal	287ba <memset>
   113b0:	8522                	mv	a0,s0
   113b2:	59a170ef          	jal	2894c <strlen>
   113b6:	02000793          	li	a5,32
   113ba:	8caa                	mv	s9,a0
   113bc:	00a7f363          	bgeu	a5,a0,113c2 <_Z13generate_textPKcifb+0x8e>
   113c0:	8cbe                	mv	s9,a5
   113c2:	4a050563          	beqz	a0,1186c <_Z13generate_textPKcifb+0x538>
   113c6:	02000793          	li	a5,32
   113ca:	419787b3          	sub	a5,a5,s9
   113ce:	0998                	addi	a4,sp,208
   113d0:	078a                	slli	a5,a5,0x2
   113d2:	97ba                	add	a5,a5,a4
   113d4:	07f00613          	li	a2,127
   113d8:	4701                	li	a4,0
   113da:	00e406b3          	add	a3,s0,a4
   113de:	0006c683          	lbu	a3,0(a3)
   113e2:	0705                	addi	a4,a4,1
   113e4:	00d65363          	bge	a2,a3,113ea <_Z13generate_textPKcifb+0xb6>
   113e8:	4681                	li	a3,0
   113ea:	c394                	sw	a3,0(a5)
   113ec:	0791                	addi	a5,a5,4
   113ee:	ff9766e3          	bltu	a4,s9,113da <_Z13generate_textPKcifb+0xa6>
   113f2:	6509                	lui	a0,0x2
   113f4:	72c130ef          	jal	24b20 <malloc>
   113f8:	e02a                	sd	a0,0(sp)
   113fa:	6509                	lui	a0,0x2
   113fc:	724130ef          	jal	24b20 <malloc>
   11400:	89aa                	mv	s3,a0
   11402:	6509                	lui	a0,0x2
   11404:	71c130ef          	jal	24b20 <malloc>
   11408:	8a2a                	mv	s4,a0
   1140a:	20000513          	li	a0,512
   1140e:	712130ef          	jal	24b20 <malloc>
   11412:	e82a                	sd	a0,16(sp)
   11414:	20000513          	li	a0,512
   11418:	708130ef          	jal	24b20 <malloc>
   1141c:	8aaa                	mv	s5,a0
   1141e:	00031537          	lui	a0,0x31
   11422:	33850513          	addi	a0,a0,824 # 31338 <__clzdi2+0x166>
   11426:	7b9150ef          	jal	273de <printf>
   1142a:	4481                	li	s1,0
   1142c:	009407b3          	add	a5,s0,s1
   11430:	0007c503          	lbu	a0,0(a5)
   11434:	0485                	addi	s1,s1,1
   11436:	0f0160ef          	jal	27526 <putchar>
   1143a:	ff94e9e3          	bltu	s1,s9,1142c <_Z13generate_textPKcifb+0xf8>
   1143e:	a501b783          	ld	a5,-1456(gp) # 418b0 <_impure_ptr>
   11442:	6b88                	ld	a0,16(a5)
   11444:	3de150ef          	jal	26822 <fflush>
   11448:	67e2                	ld	a5,24(sp)
   1144a:	46f05563          	blez	a5,118b4 <_Z13generate_textPKcifb+0x580>
   1144e:	37213427          	fsd	fs2,872(sp)
   11452:	8b81a907          	flw	fs2,-1864(gp) # 41718 <mask+0x78>
   11456:	000d27b7          	lui	a5,0xd2
   1145a:	b7178793          	addi	a5,a5,-1167 # d1b71 <__BSS_END__+0x46c49>
   1145e:	189974d3          	fdiv.s	fs1,fs2,fs1
   11462:	07b2                	slli	a5,a5,0xc
   11464:	0007b737          	lui	a4,0x7b
   11468:	75978793          	addi	a5,a5,1881
   1146c:	e4be                	sd	a5,72(sp)
   1146e:	97870793          	addi	a5,a4,-1672 # 7a978 <_ZL12pos_encoding>
   11472:	f83e                	sd	a5,48(sp)
   11474:	6782                	ld	a5,0(sp)
   11476:	6709                	lui	a4,0x2
   11478:	973e                	add	a4,a4,a5
   1147a:	10078793          	addi	a5,a5,256
   1147e:	f43e                	sd	a5,40(sp)
   11480:	67c2                	ld	a5,16(sp)
   11482:	37313027          	fsd	fs3,864(sp)
   11486:	8c81a987          	flw	fs3,-1848(gp) # 41728 <mask+0x88>
   1148a:	0007d937          	lui	s2,0x7d
   1148e:	0007d4b7          	lui	s1,0x7d
   11492:	0007d437          	lui	s0,0x7d
   11496:	e0ba                	sd	a4,64(sp)
   11498:	00478713          	addi	a4,a5,4
   1149c:	ece6                	sd	s9,88(sp)
   1149e:	3b713423          	sd	s7,936(sp)
   114a2:	3b813023          	sd	s8,928(sp)
   114a6:	39b13423          	sd	s11,904(sp)
   114aa:	35413c27          	fsd	fs4,856(sp)
   114ae:	97890913          	addi	s2,s2,-1672 # 7c978 <_ZL16embedding_weight>
   114b2:	a7848493          	addi	s1,s1,-1416 # 7ca78 <_ZL16embedding_weight+0x100>
   114b6:	97840413          	addi	s0,s0,-1672 # 7c978 <_ZL16embedding_weight>
   114ba:	e402                	sd	zero,8(sp)
   114bc:	fc3a                	sd	a4,56(sp)
   114be:	20078c93          	addi	s9,a5,512
   114c2:	200a8d13          	addi	s10,s5,512
   114c6:	4c22                	lw	s8,8(sp)
   114c8:	6502                	ld	a0,0(sp)
   114ca:	098c                	addi	a1,sp,208
   114cc:	4601                	li	a2,0
   114ce:	4194                	lw	a3,0(a1)
   114d0:	872a                	mv	a4,a0
   114d2:	06a2                	slli	a3,a3,0x8
   114d4:	00d907b3          	add	a5,s2,a3
   114d8:	96a6                	add	a3,a3,s1
   114da:	0007a787          	flw	fa5,0(a5)
   114de:	0791                	addi	a5,a5,4
   114e0:	0711                	addi	a4,a4,4 # 2004 <__cxa_bad_cast-0xe11c>
   114e2:	fef72e27          	fsw	fa5,-4(a4)
   114e6:	fed79ae3          	bne	a5,a3,114da <_Z13generate_textPKcifb+0x1a6>
   114ea:	04060613          	addi	a2,a2,64
   114ee:	80060793          	addi	a5,a2,-2048
   114f2:	0591                	addi	a1,a1,4
   114f4:	10050513          	addi	a0,a0,256
   114f8:	fbf9                	bnez	a5,114ce <_Z13generate_textPKcifb+0x19a>
   114fa:	76a2                	ld	a3,40(sp)
   114fc:	0007b7b7          	lui	a5,0x7b
   11500:	97878613          	addi	a2,a5,-1672 # 7a978 <_ZL12pos_encoding>
   11504:	f0068793          	addi	a5,a3,-256
   11508:	8732                	mv	a4,a2
   1150a:	0007a787          	flw	fa5,0(a5)
   1150e:	00072707          	flw	fa4,0(a4)
   11512:	0791                	addi	a5,a5,4
   11514:	0711                	addi	a4,a4,4
   11516:	00e7f7d3          	fadd.s	fa5,fa5,fa4
   1151a:	fef7ae27          	fsw	fa5,-4(a5)
   1151e:	fed796e3          	bne	a5,a3,1150a <_Z13generate_textPKcifb+0x1d6>
   11522:	10060613          	addi	a2,a2,256
   11526:	10078693          	addi	a3,a5,256
   1152a:	fc861de3          	bne	a2,s0,11504 <_Z13generate_textPKcifb+0x1d0>
   1152e:	6782                	ld	a5,0(sp)
   11530:	874e                	mv	a4,s3
   11532:	6b94                	ld	a3,16(a5)
   11534:	638c                	ld	a1,0(a5)
   11536:	6790                	ld	a2,8(a5)
   11538:	eb14                	sd	a3,16(a4)
   1153a:	e30c                	sd	a1,0(a4)
   1153c:	e710                	sd	a2,8(a4)
   1153e:	6f94                	ld	a3,24(a5)
   11540:	02078793          	addi	a5,a5,32
   11544:	02070713          	addi	a4,a4,32
   11548:	fed73c23          	sd	a3,-8(a4)
   1154c:	6686                	ld	a3,64(sp)
   1154e:	fed792e3          	bne	a5,a3,11532 <_Z13generate_textPKcifb+0x1fe>
   11552:	67e1                	lui	a5,0x18
   11554:	70078793          	addi	a5,a5,1792 # 18700 <d_print_comp_inner+0x384>
   11558:	f03e                	sd	a5,32(sp)
   1155a:	0004a7b7          	lui	a5,0x4a
   1155e:	b7878b13          	addi	s6,a5,-1160 # 49b78 <_ZL13layer_weights>
   11562:	6789                	lui	a5,0x2
   11564:	00fa0db3          	add	s11,s4,a5
   11568:	02000693          	li	a3,32
   1156c:	865a                	mv	a2,s6
   1156e:	85ce                	mv	a1,s3
   11570:	8552                	mv	a0,s4
   11572:	b87ff0ef          	jal	110f8 <_Z25forward_transformer_blockPfPKfRK23TransformerBlockWeightsm>
   11576:	87d2                	mv	a5,s4
   11578:	874e                	mv	a4,s3
   1157a:	6b94                	ld	a3,16(a5)
   1157c:	638c                	ld	a1,0(a5)
   1157e:	6790                	ld	a2,8(a5)
   11580:	eb14                	sd	a3,16(a4)
   11582:	e30c                	sd	a1,0(a4)
   11584:	e710                	sd	a2,8(a4)
   11586:	6f94                	ld	a3,24(a5)
   11588:	02078793          	addi	a5,a5,32 # 2020 <__cxa_bad_cast-0xe100>
   1158c:	02070713          	addi	a4,a4,32
   11590:	fed73c23          	sd	a3,-8(a4)
   11594:	ffb793e3          	bne	a5,s11,1157a <_Z13generate_textPKcifb+0x246>
   11598:	7782                	ld	a5,32(sp)
   1159a:	9b3e                	add	s6,s6,a5
   1159c:	77c2                	ld	a5,48(sp)
   1159e:	fd6795e3          	bne	a5,s6,11568 <_Z13generate_textPKcifb+0x234>
   115a2:	6b42                	ld	s6,16(sp)
   115a4:	02000613          	li	a2,32
   115a8:	85ce                	mv	a1,s3
   115aa:	855a                	mv	a0,s6
   115ac:	bcfff0ef          	jal	1117a <_Z16project_to_vocabPfPKfm>
   115b0:	77e2                	ld	a5,56(sp)
   115b2:	000b2a07          	flw	fs4,0(s6)
   115b6:	0007a787          	flw	fa5,0(a5)
   115ba:	0791                	addi	a5,a5,4
   115bc:	28fa1a53          	fmax.s	fs4,fs4,fa5
   115c0:	ff979be3          	bne	a5,s9,115b6 <_Z13generate_textPKcifb+0x282>
   115c4:	f0000453          	fmv.w.x	fs0,zero
   115c8:	f04e                	sd	s3,32(sp)
   115ca:	8dea                	mv	s11,s10
   115cc:	89d6                	mv	s3,s5
   115ce:	8d62                	mv	s10,s8
   115d0:	8bd6                	mv	s7,s5
   115d2:	000b2507          	flw	fa0,0(s6)
   115d6:	0b11                	addi	s6,s6,4
   115d8:	0991                	addi	s3,s3,4
   115da:	09457553          	fsub.s	fa0,fa0,fs4
   115de:	10957553          	fmul.s	fa0,fa0,fs1
   115e2:	2b70f0ef          	jal	21098 <expf>
   115e6:	fea9ae27          	fsw	fa0,-4(s3)
   115ea:	00a47453          	fadd.s	fs0,fs0,fa0
   115ee:	ff9b12e3          	bne	s6,s9,115d2 <_Z13generate_textPKcifb+0x29e>
   115f2:	18897453          	fdiv.s	fs0,fs2,fs0
   115f6:	7982                	ld	s3,32(sp)
   115f8:	875e                	mv	a4,s7
   115fa:	8c6a                	mv	s8,s10
   115fc:	0d010b93          	addi	s7,sp,208
   11600:	8d6e                	mv	s10,s11
   11602:	87d6                	mv	a5,s5
   11604:	0007a787          	flw	fa5,0(a5)
   11608:	0791                	addi	a5,a5,4
   1160a:	1087f7d3          	fmul.s	fa5,fa5,fs0
   1160e:	fef7ae27          	fsw	fa5,-4(a5)
   11612:	ffa799e3          	bne	a5,s10,11604 <_Z13generate_textPKcifb+0x2d0>
   11616:	67c6                	ld	a5,80(sp)
   11618:	c7cd                	beqz	a5,116c2 <_Z13generate_textPKcifb+0x38e>
   1161a:	a001a603          	lw	a2,-1536(gp) # 41860 <_ZL6g_seed>
   1161e:	41c656b7          	lui	a3,0x41c65
   11622:	e6d6869b          	addiw	a3,a3,-403 # 41c64e6d <__BSS_END__+0x41bd9f45>
   11626:	02d606bb          	mulw	a3,a2,a3
   1162a:	678d                	lui	a5,0x3
   1162c:	0397879b          	addiw	a5,a5,57 # 3039 <__cxa_bad_cast-0xd0e7>
   11630:	02061513          	slli	a0,a2,0x20
   11634:	9101                	srli	a0,a0,0x20
   11636:	6589                	lui	a1,0x2
   11638:	7105859b          	addiw	a1,a1,1808 # 2710 <__cxa_bad_cast-0xda10>
   1163c:	f00007d3          	fmv.w.x	fa5,zero
   11640:	9fb5                	addw	a5,a5,a3
   11642:	a0f1a023          	sw	a5,-1536(gp) # 41860 <_ZL6g_seed>
   11646:	67a6                	ld	a5,72(sp)
   11648:	08000693          	li	a3,128
   1164c:	02f50533          	mul	a0,a0,a5
   11650:	4781                	li	a5,0
   11652:	9135                	srli	a0,a0,0x2d
   11654:	02a585bb          	mulw	a1,a1,a0
   11658:	9e0d                	subw	a2,a2,a1
   1165a:	d00676d3          	fcvt.s.w	fa3,a2
   1165e:	1136f6d3          	fmul.s	fa3,fa3,fs3
   11662:	00072707          	flw	fa4,0(a4)
   11666:	0711                	addi	a4,a4,4
   11668:	00e7f7d3          	fadd.s	fa5,fa5,fa4
   1166c:	a0d78653          	fle.s	a2,fa5,fa3
   11670:	c241                	beqz	a2,116f0 <_Z13generate_textPKcifb+0x3bc>
   11672:	0785                	addi	a5,a5,1
   11674:	fed797e3          	bne	a5,a3,11662 <_Z13generate_textPKcifb+0x32e>
   11678:	07f00b13          	li	s6,127
   1167c:	8dda                	mv	s11,s6
   1167e:	856e                	mv	a0,s11
   11680:	6a7150ef          	jal	27526 <putchar>
   11684:	a501b783          	ld	a5,-1456(gp) # 418b0 <_impure_ptr>
   11688:	2c05                	addiw	s8,s8,1
   1168a:	6b88                	ld	a0,16(a5)
   1168c:	196150ef          	jal	26822 <fflush>
   11690:	6722                	ld	a4,8(sp)
   11692:	00e107b3          	add	a5,sp,a4
   11696:	07678423          	sb	s6,104(a5)
   1169a:	02f8                	addi	a4,sp,332
   1169c:	004ba783          	lw	a5,4(s7)
   116a0:	0b91                	addi	s7,s7,4
   116a2:	fefbae23          	sw	a5,-4(s7)
   116a6:	ff771be3          	bne	a4,s7,1169c <_Z13generate_textPKcifb+0x368>
   116aa:	67e2                	ld	a5,24(sp)
   116ac:	15b12623          	sw	s11,332(sp)
   116b0:	04fc5463          	bge	s8,a5,116f8 <_Z13generate_textPKcifb+0x3c4>
   116b4:	f9cc0793          	addi	a5,s8,-100
   116b8:	c3a1                	beqz	a5,116f8 <_Z13generate_textPKcifb+0x3c4>
   116ba:	67a2                	ld	a5,8(sp)
   116bc:	0785                	addi	a5,a5,1
   116be:	e43e                	sd	a5,8(sp)
   116c0:	b519                	j	114c6 <_Z13generate_textPKcifb+0x192>
   116c2:	000aa707          	flw	fa4,0(s5)
   116c6:	004a8713          	addi	a4,s5,4
   116ca:	4d81                	li	s11,0
   116cc:	4785                	li	a5,1
   116ce:	08000693          	li	a3,128
   116d2:	00072787          	flw	fa5,0(a4)
   116d6:	0711                	addi	a4,a4,4
   116d8:	a0e78653          	fle.s	a2,fa5,fa4
   116dc:	e609                	bnez	a2,116e6 <_Z13generate_textPKcifb+0x3b2>
   116de:	20f78753          	fmv.s	fa4,fa5
   116e2:	00078d9b          	sext.w	s11,a5
   116e6:	0785                	addi	a5,a5,1
   116e8:	fed795e3          	bne	a5,a3,116d2 <_Z13generate_textPKcifb+0x39e>
   116ec:	8b6e                	mv	s6,s11
   116ee:	bf41                	j	1167e <_Z13generate_textPKcifb+0x34a>
   116f0:	00078d9b          	sext.w	s11,a5
   116f4:	8b3e                	mv	s6,a5
   116f6:	b761                	j	1167e <_Z13generate_textPKcifb+0x34a>
   116f8:	00031537          	lui	a0,0x31
   116fc:	002c07b3          	add	a5,s8,sp
   11700:	3e850513          	addi	a0,a0,1000 # 313e8 <__clzdi2+0x216>
   11704:	06078423          	sb	zero,104(a5)
   11708:	6ce6                	ld	s9,88(sp)
   1170a:	6b1150ef          	jal	275ba <puts>
   1170e:	00031537          	lui	a0,0x31
   11712:	10ac                	addi	a1,sp,104
   11714:	34850513          	addi	a0,a0,840 # 31348 <__clzdi2+0x176>
   11718:	4c7150ef          	jal	273de <printf>
   1171c:	00031537          	lui	a0,0x31
   11720:	36050513          	addi	a0,a0,864 # 31360 <__clzdi2+0x18e>
   11724:	697150ef          	jal	275ba <puts>
   11728:	00031537          	lui	a0,0x31
   1172c:	85e6                	mv	a1,s9
   1172e:	37850513          	addi	a0,a0,888 # 31378 <__clzdi2+0x1a6>
   11732:	4ad150ef          	jal	273de <printf>
   11736:	00031537          	lui	a0,0x31
   1173a:	85e2                	mv	a1,s8
   1173c:	39050513          	addi	a0,a0,912 # 31390 <__clzdi2+0x1be>
   11740:	49f150ef          	jal	273de <printf>
   11744:	0a80                	addi	s0,sp,336
   11746:	8522                	mv	a0,s0
   11748:	20000613          	li	a2,512
   1174c:	4581                	li	a1,0
   1174e:	06c170ef          	jal	287ba <memset>
   11752:	8b81a407          	flw	fs0,-1864(gp) # 41718 <mask+0x78>
   11756:	d00c77d3          	fcvt.s.w	fa5,s8
   1175a:	6722                	ld	a4,8(sp)
   1175c:	06910693          	addi	a3,sp,105
   11760:	18f47453          	fdiv.s	fs0,fs0,fa5
   11764:	10bc                	addi	a5,sp,104
   11766:	96ba                	add	a3,a3,a4
   11768:	0007c703          	lbu	a4,0(a5)
   1176c:	0785                	addi	a5,a5,1
   1176e:	070a                	slli	a4,a4,0x2
   11770:	9722                	add	a4,a4,s0
   11772:	4310                	lw	a2,0(a4)
   11774:	2605                	addiw	a2,a2,1
   11776:	c310                	sw	a2,0(a4)
   11778:	fef698e3          	bne	a3,a5,11768 <_Z13generate_textPKcifb+0x434>
   1177c:	3a813b83          	ld	s7,936(sp)
   11780:	3a013c03          	ld	s8,928(sp)
   11784:	38813d83          	ld	s11,904(sp)
   11788:	36813907          	fld	fs2,872(sp)
   1178c:	36013987          	fld	fs3,864(sp)
   11790:	35813a07          	fld	fs4,856(sp)
   11794:	00031537          	lui	a0,0x31
   11798:	3a850513          	addi	a0,a0,936 # 313a8 <__clzdi2+0x1d6>
   1179c:	61f150ef          	jal	275ba <puts>
   117a0:	8d01a787          	flw	fa5,-1840(gp) # 41730 <mask+0x90>
   117a4:	00031937          	lui	s2,0x31
   117a8:	3c890913          	addi	s2,s2,968 # 313c8 <__clzdi2+0x1f6>
   117ac:	10f47453          	fmul.s	fs0,fs0,fa5
   117b0:	4c95                	li	s9,5
   117b2:	07f00493          	li	s1,127
   117b6:	02000d13          	li	s10,32
   117ba:	0b98                	addi	a4,sp,464
   117bc:	02000793          	li	a5,32
   117c0:	4681                	li	a3,0
   117c2:	4b01                	li	s6,0
   117c4:	430c                	lw	a1,0(a4)
   117c6:	0711                	addi	a4,a4,4
   117c8:	00b6d463          	bge	a3,a1,117d0 <_Z13generate_textPKcifb+0x49c>
   117cc:	86ae                	mv	a3,a1
   117ce:	8b3e                	mv	s6,a5
   117d0:	2785                	addiw	a5,a5,1
   117d2:	fe9799e3          	bne	a5,s1,117c4 <_Z13generate_textPKcifb+0x490>
   117d6:	02d05a63          	blez	a3,1180a <_Z13generate_textPKcifb+0x4d6>
   117da:	0ffb7793          	zext.b	a5,s6
   117de:	85da                	mv	a1,s6
   117e0:	01a79463          	bne	a5,s10,117e8 <_Z13generate_textPKcifb+0x4b4>
   117e4:	05f00593          	li	a1,95
   117e8:	d006f7d3          	fcvt.s.w	fa5,a3
   117ec:	865a                	mv	a2,s6
   117ee:	854a                	mv	a0,s2
   117f0:	1087f7d3          	fmul.s	fa5,fa5,fs0
   117f4:	420787d3          	fcvt.d.s	fa5,fa5
   117f8:	e2078753          	fmv.x.d	a4,fa5
   117fc:	3e3150ef          	jal	273de <printf>
   11800:	002b1793          	slli	a5,s6,0x2
   11804:	97a2                	add	a5,a5,s0
   11806:	0007a023          	sw	zero,0(a5)
   1180a:	3cfd                	addiw	s9,s9,-1
   1180c:	fa0c97e3          	bnez	s9,117ba <_Z13generate_textPKcifb+0x486>
   11810:	6502                	ld	a0,0(sp)
   11812:	316130ef          	jal	24b28 <free>
   11816:	854e                	mv	a0,s3
   11818:	310130ef          	jal	24b28 <free>
   1181c:	8552                	mv	a0,s4
   1181e:	30a130ef          	jal	24b28 <free>
   11822:	6542                	ld	a0,16(sp)
   11824:	304130ef          	jal	24b28 <free>
   11828:	3e013403          	ld	s0,992(sp)
   1182c:	3e813083          	ld	ra,1000(sp)
   11830:	3d813483          	ld	s1,984(sp)
   11834:	3d013903          	ld	s2,976(sp)
   11838:	3c813983          	ld	s3,968(sp)
   1183c:	3c013a03          	ld	s4,960(sp)
   11840:	3b013b03          	ld	s6,944(sp)
   11844:	39813c83          	ld	s9,920(sp)
   11848:	39013d03          	ld	s10,912(sp)
   1184c:	37813407          	fld	fs0,888(sp)
   11850:	37013487          	fld	fs1,880(sp)
   11854:	8556                	mv	a0,s5
   11856:	3b813a83          	ld	s5,952(sp)
   1185a:	3f010113          	addi	sp,sp,1008
   1185e:	2ca1306f          	j	24b28 <free>
   11862:	000316b7          	lui	a3,0x31
   11866:	2e868693          	addi	a3,a3,744 # 312e8 <__clzdi2+0x116>
   1186a:	b635                	j	11396 <_Z13generate_textPKcifb+0x62>
   1186c:	6509                	lui	a0,0x2
   1186e:	2b2130ef          	jal	24b20 <malloc>
   11872:	e02a                	sd	a0,0(sp)
   11874:	6509                	lui	a0,0x2
   11876:	2aa130ef          	jal	24b20 <malloc>
   1187a:	89aa                	mv	s3,a0
   1187c:	6509                	lui	a0,0x2
   1187e:	2a2130ef          	jal	24b20 <malloc>
   11882:	8a2a                	mv	s4,a0
   11884:	20000513          	li	a0,512
   11888:	298130ef          	jal	24b20 <malloc>
   1188c:	e82a                	sd	a0,16(sp)
   1188e:	20000513          	li	a0,512
   11892:	28e130ef          	jal	24b20 <malloc>
   11896:	8aaa                	mv	s5,a0
   11898:	00031537          	lui	a0,0x31
   1189c:	33850513          	addi	a0,a0,824 # 31338 <__clzdi2+0x166>
   118a0:	33f150ef          	jal	273de <printf>
   118a4:	a501b783          	ld	a5,-1456(gp) # 418b0 <_impure_ptr>
   118a8:	6b88                	ld	a0,16(a5)
   118aa:	779140ef          	jal	26822 <fflush>
   118ae:	67e2                	ld	a5,24(sp)
   118b0:	b8f04fe3          	bgtz	a5,1144e <_Z13generate_textPKcifb+0x11a>
   118b4:	00031537          	lui	a0,0x31
   118b8:	3e850513          	addi	a0,a0,1000 # 313e8 <__clzdi2+0x216>
   118bc:	06010423          	sb	zero,104(sp)
   118c0:	4fb150ef          	jal	275ba <puts>
   118c4:	00031537          	lui	a0,0x31
   118c8:	10ac                	addi	a1,sp,104
   118ca:	34850513          	addi	a0,a0,840 # 31348 <__clzdi2+0x176>
   118ce:	311150ef          	jal	273de <printf>
   118d2:	00031537          	lui	a0,0x31
   118d6:	36050513          	addi	a0,a0,864 # 31360 <__clzdi2+0x18e>
   118da:	4e1150ef          	jal	275ba <puts>
   118de:	00031537          	lui	a0,0x31
   118e2:	85e6                	mv	a1,s9
   118e4:	37850513          	addi	a0,a0,888 # 31378 <__clzdi2+0x1a6>
   118e8:	2f7150ef          	jal	273de <printf>
   118ec:	00031537          	lui	a0,0x31
   118f0:	4581                	li	a1,0
   118f2:	39050513          	addi	a0,a0,912 # 31390 <__clzdi2+0x1be>
   118f6:	2e9150ef          	jal	273de <printf>
   118fa:	0a80                	addi	s0,sp,336
   118fc:	8522                	mv	a0,s0
   118fe:	20000613          	li	a2,512
   11902:	4581                	li	a1,0
   11904:	6b7160ef          	jal	287ba <memset>
   11908:	8cc1a407          	flw	fs0,-1844(gp) # 4172c <mask+0x8c>
   1190c:	b561                	j	11794 <_Z13generate_textPKcifb+0x460>

000000000001190e <_Z17demo_forward_passv>:
   1190e:	00031537          	lui	a0,0x31
   11912:	7111                	addi	sp,sp,-256
   11914:	3f050513          	addi	a0,a0,1008 # 313f0 <__clzdi2+0x21e>
   11918:	fd86                	sd	ra,248(sp)
   1191a:	f9a2                	sd	s0,240(sp)
   1191c:	e5d6                	sd	s5,200(sp)
   1191e:	f5a6                	sd	s1,232(sp)
   11920:	f1ca                	sd	s2,224(sp)
   11922:	edce                	sd	s3,216(sp)
   11924:	e9d2                	sd	s4,208(sp)
   11926:	e1da                	sd	s6,192(sp)
   11928:	fd5e                	sd	s7,184(sp)
   1192a:	f962                	sd	s8,176(sp)
   1192c:	f566                	sd	s9,168(sp)
   1192e:	f16a                	sd	s10,160(sp)
   11930:	ed6e                	sd	s11,152(sp)
   11932:	a522                	fsd	fs0,136(sp)
   11934:	a126                	fsd	fs1,128(sp)
   11936:	485150ef          	jal	275ba <puts>
   1193a:	00031537          	lui	a0,0x31
   1193e:	42050513          	addi	a0,a0,1056 # 31420 <__clzdi2+0x24e>
   11942:	479150ef          	jal	275ba <puts>
   11946:	00031537          	lui	a0,0x31
   1194a:	56850513          	addi	a0,a0,1384 # 31568 <__clzdi2+0x396>
   1194e:	46d150ef          	jal	275ba <puts>
   11952:	08000613          	li	a2,128
   11956:	4581                	li	a1,0
   11958:	850a                	mv	a0,sp
   1195a:	661160ef          	jal	287ba <memset>
   1195e:	10e0                	addi	s0,sp,108
   11960:	000315b7          	lui	a1,0x31
   11964:	8a8a                	mv	s5,sp
   11966:	87a2                	mv	a5,s0
   11968:	44058693          	addi	a3,a1,1088 # 31440 <__clzdi2+0x26e>
   1196c:	07f00613          	li	a2,127
   11970:	0006c703          	lbu	a4,0(a3)
   11974:	0685                	addi	a3,a3,1
   11976:	00e65363          	bge	a2,a4,1197c <_Z17demo_forward_passv+0x6e>
   1197a:	4701                	li	a4,0
   1197c:	c398                	sw	a4,0(a5)
   1197e:	0791                	addi	a5,a5,4
   11980:	0118                	addi	a4,sp,128
   11982:	fee797e3          	bne	a5,a4,11970 <_Z17demo_forward_passv+0x62>
   11986:	00031537          	lui	a0,0x31
   1198a:	44058593          	addi	a1,a1,1088
   1198e:	44850513          	addi	a0,a0,1096 # 31448 <__clzdi2+0x276>
   11992:	24d150ef          	jal	273de <printf>
   11996:	00031537          	lui	a0,0x31
   1199a:	45850513          	addi	a0,a0,1112 # 31458 <__clzdi2+0x286>
   1199e:	4595                	li	a1,5
   119a0:	000314b7          	lui	s1,0x31
   119a4:	23b150ef          	jal	273de <printf>
   119a8:	47848493          	addi	s1,s1,1144 # 31478 <__clzdi2+0x2a6>
   119ac:	400c                	lw	a1,0(s0)
   119ae:	8526                	mv	a0,s1
   119b0:	0411                	addi	s0,s0,4
   119b2:	22d150ef          	jal	273de <printf>
   119b6:	011c                	addi	a5,sp,128
   119b8:	fef41ae3          	bne	s0,a5,119ac <_Z17demo_forward_passv+0x9e>
   119bc:	4529                	li	a0,10
   119be:	369150ef          	jal	27526 <putchar>
   119c2:	6509                	lui	a0,0x2
   119c4:	15c130ef          	jal	24b20 <malloc>
   119c8:	89aa                	mv	s3,a0
   119ca:	6509                	lui	a0,0x2
   119cc:	154130ef          	jal	24b20 <malloc>
   119d0:	84aa                	mv	s1,a0
   119d2:	6509                	lui	a0,0x2
   119d4:	14c130ef          	jal	24b20 <malloc>
   119d8:	892a                	mv	s2,a0
   119da:	20000513          	li	a0,512
   119de:	142130ef          	jal	24b20 <malloc>
   119e2:	8a2a                	mv	s4,a0
   119e4:	20000513          	li	a0,512
   119e8:	138130ef          	jal	24b20 <malloc>
   119ec:	842a                	mv	s0,a0
   119ee:	0007d837          	lui	a6,0x7d
   119f2:	0007d537          	lui	a0,0x7d
   119f6:	85ce                	mv	a1,s3
   119f8:	97880813          	addi	a6,a6,-1672 # 7c978 <_ZL16embedding_weight>
   119fc:	a7850513          	addi	a0,a0,-1416 # 7ca78 <_ZL16embedding_weight+0x100>
   11a00:	4601                	li	a2,0
   11a02:	000aa683          	lw	a3,0(s5)
   11a06:	872e                	mv	a4,a1
   11a08:	06a2                	slli	a3,a3,0x8
   11a0a:	00d807b3          	add	a5,a6,a3
   11a0e:	96aa                	add	a3,a3,a0
   11a10:	0007a787          	flw	fa5,0(a5)
   11a14:	0791                	addi	a5,a5,4
   11a16:	0711                	addi	a4,a4,4
   11a18:	fef72e27          	fsw	fa5,-4(a4)
   11a1c:	fed79ae3          	bne	a5,a3,11a10 <_Z17demo_forward_passv+0x102>
   11a20:	04060613          	addi	a2,a2,64
   11a24:	80060793          	addi	a5,a2,-2048
   11a28:	0a91                	addi	s5,s5,4
   11a2a:	10058593          	addi	a1,a1,256
   11a2e:	fbf1                	bnez	a5,11a02 <_Z17demo_forward_passv+0xf4>
   11a30:	0007b637          	lui	a2,0x7b
   11a34:	97860613          	addi	a2,a2,-1672 # 7a978 <_ZL12pos_encoding>
   11a38:	6589                	lui	a1,0x2
   11a3a:	95b2                	add	a1,a1,a2
   11a3c:	10098693          	addi	a3,s3,256
   11a40:	f0068793          	addi	a5,a3,-256
   11a44:	8732                	mv	a4,a2
   11a46:	0007a787          	flw	fa5,0(a5)
   11a4a:	00072707          	flw	fa4,0(a4)
   11a4e:	0791                	addi	a5,a5,4
   11a50:	0711                	addi	a4,a4,4
   11a52:	00e7f7d3          	fadd.s	fa5,fa5,fa4
   11a56:	fef7ae27          	fsw	fa5,-4(a5)
   11a5a:	fed796e3          	bne	a5,a3,11a46 <_Z17demo_forward_passv+0x138>
   11a5e:	10060613          	addi	a2,a2,256
   11a62:	10078693          	addi	a3,a5,256
   11a66:	fcb61de3          	bne	a2,a1,11a40 <_Z17demo_forward_passv+0x132>
   11a6a:	00031537          	lui	a0,0x31
   11a6e:	6a89                	lui	s5,0x2
   11a70:	6b89                	lui	s7,0x2
   11a72:	48050513          	addi	a0,a0,1152 # 31480 <__clzdi2+0x2ae>
   11a76:	f00a8a93          	addi	s5,s5,-256 # 1f00 <__cxa_bad_cast-0xe220>
   11a7a:	f20b8b93          	addi	s7,s7,-224 # 1f20 <__cxa_bad_cast-0xe200>
   11a7e:	00031b37          	lui	s6,0x31
   11a82:	15d150ef          	jal	273de <printf>
   11a86:	9ace                	add	s5,s5,s3
   11a88:	9bce                	add	s7,s7,s3
   11a8a:	4b0b0c13          	addi	s8,s6,1200 # 314b0 <__clzdi2+0x2de>
   11a8e:	000aa787          	flw	fa5,0(s5)
   11a92:	8562                	mv	a0,s8
   11a94:	0a91                	addi	s5,s5,4
   11a96:	420787d3          	fcvt.d.s	fa5,fa5
   11a9a:	e20785d3          	fmv.x.d	a1,fa5
   11a9e:	141150ef          	jal	273de <printf>
   11aa2:	ff7a96e3          	bne	s5,s7,11a8e <_Z17demo_forward_passv+0x180>
   11aa6:	00031bb7          	lui	s7,0x31
   11aaa:	4b8b8513          	addi	a0,s7,1208 # 314b8 <__clzdi2+0x2e6>
   11aae:	30d150ef          	jal	275ba <puts>
   11ab2:	6689                	lui	a3,0x2
   11ab4:	87ce                	mv	a5,s3
   11ab6:	8726                	mv	a4,s1
   11ab8:	96ce                	add	a3,a3,s3
   11aba:	6b90                	ld	a2,16(a5)
   11abc:	6388                	ld	a0,0(a5)
   11abe:	678c                	ld	a1,8(a5)
   11ac0:	eb10                	sd	a2,16(a4)
   11ac2:	e308                	sd	a0,0(a4)
   11ac4:	e70c                	sd	a1,8(a4)
   11ac6:	6f90                	ld	a2,24(a5)
   11ac8:	02078793          	addi	a5,a5,32
   11acc:	02070713          	addi	a4,a4,32
   11ad0:	fec73c23          	sd	a2,-8(a4)
   11ad4:	fed793e3          	bne	a5,a3,11aba <_Z17demo_forward_passv+0x1ac>
   11ad8:	0004ad37          	lui	s10,0x4a
   11adc:	00031c37          	lui	s8,0x31
   11ae0:	b78d0d13          	addi	s10,s10,-1160 # 49b78 <_ZL13layer_weights>
   11ae4:	e00c0c13          	addi	s8,s8,-512 # 30e00 <__subtf3+0x632>
   11ae8:	6a89                	lui	s5,0x2
   11aea:	6ce1                	lui	s9,0x18
   11aec:	9c6a                	add	s8,s8,s10
   11aee:	9aca                	add	s5,s5,s2
   11af0:	700c8c93          	addi	s9,s9,1792 # 18700 <d_print_comp_inner+0x384>
   11af4:	02000693          	li	a3,32
   11af8:	866a                	mv	a2,s10
   11afa:	85a6                	mv	a1,s1
   11afc:	854a                	mv	a0,s2
   11afe:	dfaff0ef          	jal	110f8 <_Z25forward_transformer_blockPfPKfRK23TransformerBlockWeightsm>
   11b02:	87ca                	mv	a5,s2
   11b04:	8726                	mv	a4,s1
   11b06:	6b94                	ld	a3,16(a5)
   11b08:	638c                	ld	a1,0(a5)
   11b0a:	6790                	ld	a2,8(a5)
   11b0c:	eb14                	sd	a3,16(a4)
   11b0e:	e30c                	sd	a1,0(a4)
   11b10:	e710                	sd	a2,8(a4)
   11b12:	6f94                	ld	a3,24(a5)
   11b14:	02078793          	addi	a5,a5,32
   11b18:	02070713          	addi	a4,a4,32
   11b1c:	fed73c23          	sd	a3,-8(a4)
   11b20:	ff5793e3          	bne	a5,s5,11b06 <_Z17demo_forward_passv+0x1f8>
   11b24:	9d66                	add	s10,s10,s9
   11b26:	fdac17e3          	bne	s8,s10,11af4 <_Z17demo_forward_passv+0x1e6>
   11b2a:	00031537          	lui	a0,0x31
   11b2e:	6a89                	lui	s5,0x2
   11b30:	6c09                	lui	s8,0x2
   11b32:	4c050513          	addi	a0,a0,1216 # 314c0 <__clzdi2+0x2ee>
   11b36:	f00a8a93          	addi	s5,s5,-256 # 1f00 <__cxa_bad_cast-0xe220>
   11b3a:	f20c0c13          	addi	s8,s8,-224 # 1f20 <__cxa_bad_cast-0xe200>
   11b3e:	0a1150ef          	jal	273de <printf>
   11b42:	4b0b0b13          	addi	s6,s6,1200
   11b46:	9aa6                	add	s5,s5,s1
   11b48:	9c26                	add	s8,s8,s1
   11b4a:	000aa787          	flw	fa5,0(s5)
   11b4e:	855a                	mv	a0,s6
   11b50:	0a91                	addi	s5,s5,4
   11b52:	420787d3          	fcvt.d.s	fa5,fa5
   11b56:	e20785d3          	fmv.x.d	a1,fa5
   11b5a:	085150ef          	jal	273de <printf>
   11b5e:	ff8a96e3          	bne	s5,s8,11b4a <_Z17demo_forward_passv+0x23c>
   11b62:	4b8b8513          	addi	a0,s7,1208
   11b66:	255150ef          	jal	275ba <puts>
   11b6a:	85a6                	mv	a1,s1
   11b6c:	8552                	mv	a0,s4
   11b6e:	02000613          	li	a2,32
   11b72:	e08ff0ef          	jal	1117a <_Z16project_to_vocabPfPKfm>
   11b76:	000a2407          	flw	fs0,0(s4)
   11b7a:	8ad2                	mv	s5,s4
   11b7c:	004a0793          	addi	a5,s4,4
   11b80:	200a0b93          	addi	s7,s4,512
   11b84:	0007a787          	flw	fa5,0(a5)
   11b88:	0791                	addi	a5,a5,4
   11b8a:	28f41453          	fmax.s	fs0,fs0,fa5
   11b8e:	ff779be3          	bne	a5,s7,11b84 <_Z17demo_forward_passv+0x276>
   11b92:	f00004d3          	fmv.w.x	fs1,zero
   11b96:	8b22                	mv	s6,s0
   11b98:	000aa507          	flw	fa0,0(s5)
   11b9c:	0a91                	addi	s5,s5,4
   11b9e:	0b11                	addi	s6,s6,4
   11ba0:	08857553          	fsub.s	fa0,fa0,fs0
   11ba4:	4f40f0ef          	jal	21098 <expf>
   11ba8:	feab2e27          	fsw	fa0,-4(s6)
   11bac:	00a4f4d3          	fadd.s	fs1,fs1,fa0
   11bb0:	ff7a94e3          	bne	s5,s7,11b98 <_Z17demo_forward_passv+0x28a>
   11bb4:	8b81a707          	flw	fa4,-1864(gp) # 41718 <mask+0x78>
   11bb8:	20040713          	addi	a4,s0,512
   11bbc:	87a2                	mv	a5,s0
   11bbe:	18977753          	fdiv.s	fa4,fa4,fs1
   11bc2:	0007a787          	flw	fa5,0(a5)
   11bc6:	0791                	addi	a5,a5,4
   11bc8:	10e7f7d3          	fmul.s	fa5,fa5,fa4
   11bcc:	fef7ae27          	fsw	fa5,-4(a5)
   11bd0:	fee799e3          	bne	a5,a4,11bc2 <_Z17demo_forward_passv+0x2b4>
   11bd4:	00031537          	lui	a0,0x31
   11bd8:	4f850513          	addi	a0,a0,1272 # 314f8 <__clzdi2+0x326>
   11bdc:	00031b37          	lui	s6,0x31
   11be0:	1db150ef          	jal	275ba <puts>
   11be4:	520b0b13          	addi	s6,s6,1312 # 31520 <__clzdi2+0x34e>
   11be8:	4d81                	li	s11,0
   11bea:	08000a93          	li	s5,128
   11bee:	07f00c13          	li	s8,127
   11bf2:	05e00c93          	li	s9,94
   11bf6:	4b95                	li	s7,5
   11bf8:	f0000753          	fmv.w.x	fa4,zero
   11bfc:	8722                	mv	a4,s0
   11bfe:	4781                	li	a5,0
   11c00:	4d01                	li	s10,0
   11c02:	00072787          	flw	fa5,0(a4)
   11c06:	0711                	addi	a4,a4,4
   11c08:	a0e78653          	fle.s	a2,fa5,fa4
   11c0c:	e601                	bnez	a2,11c14 <_Z17demo_forward_passv+0x306>
   11c0e:	20f78753          	fmv.s	fa4,fa5
   11c12:	8d3e                	mv	s10,a5
   11c14:	2785                	addiw	a5,a5,1
   11c16:	ff5796e3          	bne	a5,s5,11c02 <_Z17demo_forward_passv+0x2f4>
   11c1a:	2d85                	addiw	s11,s11,1
   11c1c:	03f00613          	li	a2,63
   11c20:	01ac4b63          	blt	s8,s10,11c36 <_Z17demo_forward_passv+0x328>
   11c24:	fe0d079b          	addiw	a5,s10,-32
   11c28:	0ff7f793          	zext.b	a5,a5
   11c2c:	866a                	mv	a2,s10
   11c2e:	00fcf463          	bgeu	s9,a5,11c36 <_Z17demo_forward_passv+0x328>
   11c32:	03f00613          	li	a2,63
   11c36:	420707d3          	fcvt.d.s	fa5,fa4
   11c3a:	86ea                	mv	a3,s10
   11c3c:	85ee                	mv	a1,s11
   11c3e:	e2078753          	fmv.x.d	a4,fa5
   11c42:	855a                	mv	a0,s6
   11c44:	79a150ef          	jal	273de <printf>
   11c48:	002d1793          	slli	a5,s10,0x2
   11c4c:	97a2                	add	a5,a5,s0
   11c4e:	0007a023          	sw	zero,0(a5)
   11c52:	fb7d93e3          	bne	s11,s7,11bf8 <_Z17demo_forward_passv+0x2ea>
   11c56:	854e                	mv	a0,s3
   11c58:	6d1120ef          	jal	24b28 <free>
   11c5c:	8526                	mv	a0,s1
   11c5e:	6cb120ef          	jal	24b28 <free>
   11c62:	854a                	mv	a0,s2
   11c64:	6c5120ef          	jal	24b28 <free>
   11c68:	8552                	mv	a0,s4
   11c6a:	6bf120ef          	jal	24b28 <free>
   11c6e:	8522                	mv	a0,s0
   11c70:	744e                	ld	s0,240(sp)
   11c72:	70ee                	ld	ra,248(sp)
   11c74:	74ae                	ld	s1,232(sp)
   11c76:	790e                	ld	s2,224(sp)
   11c78:	69ee                	ld	s3,216(sp)
   11c7a:	6a4e                	ld	s4,208(sp)
   11c7c:	6aae                	ld	s5,200(sp)
   11c7e:	6b0e                	ld	s6,192(sp)
   11c80:	7bea                	ld	s7,184(sp)
   11c82:	7c4a                	ld	s8,176(sp)
   11c84:	7caa                	ld	s9,168(sp)
   11c86:	7d0a                	ld	s10,160(sp)
   11c88:	6dea                	ld	s11,152(sp)
   11c8a:	242a                	fld	fs0,136(sp)
   11c8c:	248a                	fld	fs1,128(sp)
   11c8e:	6111                	addi	sp,sp,256
   11c90:	6991206f          	j	24b28 <free>

0000000000011c94 <_Z10matrix_sumPsPKsmm.part.0>:
   11c94:	00032537          	lui	a0,0x32
   11c98:	1141                	addi	sp,sp,-16
   11c9a:	92050513          	addi	a0,a0,-1760 # 31920 <__clzdi2+0x74e>
   11c9e:	e406                	sd	ra,8(sp)
   11ca0:	11b150ef          	jal	275ba <puts>
   11ca4:	00032537          	lui	a0,0x32
   11ca8:	97050513          	addi	a0,a0,-1680 # 31970 <__clzdi2+0x79e>
   11cac:	10f150ef          	jal	275ba <puts>
   11cb0:	557d                	li	a0,-1
   11cb2:	a05fe0ef          	jal	106b6 <exit>

0000000000011cb6 <_Z12vector_equalPsPKsS1_m>:
   11cb6:	c505                	beqz	a0,11cde <_Z12vector_equalPsPKsS1_m+0x28>
   11cb8:	c295                	beqz	a3,11cdc <_Z12vector_equalPsPKsS1_m+0x26>
   11cba:	0686                	slli	a3,a3,0x1
   11cbc:	96ae                	add	a3,a3,a1
   11cbe:	00059783          	lh	a5,0(a1) # 2000 <__cxa_bad_cast-0xe120>
   11cc2:	00061703          	lh	a4,0(a2)
   11cc6:	0589                	addi	a1,a1,2
   11cc8:	0609                	addi	a2,a2,2
   11cca:	8f99                	sub	a5,a5,a4
   11ccc:	0017b793          	seqz	a5,a5
   11cd0:	00f51023          	sh	a5,0(a0)
   11cd4:	0509                	addi	a0,a0,2
   11cd6:	fed594e3          	bne	a1,a3,11cbe <_Z12vector_equalPsPKsS1_m+0x8>
   11cda:	8082                	ret
   11cdc:	8082                	ret
   11cde:	00032537          	lui	a0,0x32
   11ce2:	1101                	addi	sp,sp,-32
   11ce4:	98850513          	addi	a0,a0,-1656 # 31988 <__clzdi2+0x7b6>
   11ce8:	ec06                	sd	ra,24(sp)
   11cea:	e436                	sd	a3,8(sp)
   11cec:	0cf150ef          	jal	275ba <puts>
   11cf0:	65a2                	ld	a1,8(sp)
   11cf2:	00032537          	lui	a0,0x32
   11cf6:	9d850513          	addi	a0,a0,-1576 # 319d8 <__clzdi2+0x806>
   11cfa:	6e4150ef          	jal	273de <printf>
   11cfe:	557d                	li	a0,-1
   11d00:	9b7fe0ef          	jal	106b6 <exit>

0000000000011d04 <_Z10vector_sumPsPKsm>:
   11d04:	c11d                	beqz	a0,11d2a <_Z10vector_sumPsPKsm+0x26>
   11d06:	4781                	li	a5,0
   11d08:	ce11                	beqz	a2,11d24 <_Z10vector_sumPsPKsm+0x20>
   11d0a:	0606                	slli	a2,a2,0x1
   11d0c:	962e                	add	a2,a2,a1
   11d0e:	4781                	li	a5,0
   11d10:	0005d703          	lhu	a4,0(a1)
   11d14:	0589                	addi	a1,a1,2
   11d16:	9fb9                	addw	a5,a5,a4
   11d18:	0107979b          	slliw	a5,a5,0x10
   11d1c:	4107d79b          	sraiw	a5,a5,0x10
   11d20:	feb618e3          	bne	a2,a1,11d10 <_Z10vector_sumPsPKsm+0xc>
   11d24:	00f51023          	sh	a5,0(a0)
   11d28:	8082                	ret
   11d2a:	00032537          	lui	a0,0x32
   11d2e:	1141                	addi	sp,sp,-16
   11d30:	a0050513          	addi	a0,a0,-1536 # 31a00 <__clzdi2+0x82e>
   11d34:	e406                	sd	ra,8(sp)
   11d36:	085150ef          	jal	275ba <puts>
   11d3a:	00032537          	lui	a0,0x32
   11d3e:	97050513          	addi	a0,a0,-1680 # 31970 <__clzdi2+0x79e>
   11d42:	079150ef          	jal	275ba <puts>
   11d46:	557d                	li	a0,-1
   11d48:	96ffe0ef          	jal	106b6 <exit>

0000000000011d4c <_Z11vector_meanPsPKsm>:
   11d4c:	c515                	beqz	a0,11d78 <_Z11vector_meanPsPKsm+0x2c>
   11d4e:	4781                	li	a5,0
   11d50:	c20d                	beqz	a2,11d72 <_Z11vector_meanPsPKsm+0x26>
   11d52:	00161693          	slli	a3,a2,0x1
   11d56:	96ae                	add	a3,a3,a1
   11d58:	4781                	li	a5,0
   11d5a:	0005d703          	lhu	a4,0(a1)
   11d5e:	0589                	addi	a1,a1,2
   11d60:	9fb9                	addw	a5,a5,a4
   11d62:	0107979b          	slliw	a5,a5,0x10
   11d66:	4107d79b          	sraiw	a5,a5,0x10
   11d6a:	feb698e3          	bne	a3,a1,11d5a <_Z11vector_meanPsPKsm+0xe>
   11d6e:	02c7d7b3          	divu	a5,a5,a2
   11d72:	00f51023          	sh	a5,0(a0)
   11d76:	8082                	ret
   11d78:	00032537          	lui	a0,0x32
   11d7c:	1141                	addi	sp,sp,-16
   11d7e:	a5050513          	addi	a0,a0,-1456 # 31a50 <__clzdi2+0x87e>
   11d82:	e406                	sd	ra,8(sp)
   11d84:	037150ef          	jal	275ba <puts>
   11d88:	00032537          	lui	a0,0x32
   11d8c:	97050513          	addi	a0,a0,-1680 # 31970 <__clzdi2+0x79e>
   11d90:	02b150ef          	jal	275ba <puts>
   11d94:	557d                	li	a0,-1
   11d96:	921fe0ef          	jal	106b6 <exit>

0000000000011d9a <_Z10vector_varPsPKsm>:
   11d9a:	7179                	addi	sp,sp,-48
   11d9c:	f406                	sd	ra,40(sp)
   11d9e:	f022                	sd	s0,32(sp)
   11da0:	ec26                	sd	s1,24(sp)
   11da2:	e84a                	sd	s2,16(sp)
   11da4:	c525                	beqz	a0,11e0c <_Z10vector_varPsPKsm+0x72>
   11da6:	57cd                	li	a5,-13
   11da8:	8389                	srli	a5,a5,0x2
   11daa:	84b2                	mv	s1,a2
   11dac:	06c7ef63          	bltu	a5,a2,11e2a <_Z10vector_varPsPKsm+0x90>
   11db0:	00161413          	slli	s0,a2,0x1
   11db4:	892a                	mv	s2,a0
   11db6:	8522                	mv	a0,s0
   11db8:	e42e                	sd	a1,8(sp)
   11dba:	3d9040ef          	jal	16992 <_Znam>
   11dbe:	65a2                	ld	a1,8(sp)
   11dc0:	c4a1                	beqz	s1,11e08 <_Z10vector_varPsPKsm+0x6e>
   11dc2:	00858833          	add	a6,a1,s0
   11dc6:	87ae                	mv	a5,a1
   11dc8:	4601                	li	a2,0
   11dca:	0007d703          	lhu	a4,0(a5)
   11dce:	0789                	addi	a5,a5,2
   11dd0:	9e39                	addw	a2,a2,a4
   11dd2:	0106161b          	slliw	a2,a2,0x10
   11dd6:	4106561b          	sraiw	a2,a2,0x10
   11dda:	fef818e3          	bne	a6,a5,11dca <_Z10vector_varPsPKsm+0x30>
   11dde:	02965633          	divu	a2,a2,s1
   11de2:	0106161b          	slliw	a2,a2,0x10
   11de6:	4106561b          	sraiw	a2,a2,0x10
   11dea:	86a6                	mv	a3,s1
   11dec:	e42a                	sd	a0,8(sp)
   11dee:	7a0000ef          	jal	1258e <_Z23tiled_vector_sub_scalarPsPKssm>
   11df2:	6622                	ld	a2,8(sp)
   11df4:	7402                	ld	s0,32(sp)
   11df6:	70a2                	ld	ra,40(sp)
   11df8:	86a6                	mv	a3,s1
   11dfa:	854a                	mv	a0,s2
   11dfc:	64e2                	ld	s1,24(sp)
   11dfe:	6942                	ld	s2,16(sp)
   11e00:	85b2                	mv	a1,a2
   11e02:	6145                	addi	sp,sp,48
   11e04:	4e80106f          	j	132ec <_Z13tiled_dotprodPsPKsS1_m>
   11e08:	4601                	li	a2,0
   11e0a:	b7c5                	j	11dea <_Z10vector_varPsPKsm+0x50>
   11e0c:	00032537          	lui	a0,0x32
   11e10:	aa050513          	addi	a0,a0,-1376 # 31aa0 <__clzdi2+0x8ce>
   11e14:	7a6150ef          	jal	275ba <puts>
   11e18:	00032537          	lui	a0,0x32
   11e1c:	97050513          	addi	a0,a0,-1680 # 31970 <__clzdi2+0x79e>
   11e20:	79a150ef          	jal	275ba <puts>
   11e24:	557d                	li	a0,-1
   11e26:	891fe0ef          	jal	106b6 <exit>
   11e2a:	b42fe0ef          	jal	1016c <__cxa_throw_bad_array_new_length>

0000000000011e2e <_Z14vector_softmaxPsPKsms>:
   11e2e:	715d                	addi	sp,sp,-80
   11e30:	e486                	sd	ra,72(sp)
   11e32:	e0a2                	sd	s0,64(sp)
   11e34:	fc26                	sd	s1,56(sp)
   11e36:	f84a                	sd	s2,48(sp)
   11e38:	f44e                	sd	s3,40(sp)
   11e3a:	c141                	beqz	a0,11eba <_Z14vector_softmaxPsPKsms+0x8c>
   11e3c:	842a                	mv	s0,a0
   11e3e:	00e10513          	addi	a0,sp,14
   11e42:	8932                	mv	s2,a2
   11e44:	89b6                	mv	s3,a3
   11e46:	84ae                	mv	s1,a1
   11e48:	391000ef          	jal	129d8 <_Z16tiled_vector_maxPsPKsm>
   11e4c:	00e11603          	lh	a2,14(sp)
   11e50:	86ca                	mv	a3,s2
   11e52:	85a6                	mv	a1,s1
   11e54:	8522                	mv	a0,s0
   11e56:	738000ef          	jal	1258e <_Z23tiled_vector_sub_scalarPsPKssm>
   11e5a:	04090963          	beqz	s2,11eac <_Z14vector_softmaxPsPKsms+0x7e>
   11e5e:	ac22                	fsd	fs0,24(sp)
   11e60:	f2000453          	fmv.d.x	fs0,zero
   11e64:	0906                	slli	s2,s2,0x1
   11e66:	9922                	add	s2,s2,s0
   11e68:	84a2                	mv	s1,s0
   11e6a:	00049783          	lh	a5,0(s1)
   11e6e:	0489                	addi	s1,s1,2
   11e70:	d2078553          	fcvt.d.w	fa0,a5
   11e74:	5350e0ef          	jal	20ba8 <exp>
   11e78:	02a47453          	fadd.d	fs0,fs0,fa0
   11e7c:	fe9917e3          	bne	s2,s1,11e6a <_Z14vector_softmaxPsPKsms+0x3c>
   11e80:	000417b7          	lui	a5,0x41
   11e84:	6607b707          	fld	fa4,1632(a5) # 41660 <__SDATA_BEGIN__>
   11e88:	1a877753          	fdiv.d	fa4,fa4,fs0
   11e8c:	00041783          	lh	a5,0(s0)
   11e90:	0409                	addi	s0,s0,2
   11e92:	033787bb          	mulw	a5,a5,s3
   11e96:	d20787d3          	fcvt.d.w	fa5,a5
   11e9a:	12e7f7d3          	fmul.d	fa5,fa5,fa4
   11e9e:	c20797d3          	fcvt.w.d	a5,fa5,rtz
   11ea2:	fef41f23          	sh	a5,-2(s0)
   11ea6:	fe8913e3          	bne	s2,s0,11e8c <_Z14vector_softmaxPsPKsms+0x5e>
   11eaa:	2462                	fld	fs0,24(sp)
   11eac:	6406                	ld	s0,64(sp)
   11eae:	60a6                	ld	ra,72(sp)
   11eb0:	74e2                	ld	s1,56(sp)
   11eb2:	7942                	ld	s2,48(sp)
   11eb4:	79a2                	ld	s3,40(sp)
   11eb6:	6161                	addi	sp,sp,80
   11eb8:	8082                	ret
   11eba:	00032537          	lui	a0,0x32
   11ebe:	af050513          	addi	a0,a0,-1296 # 31af0 <__clzdi2+0x91e>
   11ec2:	ac22                	fsd	fs0,24(sp)
   11ec4:	6f6150ef          	jal	275ba <puts>
   11ec8:	00032537          	lui	a0,0x32
   11ecc:	97050513          	addi	a0,a0,-1680 # 31970 <__clzdi2+0x79e>
   11ed0:	6ea150ef          	jal	275ba <puts>
   11ed4:	557d                	li	a0,-1
   11ed6:	fe0fe0ef          	jal	106b6 <exit>

0000000000011eda <_Z10matrix_sumPsPKsmm>:
   11eda:	cd31                	beqz	a0,11f36 <_Z10matrix_sumPsPKsmm+0x5c>
   11edc:	ca19                	beqz	a2,11ef2 <_Z10matrix_sumPsPKsmm+0x18>
   11ede:	00169313          	slli	t1,a3,0x1
   11ee2:	959a                	add	a1,a1,t1
   11ee4:	00161e13          	slli	t3,a2,0x1
   11ee8:	4881                	li	a7,0
   11eea:	ea81                	bnez	a3,11efa <_Z10matrix_sumPsPKsmm+0x20>
   11eec:	0885                	addi	a7,a7,1
   11eee:	ff161fe3          	bne	a2,a7,11eec <_Z10matrix_sumPsPKsmm+0x12>
   11ef2:	4801                	li	a6,0
   11ef4:	01051023          	sh	a6,0(a0)
   11ef8:	8082                	ret
   11efa:	4801                	li	a6,0
   11efc:	40658733          	sub	a4,a1,t1
   11f00:	4781                	li	a5,0
   11f02:	00075683          	lhu	a3,0(a4)
   11f06:	0709                	addi	a4,a4,2
   11f08:	9fb5                	addw	a5,a5,a3
   11f0a:	03079693          	slli	a3,a5,0x30
   11f0e:	0107979b          	slliw	a5,a5,0x10
   11f12:	92c1                	srli	a3,a3,0x30
   11f14:	4107d79b          	sraiw	a5,a5,0x10
   11f18:	fee595e3          	bne	a1,a4,11f02 <_Z10matrix_sumPsPKsmm+0x28>
   11f1c:	00d8083b          	addw	a6,a6,a3
   11f20:	0108181b          	slliw	a6,a6,0x10
   11f24:	0885                	addi	a7,a7,1
   11f26:	4108581b          	sraiw	a6,a6,0x10
   11f2a:	95f2                	add	a1,a1,t3
   11f2c:	fcc898e3          	bne	a7,a2,11efc <_Z10matrix_sumPsPKsmm+0x22>
   11f30:	01051023          	sh	a6,0(a0)
   11f34:	8082                	ret
   11f36:	1141                	addi	sp,sp,-16
   11f38:	e406                	sd	ra,8(sp)
   11f3a:	d5bff0ef          	jal	11c94 <_Z10matrix_sumPsPKsmm.part.0>

0000000000011f3e <_Z10matrix_sumPsPKsmmm>:
   11f3e:	1141                	addi	sp,sp,-16
   11f40:	e406                	sd	ra,8(sp)
   11f42:	e022                	sd	s0,0(sp)
   11f44:	cd49                	beqz	a0,11fde <_Z10matrix_sumPsPKsmmm+0xa0>
   11f46:	842a                	mv	s0,a0
   11f48:	c741                	beqz	a4,11fd0 <_Z10matrix_sumPsPKsmmm+0x92>
   11f4a:	c259                	beqz	a2,11fd0 <_Z10matrix_sumPsPKsmmm+0x92>
   11f4c:	00169e93          	slli	t4,a3,0x1
   11f50:	01d582b3          	add	t0,a1,t4
   11f54:	00171513          	slli	a0,a4,0x1
   11f58:	00161f13          	slli	t5,a2,0x1
   11f5c:	4f81                	li	t6,0
   11f5e:	4381                	li	t2,0
   11f60:	8896                	mv	a7,t0
   11f62:	4e01                	li	t3,0
   11f64:	e68d                	bnez	a3,11f8e <_Z10matrix_sumPsPKsmmm+0x50>
   11f66:	0e05                	addi	t3,t3,1
   11f68:	ffc61fe3          	bne	a2,t3,11f66 <_Z10matrix_sumPsPKsmmm+0x28>
   11f6c:	4581                	li	a1,0
   11f6e:	00bf8fbb          	addw	t6,t6,a1
   11f72:	010f9f9b          	slliw	t6,t6,0x10
   11f76:	0385                	addi	t2,t2,1
   11f78:	410fdf9b          	sraiw	t6,t6,0x10
   11f7c:	92aa                	add	t0,t0,a0
   11f7e:	fee391e3          	bne	t2,a4,11f60 <_Z10matrix_sumPsPKsmmm+0x22>
   11f82:	60a2                	ld	ra,8(sp)
   11f84:	01f41023          	sh	t6,0(s0)
   11f88:	6402                	ld	s0,0(sp)
   11f8a:	0141                	addi	sp,sp,16
   11f8c:	8082                	ret
   11f8e:	4301                	li	t1,0
   11f90:	41d885b3          	sub	a1,a7,t4
   11f94:	4781                	li	a5,0
   11f96:	0005d803          	lhu	a6,0(a1)
   11f9a:	0589                	addi	a1,a1,2
   11f9c:	00f807bb          	addw	a5,a6,a5
   11fa0:	03079813          	slli	a6,a5,0x30
   11fa4:	0107979b          	slliw	a5,a5,0x10
   11fa8:	03085813          	srli	a6,a6,0x30
   11fac:	4107d79b          	sraiw	a5,a5,0x10
   11fb0:	ff1593e3          	bne	a1,a7,11f96 <_Z10matrix_sumPsPKsmmm+0x58>
   11fb4:	010307bb          	addw	a5,t1,a6
   11fb8:	03079593          	slli	a1,a5,0x30
   11fbc:	0107931b          	slliw	t1,a5,0x10
   11fc0:	0e05                	addi	t3,t3,1
   11fc2:	98fa                	add	a7,a7,t5
   11fc4:	91c1                	srli	a1,a1,0x30
   11fc6:	4103531b          	sraiw	t1,t1,0x10
   11fca:	fdc613e3          	bne	a2,t3,11f90 <_Z10matrix_sumPsPKsmmm+0x52>
   11fce:	b745                	j	11f6e <_Z10matrix_sumPsPKsmmm+0x30>
   11fd0:	4f81                	li	t6,0
   11fd2:	60a2                	ld	ra,8(sp)
   11fd4:	01f41023          	sh	t6,0(s0)
   11fd8:	6402                	ld	s0,0(sp)
   11fda:	0141                	addi	sp,sp,16
   11fdc:	8082                	ret
   11fde:	cb7ff0ef          	jal	11c94 <_Z10matrix_sumPsPKsmm.part.0>

0000000000011fe2 <_Z11matrix_meanPsPKsmm>:
   11fe2:	c12d                	beqz	a0,12044 <_Z11matrix_meanPsPKsmm+0x62>
   11fe4:	4801                	li	a6,0
   11fe6:	c205                	beqz	a2,12006 <_Z11matrix_meanPsPKsmm+0x24>
   11fe8:	00169313          	slli	t1,a3,0x1
   11fec:	02d60eb3          	mul	t4,a2,a3
   11ff0:	959a                	add	a1,a1,t1
   11ff2:	00161e13          	slli	t3,a2,0x1
   11ff6:	4881                	li	a7,0
   11ff8:	ea91                	bnez	a3,1200c <_Z11matrix_meanPsPKsmm+0x2a>
   11ffa:	0885                	addi	a7,a7,1
   11ffc:	ff161fe3          	bne	a2,a7,11ffa <_Z11matrix_meanPsPKsmm+0x18>
   12000:	4801                	li	a6,0
   12002:	03d85833          	divu	a6,a6,t4
   12006:	01051023          	sh	a6,0(a0)
   1200a:	8082                	ret
   1200c:	4801                	li	a6,0
   1200e:	40658733          	sub	a4,a1,t1
   12012:	4781                	li	a5,0
   12014:	00075683          	lhu	a3,0(a4)
   12018:	0709                	addi	a4,a4,2
   1201a:	9fb5                	addw	a5,a5,a3
   1201c:	03079693          	slli	a3,a5,0x30
   12020:	0107979b          	slliw	a5,a5,0x10
   12024:	92c1                	srli	a3,a3,0x30
   12026:	4107d79b          	sraiw	a5,a5,0x10
   1202a:	fee595e3          	bne	a1,a4,12014 <_Z11matrix_meanPsPKsmm+0x32>
   1202e:	00d8083b          	addw	a6,a6,a3
   12032:	0108181b          	slliw	a6,a6,0x10
   12036:	0885                	addi	a7,a7,1
   12038:	4108581b          	sraiw	a6,a6,0x10
   1203c:	95f2                	add	a1,a1,t3
   1203e:	fd1618e3          	bne	a2,a7,1200e <_Z11matrix_meanPsPKsmm+0x2c>
   12042:	b7c1                	j	12002 <_Z11matrix_meanPsPKsmm+0x20>
   12044:	00032537          	lui	a0,0x32
   12048:	1141                	addi	sp,sp,-16
   1204a:	b4050513          	addi	a0,a0,-1216 # 31b40 <__clzdi2+0x96e>
   1204e:	e406                	sd	ra,8(sp)
   12050:	56a150ef          	jal	275ba <puts>
   12054:	00032537          	lui	a0,0x32
   12058:	97050513          	addi	a0,a0,-1680 # 31970 <__clzdi2+0x79e>
   1205c:	55e150ef          	jal	275ba <puts>
   12060:	557d                	li	a0,-1
   12062:	e54fe0ef          	jal	106b6 <exit>

0000000000012066 <_Z11matrix_meanPsPKsmmm>:
   12066:	7139                	addi	sp,sp,-64
   12068:	fc06                	sd	ra,56(sp)
   1206a:	f822                	sd	s0,48(sp)
   1206c:	f426                	sd	s1,40(sp)
   1206e:	f04a                	sd	s2,32(sp)
   12070:	ec4e                	sd	s3,24(sp)
   12072:	cd05                	beqz	a0,120aa <_Z11matrix_meanPsPKsmmm+0x44>
   12074:	842a                	mv	s0,a0
   12076:	00e10513          	addi	a0,sp,14
   1207a:	84b2                	mv	s1,a2
   1207c:	8936                	mv	s2,a3
   1207e:	89ba                	mv	s3,a4
   12080:	00011723          	sh	zero,14(sp)
   12084:	ebbff0ef          	jal	11f3e <_Z10matrix_sumPsPKsmmm>
   12088:	03390633          	mul	a2,s2,s3
   1208c:	00e11783          	lh	a5,14(sp)
   12090:	70e2                	ld	ra,56(sp)
   12092:	7902                	ld	s2,32(sp)
   12094:	69e2                	ld	s3,24(sp)
   12096:	02960633          	mul	a2,a2,s1
   1209a:	74a2                	ld	s1,40(sp)
   1209c:	02c7d7b3          	divu	a5,a5,a2
   120a0:	00f41023          	sh	a5,0(s0)
   120a4:	7442                	ld	s0,48(sp)
   120a6:	6121                	addi	sp,sp,64
   120a8:	8082                	ret
   120aa:	00032537          	lui	a0,0x32
   120ae:	b4050513          	addi	a0,a0,-1216 # 31b40 <__clzdi2+0x96e>
   120b2:	508150ef          	jal	275ba <puts>
   120b6:	00032537          	lui	a0,0x32
   120ba:	97050513          	addi	a0,a0,-1680 # 31970 <__clzdi2+0x79e>
   120be:	4fc150ef          	jal	275ba <puts>
   120c2:	557d                	li	a0,-1
   120c4:	df2fe0ef          	jal	106b6 <exit>

00000000000120c8 <_Z14fit_vector_addPsPKsS1_m>:
   120c8:	02000793          	li	a5,32
   120cc:	02d7e263          	bltu	a5,a3,120f0 <_Z14fit_vector_addPsPKsS1_m+0x28>
   120d0:	872a                	mv	a4,a0
   120d2:	8536                	mv	a0,a3
   120d4:	1805200b          	.insn	4, 0x1805200b
   120d8:	852e                	mv	a0,a1
   120da:	1005208b          	.insn	4, 0x1005208b
   120de:	8532                	mv	a0,a2
   120e0:	1005210b          	.insn	4, 0x1005210b
   120e4:	0220818b          	.insn	4, 0x0220818b
   120e8:	853a                	mv	a0,a4
   120ea:	1235200b          	.insn	4, 0x1235200b
   120ee:	8082                	ret
   120f0:	000326b7          	lui	a3,0x32
   120f4:	00032637          	lui	a2,0x32
   120f8:	00032537          	lui	a0,0x32
   120fc:	1141                	addi	sp,sp,-16
   120fe:	b9068693          	addi	a3,a3,-1136 # 31b90 <__clzdi2+0x9be>
   12102:	ba860613          	addi	a2,a2,-1112 # 31ba8 <__clzdi2+0x9d6>
   12106:	bf050513          	addi	a0,a0,-1040 # 31bf0 <__clzdi2+0xa1e>
   1210a:	4599                	li	a1,6
   1210c:	e406                	sd	ra,8(sp)
   1210e:	0d5120ef          	jal	249e2 <__assert_func>

0000000000012112 <_Z16tiled_vector_addPsPKsS1_m>:
   12112:	cd49                	beqz	a0,121ac <_Z16tiled_vector_addPsPKsS1_m+0x9a>
   12114:	02000793          	li	a5,32
   12118:	8e2a                	mv	t3,a0
   1211a:	06d7fa63          	bgeu	a5,a3,1218e <_Z16tiled_vector_addPsPKsS1_m+0x7c>
   1211e:	01f6fe93          	andi	t4,a3,31
   12122:	0056d313          	srli	t1,a3,0x5
   12126:	88ae                	mv	a7,a1
   12128:	8832                	mv	a6,a2
   1212a:	872a                	mv	a4,a0
   1212c:	4781                	li	a5,0
   1212e:	02000513          	li	a0,32
   12132:	1805200b          	.insn	4, 0x1805200b
   12136:	8546                	mv	a0,a7
   12138:	1005208b          	.insn	4, 0x1005208b
   1213c:	8542                	mv	a0,a6
   1213e:	1005210b          	.insn	4, 0x1005210b
   12142:	0220818b          	.insn	4, 0x0220818b
   12146:	853a                	mv	a0,a4
   12148:	1235200b          	.insn	4, 0x1235200b
   1214c:	0785                	addi	a5,a5,1
   1214e:	04088893          	addi	a7,a7,64
   12152:	04080813          	addi	a6,a6,64
   12156:	04070713          	addi	a4,a4,64
   1215a:	fcf31ae3          	bne	t1,a5,1212e <_Z16tiled_vector_addPsPKsS1_m+0x1c>
   1215e:	000e9363          	bnez	t4,12164 <_Z16tiled_vector_addPsPKsS1_m+0x52>
   12162:	8082                	ret
   12164:	41d686b3          	sub	a3,a3,t4
   12168:	0686                	slli	a3,a3,0x1
   1216a:	8576                	mv	a0,t4
   1216c:	1805200b          	.insn	4, 0x1805200b
   12170:	00d58533          	add	a0,a1,a3
   12174:	1005208b          	.insn	4, 0x1005208b
   12178:	00d60533          	add	a0,a2,a3
   1217c:	1005210b          	.insn	4, 0x1005210b
   12180:	0220818b          	.insn	4, 0x0220818b
   12184:	00de0533          	add	a0,t3,a3
   12188:	1235200b          	.insn	4, 0x1235200b
   1218c:	8082                	ret
   1218e:	8536                	mv	a0,a3
   12190:	1805200b          	.insn	4, 0x1805200b
   12194:	852e                	mv	a0,a1
   12196:	1005208b          	.insn	4, 0x1005208b
   1219a:	8532                	mv	a0,a2
   1219c:	1005210b          	.insn	4, 0x1005210b
   121a0:	0220818b          	.insn	4, 0x0220818b
   121a4:	8572                	mv	a0,t3
   121a6:	1235200b          	.insn	4, 0x1235200b
   121aa:	8082                	ret
   121ac:	00032537          	lui	a0,0x32
   121b0:	1101                	addi	sp,sp,-32
   121b2:	c0850513          	addi	a0,a0,-1016 # 31c08 <__clzdi2+0xa36>
   121b6:	ec06                	sd	ra,24(sp)
   121b8:	e436                	sd	a3,8(sp)
   121ba:	400150ef          	jal	275ba <puts>
   121be:	65a2                	ld	a1,8(sp)
   121c0:	00032537          	lui	a0,0x32
   121c4:	c5850513          	addi	a0,a0,-936 # 31c58 <__clzdi2+0xa86>
   121c8:	216150ef          	jal	273de <printf>
   121cc:	557d                	li	a0,-1
   121ce:	ce8fe0ef          	jal	106b6 <exit>

00000000000121d2 <_Z23tiled_matrix_vector_addPsPKsS1_mm>:
   121d2:	7139                	addi	sp,sp,-64
   121d4:	e852                	sd	s4,16(sp)
   121d6:	e456                	sd	s5,8(sp)
   121d8:	fc06                	sd	ra,56(sp)
   121da:	8a36                	mv	s4,a3
   121dc:	8aba                	mv	s5,a4
   121de:	c131                	beqz	a0,12222 <_Z23tiled_matrix_vector_addPsPKsS1_mm+0x50>
   121e0:	ce85                	beqz	a3,12218 <_Z23tiled_matrix_vector_addPsPKsS1_mm+0x46>
   121e2:	f822                	sd	s0,48(sp)
   121e4:	f426                	sd	s1,40(sp)
   121e6:	f04a                	sd	s2,32(sp)
   121e8:	ec4e                	sd	s3,24(sp)
   121ea:	e05a                	sd	s6,0(sp)
   121ec:	842a                	mv	s0,a0
   121ee:	8b32                	mv	s6,a2
   121f0:	84ae                	mv	s1,a1
   121f2:	00171993          	slli	s3,a4,0x1
   121f6:	4901                	li	s2,0
   121f8:	85a6                	mv	a1,s1
   121fa:	8522                	mv	a0,s0
   121fc:	86d6                	mv	a3,s5
   121fe:	865a                	mv	a2,s6
   12200:	0905                	addi	s2,s2,1
   12202:	f11ff0ef          	jal	12112 <_Z16tiled_vector_addPsPKsS1_m>
   12206:	944e                	add	s0,s0,s3
   12208:	94ce                	add	s1,s1,s3
   1220a:	ff2a17e3          	bne	s4,s2,121f8 <_Z23tiled_matrix_vector_addPsPKsS1_mm+0x26>
   1220e:	7442                	ld	s0,48(sp)
   12210:	74a2                	ld	s1,40(sp)
   12212:	7902                	ld	s2,32(sp)
   12214:	69e2                	ld	s3,24(sp)
   12216:	6b02                	ld	s6,0(sp)
   12218:	70e2                	ld	ra,56(sp)
   1221a:	6a42                	ld	s4,16(sp)
   1221c:	6aa2                	ld	s5,8(sp)
   1221e:	6121                	addi	sp,sp,64
   12220:	8082                	ret
   12222:	00032537          	lui	a0,0x32
   12226:	c7850513          	addi	a0,a0,-904 # 31c78 <__clzdi2+0xaa6>
   1222a:	f822                	sd	s0,48(sp)
   1222c:	f426                	sd	s1,40(sp)
   1222e:	f04a                	sd	s2,32(sp)
   12230:	ec4e                	sd	s3,24(sp)
   12232:	e05a                	sd	s6,0(sp)
   12234:	386150ef          	jal	275ba <puts>
   12238:	00032537          	lui	a0,0x32
   1223c:	8656                	mv	a2,s5
   1223e:	85d2                	mv	a1,s4
   12240:	cd050513          	addi	a0,a0,-816 # 31cd0 <__clzdi2+0xafe>
   12244:	19a150ef          	jal	273de <printf>
   12248:	557d                	li	a0,-1
   1224a:	c6cfe0ef          	jal	106b6 <exit>

000000000001224e <_Z14fit_vector_subPsPKsS1_m>:
   1224e:	02000793          	li	a5,32
   12252:	02d7e263          	bltu	a5,a3,12276 <_Z14fit_vector_subPsPKsS1_m+0x28>
   12256:	872a                	mv	a4,a0
   12258:	8536                	mv	a0,a3
   1225a:	1805200b          	.insn	4, 0x1805200b
   1225e:	852e                	mv	a0,a1
   12260:	1005208b          	.insn	4, 0x1005208b
   12264:	8532                	mv	a0,a2
   12266:	1005210b          	.insn	4, 0x1005210b
   1226a:	0420818b          	.insn	4, 0x0420818b
   1226e:	853a                	mv	a0,a4
   12270:	1235200b          	.insn	4, 0x1235200b
   12274:	8082                	ret
   12276:	000326b7          	lui	a3,0x32
   1227a:	00032637          	lui	a2,0x32
   1227e:	00032537          	lui	a0,0x32
   12282:	1141                	addi	sp,sp,-16
   12284:	b9068693          	addi	a3,a3,-1136 # 31b90 <__clzdi2+0x9be>
   12288:	d0060613          	addi	a2,a2,-768 # 31d00 <__clzdi2+0xb2e>
   1228c:	bf050513          	addi	a0,a0,-1040 # 31bf0 <__clzdi2+0xa1e>
   12290:	03600593          	li	a1,54
   12294:	e406                	sd	ra,8(sp)
   12296:	74c120ef          	jal	249e2 <__assert_func>

000000000001229a <_Z16tiled_vector_subPsPKsS1_m>:
   1229a:	cd49                	beqz	a0,12334 <_Z16tiled_vector_subPsPKsS1_m+0x9a>
   1229c:	02000793          	li	a5,32
   122a0:	8e2a                	mv	t3,a0
   122a2:	06d7fa63          	bgeu	a5,a3,12316 <_Z16tiled_vector_subPsPKsS1_m+0x7c>
   122a6:	01f6fe93          	andi	t4,a3,31
   122aa:	0056d313          	srli	t1,a3,0x5
   122ae:	88ae                	mv	a7,a1
   122b0:	8832                	mv	a6,a2
   122b2:	872a                	mv	a4,a0
   122b4:	4781                	li	a5,0
   122b6:	02000513          	li	a0,32
   122ba:	1805200b          	.insn	4, 0x1805200b
   122be:	8546                	mv	a0,a7
   122c0:	1005208b          	.insn	4, 0x1005208b
   122c4:	8542                	mv	a0,a6
   122c6:	1005210b          	.insn	4, 0x1005210b
   122ca:	0420818b          	.insn	4, 0x0420818b
   122ce:	853a                	mv	a0,a4
   122d0:	1235200b          	.insn	4, 0x1235200b
   122d4:	0785                	addi	a5,a5,1
   122d6:	04088893          	addi	a7,a7,64
   122da:	04080813          	addi	a6,a6,64
   122de:	04070713          	addi	a4,a4,64
   122e2:	fcf31ae3          	bne	t1,a5,122b6 <_Z16tiled_vector_subPsPKsS1_m+0x1c>
   122e6:	000e9363          	bnez	t4,122ec <_Z16tiled_vector_subPsPKsS1_m+0x52>
   122ea:	8082                	ret
   122ec:	41d686b3          	sub	a3,a3,t4
   122f0:	0686                	slli	a3,a3,0x1
   122f2:	8576                	mv	a0,t4
   122f4:	1805200b          	.insn	4, 0x1805200b
   122f8:	00d58533          	add	a0,a1,a3
   122fc:	1005208b          	.insn	4, 0x1005208b
   12300:	00d60533          	add	a0,a2,a3
   12304:	1005210b          	.insn	4, 0x1005210b
   12308:	0420818b          	.insn	4, 0x0420818b
   1230c:	00de0533          	add	a0,t3,a3
   12310:	1235200b          	.insn	4, 0x1235200b
   12314:	8082                	ret
   12316:	8536                	mv	a0,a3
   12318:	1805200b          	.insn	4, 0x1805200b
   1231c:	852e                	mv	a0,a1
   1231e:	1005208b          	.insn	4, 0x1005208b
   12322:	8532                	mv	a0,a2
   12324:	1005210b          	.insn	4, 0x1005210b
   12328:	0420818b          	.insn	4, 0x0420818b
   1232c:	8572                	mv	a0,t3
   1232e:	1235200b          	.insn	4, 0x1235200b
   12332:	8082                	ret
   12334:	00032537          	lui	a0,0x32
   12338:	1101                	addi	sp,sp,-32
   1233a:	d4850513          	addi	a0,a0,-696 # 31d48 <__clzdi2+0xb76>
   1233e:	ec06                	sd	ra,24(sp)
   12340:	e436                	sd	a3,8(sp)
   12342:	278150ef          	jal	275ba <puts>
   12346:	65a2                	ld	a1,8(sp)
   12348:	00032537          	lui	a0,0x32
   1234c:	c5850513          	addi	a0,a0,-936 # 31c58 <__clzdi2+0xa86>
   12350:	08e150ef          	jal	273de <printf>
   12354:	557d                	li	a0,-1
   12356:	b60fe0ef          	jal	106b6 <exit>

000000000001235a <_Z23tiled_matrix_vector_subPsPKsS1_mm>:
   1235a:	7139                	addi	sp,sp,-64
   1235c:	e852                	sd	s4,16(sp)
   1235e:	e456                	sd	s5,8(sp)
   12360:	fc06                	sd	ra,56(sp)
   12362:	8a36                	mv	s4,a3
   12364:	8aba                	mv	s5,a4
   12366:	c131                	beqz	a0,123aa <_Z23tiled_matrix_vector_subPsPKsS1_mm+0x50>
   12368:	ce85                	beqz	a3,123a0 <_Z23tiled_matrix_vector_subPsPKsS1_mm+0x46>
   1236a:	f822                	sd	s0,48(sp)
   1236c:	f426                	sd	s1,40(sp)
   1236e:	f04a                	sd	s2,32(sp)
   12370:	ec4e                	sd	s3,24(sp)
   12372:	e05a                	sd	s6,0(sp)
   12374:	842a                	mv	s0,a0
   12376:	8b32                	mv	s6,a2
   12378:	84ae                	mv	s1,a1
   1237a:	00171993          	slli	s3,a4,0x1
   1237e:	4901                	li	s2,0
   12380:	85a6                	mv	a1,s1
   12382:	8522                	mv	a0,s0
   12384:	86d6                	mv	a3,s5
   12386:	865a                	mv	a2,s6
   12388:	0905                	addi	s2,s2,1
   1238a:	f11ff0ef          	jal	1229a <_Z16tiled_vector_subPsPKsS1_m>
   1238e:	944e                	add	s0,s0,s3
   12390:	94ce                	add	s1,s1,s3
   12392:	ff2a17e3          	bne	s4,s2,12380 <_Z23tiled_matrix_vector_subPsPKsS1_mm+0x26>
   12396:	7442                	ld	s0,48(sp)
   12398:	74a2                	ld	s1,40(sp)
   1239a:	7902                	ld	s2,32(sp)
   1239c:	69e2                	ld	s3,24(sp)
   1239e:	6b02                	ld	s6,0(sp)
   123a0:	70e2                	ld	ra,56(sp)
   123a2:	6a42                	ld	s4,16(sp)
   123a4:	6aa2                	ld	s5,8(sp)
   123a6:	6121                	addi	sp,sp,64
   123a8:	8082                	ret
   123aa:	00032537          	lui	a0,0x32
   123ae:	d9850513          	addi	a0,a0,-616 # 31d98 <__clzdi2+0xbc6>
   123b2:	f822                	sd	s0,48(sp)
   123b4:	f426                	sd	s1,40(sp)
   123b6:	f04a                	sd	s2,32(sp)
   123b8:	ec4e                	sd	s3,24(sp)
   123ba:	e05a                	sd	s6,0(sp)
   123bc:	1fe150ef          	jal	275ba <puts>
   123c0:	00032537          	lui	a0,0x32
   123c4:	8656                	mv	a2,s5
   123c6:	85d2                	mv	a1,s4
   123c8:	cd050513          	addi	a0,a0,-816 # 31cd0 <__clzdi2+0xafe>
   123cc:	012150ef          	jal	273de <printf>
   123d0:	557d                	li	a0,-1
   123d2:	ae4fe0ef          	jal	106b6 <exit>

00000000000123d6 <_Z21fit_vector_add_scalarPsPKssm>:
   123d6:	02000793          	li	a5,32
   123da:	02d7e063          	bltu	a5,a3,123fa <_Z21fit_vector_add_scalarPsPKssm+0x24>
   123de:	872a                	mv	a4,a0
   123e0:	8536                	mv	a0,a3
   123e2:	1805200b          	.insn	4, 0x1805200b
   123e6:	852e                	mv	a0,a1
   123e8:	1005208b          	.insn	4, 0x1005208b
   123ec:	8532                	mv	a0,a2
   123ee:	0615210b          	.insn	4, 0x0615210b
   123f2:	853a                	mv	a0,a4
   123f4:	1235200b          	.insn	4, 0x1235200b
   123f8:	8082                	ret
   123fa:	000326b7          	lui	a3,0x32
   123fe:	00032637          	lui	a2,0x32
   12402:	00032537          	lui	a0,0x32
   12406:	1141                	addi	sp,sp,-16
   12408:	b9068693          	addi	a3,a3,-1136 # 31b90 <__clzdi2+0x9be>
   1240c:	df060613          	addi	a2,a2,-528 # 31df0 <__clzdi2+0xc1e>
   12410:	bf050513          	addi	a0,a0,-1040 # 31bf0 <__clzdi2+0xa1e>
   12414:	06600593          	li	a1,102
   12418:	e406                	sd	ra,8(sp)
   1241a:	5c8120ef          	jal	249e2 <__assert_func>

000000000001241e <_Z23tiled_vector_add_scalarPsPKssm>:
   1241e:	c159                	beqz	a0,124a4 <_Z23tiled_vector_add_scalarPsPKssm+0x86>
   12420:	02000793          	li	a5,32
   12424:	832a                	mv	t1,a0
   12426:	06d7f263          	bgeu	a5,a3,1248a <_Z23tiled_vector_add_scalarPsPKssm+0x6c>
   1242a:	01f6fe13          	andi	t3,a3,31
   1242e:	0056d893          	srli	a7,a3,0x5
   12432:	882e                	mv	a6,a1
   12434:	872a                	mv	a4,a0
   12436:	4781                	li	a5,0
   12438:	02000513          	li	a0,32
   1243c:	1805200b          	.insn	4, 0x1805200b
   12440:	8542                	mv	a0,a6
   12442:	1005208b          	.insn	4, 0x1005208b
   12446:	8532                	mv	a0,a2
   12448:	0615210b          	.insn	4, 0x0615210b
   1244c:	853a                	mv	a0,a4
   1244e:	1235200b          	.insn	4, 0x1235200b
   12452:	0785                	addi	a5,a5,1
   12454:	04080813          	addi	a6,a6,64
   12458:	04070713          	addi	a4,a4,64
   1245c:	fcf89ee3          	bne	a7,a5,12438 <_Z23tiled_vector_add_scalarPsPKssm+0x1a>
   12460:	000e1363          	bnez	t3,12466 <_Z23tiled_vector_add_scalarPsPKssm+0x48>
   12464:	8082                	ret
   12466:	41c686b3          	sub	a3,a3,t3
   1246a:	0686                	slli	a3,a3,0x1
   1246c:	8572                	mv	a0,t3
   1246e:	1805200b          	.insn	4, 0x1805200b
   12472:	00d58533          	add	a0,a1,a3
   12476:	1005208b          	.insn	4, 0x1005208b
   1247a:	8532                	mv	a0,a2
   1247c:	0615210b          	.insn	4, 0x0615210b
   12480:	00d30533          	add	a0,t1,a3
   12484:	1235200b          	.insn	4, 0x1235200b
   12488:	8082                	ret
   1248a:	8536                	mv	a0,a3
   1248c:	1805200b          	.insn	4, 0x1805200b
   12490:	852e                	mv	a0,a1
   12492:	1005208b          	.insn	4, 0x1005208b
   12496:	8532                	mv	a0,a2
   12498:	0615210b          	.insn	4, 0x0615210b
   1249c:	851a                	mv	a0,t1
   1249e:	1235200b          	.insn	4, 0x1235200b
   124a2:	8082                	ret
   124a4:	00032537          	lui	a0,0x32
   124a8:	1101                	addi	sp,sp,-32
   124aa:	e3850513          	addi	a0,a0,-456 # 31e38 <__clzdi2+0xc66>
   124ae:	ec06                	sd	ra,24(sp)
   124b0:	e436                	sd	a3,8(sp)
   124b2:	108150ef          	jal	275ba <puts>
   124b6:	65a2                	ld	a1,8(sp)
   124b8:	00032537          	lui	a0,0x32
   124bc:	c5850513          	addi	a0,a0,-936 # 31c58 <__clzdi2+0xa86>
   124c0:	71f140ef          	jal	273de <printf>
   124c4:	557d                	li	a0,-1
   124c6:	9f0fe0ef          	jal	106b6 <exit>

00000000000124ca <_Z23tiled_matrix_add_scalarPsPKssmm>:
   124ca:	7139                	addi	sp,sp,-64
   124cc:	e852                	sd	s4,16(sp)
   124ce:	e456                	sd	s5,8(sp)
   124d0:	fc06                	sd	ra,56(sp)
   124d2:	8a36                	mv	s4,a3
   124d4:	8aba                	mv	s5,a4
   124d6:	c131                	beqz	a0,1251a <_Z23tiled_matrix_add_scalarPsPKssmm+0x50>
   124d8:	ce85                	beqz	a3,12510 <_Z23tiled_matrix_add_scalarPsPKssmm+0x46>
   124da:	f822                	sd	s0,48(sp)
   124dc:	f426                	sd	s1,40(sp)
   124de:	f04a                	sd	s2,32(sp)
   124e0:	ec4e                	sd	s3,24(sp)
   124e2:	e05a                	sd	s6,0(sp)
   124e4:	842a                	mv	s0,a0
   124e6:	8b32                	mv	s6,a2
   124e8:	84ae                	mv	s1,a1
   124ea:	00171993          	slli	s3,a4,0x1
   124ee:	4901                	li	s2,0
   124f0:	85a6                	mv	a1,s1
   124f2:	8522                	mv	a0,s0
   124f4:	86d6                	mv	a3,s5
   124f6:	865a                	mv	a2,s6
   124f8:	0905                	addi	s2,s2,1
   124fa:	f25ff0ef          	jal	1241e <_Z23tiled_vector_add_scalarPsPKssm>
   124fe:	944e                	add	s0,s0,s3
   12500:	94ce                	add	s1,s1,s3
   12502:	ff2a17e3          	bne	s4,s2,124f0 <_Z23tiled_matrix_add_scalarPsPKssmm+0x26>
   12506:	7442                	ld	s0,48(sp)
   12508:	74a2                	ld	s1,40(sp)
   1250a:	7902                	ld	s2,32(sp)
   1250c:	69e2                	ld	s3,24(sp)
   1250e:	6b02                	ld	s6,0(sp)
   12510:	70e2                	ld	ra,56(sp)
   12512:	6a42                	ld	s4,16(sp)
   12514:	6aa2                	ld	s5,8(sp)
   12516:	6121                	addi	sp,sp,64
   12518:	8082                	ret
   1251a:	00032537          	lui	a0,0x32
   1251e:	e9050513          	addi	a0,a0,-368 # 31e90 <__clzdi2+0xcbe>
   12522:	f822                	sd	s0,48(sp)
   12524:	f426                	sd	s1,40(sp)
   12526:	f04a                	sd	s2,32(sp)
   12528:	ec4e                	sd	s3,24(sp)
   1252a:	e05a                	sd	s6,0(sp)
   1252c:	08e150ef          	jal	275ba <puts>
   12530:	00032537          	lui	a0,0x32
   12534:	8656                	mv	a2,s5
   12536:	85d2                	mv	a1,s4
   12538:	cd050513          	addi	a0,a0,-816 # 31cd0 <__clzdi2+0xafe>
   1253c:	6a3140ef          	jal	273de <printf>
   12540:	557d                	li	a0,-1
   12542:	974fe0ef          	jal	106b6 <exit>

0000000000012546 <_Z21fit_vector_sub_scalarPsPKssm>:
   12546:	02000793          	li	a5,32
   1254a:	02d7e063          	bltu	a5,a3,1256a <_Z21fit_vector_sub_scalarPsPKssm+0x24>
   1254e:	872a                	mv	a4,a0
   12550:	8536                	mv	a0,a3
   12552:	1805200b          	.insn	4, 0x1805200b
   12556:	852e                	mv	a0,a1
   12558:	1005208b          	.insn	4, 0x1005208b
   1255c:	8532                	mv	a0,a2
   1255e:	0815210b          	.insn	4, 0x0815210b
   12562:	853a                	mv	a0,a4
   12564:	1235200b          	.insn	4, 0x1235200b
   12568:	8082                	ret
   1256a:	000326b7          	lui	a3,0x32
   1256e:	00032637          	lui	a2,0x32
   12572:	00032537          	lui	a0,0x32
   12576:	1141                	addi	sp,sp,-16
   12578:	b9068693          	addi	a3,a3,-1136 # 31b90 <__clzdi2+0x9be>
   1257c:	ee860613          	addi	a2,a2,-280 # 31ee8 <__clzdi2+0xd16>
   12580:	bf050513          	addi	a0,a0,-1040 # 31bf0 <__clzdi2+0xa1e>
   12584:	09500593          	li	a1,149
   12588:	e406                	sd	ra,8(sp)
   1258a:	458120ef          	jal	249e2 <__assert_func>

000000000001258e <_Z23tiled_vector_sub_scalarPsPKssm>:
   1258e:	c159                	beqz	a0,12614 <_Z23tiled_vector_sub_scalarPsPKssm+0x86>
   12590:	02000793          	li	a5,32
   12594:	832a                	mv	t1,a0
   12596:	06d7f263          	bgeu	a5,a3,125fa <_Z23tiled_vector_sub_scalarPsPKssm+0x6c>
   1259a:	01f6fe13          	andi	t3,a3,31
   1259e:	0056d893          	srli	a7,a3,0x5
   125a2:	882e                	mv	a6,a1
   125a4:	872a                	mv	a4,a0
   125a6:	4781                	li	a5,0
   125a8:	02000513          	li	a0,32
   125ac:	1805200b          	.insn	4, 0x1805200b
   125b0:	8542                	mv	a0,a6
   125b2:	1005208b          	.insn	4, 0x1005208b
   125b6:	8532                	mv	a0,a2
   125b8:	0815210b          	.insn	4, 0x0815210b
   125bc:	853a                	mv	a0,a4
   125be:	1235200b          	.insn	4, 0x1235200b
   125c2:	0785                	addi	a5,a5,1
   125c4:	04080813          	addi	a6,a6,64
   125c8:	04070713          	addi	a4,a4,64
   125cc:	fcf89ee3          	bne	a7,a5,125a8 <_Z23tiled_vector_sub_scalarPsPKssm+0x1a>
   125d0:	000e1363          	bnez	t3,125d6 <_Z23tiled_vector_sub_scalarPsPKssm+0x48>
   125d4:	8082                	ret
   125d6:	41c686b3          	sub	a3,a3,t3
   125da:	0686                	slli	a3,a3,0x1
   125dc:	8572                	mv	a0,t3
   125de:	1805200b          	.insn	4, 0x1805200b
   125e2:	00d58533          	add	a0,a1,a3
   125e6:	1005208b          	.insn	4, 0x1005208b
   125ea:	8532                	mv	a0,a2
   125ec:	0815210b          	.insn	4, 0x0815210b
   125f0:	00d30533          	add	a0,t1,a3
   125f4:	1235200b          	.insn	4, 0x1235200b
   125f8:	8082                	ret
   125fa:	8536                	mv	a0,a3
   125fc:	1805200b          	.insn	4, 0x1805200b
   12600:	852e                	mv	a0,a1
   12602:	1005208b          	.insn	4, 0x1005208b
   12606:	8532                	mv	a0,a2
   12608:	0815210b          	.insn	4, 0x0815210b
   1260c:	851a                	mv	a0,t1
   1260e:	1235200b          	.insn	4, 0x1235200b
   12612:	8082                	ret
   12614:	00032537          	lui	a0,0x32
   12618:	1101                	addi	sp,sp,-32
   1261a:	f3050513          	addi	a0,a0,-208 # 31f30 <__clzdi2+0xd5e>
   1261e:	ec06                	sd	ra,24(sp)
   12620:	e436                	sd	a3,8(sp)
   12622:	799140ef          	jal	275ba <puts>
   12626:	65a2                	ld	a1,8(sp)
   12628:	00032537          	lui	a0,0x32
   1262c:	c5850513          	addi	a0,a0,-936 # 31c58 <__clzdi2+0xa86>
   12630:	5af140ef          	jal	273de <printf>
   12634:	557d                	li	a0,-1
   12636:	880fe0ef          	jal	106b6 <exit>

000000000001263a <_Z23tiled_matrix_sub_scalarPsPKssmm>:
   1263a:	7139                	addi	sp,sp,-64
   1263c:	e852                	sd	s4,16(sp)
   1263e:	e456                	sd	s5,8(sp)
   12640:	fc06                	sd	ra,56(sp)
   12642:	8a36                	mv	s4,a3
   12644:	8aba                	mv	s5,a4
   12646:	c131                	beqz	a0,1268a <_Z23tiled_matrix_sub_scalarPsPKssmm+0x50>
   12648:	ce85                	beqz	a3,12680 <_Z23tiled_matrix_sub_scalarPsPKssmm+0x46>
   1264a:	f822                	sd	s0,48(sp)
   1264c:	f426                	sd	s1,40(sp)
   1264e:	f04a                	sd	s2,32(sp)
   12650:	ec4e                	sd	s3,24(sp)
   12652:	e05a                	sd	s6,0(sp)
   12654:	842a                	mv	s0,a0
   12656:	8b32                	mv	s6,a2
   12658:	84ae                	mv	s1,a1
   1265a:	00171993          	slli	s3,a4,0x1
   1265e:	4901                	li	s2,0
   12660:	85a6                	mv	a1,s1
   12662:	8522                	mv	a0,s0
   12664:	86d6                	mv	a3,s5
   12666:	865a                	mv	a2,s6
   12668:	0905                	addi	s2,s2,1
   1266a:	f25ff0ef          	jal	1258e <_Z23tiled_vector_sub_scalarPsPKssm>
   1266e:	944e                	add	s0,s0,s3
   12670:	94ce                	add	s1,s1,s3
   12672:	ff2a17e3          	bne	s4,s2,12660 <_Z23tiled_matrix_sub_scalarPsPKssmm+0x26>
   12676:	7442                	ld	s0,48(sp)
   12678:	74a2                	ld	s1,40(sp)
   1267a:	7902                	ld	s2,32(sp)
   1267c:	69e2                	ld	s3,24(sp)
   1267e:	6b02                	ld	s6,0(sp)
   12680:	70e2                	ld	ra,56(sp)
   12682:	6a42                	ld	s4,16(sp)
   12684:	6aa2                	ld	s5,8(sp)
   12686:	6121                	addi	sp,sp,64
   12688:	8082                	ret
   1268a:	00032537          	lui	a0,0x32
   1268e:	f8850513          	addi	a0,a0,-120 # 31f88 <__clzdi2+0xdb6>
   12692:	f822                	sd	s0,48(sp)
   12694:	f426                	sd	s1,40(sp)
   12696:	f04a                	sd	s2,32(sp)
   12698:	ec4e                	sd	s3,24(sp)
   1269a:	e05a                	sd	s6,0(sp)
   1269c:	71f140ef          	jal	275ba <puts>
   126a0:	00032537          	lui	a0,0x32
   126a4:	8656                	mv	a2,s5
   126a6:	85d2                	mv	a1,s4
   126a8:	cd050513          	addi	a0,a0,-816 # 31cd0 <__clzdi2+0xafe>
   126ac:	533140ef          	jal	273de <printf>
   126b0:	557d                	li	a0,-1
   126b2:	804fe0ef          	jal	106b6 <exit>

00000000000126b6 <_Z21fit_vector_mul_scalarPsPKssm>:
   126b6:	02000793          	li	a5,32
   126ba:	02d7e063          	bltu	a5,a3,126da <_Z21fit_vector_mul_scalarPsPKssm+0x24>
   126be:	872a                	mv	a4,a0
   126c0:	8536                	mv	a0,a3
   126c2:	1805200b          	.insn	4, 0x1805200b
   126c6:	852e                	mv	a0,a1
   126c8:	1005208b          	.insn	4, 0x1005208b
   126cc:	8532                	mv	a0,a2
   126ce:	0a15210b          	.insn	4, 0x0a15210b
   126d2:	853a                	mv	a0,a4
   126d4:	1235200b          	.insn	4, 0x1235200b
   126d8:	8082                	ret
   126da:	000326b7          	lui	a3,0x32
   126de:	00032637          	lui	a2,0x32
   126e2:	00032537          	lui	a0,0x32
   126e6:	1141                	addi	sp,sp,-16
   126e8:	b9068693          	addi	a3,a3,-1136 # 31b90 <__clzdi2+0x9be>
   126ec:	fe060613          	addi	a2,a2,-32 # 31fe0 <__clzdi2+0xe0e>
   126f0:	bf050513          	addi	a0,a0,-1040 # 31bf0 <__clzdi2+0xa1e>
   126f4:	0c400593          	li	a1,196
   126f8:	e406                	sd	ra,8(sp)
   126fa:	2e8120ef          	jal	249e2 <__assert_func>

00000000000126fe <_Z23tiled_vector_mul_scalarPsPKssm>:
   126fe:	c159                	beqz	a0,12784 <_Z23tiled_vector_mul_scalarPsPKssm+0x86>
   12700:	02000793          	li	a5,32
   12704:	832a                	mv	t1,a0
   12706:	06d7f263          	bgeu	a5,a3,1276a <_Z23tiled_vector_mul_scalarPsPKssm+0x6c>
   1270a:	01f6fe13          	andi	t3,a3,31
   1270e:	0056d893          	srli	a7,a3,0x5
   12712:	882e                	mv	a6,a1
   12714:	872a                	mv	a4,a0
   12716:	4781                	li	a5,0
   12718:	02000513          	li	a0,32
   1271c:	1805200b          	.insn	4, 0x1805200b
   12720:	8542                	mv	a0,a6
   12722:	1005208b          	.insn	4, 0x1005208b
   12726:	8532                	mv	a0,a2
   12728:	0a15210b          	.insn	4, 0x0a15210b
   1272c:	853a                	mv	a0,a4
   1272e:	1235200b          	.insn	4, 0x1235200b
   12732:	0785                	addi	a5,a5,1
   12734:	04080813          	addi	a6,a6,64
   12738:	04070713          	addi	a4,a4,64
   1273c:	fcf89ee3          	bne	a7,a5,12718 <_Z23tiled_vector_mul_scalarPsPKssm+0x1a>
   12740:	000e1363          	bnez	t3,12746 <_Z23tiled_vector_mul_scalarPsPKssm+0x48>
   12744:	8082                	ret
   12746:	41c686b3          	sub	a3,a3,t3
   1274a:	0686                	slli	a3,a3,0x1
   1274c:	8572                	mv	a0,t3
   1274e:	1805200b          	.insn	4, 0x1805200b
   12752:	00d58533          	add	a0,a1,a3
   12756:	1005208b          	.insn	4, 0x1005208b
   1275a:	8532                	mv	a0,a2
   1275c:	0a15210b          	.insn	4, 0x0a15210b
   12760:	00d30533          	add	a0,t1,a3
   12764:	1235200b          	.insn	4, 0x1235200b
   12768:	8082                	ret
   1276a:	8536                	mv	a0,a3
   1276c:	1805200b          	.insn	4, 0x1805200b
   12770:	852e                	mv	a0,a1
   12772:	1005208b          	.insn	4, 0x1005208b
   12776:	8532                	mv	a0,a2
   12778:	0a15210b          	.insn	4, 0x0a15210b
   1277c:	851a                	mv	a0,t1
   1277e:	1235200b          	.insn	4, 0x1235200b
   12782:	8082                	ret
   12784:	00032537          	lui	a0,0x32
   12788:	1101                	addi	sp,sp,-32
   1278a:	02850513          	addi	a0,a0,40 # 32028 <__clzdi2+0xe56>
   1278e:	ec06                	sd	ra,24(sp)
   12790:	e436                	sd	a3,8(sp)
   12792:	629140ef          	jal	275ba <puts>
   12796:	65a2                	ld	a1,8(sp)
   12798:	00032537          	lui	a0,0x32
   1279c:	c5850513          	addi	a0,a0,-936 # 31c58 <__clzdi2+0xa86>
   127a0:	43f140ef          	jal	273de <printf>
   127a4:	557d                	li	a0,-1
   127a6:	f11fd0ef          	jal	106b6 <exit>

00000000000127aa <_Z23tiled_matrix_mul_scalarPsPKssmm>:
   127aa:	7139                	addi	sp,sp,-64
   127ac:	e852                	sd	s4,16(sp)
   127ae:	e456                	sd	s5,8(sp)
   127b0:	fc06                	sd	ra,56(sp)
   127b2:	8a36                	mv	s4,a3
   127b4:	8aba                	mv	s5,a4
   127b6:	c131                	beqz	a0,127fa <_Z23tiled_matrix_mul_scalarPsPKssmm+0x50>
   127b8:	ce85                	beqz	a3,127f0 <_Z23tiled_matrix_mul_scalarPsPKssmm+0x46>
   127ba:	f822                	sd	s0,48(sp)
   127bc:	f426                	sd	s1,40(sp)
   127be:	f04a                	sd	s2,32(sp)
   127c0:	ec4e                	sd	s3,24(sp)
   127c2:	e05a                	sd	s6,0(sp)
   127c4:	842a                	mv	s0,a0
   127c6:	8b32                	mv	s6,a2
   127c8:	84ae                	mv	s1,a1
   127ca:	00171993          	slli	s3,a4,0x1
   127ce:	4901                	li	s2,0
   127d0:	85a6                	mv	a1,s1
   127d2:	8522                	mv	a0,s0
   127d4:	86d6                	mv	a3,s5
   127d6:	865a                	mv	a2,s6
   127d8:	0905                	addi	s2,s2,1
   127da:	f25ff0ef          	jal	126fe <_Z23tiled_vector_mul_scalarPsPKssm>
   127de:	944e                	add	s0,s0,s3
   127e0:	94ce                	add	s1,s1,s3
   127e2:	ff2a17e3          	bne	s4,s2,127d0 <_Z23tiled_matrix_mul_scalarPsPKssmm+0x26>
   127e6:	7442                	ld	s0,48(sp)
   127e8:	74a2                	ld	s1,40(sp)
   127ea:	7902                	ld	s2,32(sp)
   127ec:	69e2                	ld	s3,24(sp)
   127ee:	6b02                	ld	s6,0(sp)
   127f0:	70e2                	ld	ra,56(sp)
   127f2:	6a42                	ld	s4,16(sp)
   127f4:	6aa2                	ld	s5,8(sp)
   127f6:	6121                	addi	sp,sp,64
   127f8:	8082                	ret
   127fa:	00032537          	lui	a0,0x32
   127fe:	08050513          	addi	a0,a0,128 # 32080 <__clzdi2+0xeae>
   12802:	f822                	sd	s0,48(sp)
   12804:	f426                	sd	s1,40(sp)
   12806:	f04a                	sd	s2,32(sp)
   12808:	ec4e                	sd	s3,24(sp)
   1280a:	e05a                	sd	s6,0(sp)
   1280c:	5af140ef          	jal	275ba <puts>
   12810:	00032537          	lui	a0,0x32
   12814:	8656                	mv	a2,s5
   12816:	85d2                	mv	a1,s4
   12818:	cd050513          	addi	a0,a0,-816 # 31cd0 <__clzdi2+0xafe>
   1281c:	3c3140ef          	jal	273de <printf>
   12820:	557d                	li	a0,-1
   12822:	e95fd0ef          	jal	106b6 <exit>

0000000000012826 <_Z21fit_vector_div_scalarPsPKssm>:
   12826:	02000793          	li	a5,32
   1282a:	02d7e063          	bltu	a5,a3,1284a <_Z21fit_vector_div_scalarPsPKssm+0x24>
   1282e:	872a                	mv	a4,a0
   12830:	8536                	mv	a0,a3
   12832:	1805200b          	.insn	4, 0x1805200b
   12836:	852e                	mv	a0,a1
   12838:	1005208b          	.insn	4, 0x1005208b
   1283c:	8532                	mv	a0,a2
   1283e:	0c15210b          	.insn	4, 0x0c15210b
   12842:	853a                	mv	a0,a4
   12844:	1235200b          	.insn	4, 0x1235200b
   12848:	8082                	ret
   1284a:	000326b7          	lui	a3,0x32
   1284e:	00032637          	lui	a2,0x32
   12852:	00032537          	lui	a0,0x32
   12856:	1141                	addi	sp,sp,-16
   12858:	b9068693          	addi	a3,a3,-1136 # 31b90 <__clzdi2+0x9be>
   1285c:	0d860613          	addi	a2,a2,216 # 320d8 <__clzdi2+0xf06>
   12860:	bf050513          	addi	a0,a0,-1040 # 31bf0 <__clzdi2+0xa1e>
   12864:	0f300593          	li	a1,243
   12868:	e406                	sd	ra,8(sp)
   1286a:	178120ef          	jal	249e2 <__assert_func>

000000000001286e <_Z23tiled_vector_div_scalarPsPKssm>:
   1286e:	c159                	beqz	a0,128f4 <_Z23tiled_vector_div_scalarPsPKssm+0x86>
   12870:	02000793          	li	a5,32
   12874:	832a                	mv	t1,a0
   12876:	06d7f263          	bgeu	a5,a3,128da <_Z23tiled_vector_div_scalarPsPKssm+0x6c>
   1287a:	01f6fe13          	andi	t3,a3,31
   1287e:	0056d893          	srli	a7,a3,0x5
   12882:	882e                	mv	a6,a1
   12884:	872a                	mv	a4,a0
   12886:	4781                	li	a5,0
   12888:	02000513          	li	a0,32
   1288c:	1805200b          	.insn	4, 0x1805200b
   12890:	8542                	mv	a0,a6
   12892:	1005208b          	.insn	4, 0x1005208b
   12896:	8532                	mv	a0,a2
   12898:	0c15210b          	.insn	4, 0x0c15210b
   1289c:	853a                	mv	a0,a4
   1289e:	1235200b          	.insn	4, 0x1235200b
   128a2:	0785                	addi	a5,a5,1
   128a4:	04080813          	addi	a6,a6,64
   128a8:	04070713          	addi	a4,a4,64
   128ac:	fcf89ee3          	bne	a7,a5,12888 <_Z23tiled_vector_div_scalarPsPKssm+0x1a>
   128b0:	000e1363          	bnez	t3,128b6 <_Z23tiled_vector_div_scalarPsPKssm+0x48>
   128b4:	8082                	ret
   128b6:	41c686b3          	sub	a3,a3,t3
   128ba:	0686                	slli	a3,a3,0x1
   128bc:	8572                	mv	a0,t3
   128be:	1805200b          	.insn	4, 0x1805200b
   128c2:	00d58533          	add	a0,a1,a3
   128c6:	1005208b          	.insn	4, 0x1005208b
   128ca:	8532                	mv	a0,a2
   128cc:	0c15210b          	.insn	4, 0x0c15210b
   128d0:	00d30533          	add	a0,t1,a3
   128d4:	1235200b          	.insn	4, 0x1235200b
   128d8:	8082                	ret
   128da:	8536                	mv	a0,a3
   128dc:	1805200b          	.insn	4, 0x1805200b
   128e0:	852e                	mv	a0,a1
   128e2:	1005208b          	.insn	4, 0x1005208b
   128e6:	8532                	mv	a0,a2
   128e8:	0c15210b          	.insn	4, 0x0c15210b
   128ec:	851a                	mv	a0,t1
   128ee:	1235200b          	.insn	4, 0x1235200b
   128f2:	8082                	ret
   128f4:	00032537          	lui	a0,0x32
   128f8:	1101                	addi	sp,sp,-32
   128fa:	12050513          	addi	a0,a0,288 # 32120 <__clzdi2+0xf4e>
   128fe:	ec06                	sd	ra,24(sp)
   12900:	e436                	sd	a3,8(sp)
   12902:	4b9140ef          	jal	275ba <puts>
   12906:	65a2                	ld	a1,8(sp)
   12908:	00032537          	lui	a0,0x32
   1290c:	c5850513          	addi	a0,a0,-936 # 31c58 <__clzdi2+0xa86>
   12910:	2cf140ef          	jal	273de <printf>
   12914:	557d                	li	a0,-1
   12916:	da1fd0ef          	jal	106b6 <exit>

000000000001291a <_Z23tiled_matrix_div_scalarPsPKssmm>:
   1291a:	7139                	addi	sp,sp,-64
   1291c:	e852                	sd	s4,16(sp)
   1291e:	e456                	sd	s5,8(sp)
   12920:	fc06                	sd	ra,56(sp)
   12922:	8a36                	mv	s4,a3
   12924:	8aba                	mv	s5,a4
   12926:	c131                	beqz	a0,1296a <_Z23tiled_matrix_div_scalarPsPKssmm+0x50>
   12928:	ce85                	beqz	a3,12960 <_Z23tiled_matrix_div_scalarPsPKssmm+0x46>
   1292a:	f822                	sd	s0,48(sp)
   1292c:	f426                	sd	s1,40(sp)
   1292e:	f04a                	sd	s2,32(sp)
   12930:	ec4e                	sd	s3,24(sp)
   12932:	e05a                	sd	s6,0(sp)
   12934:	842a                	mv	s0,a0
   12936:	8b32                	mv	s6,a2
   12938:	84ae                	mv	s1,a1
   1293a:	00171993          	slli	s3,a4,0x1
   1293e:	4901                	li	s2,0
   12940:	85a6                	mv	a1,s1
   12942:	8522                	mv	a0,s0
   12944:	86d6                	mv	a3,s5
   12946:	865a                	mv	a2,s6
   12948:	0905                	addi	s2,s2,1
   1294a:	f25ff0ef          	jal	1286e <_Z23tiled_vector_div_scalarPsPKssm>
   1294e:	944e                	add	s0,s0,s3
   12950:	94ce                	add	s1,s1,s3
   12952:	ff2a17e3          	bne	s4,s2,12940 <_Z23tiled_matrix_div_scalarPsPKssmm+0x26>
   12956:	7442                	ld	s0,48(sp)
   12958:	74a2                	ld	s1,40(sp)
   1295a:	7902                	ld	s2,32(sp)
   1295c:	69e2                	ld	s3,24(sp)
   1295e:	6b02                	ld	s6,0(sp)
   12960:	70e2                	ld	ra,56(sp)
   12962:	6a42                	ld	s4,16(sp)
   12964:	6aa2                	ld	s5,8(sp)
   12966:	6121                	addi	sp,sp,64
   12968:	8082                	ret
   1296a:	00032537          	lui	a0,0x32
   1296e:	17850513          	addi	a0,a0,376 # 32178 <__clzdi2+0xfa6>
   12972:	f822                	sd	s0,48(sp)
   12974:	f426                	sd	s1,40(sp)
   12976:	f04a                	sd	s2,32(sp)
   12978:	ec4e                	sd	s3,24(sp)
   1297a:	e05a                	sd	s6,0(sp)
   1297c:	43f140ef          	jal	275ba <puts>
   12980:	00032537          	lui	a0,0x32
   12984:	8656                	mv	a2,s5
   12986:	85d2                	mv	a1,s4
   12988:	cd050513          	addi	a0,a0,-816 # 31cd0 <__clzdi2+0xafe>
   1298c:	253140ef          	jal	273de <printf>
   12990:	557d                	li	a0,-1
   12992:	d25fd0ef          	jal	106b6 <exit>

0000000000012996 <_Z14fit_vector_maxPsPKsm>:
   12996:	02000793          	li	a5,32
   1299a:	00c7ee63          	bltu	a5,a2,129b6 <_Z14fit_vector_maxPsPKsm+0x20>
   1299e:	872a                	mv	a4,a0
   129a0:	8532                	mv	a0,a2
   129a2:	1805200b          	.insn	4, 0x1805200b
   129a6:	852e                	mv	a0,a1
   129a8:	1005208b          	.insn	4, 0x1005208b
   129ac:	1600c50b          	.insn	4, 0x1600c50b
   129b0:	00a71023          	sh	a0,0(a4)
   129b4:	8082                	ret
   129b6:	000326b7          	lui	a3,0x32
   129ba:	00032637          	lui	a2,0x32
   129be:	00032537          	lui	a0,0x32
   129c2:	1141                	addi	sp,sp,-16
   129c4:	b9068693          	addi	a3,a3,-1136 # 31b90 <__clzdi2+0x9be>
   129c8:	1d060613          	addi	a2,a2,464 # 321d0 <__clzdi2+0xffe>
   129cc:	20850513          	addi	a0,a0,520 # 32208 <__clzdi2+0x1036>
   129d0:	4599                	li	a1,6
   129d2:	e406                	sd	ra,8(sp)
   129d4:	00e120ef          	jal	249e2 <__assert_func>

00000000000129d8 <_Z16tiled_vector_maxPsPKsm>:
   129d8:	c14d                	beqz	a0,12a7a <_Z16tiled_vector_maxPsPKsm+0xa2>
   129da:	02000793          	li	a5,32
   129de:	8e2a                	mv	t3,a0
   129e0:	06c7fe63          	bgeu	a5,a2,12a5c <_Z16tiled_vector_maxPsPKsm+0x84>
   129e4:	01f67e93          	andi	t4,a2,31
   129e8:	00565313          	srli	t1,a2,0x5
   129ec:	882e                	mv	a6,a1
   129ee:	7761                	lui	a4,0xffff8
   129f0:	4681                	li	a3,0
   129f2:	02000513          	li	a0,32
   129f6:	1805200b          	.insn	4, 0x1805200b
   129fa:	8542                	mv	a0,a6
   129fc:	1005208b          	.insn	4, 0x1005208b
   12a00:	1600c50b          	.insn	4, 0x1600c50b
   12a04:	0105189b          	slliw	a7,a0,0x10
   12a08:	4108d89b          	sraiw	a7,a7,0x10
   12a0c:	87aa                	mv	a5,a0
   12a0e:	00e8d363          	bge	a7,a4,12a14 <_Z16tiled_vector_maxPsPKsm+0x3c>
   12a12:	87ba                	mv	a5,a4
   12a14:	0107971b          	slliw	a4,a5,0x10
   12a18:	0685                	addi	a3,a3,1
   12a1a:	04080813          	addi	a6,a6,64
   12a1e:	4107571b          	sraiw	a4,a4,0x10
   12a22:	fcd318e3          	bne	t1,a3,129f2 <_Z16tiled_vector_maxPsPKsm+0x1a>
   12a26:	000e9563          	bnez	t4,12a30 <_Z16tiled_vector_maxPsPKsm+0x58>
   12a2a:	00ee1023          	sh	a4,0(t3)
   12a2e:	8082                	ret
   12a30:	41d60633          	sub	a2,a2,t4
   12a34:	0606                	slli	a2,a2,0x1
   12a36:	8576                	mv	a0,t4
   12a38:	1805200b          	.insn	4, 0x1805200b
   12a3c:	00c58533          	add	a0,a1,a2
   12a40:	1005208b          	.insn	4, 0x1005208b
   12a44:	1600c50b          	.insn	4, 0x1600c50b
   12a48:	0105169b          	slliw	a3,a0,0x10
   12a4c:	4106d69b          	sraiw	a3,a3,0x10
   12a50:	02e6c263          	blt	a3,a4,12a74 <_Z16tiled_vector_maxPsPKsm+0x9c>
   12a54:	872a                	mv	a4,a0
   12a56:	00ee1023          	sh	a4,0(t3)
   12a5a:	8082                	ret
   12a5c:	8532                	mv	a0,a2
   12a5e:	1805200b          	.insn	4, 0x1805200b
   12a62:	852e                	mv	a0,a1
   12a64:	1005208b          	.insn	4, 0x1005208b
   12a68:	1600c50b          	.insn	4, 0x1600c50b
   12a6c:	872a                	mv	a4,a0
   12a6e:	00ee1023          	sh	a4,0(t3)
   12a72:	8082                	ret
   12a74:	853e                	mv	a0,a5
   12a76:	872a                	mv	a4,a0
   12a78:	bff9                	j	12a56 <_Z16tiled_vector_maxPsPKsm+0x7e>
   12a7a:	00032537          	lui	a0,0x32
   12a7e:	1141                	addi	sp,sp,-16
   12a80:	22050513          	addi	a0,a0,544 # 32220 <__clzdi2+0x104e>
   12a84:	e406                	sd	ra,8(sp)
   12a86:	335140ef          	jal	275ba <puts>
   12a8a:	00032537          	lui	a0,0x32
   12a8e:	97050513          	addi	a0,a0,-1680 # 31970 <__clzdi2+0x79e>
   12a92:	329140ef          	jal	275ba <puts>
   12a96:	557d                	li	a0,-1
   12a98:	c1ffd0ef          	jal	106b6 <exit>

0000000000012a9c <_Z23tiled_matrix_vector_maxPsPKsmm>:
   12a9c:	7139                	addi	sp,sp,-64
   12a9e:	ec4e                	sd	s3,24(sp)
   12aa0:	fc06                	sd	ra,56(sp)
   12aa2:	89b2                	mv	s3,a2
   12aa4:	c121                	beqz	a0,12ae4 <_Z23tiled_matrix_vector_maxPsPKsmm+0x48>
   12aa6:	ca1d                	beqz	a2,12adc <_Z23tiled_matrix_vector_maxPsPKsmm+0x40>
   12aa8:	f822                	sd	s0,48(sp)
   12aaa:	f426                	sd	s1,40(sp)
   12aac:	f04a                	sd	s2,32(sp)
   12aae:	e852                	sd	s4,16(sp)
   12ab0:	e456                	sd	s5,8(sp)
   12ab2:	8a36                	mv	s4,a3
   12ab4:	842a                	mv	s0,a0
   12ab6:	84ae                	mv	s1,a1
   12ab8:	00169a93          	slli	s5,a3,0x1
   12abc:	4901                	li	s2,0
   12abe:	85a6                	mv	a1,s1
   12ac0:	8522                	mv	a0,s0
   12ac2:	8652                	mv	a2,s4
   12ac4:	0905                	addi	s2,s2,1
   12ac6:	f13ff0ef          	jal	129d8 <_Z16tiled_vector_maxPsPKsm>
   12aca:	0409                	addi	s0,s0,2
   12acc:	94d6                	add	s1,s1,s5
   12ace:	ff2998e3          	bne	s3,s2,12abe <_Z23tiled_matrix_vector_maxPsPKsmm+0x22>
   12ad2:	7442                	ld	s0,48(sp)
   12ad4:	74a2                	ld	s1,40(sp)
   12ad6:	7902                	ld	s2,32(sp)
   12ad8:	6a42                	ld	s4,16(sp)
   12ada:	6aa2                	ld	s5,8(sp)
   12adc:	70e2                	ld	ra,56(sp)
   12ade:	69e2                	ld	s3,24(sp)
   12ae0:	6121                	addi	sp,sp,64
   12ae2:	8082                	ret
   12ae4:	00032537          	lui	a0,0x32
   12ae8:	27050513          	addi	a0,a0,624 # 32270 <__clzdi2+0x109e>
   12aec:	f822                	sd	s0,48(sp)
   12aee:	f426                	sd	s1,40(sp)
   12af0:	f04a                	sd	s2,32(sp)
   12af2:	e852                	sd	s4,16(sp)
   12af4:	e456                	sd	s5,8(sp)
   12af6:	2c5140ef          	jal	275ba <puts>
   12afa:	00032537          	lui	a0,0x32
   12afe:	85ce                	mv	a1,s3
   12b00:	2c850513          	addi	a0,a0,712 # 322c8 <__clzdi2+0x10f6>
   12b04:	0db140ef          	jal	273de <printf>
   12b08:	557d                	li	a0,-1
   12b0a:	badfd0ef          	jal	106b6 <exit>

0000000000012b0e <_Z14fit_vector_minPsPKsm>:
   12b0e:	02000793          	li	a5,32
   12b12:	00c7ee63          	bltu	a5,a2,12b2e <_Z14fit_vector_minPsPKsm+0x20>
   12b16:	872a                	mv	a4,a0
   12b18:	8532                	mv	a0,a2
   12b1a:	1805200b          	.insn	4, 0x1805200b
   12b1e:	852e                	mv	a0,a1
   12b20:	1005208b          	.insn	4, 0x1005208b
   12b24:	1610c50b          	.insn	4, 0x1610c50b
   12b28:	00a71023          	sh	a0,0(a4) # ffffffffffff8000 <__BSS_END__+0xfffffffffff6d0d8>
   12b2c:	8082                	ret
   12b2e:	000326b7          	lui	a3,0x32
   12b32:	00032637          	lui	a2,0x32
   12b36:	00032537          	lui	a0,0x32
   12b3a:	1141                	addi	sp,sp,-16
   12b3c:	b9068693          	addi	a3,a3,-1136 # 31b90 <__clzdi2+0x9be>
   12b40:	2e860613          	addi	a2,a2,744 # 322e8 <__clzdi2+0x1116>
   12b44:	20850513          	addi	a0,a0,520 # 32208 <__clzdi2+0x1036>
   12b48:	03400593          	li	a1,52
   12b4c:	e406                	sd	ra,8(sp)
   12b4e:	695110ef          	jal	249e2 <__assert_func>

0000000000012b52 <_Z16tiled_vector_minPsPKsm>:
   12b52:	c155                	beqz	a0,12bf6 <_Z16tiled_vector_minPsPKsm+0xa4>
   12b54:	02000793          	li	a5,32
   12b58:	8e2a                	mv	t3,a0
   12b5a:	06c7ff63          	bgeu	a5,a2,12bd8 <_Z16tiled_vector_minPsPKsm+0x86>
   12b5e:	6721                	lui	a4,0x8
   12b60:	177d                	addi	a4,a4,-1 # 7fff <__cxa_bad_cast-0x8121>
   12b62:	01f67e93          	andi	t4,a2,31
   12b66:	00565313          	srli	t1,a2,0x5
   12b6a:	882e                	mv	a6,a1
   12b6c:	4681                	li	a3,0
   12b6e:	02000513          	li	a0,32
   12b72:	1805200b          	.insn	4, 0x1805200b
   12b76:	8542                	mv	a0,a6
   12b78:	1005208b          	.insn	4, 0x1005208b
   12b7c:	1610c50b          	.insn	4, 0x1610c50b
   12b80:	0105189b          	slliw	a7,a0,0x10
   12b84:	4108d89b          	sraiw	a7,a7,0x10
   12b88:	87aa                	mv	a5,a0
   12b8a:	01175363          	bge	a4,a7,12b90 <_Z16tiled_vector_minPsPKsm+0x3e>
   12b8e:	87ba                	mv	a5,a4
   12b90:	0107971b          	slliw	a4,a5,0x10
   12b94:	0685                	addi	a3,a3,1
   12b96:	04080813          	addi	a6,a6,64
   12b9a:	4107571b          	sraiw	a4,a4,0x10
   12b9e:	fcd318e3          	bne	t1,a3,12b6e <_Z16tiled_vector_minPsPKsm+0x1c>
   12ba2:	000e9563          	bnez	t4,12bac <_Z16tiled_vector_minPsPKsm+0x5a>
   12ba6:	00ee1023          	sh	a4,0(t3)
   12baa:	8082                	ret
   12bac:	41d60633          	sub	a2,a2,t4
   12bb0:	0606                	slli	a2,a2,0x1
   12bb2:	8576                	mv	a0,t4
   12bb4:	1805200b          	.insn	4, 0x1805200b
   12bb8:	00c58533          	add	a0,a1,a2
   12bbc:	1005208b          	.insn	4, 0x1005208b
   12bc0:	1610c50b          	.insn	4, 0x1610c50b
   12bc4:	0105169b          	slliw	a3,a0,0x10
   12bc8:	4106d69b          	sraiw	a3,a3,0x10
   12bcc:	02d74263          	blt	a4,a3,12bf0 <_Z16tiled_vector_minPsPKsm+0x9e>
   12bd0:	872a                	mv	a4,a0
   12bd2:	00ee1023          	sh	a4,0(t3)
   12bd6:	8082                	ret
   12bd8:	8532                	mv	a0,a2
   12bda:	1805200b          	.insn	4, 0x1805200b
   12bde:	852e                	mv	a0,a1
   12be0:	1005208b          	.insn	4, 0x1005208b
   12be4:	1610c50b          	.insn	4, 0x1610c50b
   12be8:	872a                	mv	a4,a0
   12bea:	00ee1023          	sh	a4,0(t3)
   12bee:	8082                	ret
   12bf0:	853e                	mv	a0,a5
   12bf2:	872a                	mv	a4,a0
   12bf4:	bff9                	j	12bd2 <_Z16tiled_vector_minPsPKsm+0x80>
   12bf6:	00032537          	lui	a0,0x32
   12bfa:	1141                	addi	sp,sp,-16
   12bfc:	32050513          	addi	a0,a0,800 # 32320 <__clzdi2+0x114e>
   12c00:	e406                	sd	ra,8(sp)
   12c02:	1b9140ef          	jal	275ba <puts>
   12c06:	00032537          	lui	a0,0x32
   12c0a:	97050513          	addi	a0,a0,-1680 # 31970 <__clzdi2+0x79e>
   12c0e:	1ad140ef          	jal	275ba <puts>
   12c12:	557d                	li	a0,-1
   12c14:	aa3fd0ef          	jal	106b6 <exit>

0000000000012c18 <_Z23tiled_matrix_vector_minPsPKsmm>:
   12c18:	7139                	addi	sp,sp,-64
   12c1a:	ec4e                	sd	s3,24(sp)
   12c1c:	fc06                	sd	ra,56(sp)
   12c1e:	89b2                	mv	s3,a2
   12c20:	c121                	beqz	a0,12c60 <_Z23tiled_matrix_vector_minPsPKsmm+0x48>
   12c22:	ca1d                	beqz	a2,12c58 <_Z23tiled_matrix_vector_minPsPKsmm+0x40>
   12c24:	f822                	sd	s0,48(sp)
   12c26:	f426                	sd	s1,40(sp)
   12c28:	f04a                	sd	s2,32(sp)
   12c2a:	e852                	sd	s4,16(sp)
   12c2c:	e456                	sd	s5,8(sp)
   12c2e:	8a36                	mv	s4,a3
   12c30:	842a                	mv	s0,a0
   12c32:	84ae                	mv	s1,a1
   12c34:	00169a93          	slli	s5,a3,0x1
   12c38:	4901                	li	s2,0
   12c3a:	85a6                	mv	a1,s1
   12c3c:	8522                	mv	a0,s0
   12c3e:	8652                	mv	a2,s4
   12c40:	0905                	addi	s2,s2,1
   12c42:	f11ff0ef          	jal	12b52 <_Z16tiled_vector_minPsPKsm>
   12c46:	0409                	addi	s0,s0,2
   12c48:	94d6                	add	s1,s1,s5
   12c4a:	ff2998e3          	bne	s3,s2,12c3a <_Z23tiled_matrix_vector_minPsPKsmm+0x22>
   12c4e:	7442                	ld	s0,48(sp)
   12c50:	74a2                	ld	s1,40(sp)
   12c52:	7902                	ld	s2,32(sp)
   12c54:	6a42                	ld	s4,16(sp)
   12c56:	6aa2                	ld	s5,8(sp)
   12c58:	70e2                	ld	ra,56(sp)
   12c5a:	69e2                	ld	s3,24(sp)
   12c5c:	6121                	addi	sp,sp,64
   12c5e:	8082                	ret
   12c60:	00032537          	lui	a0,0x32
   12c64:	37050513          	addi	a0,a0,880 # 32370 <__clzdi2+0x119e>
   12c68:	f822                	sd	s0,48(sp)
   12c6a:	f426                	sd	s1,40(sp)
   12c6c:	f04a                	sd	s2,32(sp)
   12c6e:	e852                	sd	s4,16(sp)
   12c70:	e456                	sd	s5,8(sp)
   12c72:	149140ef          	jal	275ba <puts>
   12c76:	00032537          	lui	a0,0x32
   12c7a:	85ce                	mv	a1,s3
   12c7c:	2c850513          	addi	a0,a0,712 # 322c8 <__clzdi2+0x10f6>
   12c80:	75e140ef          	jal	273de <printf>
   12c84:	557d                	li	a0,-1
   12c86:	a31fd0ef          	jal	106b6 <exit>

0000000000012c8a <_Z18fit_vector_dropoutPsPKssm>:
   12c8a:	02000793          	li	a5,32
   12c8e:	02d7e163          	bltu	a5,a3,12cb0 <_Z18fit_vector_dropoutPsPKssm+0x26>
   12c92:	852e                	mv	a0,a1
   12c94:	1005258b          	.insn	4, 0x1005258b
   12c98:	8536                	mv	a0,a3
   12c9a:	1805200b          	.insn	4, 0x1805200b
   12c9e:	45ad                	li	a1,11
   12ca0:	18c5b08b          	.insn	4, 0x18c5b08b
   12ca4:	0205858b          	.insn	4, 0x0205858b
   12ca8:	567d                	li	a2,-1
   12caa:	18c5b08b          	.insn	4, 0x18c5b08b
   12cae:	8082                	ret
   12cb0:	000326b7          	lui	a3,0x32
   12cb4:	00032637          	lui	a2,0x32
   12cb8:	00032537          	lui	a0,0x32
   12cbc:	1141                	addi	sp,sp,-16
   12cbe:	b9068693          	addi	a3,a3,-1136 # 31b90 <__clzdi2+0x9be>
   12cc2:	3c860613          	addi	a2,a2,968 # 323c8 <__clzdi2+0x11f6>
   12cc6:	20850513          	addi	a0,a0,520 # 32208 <__clzdi2+0x1036>
   12cca:	06200593          	li	a1,98
   12cce:	e406                	sd	ra,8(sp)
   12cd0:	513110ef          	jal	249e2 <__assert_func>

0000000000012cd4 <_Z13vector_argmaxPsPKsm>:
   12cd4:	7139                	addi	sp,sp,-64
   12cd6:	f426                	sd	s1,40(sp)
   12cd8:	84aa                	mv	s1,a0
   12cda:	01e10513          	addi	a0,sp,30
   12cde:	f822                	sd	s0,48(sp)
   12ce0:	e432                	sd	a2,8(sp)
   12ce2:	fc06                	sd	ra,56(sp)
   12ce4:	842e                	mv	s0,a1
   12ce6:	cf3ff0ef          	jal	129d8 <_Z16tiled_vector_maxPsPKsm>
   12cea:	6622                	ld	a2,8(sp)
   12cec:	c60d                	beqz	a2,12d16 <_Z13vector_argmaxPsPKsm+0x42>
   12cee:	01e11683          	lh	a3,30(sp)
   12cf2:	85a2                	mv	a1,s0
   12cf4:	4781                	li	a5,0
   12cf6:	a021                	j	12cfe <_Z13vector_argmaxPsPKsm+0x2a>
   12cf8:	0785                	addi	a5,a5,1
   12cfa:	00f60763          	beq	a2,a5,12d08 <_Z13vector_argmaxPsPKsm+0x34>
   12cfe:	00059703          	lh	a4,0(a1)
   12d02:	0589                	addi	a1,a1,2
   12d04:	fed71ae3          	bne	a4,a3,12cf8 <_Z13vector_argmaxPsPKsm+0x24>
   12d08:	70e2                	ld	ra,56(sp)
   12d0a:	7442                	ld	s0,48(sp)
   12d0c:	00f49023          	sh	a5,0(s1)
   12d10:	74a2                	ld	s1,40(sp)
   12d12:	6121                	addi	sp,sp,64
   12d14:	8082                	ret
   12d16:	4781                	li	a5,0
   12d18:	bfc5                	j	12d08 <_Z13vector_argmaxPsPKsm+0x34>

0000000000012d1a <_Z20matrix_vector_argmaxPsPKsmm>:
   12d1a:	715d                	addi	sp,sp,-80
   12d1c:	f052                	sd	s4,32(sp)
   12d1e:	e486                	sd	ra,72(sp)
   12d20:	8a32                	mv	s4,a2
   12d22:	c935                	beqz	a0,12d96 <_Z20matrix_vector_argmaxPsPKsmm+0x7c>
   12d24:	ce21                	beqz	a2,12d7c <_Z20matrix_vector_argmaxPsPKsmm+0x62>
   12d26:	e0a2                	sd	s0,64(sp)
   12d28:	fc26                	sd	s1,56(sp)
   12d2a:	f84a                	sd	s2,48(sp)
   12d2c:	f44e                	sd	s3,40(sp)
   12d2e:	ec56                	sd	s5,24(sp)
   12d30:	8436                	mv	s0,a3
   12d32:	84ae                	mv	s1,a1
   12d34:	892a                	mv	s2,a0
   12d36:	00169a93          	slli	s5,a3,0x1
   12d3a:	4981                	li	s3,0
   12d3c:	8622                	mv	a2,s0
   12d3e:	85a6                	mv	a1,s1
   12d40:	00e10513          	addi	a0,sp,14
   12d44:	c95ff0ef          	jal	129d8 <_Z16tiled_vector_maxPsPKsm>
   12d48:	cc15                	beqz	s0,12d84 <_Z20matrix_vector_argmaxPsPKsmm+0x6a>
   12d4a:	00e11683          	lh	a3,14(sp)
   12d4e:	8726                	mv	a4,s1
   12d50:	4781                	li	a5,0
   12d52:	a029                	j	12d5c <_Z20matrix_vector_argmaxPsPKsmm+0x42>
   12d54:	0785                	addi	a5,a5,1
   12d56:	0709                	addi	a4,a4,2
   12d58:	00f40663          	beq	s0,a5,12d64 <_Z20matrix_vector_argmaxPsPKsmm+0x4a>
   12d5c:	00071803          	lh	a6,0(a4)
   12d60:	fed81ae3          	bne	a6,a3,12d54 <_Z20matrix_vector_argmaxPsPKsmm+0x3a>
   12d64:	00f91023          	sh	a5,0(s2)
   12d68:	0985                	addi	s3,s3,1
   12d6a:	94d6                	add	s1,s1,s5
   12d6c:	0909                	addi	s2,s2,2
   12d6e:	fd3a17e3          	bne	s4,s3,12d3c <_Z20matrix_vector_argmaxPsPKsmm+0x22>
   12d72:	6406                	ld	s0,64(sp)
   12d74:	74e2                	ld	s1,56(sp)
   12d76:	7942                	ld	s2,48(sp)
   12d78:	79a2                	ld	s3,40(sp)
   12d7a:	6ae2                	ld	s5,24(sp)
   12d7c:	60a6                	ld	ra,72(sp)
   12d7e:	7a02                	ld	s4,32(sp)
   12d80:	6161                	addi	sp,sp,80
   12d82:	8082                	ret
   12d84:	4781                	li	a5,0
   12d86:	00f91023          	sh	a5,0(s2)
   12d8a:	0985                	addi	s3,s3,1
   12d8c:	94d6                	add	s1,s1,s5
   12d8e:	0909                	addi	s2,s2,2
   12d90:	fb3a16e3          	bne	s4,s3,12d3c <_Z20matrix_vector_argmaxPsPKsmm+0x22>
   12d94:	bff9                	j	12d72 <_Z20matrix_vector_argmaxPsPKsmm+0x58>
   12d96:	00032537          	lui	a0,0x32
   12d9a:	40850513          	addi	a0,a0,1032 # 32408 <__clzdi2+0x1236>
   12d9e:	e0a2                	sd	s0,64(sp)
   12da0:	fc26                	sd	s1,56(sp)
   12da2:	f84a                	sd	s2,48(sp)
   12da4:	f44e                	sd	s3,40(sp)
   12da6:	ec56                	sd	s5,24(sp)
   12da8:	013140ef          	jal	275ba <puts>
   12dac:	00032537          	lui	a0,0x32
   12db0:	85d2                	mv	a1,s4
   12db2:	2c850513          	addi	a0,a0,712 # 322c8 <__clzdi2+0x10f6>
   12db6:	628140ef          	jal	273de <printf>
   12dba:	557d                	li	a0,-1
   12dbc:	8fbfd0ef          	jal	106b6 <exit>

0000000000012dc0 <_Z12vector_shiftPsmm11direction_t>:
   12dc0:	c215                	beqz	a2,12de4 <_Z12vector_shiftPsmm11direction_t+0x24>
   12dc2:	c121                	beqz	a0,12e02 <_Z12vector_shiftPsmm11direction_t+0x42>
   12dc4:	4785                	li	a5,1
   12dc6:	02f68063          	beq	a3,a5,12de6 <_Z12vector_shiftPsmm11direction_t+0x26>
   12dca:	00159713          	slli	a4,a1,0x1
   12dce:	972a                	add	a4,a4,a0
   12dd0:	c985                	beqz	a1,12e00 <_Z12vector_shiftPsmm11direction_t+0x40>
   12dd2:	00051783          	lh	a5,0(a0)
   12dd6:	0509                	addi	a0,a0,2
   12dd8:	00c797bb          	sllw	a5,a5,a2
   12ddc:	fef51f23          	sh	a5,-2(a0)
   12de0:	fea719e3          	bne	a4,a0,12dd2 <_Z12vector_shiftPsmm11direction_t+0x12>
   12de4:	8082                	ret
   12de6:	ddfd                	beqz	a1,12de4 <_Z12vector_shiftPsmm11direction_t+0x24>
   12de8:	0586                	slli	a1,a1,0x1
   12dea:	95aa                	add	a1,a1,a0
   12dec:	00051783          	lh	a5,0(a0)
   12df0:	0509                	addi	a0,a0,2
   12df2:	40c7d7bb          	sraw	a5,a5,a2
   12df6:	fef51f23          	sh	a5,-2(a0)
   12dfa:	fea599e3          	bne	a1,a0,12dec <_Z12vector_shiftPsmm11direction_t+0x2c>
   12dfe:	8082                	ret
   12e00:	8082                	ret
   12e02:	00032537          	lui	a0,0x32
   12e06:	1101                	addi	sp,sp,-32
   12e08:	46050513          	addi	a0,a0,1120 # 32460 <__clzdi2+0x128e>
   12e0c:	ec06                	sd	ra,24(sp)
   12e0e:	e42e                	sd	a1,8(sp)
   12e10:	7aa140ef          	jal	275ba <puts>
   12e14:	65a2                	ld	a1,8(sp)
   12e16:	00032537          	lui	a0,0x32
   12e1a:	4b050513          	addi	a0,a0,1200 # 324b0 <__clzdi2+0x12de>
   12e1e:	5c0140ef          	jal	273de <printf>
   12e22:	557d                	li	a0,-1
   12e24:	893fd0ef          	jal	106b6 <exit>

0000000000012e28 <_Z13mat_transposePsPKsmm>:
   12e28:	cd15                	beqz	a0,12e64 <_Z13mat_transposePsPKsmm+0x3c>
   12e2a:	c611                	beqz	a2,12e36 <_Z13mat_transposePsPKsmm+0xe>
   12e2c:	4881                	li	a7,0
   12e2e:	e689                	bnez	a3,12e38 <_Z13mat_transposePsPKsmm+0x10>
   12e30:	0885                	addi	a7,a7,1
   12e32:	ff161fe3          	bne	a2,a7,12e30 <_Z13mat_transposePsPKsmm+0x8>
   12e36:	8082                	ret
   12e38:	00169313          	slli	t1,a3,0x1
   12e3c:	959a                	add	a1,a1,t1
   12e3e:	00161813          	slli	a6,a2,0x1
   12e42:	406587b3          	sub	a5,a1,t1
   12e46:	872a                	mv	a4,a0
   12e48:	00079683          	lh	a3,0(a5)
   12e4c:	0789                	addi	a5,a5,2
   12e4e:	00d71023          	sh	a3,0(a4)
   12e52:	9742                	add	a4,a4,a6
   12e54:	fef59ae3          	bne	a1,a5,12e48 <_Z13mat_transposePsPKsmm+0x20>
   12e58:	0885                	addi	a7,a7,1
   12e5a:	0509                	addi	a0,a0,2
   12e5c:	959a                	add	a1,a1,t1
   12e5e:	ff1612e3          	bne	a2,a7,12e42 <_Z13mat_transposePsPKsmm+0x1a>
   12e62:	8082                	ret
   12e64:	00032537          	lui	a0,0x32
   12e68:	1101                	addi	sp,sp,-32
   12e6a:	4d050513          	addi	a0,a0,1232 # 324d0 <__clzdi2+0x12fe>
   12e6e:	ec06                	sd	ra,24(sp)
   12e70:	e436                	sd	a3,8(sp)
   12e72:	e032                	sd	a2,0(sp)
   12e74:	746140ef          	jal	275ba <puts>
   12e78:	6602                	ld	a2,0(sp)
   12e7a:	65a2                	ld	a1,8(sp)
   12e7c:	00032537          	lui	a0,0x32
   12e80:	52050513          	addi	a0,a0,1312 # 32520 <__clzdi2+0x134e>
   12e84:	55a140ef          	jal	273de <printf>
   12e88:	557d                	li	a0,-1
   12e8a:	82dfd0ef          	jal	106b6 <exit>

0000000000012e8e <_Z15fit_vector_reluPsPKsm>:
   12e8e:	02000793          	li	a5,32
   12e92:	00c7ef63          	bltu	a5,a2,12eb0 <_Z15fit_vector_reluPsPKsm+0x22>
   12e96:	872a                	mv	a4,a0
   12e98:	8532                	mv	a0,a2
   12e9a:	1805200b          	.insn	4, 0x1805200b
   12e9e:	852e                	mv	a0,a1
   12ea0:	1005208b          	.insn	4, 0x1005208b
   12ea4:	0e00810b          	.insn	4, 0x0e00810b
   12ea8:	853a                	mv	a0,a4
   12eaa:	1225200b          	.insn	4, 0x1225200b
   12eae:	8082                	ret
   12eb0:	000326b7          	lui	a3,0x32
   12eb4:	00032637          	lui	a2,0x32
   12eb8:	00032537          	lui	a0,0x32
   12ebc:	1141                	addi	sp,sp,-16
   12ebe:	b9068693          	addi	a3,a3,-1136 # 31b90 <__clzdi2+0x9be>
   12ec2:	54860613          	addi	a2,a2,1352 # 32548 <__clzdi2+0x1376>
   12ec6:	58050513          	addi	a0,a0,1408 # 32580 <__clzdi2+0x13ae>
   12eca:	4599                	li	a1,6
   12ecc:	e406                	sd	ra,8(sp)
   12ece:	315110ef          	jal	249e2 <__assert_func>

0000000000012ed2 <_Z17tiled_vector_reluPsPKsm>:
   12ed2:	c141                	beqz	a0,12f52 <_Z17tiled_vector_reluPsPKsm+0x80>
   12ed4:	02000793          	li	a5,32
   12ed8:	88aa                	mv	a7,a0
   12eda:	06c7f063          	bgeu	a5,a2,12f3a <_Z17tiled_vector_reluPsPKsm+0x68>
   12ede:	01f67313          	andi	t1,a2,31
   12ee2:	00565813          	srli	a6,a2,0x5
   12ee6:	86ae                	mv	a3,a1
   12ee8:	872a                	mv	a4,a0
   12eea:	4781                	li	a5,0
   12eec:	02000513          	li	a0,32
   12ef0:	1805200b          	.insn	4, 0x1805200b
   12ef4:	8536                	mv	a0,a3
   12ef6:	1005208b          	.insn	4, 0x1005208b
   12efa:	0e00810b          	.insn	4, 0x0e00810b
   12efe:	853a                	mv	a0,a4
   12f00:	1225200b          	.insn	4, 0x1225200b
   12f04:	0785                	addi	a5,a5,1
   12f06:	04068693          	addi	a3,a3,64
   12f0a:	04070713          	addi	a4,a4,64
   12f0e:	fcf81fe3          	bne	a6,a5,12eec <_Z17tiled_vector_reluPsPKsm+0x1a>
   12f12:	00031363          	bnez	t1,12f18 <_Z17tiled_vector_reluPsPKsm+0x46>
   12f16:	8082                	ret
   12f18:	40660633          	sub	a2,a2,t1
   12f1c:	0606                	slli	a2,a2,0x1
   12f1e:	851a                	mv	a0,t1
   12f20:	1805200b          	.insn	4, 0x1805200b
   12f24:	00c58533          	add	a0,a1,a2
   12f28:	1005208b          	.insn	4, 0x1005208b
   12f2c:	0e00810b          	.insn	4, 0x0e00810b
   12f30:	00c88533          	add	a0,a7,a2
   12f34:	1225200b          	.insn	4, 0x1225200b
   12f38:	8082                	ret
   12f3a:	8532                	mv	a0,a2
   12f3c:	1805200b          	.insn	4, 0x1805200b
   12f40:	852e                	mv	a0,a1
   12f42:	1005208b          	.insn	4, 0x1005208b
   12f46:	0e00810b          	.insn	4, 0x0e00810b
   12f4a:	8546                	mv	a0,a7
   12f4c:	1225200b          	.insn	4, 0x1225200b
   12f50:	8082                	ret
   12f52:	00032537          	lui	a0,0x32
   12f56:	1101                	addi	sp,sp,-32
   12f58:	59850513          	addi	a0,a0,1432 # 32598 <__clzdi2+0x13c6>
   12f5c:	ec06                	sd	ra,24(sp)
   12f5e:	e432                	sd	a2,8(sp)
   12f60:	65a140ef          	jal	275ba <puts>
   12f64:	65a2                	ld	a1,8(sp)
   12f66:	00032537          	lui	a0,0x32
   12f6a:	c5850513          	addi	a0,a0,-936 # 31c58 <__clzdi2+0xa86>
   12f6e:	470140ef          	jal	273de <printf>
   12f72:	557d                	li	a0,-1
   12f74:	f42fd0ef          	jal	106b6 <exit>

0000000000012f78 <_Z17tiled_matrix_reluPsPKsmm>:
   12f78:	7139                	addi	sp,sp,-64
   12f7a:	e852                	sd	s4,16(sp)
   12f7c:	e456                	sd	s5,8(sp)
   12f7e:	fc06                	sd	ra,56(sp)
   12f80:	8a32                	mv	s4,a2
   12f82:	8ab6                	mv	s5,a3
   12f84:	cd15                	beqz	a0,12fc0 <_Z17tiled_matrix_reluPsPKsmm+0x48>
   12f86:	ca05                	beqz	a2,12fb6 <_Z17tiled_matrix_reluPsPKsmm+0x3e>
   12f88:	f822                	sd	s0,48(sp)
   12f8a:	f426                	sd	s1,40(sp)
   12f8c:	f04a                	sd	s2,32(sp)
   12f8e:	ec4e                	sd	s3,24(sp)
   12f90:	842a                	mv	s0,a0
   12f92:	84ae                	mv	s1,a1
   12f94:	00169993          	slli	s3,a3,0x1
   12f98:	4901                	li	s2,0
   12f9a:	85a6                	mv	a1,s1
   12f9c:	8522                	mv	a0,s0
   12f9e:	8656                	mv	a2,s5
   12fa0:	0905                	addi	s2,s2,1
   12fa2:	f31ff0ef          	jal	12ed2 <_Z17tiled_vector_reluPsPKsm>
   12fa6:	944e                	add	s0,s0,s3
   12fa8:	94ce                	add	s1,s1,s3
   12faa:	ff2a18e3          	bne	s4,s2,12f9a <_Z17tiled_matrix_reluPsPKsmm+0x22>
   12fae:	7442                	ld	s0,48(sp)
   12fb0:	74a2                	ld	s1,40(sp)
   12fb2:	7902                	ld	s2,32(sp)
   12fb4:	69e2                	ld	s3,24(sp)
   12fb6:	70e2                	ld	ra,56(sp)
   12fb8:	6a42                	ld	s4,16(sp)
   12fba:	6aa2                	ld	s5,8(sp)
   12fbc:	6121                	addi	sp,sp,64
   12fbe:	8082                	ret
   12fc0:	00032537          	lui	a0,0x32
   12fc4:	5f050513          	addi	a0,a0,1520 # 325f0 <__clzdi2+0x141e>
   12fc8:	f822                	sd	s0,48(sp)
   12fca:	f426                	sd	s1,40(sp)
   12fcc:	f04a                	sd	s2,32(sp)
   12fce:	ec4e                	sd	s3,24(sp)
   12fd0:	5ea140ef          	jal	275ba <puts>
   12fd4:	00032537          	lui	a0,0x32
   12fd8:	8656                	mv	a2,s5
   12fda:	85d2                	mv	a1,s4
   12fdc:	64850513          	addi	a0,a0,1608 # 32648 <__clzdi2+0x1476>
   12fe0:	3fe140ef          	jal	273de <printf>
   12fe4:	557d                	li	a0,-1
   12fe6:	ed0fd0ef          	jal	106b6 <exit>

0000000000012fea <_Z15fit_vector_tanhPsPKsm>:
   12fea:	02000793          	li	a5,32
   12fee:	00c7ef63          	bltu	a5,a2,1300c <_Z15fit_vector_tanhPsPKsm+0x22>
   12ff2:	872a                	mv	a4,a0
   12ff4:	8532                	mv	a0,a2
   12ff6:	1805200b          	.insn	4, 0x1805200b
   12ffa:	852e                	mv	a0,a1
   12ffc:	1005208b          	.insn	4, 0x1005208b
   13000:	0e10810b          	.insn	4, 0x0e10810b
   13004:	853a                	mv	a0,a4
   13006:	1225200b          	.insn	4, 0x1225200b
   1300a:	8082                	ret
   1300c:	000326b7          	lui	a3,0x32
   13010:	00032637          	lui	a2,0x32
   13014:	00032537          	lui	a0,0x32
   13018:	1141                	addi	sp,sp,-16
   1301a:	b9068693          	addi	a3,a3,-1136 # 31b90 <__clzdi2+0x9be>
   1301e:	67860613          	addi	a2,a2,1656 # 32678 <__clzdi2+0x14a6>
   13022:	58050513          	addi	a0,a0,1408 # 32580 <__clzdi2+0x13ae>
   13026:	03100593          	li	a1,49
   1302a:	e406                	sd	ra,8(sp)
   1302c:	1b7110ef          	jal	249e2 <__assert_func>

0000000000013030 <_Z17tiled_vector_tanhPsPKsm>:
   13030:	c141                	beqz	a0,130b0 <_Z17tiled_vector_tanhPsPKsm+0x80>
   13032:	02000793          	li	a5,32
   13036:	88aa                	mv	a7,a0
   13038:	06c7f063          	bgeu	a5,a2,13098 <_Z17tiled_vector_tanhPsPKsm+0x68>
   1303c:	01f67313          	andi	t1,a2,31
   13040:	00565813          	srli	a6,a2,0x5
   13044:	86ae                	mv	a3,a1
   13046:	872a                	mv	a4,a0
   13048:	4781                	li	a5,0
   1304a:	02000513          	li	a0,32
   1304e:	1805200b          	.insn	4, 0x1805200b
   13052:	8536                	mv	a0,a3
   13054:	1005208b          	.insn	4, 0x1005208b
   13058:	0e10810b          	.insn	4, 0x0e10810b
   1305c:	853a                	mv	a0,a4
   1305e:	1225200b          	.insn	4, 0x1225200b
   13062:	0785                	addi	a5,a5,1
   13064:	04068693          	addi	a3,a3,64
   13068:	04070713          	addi	a4,a4,64
   1306c:	fcf81fe3          	bne	a6,a5,1304a <_Z17tiled_vector_tanhPsPKsm+0x1a>
   13070:	00031363          	bnez	t1,13076 <_Z17tiled_vector_tanhPsPKsm+0x46>
   13074:	8082                	ret
   13076:	40660633          	sub	a2,a2,t1
   1307a:	0606                	slli	a2,a2,0x1
   1307c:	851a                	mv	a0,t1
   1307e:	1805200b          	.insn	4, 0x1805200b
   13082:	00c58533          	add	a0,a1,a2
   13086:	1005208b          	.insn	4, 0x1005208b
   1308a:	0e10810b          	.insn	4, 0x0e10810b
   1308e:	00c88533          	add	a0,a7,a2
   13092:	1225200b          	.insn	4, 0x1225200b
   13096:	8082                	ret
   13098:	8532                	mv	a0,a2
   1309a:	1805200b          	.insn	4, 0x1805200b
   1309e:	852e                	mv	a0,a1
   130a0:	1005208b          	.insn	4, 0x1005208b
   130a4:	0e10810b          	.insn	4, 0x0e10810b
   130a8:	8546                	mv	a0,a7
   130aa:	1225200b          	.insn	4, 0x1225200b
   130ae:	8082                	ret
   130b0:	00032537          	lui	a0,0x32
   130b4:	1101                	addi	sp,sp,-32
   130b6:	6b050513          	addi	a0,a0,1712 # 326b0 <__clzdi2+0x14de>
   130ba:	ec06                	sd	ra,24(sp)
   130bc:	e432                	sd	a2,8(sp)
   130be:	4fc140ef          	jal	275ba <puts>
   130c2:	65a2                	ld	a1,8(sp)
   130c4:	00032537          	lui	a0,0x32
   130c8:	c5850513          	addi	a0,a0,-936 # 31c58 <__clzdi2+0xa86>
   130cc:	312140ef          	jal	273de <printf>
   130d0:	557d                	li	a0,-1
   130d2:	de4fd0ef          	jal	106b6 <exit>

00000000000130d6 <_Z17tiled_matrix_tanhPsPKsmm>:
   130d6:	7139                	addi	sp,sp,-64
   130d8:	e852                	sd	s4,16(sp)
   130da:	e456                	sd	s5,8(sp)
   130dc:	fc06                	sd	ra,56(sp)
   130de:	8a32                	mv	s4,a2
   130e0:	8ab6                	mv	s5,a3
   130e2:	cd15                	beqz	a0,1311e <_Z17tiled_matrix_tanhPsPKsmm+0x48>
   130e4:	ca05                	beqz	a2,13114 <_Z17tiled_matrix_tanhPsPKsmm+0x3e>
   130e6:	f822                	sd	s0,48(sp)
   130e8:	f426                	sd	s1,40(sp)
   130ea:	f04a                	sd	s2,32(sp)
   130ec:	ec4e                	sd	s3,24(sp)
   130ee:	842a                	mv	s0,a0
   130f0:	84ae                	mv	s1,a1
   130f2:	00169993          	slli	s3,a3,0x1
   130f6:	4901                	li	s2,0
   130f8:	85a6                	mv	a1,s1
   130fa:	8522                	mv	a0,s0
   130fc:	8656                	mv	a2,s5
   130fe:	0905                	addi	s2,s2,1
   13100:	f31ff0ef          	jal	13030 <_Z17tiled_vector_tanhPsPKsm>
   13104:	944e                	add	s0,s0,s3
   13106:	94ce                	add	s1,s1,s3
   13108:	ff2a18e3          	bne	s4,s2,130f8 <_Z17tiled_matrix_tanhPsPKsmm+0x22>
   1310c:	7442                	ld	s0,48(sp)
   1310e:	74a2                	ld	s1,40(sp)
   13110:	7902                	ld	s2,32(sp)
   13112:	69e2                	ld	s3,24(sp)
   13114:	70e2                	ld	ra,56(sp)
   13116:	6a42                	ld	s4,16(sp)
   13118:	6aa2                	ld	s5,8(sp)
   1311a:	6121                	addi	sp,sp,64
   1311c:	8082                	ret
   1311e:	00032537          	lui	a0,0x32
   13122:	70850513          	addi	a0,a0,1800 # 32708 <__clzdi2+0x1536>
   13126:	f822                	sd	s0,48(sp)
   13128:	f426                	sd	s1,40(sp)
   1312a:	f04a                	sd	s2,32(sp)
   1312c:	ec4e                	sd	s3,24(sp)
   1312e:	48c140ef          	jal	275ba <puts>
   13132:	00032537          	lui	a0,0x32
   13136:	8656                	mv	a2,s5
   13138:	85d2                	mv	a1,s4
   1313a:	64850513          	addi	a0,a0,1608 # 32648 <__clzdi2+0x1476>
   1313e:	2a0140ef          	jal	273de <printf>
   13142:	557d                	li	a0,-1
   13144:	d72fd0ef          	jal	106b6 <exit>

0000000000013148 <_Z18fit_vector_sigmoidPsPKsm>:
   13148:	02000793          	li	a5,32
   1314c:	00c7ef63          	bltu	a5,a2,1316a <_Z18fit_vector_sigmoidPsPKsm+0x22>
   13150:	872a                	mv	a4,a0
   13152:	8532                	mv	a0,a2
   13154:	1805200b          	.insn	4, 0x1805200b
   13158:	852e                	mv	a0,a1
   1315a:	1005208b          	.insn	4, 0x1005208b
   1315e:	0e20810b          	.insn	4, 0x0e20810b
   13162:	853a                	mv	a0,a4
   13164:	1225200b          	.insn	4, 0x1225200b
   13168:	8082                	ret
   1316a:	000326b7          	lui	a3,0x32
   1316e:	00032637          	lui	a2,0x32
   13172:	00032537          	lui	a0,0x32
   13176:	1141                	addi	sp,sp,-16
   13178:	b9068693          	addi	a3,a3,-1136 # 31b90 <__clzdi2+0x9be>
   1317c:	76060613          	addi	a2,a2,1888 # 32760 <__clzdi2+0x158e>
   13180:	58050513          	addi	a0,a0,1408 # 32580 <__clzdi2+0x13ae>
   13184:	05c00593          	li	a1,92
   13188:	e406                	sd	ra,8(sp)
   1318a:	059110ef          	jal	249e2 <__assert_func>

000000000001318e <_Z20tiled_vector_sigmoidPsPKsm>:
   1318e:	c141                	beqz	a0,1320e <_Z20tiled_vector_sigmoidPsPKsm+0x80>
   13190:	02000793          	li	a5,32
   13194:	88aa                	mv	a7,a0
   13196:	06c7f063          	bgeu	a5,a2,131f6 <_Z20tiled_vector_sigmoidPsPKsm+0x68>
   1319a:	01f67313          	andi	t1,a2,31
   1319e:	00565813          	srli	a6,a2,0x5
   131a2:	86ae                	mv	a3,a1
   131a4:	872a                	mv	a4,a0
   131a6:	4781                	li	a5,0
   131a8:	02000513          	li	a0,32
   131ac:	1805200b          	.insn	4, 0x1805200b
   131b0:	8536                	mv	a0,a3
   131b2:	1005208b          	.insn	4, 0x1005208b
   131b6:	0e20810b          	.insn	4, 0x0e20810b
   131ba:	853a                	mv	a0,a4
   131bc:	1225200b          	.insn	4, 0x1225200b
   131c0:	0785                	addi	a5,a5,1
   131c2:	04068693          	addi	a3,a3,64
   131c6:	04070713          	addi	a4,a4,64
   131ca:	fcf81fe3          	bne	a6,a5,131a8 <_Z20tiled_vector_sigmoidPsPKsm+0x1a>
   131ce:	00031363          	bnez	t1,131d4 <_Z20tiled_vector_sigmoidPsPKsm+0x46>
   131d2:	8082                	ret
   131d4:	40660633          	sub	a2,a2,t1
   131d8:	0606                	slli	a2,a2,0x1
   131da:	851a                	mv	a0,t1
   131dc:	1805200b          	.insn	4, 0x1805200b
   131e0:	00c58533          	add	a0,a1,a2
   131e4:	1005208b          	.insn	4, 0x1005208b
   131e8:	0e20810b          	.insn	4, 0x0e20810b
   131ec:	00c88533          	add	a0,a7,a2
   131f0:	1225200b          	.insn	4, 0x1225200b
   131f4:	8082                	ret
   131f6:	8532                	mv	a0,a2
   131f8:	1805200b          	.insn	4, 0x1805200b
   131fc:	852e                	mv	a0,a1
   131fe:	1005208b          	.insn	4, 0x1005208b
   13202:	0e20810b          	.insn	4, 0x0e20810b
   13206:	8546                	mv	a0,a7
   13208:	1225200b          	.insn	4, 0x1225200b
   1320c:	8082                	ret
   1320e:	00032537          	lui	a0,0x32
   13212:	1101                	addi	sp,sp,-32
   13214:	79850513          	addi	a0,a0,1944 # 32798 <__clzdi2+0x15c6>
   13218:	ec06                	sd	ra,24(sp)
   1321a:	e432                	sd	a2,8(sp)
   1321c:	39e140ef          	jal	275ba <puts>
   13220:	65a2                	ld	a1,8(sp)
   13222:	00032537          	lui	a0,0x32
   13226:	c5850513          	addi	a0,a0,-936 # 31c58 <__clzdi2+0xa86>
   1322a:	1b4140ef          	jal	273de <printf>
   1322e:	557d                	li	a0,-1
   13230:	c86fd0ef          	jal	106b6 <exit>

0000000000013234 <_Z20tiled_matrix_sigmoidPsPKsmm>:
   13234:	7139                	addi	sp,sp,-64
   13236:	e852                	sd	s4,16(sp)
   13238:	e456                	sd	s5,8(sp)
   1323a:	fc06                	sd	ra,56(sp)
   1323c:	8a32                	mv	s4,a2
   1323e:	8ab6                	mv	s5,a3
   13240:	cd15                	beqz	a0,1327c <_Z20tiled_matrix_sigmoidPsPKsmm+0x48>
   13242:	ca05                	beqz	a2,13272 <_Z20tiled_matrix_sigmoidPsPKsmm+0x3e>
   13244:	f822                	sd	s0,48(sp)
   13246:	f426                	sd	s1,40(sp)
   13248:	f04a                	sd	s2,32(sp)
   1324a:	ec4e                	sd	s3,24(sp)
   1324c:	842a                	mv	s0,a0
   1324e:	84ae                	mv	s1,a1
   13250:	00169993          	slli	s3,a3,0x1
   13254:	4901                	li	s2,0
   13256:	85a6                	mv	a1,s1
   13258:	8522                	mv	a0,s0
   1325a:	8656                	mv	a2,s5
   1325c:	0905                	addi	s2,s2,1
   1325e:	f31ff0ef          	jal	1318e <_Z20tiled_vector_sigmoidPsPKsm>
   13262:	944e                	add	s0,s0,s3
   13264:	94ce                	add	s1,s1,s3
   13266:	ff2a18e3          	bne	s4,s2,13256 <_Z20tiled_matrix_sigmoidPsPKsmm+0x22>
   1326a:	7442                	ld	s0,48(sp)
   1326c:	74a2                	ld	s1,40(sp)
   1326e:	7902                	ld	s2,32(sp)
   13270:	69e2                	ld	s3,24(sp)
   13272:	70e2                	ld	ra,56(sp)
   13274:	6a42                	ld	s4,16(sp)
   13276:	6aa2                	ld	s5,8(sp)
   13278:	6121                	addi	sp,sp,64
   1327a:	8082                	ret
   1327c:	00032537          	lui	a0,0x32
   13280:	7f050513          	addi	a0,a0,2032 # 327f0 <__clzdi2+0x161e>
   13284:	f822                	sd	s0,48(sp)
   13286:	f426                	sd	s1,40(sp)
   13288:	f04a                	sd	s2,32(sp)
   1328a:	ec4e                	sd	s3,24(sp)
   1328c:	32e140ef          	jal	275ba <puts>
   13290:	00032537          	lui	a0,0x32
   13294:	8656                	mv	a2,s5
   13296:	85d2                	mv	a1,s4
   13298:	64850513          	addi	a0,a0,1608 # 32648 <__clzdi2+0x1476>
   1329c:	142140ef          	jal	273de <printf>
   132a0:	557d                	li	a0,-1
   132a2:	c14fd0ef          	jal	106b6 <exit>

00000000000132a6 <_Z11fit_dotprodPsPKsS1_m>:
   132a6:	47a1                	li	a5,8
   132a8:	02d7e163          	bltu	a5,a3,132ca <_Z11fit_dotprodPsPKsS1_m+0x24>
   132ac:	872a                	mv	a4,a0
   132ae:	8536                	mv	a0,a3
   132b0:	1805200b          	.insn	4, 0x1805200b
   132b4:	852e                	mv	a0,a1
   132b6:	1005208b          	.insn	4, 0x1005208b
   132ba:	8532                	mv	a0,a2
   132bc:	1005210b          	.insn	4, 0x1005210b
   132c0:	1a20c50b          	.insn	4, 0x1a20c50b
   132c4:	00a71023          	sh	a0,0(a4)
   132c8:	8082                	ret
   132ca:	000336b7          	lui	a3,0x33
   132ce:	00033637          	lui	a2,0x33
   132d2:	00033537          	lui	a0,0x33
   132d6:	1141                	addi	sp,sp,-16
   132d8:	84868693          	addi	a3,a3,-1976 # 32848 <__clzdi2+0x1676>
   132dc:	86060613          	addi	a2,a2,-1952 # 32860 <__clzdi2+0x168e>
   132e0:	8a050513          	addi	a0,a0,-1888 # 328a0 <__clzdi2+0x16ce>
   132e4:	4591                	li	a1,4
   132e6:	e406                	sd	ra,8(sp)
   132e8:	6fa110ef          	jal	249e2 <__assert_func>

00000000000132ec <_Z13tiled_dotprodPsPKsS1_m>:
   132ec:	47a1                	li	a5,8
   132ee:	8eaa                	mv	t4,a0
   132f0:	06d7fa63          	bgeu	a5,a3,13364 <_Z13tiled_dotprodPsPKsS1_m+0x78>
   132f4:	0076ff13          	andi	t5,a3,7
   132f8:	0036de13          	srli	t3,a3,0x3
   132fc:	88ae                	mv	a7,a1
   132fe:	8832                	mv	a6,a2
   13300:	4301                	li	t1,0
   13302:	4701                	li	a4,0
   13304:	4521                	li	a0,8
   13306:	1805200b          	.insn	4, 0x1805200b
   1330a:	8546                	mv	a0,a7
   1330c:	1005208b          	.insn	4, 0x1005208b
   13310:	8542                	mv	a0,a6
   13312:	1005210b          	.insn	4, 0x1005210b
   13316:	1a20c50b          	.insn	4, 0x1a20c50b
   1331a:	00a307bb          	addw	a5,t1,a0
   1331e:	0107931b          	slliw	t1,a5,0x10
   13322:	0705                	addi	a4,a4,1
   13324:	08c1                	addi	a7,a7,16
   13326:	0841                	addi	a6,a6,16
   13328:	4103531b          	sraiw	t1,t1,0x10
   1332c:	fcee1ce3          	bne	t3,a4,13304 <_Z13tiled_dotprodPsPKsS1_m+0x18>
   13330:	000f1563          	bnez	t5,1333a <_Z13tiled_dotprodPsPKsS1_m+0x4e>
   13334:	006e9023          	sh	t1,0(t4)
   13338:	8082                	ret
   1333a:	41e686b3          	sub	a3,a3,t5
   1333e:	0686                	slli	a3,a3,0x1
   13340:	857a                	mv	a0,t5
   13342:	1805200b          	.insn	4, 0x1805200b
   13346:	00d58533          	add	a0,a1,a3
   1334a:	1005208b          	.insn	4, 0x1005208b
   1334e:	00d60533          	add	a0,a2,a3
   13352:	1005210b          	.insn	4, 0x1005210b
   13356:	1a20c50b          	.insn	4, 0x1a20c50b
   1335a:	00f5033b          	addw	t1,a0,a5
   1335e:	006e9023          	sh	t1,0(t4)
   13362:	8082                	ret
   13364:	8536                	mv	a0,a3
   13366:	1805200b          	.insn	4, 0x1805200b
   1336a:	852e                	mv	a0,a1
   1336c:	1005208b          	.insn	4, 0x1005208b
   13370:	8532                	mv	a0,a2
   13372:	1005210b          	.insn	4, 0x1005210b
   13376:	1a20c50b          	.insn	4, 0x1a20c50b
   1337a:	832a                	mv	t1,a0
   1337c:	006e9023          	sh	t1,0(t4)
   13380:	8082                	ret

0000000000013382 <_Z9tiled_mvmPsPKsS1_mm>:
   13382:	7139                	addi	sp,sp,-64
   13384:	ec4e                	sd	s3,24(sp)
   13386:	fc06                	sd	ra,56(sp)
   13388:	89b6                	mv	s3,a3
   1338a:	c521                	beqz	a0,133d2 <_Z9tiled_mvmPsPKsS1_mm+0x50>
   1338c:	ce9d                	beqz	a3,133ca <_Z9tiled_mvmPsPKsS1_mm+0x48>
   1338e:	f822                	sd	s0,48(sp)
   13390:	f426                	sd	s1,40(sp)
   13392:	f04a                	sd	s2,32(sp)
   13394:	e852                	sd	s4,16(sp)
   13396:	e456                	sd	s5,8(sp)
   13398:	e05a                	sd	s6,0(sp)
   1339a:	8ab2                	mv	s5,a2
   1339c:	8a3a                	mv	s4,a4
   1339e:	842a                	mv	s0,a0
   133a0:	84ae                	mv	s1,a1
   133a2:	00171b13          	slli	s6,a4,0x1
   133a6:	4901                	li	s2,0
   133a8:	85a6                	mv	a1,s1
   133aa:	8522                	mv	a0,s0
   133ac:	86d2                	mv	a3,s4
   133ae:	8656                	mv	a2,s5
   133b0:	0905                	addi	s2,s2,1
   133b2:	f3bff0ef          	jal	132ec <_Z13tiled_dotprodPsPKsS1_m>
   133b6:	0409                	addi	s0,s0,2
   133b8:	94da                	add	s1,s1,s6
   133ba:	ff2997e3          	bne	s3,s2,133a8 <_Z9tiled_mvmPsPKsS1_mm+0x26>
   133be:	7442                	ld	s0,48(sp)
   133c0:	74a2                	ld	s1,40(sp)
   133c2:	7902                	ld	s2,32(sp)
   133c4:	6a42                	ld	s4,16(sp)
   133c6:	6aa2                	ld	s5,8(sp)
   133c8:	6b02                	ld	s6,0(sp)
   133ca:	70e2                	ld	ra,56(sp)
   133cc:	69e2                	ld	s3,24(sp)
   133ce:	6121                	addi	sp,sp,64
   133d0:	8082                	ret
   133d2:	00033537          	lui	a0,0x33
   133d6:	8b850513          	addi	a0,a0,-1864 # 328b8 <__clzdi2+0x16e6>
   133da:	f822                	sd	s0,48(sp)
   133dc:	f426                	sd	s1,40(sp)
   133de:	f04a                	sd	s2,32(sp)
   133e0:	e852                	sd	s4,16(sp)
   133e2:	e456                	sd	s5,8(sp)
   133e4:	e05a                	sd	s6,0(sp)
   133e6:	1d4140ef          	jal	275ba <puts>
   133ea:	00032537          	lui	a0,0x32
   133ee:	85ce                	mv	a1,s3
   133f0:	2c850513          	addi	a0,a0,712 # 322c8 <__clzdi2+0x10f6>
   133f4:	7eb130ef          	jal	273de <printf>
   133f8:	557d                	li	a0,-1
   133fa:	abcfd0ef          	jal	106b6 <exit>

00000000000133fe <_Z22tiled_matmul_transposePsPKsS1_mmm>:
   133fe:	7159                	addi	sp,sp,-112
   13400:	e4ce                	sd	s3,72(sp)
   13402:	f062                	sd	s8,32(sp)
   13404:	f486                	sd	ra,104(sp)
   13406:	89b6                	mv	s3,a3
   13408:	8c3e                	mv	s8,a5
   1340a:	c92d                	beqz	a0,1347c <_Z22tiled_matmul_transposePsPKsS1_mmm+0x7e>
   1340c:	c3bd                	beqz	a5,13472 <_Z22tiled_matmul_transposePsPKsS1_mmm+0x74>
   1340e:	c2b5                	beqz	a3,13472 <_Z22tiled_matmul_transposePsPKsS1_mmm+0x74>
   13410:	e8ca                	sd	s2,80(sp)
   13412:	e0d2                	sd	s4,64(sp)
   13414:	fc56                	sd	s5,56(sp)
   13416:	f85a                	sd	s6,48(sp)
   13418:	f45e                	sd	s7,40(sp)
   1341a:	ec66                	sd	s9,24(sp)
   1341c:	e86a                	sd	s10,16(sp)
   1341e:	f0a2                	sd	s0,96(sp)
   13420:	eca6                	sd	s1,88(sp)
   13422:	e46e                	sd	s11,8(sp)
   13424:	8caa                	mv	s9,a0
   13426:	8d2e                	mv	s10,a1
   13428:	8aba                	mv	s5,a4
   1342a:	8932                	mv	s2,a2
   1342c:	00171a13          	slli	s4,a4,0x1
   13430:	4b81                	li	s7,0
   13432:	4b01                	li	s6,0
   13434:	001b9413          	slli	s0,s7,0x1
   13438:	9466                	add	s0,s0,s9
   1343a:	8dea                	mv	s11,s10
   1343c:	4481                	li	s1,0
   1343e:	85ee                	mv	a1,s11
   13440:	8522                	mv	a0,s0
   13442:	86d6                	mv	a3,s5
   13444:	864a                	mv	a2,s2
   13446:	0485                	addi	s1,s1,1
   13448:	ea5ff0ef          	jal	132ec <_Z13tiled_dotprodPsPKsS1_m>
   1344c:	0409                	addi	s0,s0,2
   1344e:	9dd2                	add	s11,s11,s4
   13450:	fe9997e3          	bne	s3,s1,1343e <_Z22tiled_matmul_transposePsPKsS1_mmm+0x40>
   13454:	0b05                	addi	s6,s6,1
   13456:	9bce                	add	s7,s7,s3
   13458:	9952                	add	s2,s2,s4
   1345a:	fd8b1de3          	bne	s6,s8,13434 <_Z22tiled_matmul_transposePsPKsS1_mmm+0x36>
   1345e:	7406                	ld	s0,96(sp)
   13460:	64e6                	ld	s1,88(sp)
   13462:	6946                	ld	s2,80(sp)
   13464:	6a06                	ld	s4,64(sp)
   13466:	7ae2                	ld	s5,56(sp)
   13468:	7b42                	ld	s6,48(sp)
   1346a:	7ba2                	ld	s7,40(sp)
   1346c:	6ce2                	ld	s9,24(sp)
   1346e:	6d42                	ld	s10,16(sp)
   13470:	6da2                	ld	s11,8(sp)
   13472:	70a6                	ld	ra,104(sp)
   13474:	69a6                	ld	s3,72(sp)
   13476:	7c02                	ld	s8,32(sp)
   13478:	6165                	addi	sp,sp,112
   1347a:	8082                	ret
   1347c:	00033537          	lui	a0,0x33
   13480:	90850513          	addi	a0,a0,-1784 # 32908 <__clzdi2+0x1736>
   13484:	f0a2                	sd	s0,96(sp)
   13486:	eca6                	sd	s1,88(sp)
   13488:	e8ca                	sd	s2,80(sp)
   1348a:	e0d2                	sd	s4,64(sp)
   1348c:	fc56                	sd	s5,56(sp)
   1348e:	f85a                	sd	s6,48(sp)
   13490:	f45e                	sd	s7,40(sp)
   13492:	ec66                	sd	s9,24(sp)
   13494:	e86a                	sd	s10,16(sp)
   13496:	e46e                	sd	s11,8(sp)
   13498:	122140ef          	jal	275ba <puts>
   1349c:	00033537          	lui	a0,0x33
   134a0:	864e                	mv	a2,s3
   134a2:	85e2                	mv	a1,s8
   134a4:	96050513          	addi	a0,a0,-1696 # 32960 <__clzdi2+0x178e>
   134a8:	737130ef          	jal	273de <printf>
   134ac:	557d                	li	a0,-1
   134ae:	a08fd0ef          	jal	106b6 <exit>

00000000000134b2 <_Z21tiled_dotprod_stridedPsPKsS1_mm>:
   134b2:	47a1                	li	a5,8
   134b4:	8eaa                	mv	t4,a0
   134b6:	06d7f963          	bgeu	a5,a3,13528 <_Z21tiled_dotprod_stridedPsPKsS1_mm+0x76>
   134ba:	0076ff13          	andi	t5,a3,7
   134be:	0706                	slli	a4,a4,0x1
   134c0:	828d                	srli	a3,a3,0x3
   134c2:	832e                	mv	t1,a1
   134c4:	88b2                	mv	a7,a2
   134c6:	4e01                	li	t3,0
   134c8:	4801                	li	a6,0
   134ca:	4521                	li	a0,8
   134cc:	1805200b          	.insn	4, 0x1805200b
   134d0:	851a                	mv	a0,t1
   134d2:	1005208b          	.insn	4, 0x1005208b
   134d6:	8546                	mv	a0,a7
   134d8:	1005210b          	.insn	4, 0x1005210b
   134dc:	1a20c50b          	.insn	4, 0x1a20c50b
   134e0:	00ae07bb          	addw	a5,t3,a0
   134e4:	01079e1b          	slliw	t3,a5,0x10
   134e8:	0805                	addi	a6,a6,1
   134ea:	933a                	add	t1,t1,a4
   134ec:	98ba                	add	a7,a7,a4
   134ee:	410e5e1b          	sraiw	t3,t3,0x10
   134f2:	fd069ce3          	bne	a3,a6,134ca <_Z21tiled_dotprod_stridedPsPKsS1_mm+0x18>
   134f6:	000f1563          	bnez	t5,13500 <_Z21tiled_dotprod_stridedPsPKsS1_mm+0x4e>
   134fa:	01ce9023          	sh	t3,0(t4)
   134fe:	8082                	ret
   13500:	02d70733          	mul	a4,a4,a3
   13504:	857a                	mv	a0,t5
   13506:	1805200b          	.insn	4, 0x1805200b
   1350a:	00e58533          	add	a0,a1,a4
   1350e:	1005208b          	.insn	4, 0x1005208b
   13512:	00e60533          	add	a0,a2,a4
   13516:	1005210b          	.insn	4, 0x1005210b
   1351a:	1a20c50b          	.insn	4, 0x1a20c50b
   1351e:	00f50e3b          	addw	t3,a0,a5
   13522:	01ce9023          	sh	t3,0(t4)
   13526:	8082                	ret
   13528:	8536                	mv	a0,a3
   1352a:	1805200b          	.insn	4, 0x1805200b
   1352e:	852e                	mv	a0,a1
   13530:	1005208b          	.insn	4, 0x1005208b
   13534:	8532                	mv	a0,a2
   13536:	1005210b          	.insn	4, 0x1005210b
   1353a:	1a20c50b          	.insn	4, 0x1a20c50b
   1353e:	8e2a                	mv	t3,a0
   13540:	01ce9023          	sh	t3,0(t4)
   13544:	8082                	ret

0000000000013546 <_Z17tiled_mvm_stridedPsPKsS1_mmm>:
   13546:	7139                	addi	sp,sp,-64
   13548:	e852                	sd	s4,16(sp)
   1354a:	fc06                	sd	ra,56(sp)
   1354c:	8a36                	mv	s4,a3
   1354e:	c531                	beqz	a0,1359a <_Z17tiled_mvm_stridedPsPKsS1_mmm+0x54>
   13550:	c2a9                	beqz	a3,13592 <_Z17tiled_mvm_stridedPsPKsS1_mmm+0x4c>
   13552:	f822                	sd	s0,48(sp)
   13554:	f426                	sd	s1,40(sp)
   13556:	f04a                	sd	s2,32(sp)
   13558:	ec4e                	sd	s3,24(sp)
   1355a:	e456                	sd	s5,8(sp)
   1355c:	e05a                	sd	s6,0(sp)
   1355e:	8ab2                	mv	s5,a2
   13560:	8b3a                	mv	s6,a4
   13562:	842a                	mv	s0,a0
   13564:	00179993          	slli	s3,a5,0x1
   13568:	84ae                	mv	s1,a1
   1356a:	4901                	li	s2,0
   1356c:	85a6                	mv	a1,s1
   1356e:	8522                	mv	a0,s0
   13570:	02000713          	li	a4,32
   13574:	86da                	mv	a3,s6
   13576:	8656                	mv	a2,s5
   13578:	0905                	addi	s2,s2,1
   1357a:	f39ff0ef          	jal	134b2 <_Z21tiled_dotprod_stridedPsPKsS1_mm>
   1357e:	0409                	addi	s0,s0,2
   13580:	94ce                	add	s1,s1,s3
   13582:	ff2a15e3          	bne	s4,s2,1356c <_Z17tiled_mvm_stridedPsPKsS1_mmm+0x26>
   13586:	7442                	ld	s0,48(sp)
   13588:	74a2                	ld	s1,40(sp)
   1358a:	7902                	ld	s2,32(sp)
   1358c:	69e2                	ld	s3,24(sp)
   1358e:	6aa2                	ld	s5,8(sp)
   13590:	6b02                	ld	s6,0(sp)
   13592:	70e2                	ld	ra,56(sp)
   13594:	6a42                	ld	s4,16(sp)
   13596:	6121                	addi	sp,sp,64
   13598:	8082                	ret
   1359a:	00033537          	lui	a0,0x33
   1359e:	98850513          	addi	a0,a0,-1656 # 32988 <__clzdi2+0x17b6>
   135a2:	f822                	sd	s0,48(sp)
   135a4:	f426                	sd	s1,40(sp)
   135a6:	f04a                	sd	s2,32(sp)
   135a8:	ec4e                	sd	s3,24(sp)
   135aa:	e456                	sd	s5,8(sp)
   135ac:	e05a                	sd	s6,0(sp)
   135ae:	00c140ef          	jal	275ba <puts>
   135b2:	00032537          	lui	a0,0x32
   135b6:	85d2                	mv	a1,s4
   135b8:	2c850513          	addi	a0,a0,712 # 322c8 <__clzdi2+0x10f6>
   135bc:	623130ef          	jal	273de <printf>
   135c0:	557d                	li	a0,-1
   135c2:	8f4fd0ef          	jal	106b6 <exit>

00000000000135c6 <_Z30tiled_matmul_transpose_stridedPsPKsS1_mmmmm>:
   135c6:	7119                	addi	sp,sp,-128
   135c8:	f0ca                	sd	s2,96(sp)
   135ca:	f862                	sd	s8,48(sp)
   135cc:	fc86                	sd	ra,120(sp)
   135ce:	e42e                	sd	a1,8(sp)
   135d0:	8936                	mv	s2,a3
   135d2:	8c3e                	mv	s8,a5
   135d4:	cd25                	beqz	a0,1364c <_Z30tiled_matmul_transpose_stridedPsPKsS1_mmmmm+0x86>
   135d6:	c7b5                	beqz	a5,13642 <_Z30tiled_matmul_transpose_stridedPsPKsS1_mmmmm+0x7c>
   135d8:	c6ad                	beqz	a3,13642 <_Z30tiled_matmul_transpose_stridedPsPKsS1_mmmmm+0x7c>
   135da:	f4a6                	sd	s1,104(sp)
   135dc:	ecce                	sd	s3,88(sp)
   135de:	e8d2                	sd	s4,80(sp)
   135e0:	e4d6                	sd	s5,72(sp)
   135e2:	e0da                	sd	s6,64(sp)
   135e4:	fc5e                	sd	s7,56(sp)
   135e6:	f466                	sd	s9,40(sp)
   135e8:	f8a2                	sd	s0,112(sp)
   135ea:	f06a                	sd	s10,32(sp)
   135ec:	ec6e                	sd	s11,24(sp)
   135ee:	8caa                	mv	s9,a0
   135f0:	8a3a                	mv	s4,a4
   135f2:	00189b93          	slli	s7,a7,0x1
   135f6:	84b2                	mv	s1,a2
   135f8:	00181993          	slli	s3,a6,0x1
   135fc:	4b01                	li	s6,0
   135fe:	4a81                	li	s5,0
   13600:	6d22                	ld	s10,8(sp)
   13602:	001b1413          	slli	s0,s6,0x1
   13606:	9466                	add	s0,s0,s9
   13608:	4d81                	li	s11,0
   1360a:	85ea                	mv	a1,s10
   1360c:	8522                	mv	a0,s0
   1360e:	02000713          	li	a4,32
   13612:	86d2                	mv	a3,s4
   13614:	8626                	mv	a2,s1
   13616:	0d85                	addi	s11,s11,1
   13618:	e9bff0ef          	jal	134b2 <_Z21tiled_dotprod_stridedPsPKsS1_mm>
   1361c:	0409                	addi	s0,s0,2
   1361e:	9d4e                	add	s10,s10,s3
   13620:	ffb915e3          	bne	s2,s11,1360a <_Z30tiled_matmul_transpose_stridedPsPKsS1_mmmmm+0x44>
   13624:	0a85                	addi	s5,s5,1
   13626:	9b4a                	add	s6,s6,s2
   13628:	94de                	add	s1,s1,s7
   1362a:	fd5c1be3          	bne	s8,s5,13600 <_Z30tiled_matmul_transpose_stridedPsPKsS1_mmmmm+0x3a>
   1362e:	7446                	ld	s0,112(sp)
   13630:	74a6                	ld	s1,104(sp)
   13632:	69e6                	ld	s3,88(sp)
   13634:	6a46                	ld	s4,80(sp)
   13636:	6aa6                	ld	s5,72(sp)
   13638:	6b06                	ld	s6,64(sp)
   1363a:	7be2                	ld	s7,56(sp)
   1363c:	7ca2                	ld	s9,40(sp)
   1363e:	7d02                	ld	s10,32(sp)
   13640:	6de2                	ld	s11,24(sp)
   13642:	70e6                	ld	ra,120(sp)
   13644:	7906                	ld	s2,96(sp)
   13646:	7c42                	ld	s8,48(sp)
   13648:	6109                	addi	sp,sp,128
   1364a:	8082                	ret
   1364c:	00033537          	lui	a0,0x33
   13650:	9e050513          	addi	a0,a0,-1568 # 329e0 <__clzdi2+0x180e>
   13654:	f8a2                	sd	s0,112(sp)
   13656:	f4a6                	sd	s1,104(sp)
   13658:	ecce                	sd	s3,88(sp)
   1365a:	e8d2                	sd	s4,80(sp)
   1365c:	e4d6                	sd	s5,72(sp)
   1365e:	e0da                	sd	s6,64(sp)
   13660:	fc5e                	sd	s7,56(sp)
   13662:	f466                	sd	s9,40(sp)
   13664:	f06a                	sd	s10,32(sp)
   13666:	ec6e                	sd	s11,24(sp)
   13668:	753130ef          	jal	275ba <puts>
   1366c:	00033537          	lui	a0,0x33
   13670:	864a                	mv	a2,s2
   13672:	85e2                	mv	a1,s8
   13674:	96050513          	addi	a0,a0,-1696 # 32960 <__clzdi2+0x178e>
   13678:	567130ef          	jal	273de <printf>
   1367c:	557d                	li	a0,-1
   1367e:	838fd0ef          	jal	106b6 <exit>

0000000000013682 <_Z35tiled_matmul_transpose_full_stridedPsPKsS1_mmmmmm>:
   13682:	7119                	addi	sp,sp,-128
   13684:	f862                	sd	s8,48(sp)
   13686:	fc86                	sd	ra,120(sp)
   13688:	e42e                	sd	a1,8(sp)
   1368a:	8c3e                	mv	s8,a5
   1368c:	c149                	beqz	a0,1370e <_Z35tiled_matmul_transpose_full_stridedPsPKsS1_mmmmmm+0x8c>
   1368e:	cbb5                	beqz	a5,13702 <_Z35tiled_matmul_transpose_full_stridedPsPKsS1_mmmmmm+0x80>
   13690:	ecce                	sd	s3,88(sp)
   13692:	89b6                	mv	s3,a3
   13694:	cabd                	beqz	a3,1370a <_Z35tiled_matmul_transpose_full_stridedPsPKsS1_mmmmmm+0x88>
   13696:	f4a6                	sd	s1,104(sp)
   13698:	f0ca                	sd	s2,96(sp)
   1369a:	e8d2                	sd	s4,80(sp)
   1369c:	e4d6                	sd	s5,72(sp)
   1369e:	e0da                	sd	s6,64(sp)
   136a0:	fc5e                	sd	s7,56(sp)
   136a2:	f466                	sd	s9,40(sp)
   136a4:	f8a2                	sd	s0,112(sp)
   136a6:	f06a                	sd	s10,32(sp)
   136a8:	ec6e                	sd	s11,24(sp)
   136aa:	8caa                	mv	s9,a0
   136ac:	8a3a                	mv	s4,a4
   136ae:	00189b93          	slli	s7,a7,0x1
   136b2:	84b2                	mv	s1,a2
   136b4:	00181913          	slli	s2,a6,0x1
   136b8:	4b01                	li	s6,0
   136ba:	4a81                	li	s5,0
   136bc:	6da2                	ld	s11,8(sp)
   136be:	001b1413          	slli	s0,s6,0x1
   136c2:	9466                	add	s0,s0,s9
   136c4:	4d01                	li	s10,0
   136c6:	85ee                	mv	a1,s11
   136c8:	8522                	mv	a0,s0
   136ca:	02000713          	li	a4,32
   136ce:	86d2                	mv	a3,s4
   136d0:	8626                	mv	a2,s1
   136d2:	0d05                	addi	s10,s10,1
   136d4:	ddfff0ef          	jal	134b2 <_Z21tiled_dotprod_stridedPsPKsS1_mm>
   136d8:	0409                	addi	s0,s0,2
   136da:	9dca                	add	s11,s11,s2
   136dc:	ffa995e3          	bne	s3,s10,136c6 <_Z35tiled_matmul_transpose_full_stridedPsPKsS1_mmmmmm+0x44>
   136e0:	678a                	ld	a5,128(sp)
   136e2:	0a85                	addi	s5,s5,1
   136e4:	94de                	add	s1,s1,s7
   136e6:	9b3e                	add	s6,s6,a5
   136e8:	fd5c1ae3          	bne	s8,s5,136bc <_Z35tiled_matmul_transpose_full_stridedPsPKsS1_mmmmmm+0x3a>
   136ec:	7446                	ld	s0,112(sp)
   136ee:	74a6                	ld	s1,104(sp)
   136f0:	7906                	ld	s2,96(sp)
   136f2:	69e6                	ld	s3,88(sp)
   136f4:	6a46                	ld	s4,80(sp)
   136f6:	6aa6                	ld	s5,72(sp)
   136f8:	6b06                	ld	s6,64(sp)
   136fa:	7be2                	ld	s7,56(sp)
   136fc:	7ca2                	ld	s9,40(sp)
   136fe:	7d02                	ld	s10,32(sp)
   13700:	6de2                	ld	s11,24(sp)
   13702:	70e6                	ld	ra,120(sp)
   13704:	7c42                	ld	s8,48(sp)
   13706:	6109                	addi	sp,sp,128
   13708:	8082                	ret
   1370a:	69e6                	ld	s3,88(sp)
   1370c:	bfdd                	j	13702 <_Z35tiled_matmul_transpose_full_stridedPsPKsS1_mmmmmm+0x80>
   1370e:	00033537          	lui	a0,0x33
   13712:	a4050513          	addi	a0,a0,-1472 # 32a40 <__clzdi2+0x186e>
   13716:	f8a2                	sd	s0,112(sp)
   13718:	f4a6                	sd	s1,104(sp)
   1371a:	f0ca                	sd	s2,96(sp)
   1371c:	ecce                	sd	s3,88(sp)
   1371e:	e8d2                	sd	s4,80(sp)
   13720:	e4d6                	sd	s5,72(sp)
   13722:	e0da                	sd	s6,64(sp)
   13724:	fc5e                	sd	s7,56(sp)
   13726:	f466                	sd	s9,40(sp)
   13728:	f06a                	sd	s10,32(sp)
   1372a:	ec6e                	sd	s11,24(sp)
   1372c:	68f130ef          	jal	275ba <puts>
   13730:	660a                	ld	a2,128(sp)
   13732:	00033537          	lui	a0,0x33
   13736:	85e2                	mv	a1,s8
   13738:	aa850513          	addi	a0,a0,-1368 # 32aa8 <__clzdi2+0x18d6>
   1373c:	4a3130ef          	jal	273de <printf>
   13740:	557d                	li	a0,-1
   13742:	f75fc0ef          	jal	106b6 <exit>

0000000000013746 <_Z10array_initPsms>:
   13746:	c981                	beqz	a1,13756 <_Z10array_initPsms+0x10>
   13748:	0586                	slli	a1,a1,0x1
   1374a:	95aa                	add	a1,a1,a0
   1374c:	00c51023          	sh	a2,0(a0)
   13750:	0509                	addi	a0,a0,2
   13752:	feb51de3          	bne	a0,a1,1374c <_Z10array_initPsms+0x6>
   13756:	8082                	ret

0000000000013758 <_Z12conv2d_shapePmS_S_mmmmmmmm>:
   13758:	6e02                	ld	t3,0(sp)
   1375a:	6842                	ld	a6,16(sp)
   1375c:	6322                	ld	t1,8(sp)
   1375e:	41c70733          	sub	a4,a4,t3
   13762:	0806                	slli	a6,a6,0x1
   13764:	9742                	add	a4,a4,a6
   13766:	02675733          	divu	a4,a4,t1
   1376a:	41c787b3          	sub	a5,a5,t3
   1376e:	97c2                	add	a5,a5,a6
   13770:	0267d7b3          	divu	a5,a5,t1
   13774:	0705                	addi	a4,a4,1
   13776:	031686b3          	mul	a3,a3,a7
   1377a:	0785                	addi	a5,a5,1
   1377c:	02e686b3          	mul	a3,a3,a4
   13780:	02f686b3          	mul	a3,a3,a5
   13784:	e114                	sd	a3,0(a0)
   13786:	e198                	sd	a4,0(a1)
   13788:	e21c                	sd	a5,0(a2)
   1378a:	8082                	ret

000000000001378c <_Z15padding2d_shapePmS_S_mmmmm>:
   1378c:	03180833          	mul	a6,a6,a7
   13790:	0686                	slli	a3,a3,0x1
   13792:	9736                	add	a4,a4,a3
   13794:	e198                	sd	a4,0(a1)
   13796:	96be                	add	a3,a3,a5
   13798:	e214                	sd	a3,0(a2)
   1379a:	619c                	ld	a5,0(a1)
   1379c:	02f80833          	mul	a6,a6,a5
   137a0:	02d80833          	mul	a6,a6,a3
   137a4:	01053023          	sd	a6,0(a0)
   137a8:	8082                	ret

00000000000137aa <_Z9padding2dPsPKsmsmm>:
   137aa:	7159                	addi	sp,sp,-112
   137ac:	e4ce                	sd	s3,72(sp)
   137ae:	00161993          	slli	s3,a2,0x1
   137b2:	f062                	sd	s8,32(sp)
   137b4:	00f98c33          	add	s8,s3,a5
   137b8:	eca6                	sd	s1,88(sp)
   137ba:	02cc04b3          	mul	s1,s8,a2
   137be:	f0a2                	sd	s0,96(sp)
   137c0:	e8ca                	sd	s2,80(sp)
   137c2:	fc56                	sd	s5,56(sp)
   137c4:	f45e                	sd	s7,40(sp)
   137c6:	f486                	sd	ra,104(sp)
   137c8:	8bb2                	mv	s7,a2
   137ca:	8aaa                	mv	s5,a0
   137cc:	8436                	mv	s0,a3
   137ce:	893a                	mv	s2,a4
   137d0:	cce9                	beqz	s1,138aa <_Z9padding2dPsPKsmsmm+0x100>
   137d2:	00149693          	slli	a3,s1,0x1
   137d6:	96aa                	add	a3,a3,a0
   137d8:	872a                	mv	a4,a0
   137da:	00871023          	sh	s0,0(a4)
   137de:	0709                	addi	a4,a4,2
   137e0:	fed71de3          	bne	a4,a3,137da <_Z9padding2dPsPKsmsmm+0x30>
   137e4:	8726                	mv	a4,s1
   137e6:	08090263          	beqz	s2,1386a <_Z9padding2dPsPKsmsmm+0xc0>
   137ea:	f85a                	sd	s6,48(sp)
   137ec:	417c0b33          	sub	s6,s8,s7
   137f0:	e0d2                	sd	s4,64(sp)
   137f2:	ec66                	sd	s9,24(sp)
   137f4:	e86a                	sd	s10,16(sp)
   137f6:	e46e                	sd	s11,8(sp)
   137f8:	00179a13          	slli	s4,a5,0x1
   137fc:	8d2e                	mv	s10,a1
   137fe:	99d6                	add	s3,s3,s5
   13800:	9b26                	add	s6,s6,s1
   13802:	8ca6                	mv	s9,s1
   13804:	4d81                	li	s11,0
   13806:	001c9793          	slli	a5,s9,0x1
   1380a:	00f98533          	add	a0,s3,a5
   1380e:	080b8363          	beqz	s7,13894 <_Z9padding2dPsPKsmsmm+0xea>
   13812:	019b8733          	add	a4,s7,s9
   13816:	0706                	slli	a4,a4,0x1
   13818:	97d6                	add	a5,a5,s5
   1381a:	9756                	add	a4,a4,s5
   1381c:	00879023          	sh	s0,0(a5)
   13820:	0789                	addi	a5,a5,2
   13822:	fee79de3          	bne	a5,a4,1381c <_Z9padding2dPsPKsmsmm+0x72>
   13826:	8652                	mv	a2,s4
   13828:	85ea                	mv	a1,s10
   1382a:	03a150ef          	jal	28864 <memcpy>
   1382e:	016b8733          	add	a4,s7,s6
   13832:	0706                	slli	a4,a4,0x1
   13834:	001b1793          	slli	a5,s6,0x1
   13838:	9756                	add	a4,a4,s5
   1383a:	97d6                	add	a5,a5,s5
   1383c:	00879023          	sh	s0,0(a5)
   13840:	0789                	addi	a5,a5,2
   13842:	fee79de3          	bne	a5,a4,1383c <_Z9padding2dPsPKsmsmm+0x92>
   13846:	0d85                	addi	s11,s11,1
   13848:	9ce2                	add	s9,s9,s8
   1384a:	9d52                	add	s10,s10,s4
   1384c:	9b62                	add	s6,s6,s8
   1384e:	fb2dece3          	bltu	s11,s2,13806 <_Z9padding2dPsPKsmsmm+0x5c>
   13852:	ccb1                	beqz	s1,138ae <_Z9padding2dPsPKsmsmm+0x104>
   13854:	fff90713          	addi	a4,s2,-1
   13858:	03870733          	mul	a4,a4,s8
   1385c:	6a06                	ld	s4,64(sp)
   1385e:	7b42                	ld	s6,48(sp)
   13860:	6ce2                	ld	s9,24(sp)
   13862:	6d42                	ld	s10,16(sp)
   13864:	6da2                	ld	s11,8(sp)
   13866:	9c26                	add	s8,s8,s1
   13868:	9762                	add	a4,a4,s8
   1386a:	00e487b3          	add	a5,s1,a4
   1386e:	0786                	slli	a5,a5,0x1
   13870:	0706                	slli	a4,a4,0x1
   13872:	97d6                	add	a5,a5,s5
   13874:	9aba                	add	s5,s5,a4
   13876:	008a9023          	sh	s0,0(s5)
   1387a:	0a89                	addi	s5,s5,2
   1387c:	ff579de3          	bne	a5,s5,13876 <_Z9padding2dPsPKsmsmm+0xcc>
   13880:	70a6                	ld	ra,104(sp)
   13882:	7406                	ld	s0,96(sp)
   13884:	64e6                	ld	s1,88(sp)
   13886:	6946                	ld	s2,80(sp)
   13888:	69a6                	ld	s3,72(sp)
   1388a:	7ae2                	ld	s5,56(sp)
   1388c:	7ba2                	ld	s7,40(sp)
   1388e:	7c02                	ld	s8,32(sp)
   13890:	6165                	addi	sp,sp,112
   13892:	8082                	ret
   13894:	85ea                	mv	a1,s10
   13896:	8652                	mv	a2,s4
   13898:	0d85                	addi	s11,s11,1
   1389a:	7cb140ef          	jal	28864 <memcpy>
   1389e:	9ce2                	add	s9,s9,s8
   138a0:	9d52                	add	s10,s10,s4
   138a2:	9b62                	add	s6,s6,s8
   138a4:	f72de1e3          	bltu	s11,s2,13806 <_Z9padding2dPsPKsmsmm+0x5c>
   138a8:	b76d                	j	13852 <_Z9padding2dPsPKsmsmm+0xa8>
   138aa:	f321                	bnez	a4,137ea <_Z9padding2dPsPKsmsmm+0x40>
   138ac:	bfd1                	j	13880 <_Z9padding2dPsPKsmsmm+0xd6>
   138ae:	6a06                	ld	s4,64(sp)
   138b0:	7b42                	ld	s6,48(sp)
   138b2:	6ce2                	ld	s9,24(sp)
   138b4:	6d42                	ld	s10,16(sp)
   138b6:	6da2                	ld	s11,8(sp)
   138b8:	b7e1                	j	13880 <_Z9padding2dPsPKsmsmm+0xd6>

00000000000138ba <_Z9padding2dPsPKsmsmmm>:
   138ba:	06080b63          	beqz	a6,13930 <_Z9padding2dPsPKsmsmmm+0x76>
   138be:	711d                	addi	sp,sp,-96
   138c0:	fc4e                	sd	s3,56(sp)
   138c2:	89be                	mv	s3,a5
   138c4:	00161793          	slli	a5,a2,0x1
   138c8:	f456                	sd	s5,40(sp)
   138ca:	00e78ab3          	add	s5,a5,a4
   138ce:	97ce                	add	a5,a5,s3
   138d0:	02fa8ab3          	mul	s5,s5,a5
   138d4:	e466                	sd	s9,8(sp)
   138d6:	e8a2                	sd	s0,80(sp)
   138d8:	e4a6                	sd	s1,72(sp)
   138da:	e0ca                	sd	s2,64(sp)
   138dc:	f852                	sd	s4,48(sp)
   138de:	f05a                	sd	s6,32(sp)
   138e0:	ec5e                	sd	s7,24(sp)
   138e2:	e862                	sd	s8,16(sp)
   138e4:	ec86                	sd	ra,88(sp)
   138e6:	03370cb3          	mul	s9,a4,s3
   138ea:	8a3a                	mv	s4,a4
   138ec:	8bb6                	mv	s7,a3
   138ee:	8b32                	mv	s6,a2
   138f0:	8c42                	mv	s8,a6
   138f2:	84aa                	mv	s1,a0
   138f4:	842e                	mv	s0,a1
   138f6:	4901                	li	s2,0
   138f8:	0a86                	slli	s5,s5,0x1
   138fa:	0c86                	slli	s9,s9,0x1
   138fc:	85a2                	mv	a1,s0
   138fe:	8526                	mv	a0,s1
   13900:	87ce                	mv	a5,s3
   13902:	8752                	mv	a4,s4
   13904:	86de                	mv	a3,s7
   13906:	865a                	mv	a2,s6
   13908:	0905                	addi	s2,s2,1
   1390a:	ea1ff0ef          	jal	137aa <_Z9padding2dPsPKsmsmm>
   1390e:	94d6                	add	s1,s1,s5
   13910:	9466                	add	s0,s0,s9
   13912:	ff2c15e3          	bne	s8,s2,138fc <_Z9padding2dPsPKsmsmmm+0x42>
   13916:	60e6                	ld	ra,88(sp)
   13918:	6446                	ld	s0,80(sp)
   1391a:	64a6                	ld	s1,72(sp)
   1391c:	6906                	ld	s2,64(sp)
   1391e:	79e2                	ld	s3,56(sp)
   13920:	7a42                	ld	s4,48(sp)
   13922:	7aa2                	ld	s5,40(sp)
   13924:	7b02                	ld	s6,32(sp)
   13926:	6be2                	ld	s7,24(sp)
   13928:	6c42                	ld	s8,16(sp)
   1392a:	6ca2                	ld	s9,8(sp)
   1392c:	6125                	addi	sp,sp,96
   1392e:	8082                	ret
   13930:	8082                	ret

0000000000013932 <_Z9padding2dPsPKsmsmmmm>:
   13932:	0c088163          	beqz	a7,139f4 <_Z9padding2dPsPKsmsmmmm+0xc2>
   13936:	0a080f63          	beqz	a6,139f4 <_Z9padding2dPsPKsmsmmmm+0xc2>
   1393a:	7135                	addi	sp,sp,-160
   1393c:	e526                	sd	s1,136(sp)
   1393e:	e14a                	sd	s2,128(sp)
   13940:	84be                	mv	s1,a5
   13942:	893a                	mv	s2,a4
   13944:	00161713          	slli	a4,a2,0x1
   13948:	012707b3          	add	a5,a4,s2
   1394c:	9726                	add	a4,a4,s1
   1394e:	02e787b3          	mul	a5,a5,a4
   13952:	f0da                	sd	s6,96(sp)
   13954:	e922                	sd	s0,144(sp)
   13956:	fcce                	sd	s3,120(sp)
   13958:	f8d2                	sd	s4,112(sp)
   1395a:	f4d6                	sd	s5,104(sp)
   1395c:	e8e2                	sd	s8,80(sp)
   1395e:	e4e6                	sd	s9,72(sp)
   13960:	ed06                	sd	ra,152(sp)
   13962:	ecde                	sd	s7,88(sp)
   13964:	02990733          	mul	a4,s2,s1
   13968:	00179b13          	slli	s6,a5,0x1
   1396c:	e0ea                	sd	s10,64(sp)
   1396e:	fc6e                	sd	s11,56(sp)
   13970:	8442                	mv	s0,a6
   13972:	8a36                	mv	s4,a3
   13974:	89b2                	mv	s3,a2
   13976:	f42e                	sd	a1,40(sp)
   13978:	f02a                	sd	a0,32(sp)
   1397a:	ec46                	sd	a7,24(sp)
   1397c:	030787b3          	mul	a5,a5,a6
   13980:	4c81                	li	s9,0
   13982:	4c01                	li	s8,0
   13984:	e002                	sd	zero,0(sp)
   13986:	00171a93          	slli	s5,a4,0x1
   1398a:	e43e                	sd	a5,8(sp)
   1398c:	030707b3          	mul	a5,a4,a6
   13990:	e83e                	sd	a5,16(sp)
   13992:	7782                	ld	a5,32(sp)
   13994:	001c1513          	slli	a0,s8,0x1
   13998:	001c9593          	slli	a1,s9,0x1
   1399c:	00a78bb3          	add	s7,a5,a0
   139a0:	77a2                	ld	a5,40(sp)
   139a2:	4d01                	li	s10,0
   139a4:	00b78db3          	add	s11,a5,a1
   139a8:	85ee                	mv	a1,s11
   139aa:	855e                	mv	a0,s7
   139ac:	87a6                	mv	a5,s1
   139ae:	874a                	mv	a4,s2
   139b0:	86d2                	mv	a3,s4
   139b2:	864e                	mv	a2,s3
   139b4:	0d05                	addi	s10,s10,1
   139b6:	df5ff0ef          	jal	137aa <_Z9padding2dPsPKsmsmm>
   139ba:	9bda                	add	s7,s7,s6
   139bc:	9dd6                	add	s11,s11,s5
   139be:	ffa415e3          	bne	s0,s10,139a8 <_Z9padding2dPsPKsmsmmmm+0x76>
   139c2:	6722                	ld	a4,8(sp)
   139c4:	6782                	ld	a5,0(sp)
   139c6:	9c3a                	add	s8,s8,a4
   139c8:	6742                	ld	a4,16(sp)
   139ca:	0785                	addi	a5,a5,1
   139cc:	e03e                	sd	a5,0(sp)
   139ce:	9cba                	add	s9,s9,a4
   139d0:	6762                	ld	a4,24(sp)
   139d2:	fce790e3          	bne	a5,a4,13992 <_Z9padding2dPsPKsmsmmmm+0x60>
   139d6:	60ea                	ld	ra,152(sp)
   139d8:	644a                	ld	s0,144(sp)
   139da:	64aa                	ld	s1,136(sp)
   139dc:	690a                	ld	s2,128(sp)
   139de:	79e6                	ld	s3,120(sp)
   139e0:	7a46                	ld	s4,112(sp)
   139e2:	7aa6                	ld	s5,104(sp)
   139e4:	7b06                	ld	s6,96(sp)
   139e6:	6be6                	ld	s7,88(sp)
   139e8:	6c46                	ld	s8,80(sp)
   139ea:	6ca6                	ld	s9,72(sp)
   139ec:	6d06                	ld	s10,64(sp)
   139ee:	7de2                	ld	s11,56(sp)
   139f0:	610d                	addi	sp,sp,160
   139f2:	8082                	ret
   139f4:	8082                	ret

00000000000139f6 <_Z15pooling2d_shapePmS_S_mmmmmmm>:
   139f6:	6e22                	ld	t3,8(sp)
   139f8:	6302                	ld	t1,0(sp)
   139fa:	000e1363          	bnez	t3,13a00 <_Z15pooling2d_shapePmS_S_mmmmmmm+0xa>
   139fe:	8e46                	mv	t3,a7
   13a00:	0306                	slli	t1,t1,0x1
   13a02:	969a                	add	a3,a3,t1
   13a04:	411686b3          	sub	a3,a3,a7
   13a08:	971a                	add	a4,a4,t1
   13a0a:	03c6d6b3          	divu	a3,a3,t3
   13a0e:	41170733          	sub	a4,a4,a7
   13a12:	03c75733          	divu	a4,a4,t3
   13a16:	0685                	addi	a3,a3,1
   13a18:	e194                	sd	a3,0(a1)
   13a1a:	0705                	addi	a4,a4,1
   13a1c:	e218                	sd	a4,0(a2)
   13a1e:	6194                	ld	a3,0(a1)
   13a20:	02d80833          	mul	a6,a6,a3
   13a24:	02f80833          	mul	a6,a6,a5
   13a28:	02e80833          	mul	a6,a6,a4
   13a2c:	01053023          	sd	a6,0(a0)
