
build-baremetal/mlp_mnist_fp32.elf:     file format elf64-littleriscv


Disassembly of section .text:

0000000080000000 <_start>:
    80000000:	4081                	li	ra,0
    80000002:	4101                	li	sp,0
    80000004:	4181                	li	gp,0
    80000006:	4201                	li	tp,0
    80000008:	4281                	li	t0,0
    8000000a:	4301                	li	t1,0
    8000000c:	4381                	li	t2,0
    8000000e:	4401                	li	s0,0
    80000010:	4481                	li	s1,0
    80000012:	4501                	li	a0,0
    80000014:	4581                	li	a1,0
    80000016:	4601                	li	a2,0
    80000018:	4681                	li	a3,0
    8000001a:	4701                	li	a4,0
    8000001c:	4781                	li	a5,0
    8000001e:	4801                	li	a6,0
    80000020:	4881                	li	a7,0
    80000022:	4901                	li	s2,0
    80000024:	4981                	li	s3,0
    80000026:	4a01                	li	s4,0
    80000028:	4a81                	li	s5,0
    8000002a:	4b01                	li	s6,0
    8000002c:	4b81                	li	s7,0
    8000002e:	4c01                	li	s8,0
    80000030:	4c81                	li	s9,0
    80000032:	4d01                	li	s10,0
    80000034:	4d81                	li	s11,0
    80000036:	4e01                	li	t3,0
    80000038:	4e81                	li	t4,0
    8000003a:	4f01                	li	t5,0
    8000003c:	4f81                	li	t6,0
    8000003e:	62f9                	lui	t0,0x1e
    80000040:	3002a073          	csrs	mstatus,t0
    80000044:	00000297          	auipc	t0,0x0
    80000048:	09028293          	addi	t0,t0,144 # 800000d4 <_start+0xd4>
    8000004c:	30529073          	csrw	mtvec,t0
    80000050:	00301073          	fscsr	zero
    80000054:	f0000053          	fmv.w.x	ft0,zero
    80000058:	f00000d3          	fmv.w.x	ft1,zero
    8000005c:	f0000153          	fmv.w.x	ft2,zero
    80000060:	f00001d3          	fmv.w.x	ft3,zero
    80000064:	f0000253          	fmv.w.x	ft4,zero
    80000068:	f00002d3          	fmv.w.x	ft5,zero
    8000006c:	f0000353          	fmv.w.x	ft6,zero
    80000070:	f00003d3          	fmv.w.x	ft7,zero
    80000074:	f0000453          	fmv.w.x	fs0,zero
    80000078:	f00004d3          	fmv.w.x	fs1,zero
    8000007c:	f0000553          	fmv.w.x	fa0,zero
    80000080:	f00005d3          	fmv.w.x	fa1,zero
    80000084:	f0000653          	fmv.w.x	fa2,zero
    80000088:	f00006d3          	fmv.w.x	fa3,zero
    8000008c:	f0000753          	fmv.w.x	fa4,zero
    80000090:	f00007d3          	fmv.w.x	fa5,zero
    80000094:	f0000853          	fmv.w.x	fa6,zero
    80000098:	f00008d3          	fmv.w.x	fa7,zero
    8000009c:	f0000953          	fmv.w.x	fs2,zero
    800000a0:	f00009d3          	fmv.w.x	fs3,zero
    800000a4:	f0000a53          	fmv.w.x	fs4,zero
    800000a8:	f0000ad3          	fmv.w.x	fs5,zero
    800000ac:	f0000b53          	fmv.w.x	fs6,zero
    800000b0:	f0000bd3          	fmv.w.x	fs7,zero
    800000b4:	f0000c53          	fmv.w.x	fs8,zero
    800000b8:	f0000cd3          	fmv.w.x	fs9,zero
    800000bc:	f0000d53          	fmv.w.x	fs10,zero
    800000c0:	f0000dd3          	fmv.w.x	fs11,zero
    800000c4:	f0000e53          	fmv.w.x	ft8,zero
    800000c8:	f0000ed3          	fmv.w.x	ft9,zero
    800000cc:	f0000f53          	fmv.w.x	ft10,zero
    800000d0:	f0000fd3          	fmv.w.x	ft11,zero
    800000d4:	000b3197          	auipc	gp,0xb3
    800000d8:	a6418193          	addi	gp,gp,-1436 # 800b2b38 <__global_pointer$>
    800000dc:	f1402473          	csrr	s0,mhartid
    800000e0:	00f00293          	li	t0,15
    800000e4:	0022b217          	auipc	tp,0x22b
    800000e8:	f1c20213          	addi	tp,tp,-228 # 8022b000 <__heap_end>
    800000ec:	005412b3          	sll	t0,s0,t0
    800000f0:	9216                	add	tp,tp,t0
    800000f2:	62a1                	lui	t0,0x8
    800000f4:	00028293          	mv	t0,t0
    800000f8:	00520133          	add	sp,tp,t0
    800000fc:	00000297          	auipc	t0,0x0
    80000100:	04828293          	addi	t0,t0,72 # 80000144 <trap_entry>
    80000104:	30529073          	csrw	mtvec,t0
    80000108:	0cd150ef          	jal	800159d4 <__init_tls>
    8000010c:	00000293          	li	t0,0
    80000110:	00540463          	beq	s0,t0,80000118 <_start+0x118>
    80000114:	0fe0006f          	j	80000212 <_start_secondary>
    80000118:	9f818293          	addi	t0,gp,-1544 # 800b2530 <_ZZN9__gnu_cxx27__verbose_terminate_handlerEvE11terminating>
    8000011c:	0020a317          	auipc	t1,0x20a
    80000120:	49c30313          	addi	t1,t1,1180 # 8020a5b8 <_end>
    80000124:	0062f763          	bgeu	t0,t1,80000132 <_start+0x132>
    80000128:	0002b023          	sd	zero,0(t0)
    8000012c:	02a1                	addi	t0,t0,8
    8000012e:	fe62ede3          	bltu	t0,t1,80000128 <_start+0x128>
    80000132:	00016517          	auipc	a0,0x16
    80000136:	98a50513          	addi	a0,a0,-1654 # 80015abc <__libc_fini_array>
    8000013a:	11b150ef          	jal	80015a54 <atexit>
    8000013e:	121150ef          	jal	80015a5e <__libc_init_array>
    80000142:	a075                	j	800001ee <_start_main>

0000000080000144 <trap_entry>:
    80000144:	34011073          	csrw	mscratch,sp
    80000148:	7111                	addi	sp,sp,-256
    8000014a:	e406                	sd	ra,8(sp)
    8000014c:	340020f3          	csrr	ra,mscratch
    80000150:	e806                	sd	ra,16(sp)
    80000152:	ec0e                	sd	gp,24(sp)
    80000154:	f012                	sd	tp,32(sp)
    80000156:	f416                	sd	t0,40(sp)
    80000158:	f81a                	sd	t1,48(sp)
    8000015a:	fc1e                	sd	t2,56(sp)
    8000015c:	e0a2                	sd	s0,64(sp)
    8000015e:	e4a6                	sd	s1,72(sp)
    80000160:	e8aa                	sd	a0,80(sp)
    80000162:	ecae                	sd	a1,88(sp)
    80000164:	f0b2                	sd	a2,96(sp)
    80000166:	f4b6                	sd	a3,104(sp)
    80000168:	f8ba                	sd	a4,112(sp)
    8000016a:	fcbe                	sd	a5,120(sp)
    8000016c:	e142                	sd	a6,128(sp)
    8000016e:	e546                	sd	a7,136(sp)
    80000170:	e94a                	sd	s2,144(sp)
    80000172:	ed4e                	sd	s3,152(sp)
    80000174:	f152                	sd	s4,160(sp)
    80000176:	f556                	sd	s5,168(sp)
    80000178:	f95a                	sd	s6,176(sp)
    8000017a:	fd5e                	sd	s7,184(sp)
    8000017c:	e1e2                	sd	s8,192(sp)
    8000017e:	e5e6                	sd	s9,200(sp)
    80000180:	e9ea                	sd	s10,208(sp)
    80000182:	edee                	sd	s11,216(sp)
    80000184:	f1f2                	sd	t3,224(sp)
    80000186:	f5f6                	sd	t4,232(sp)
    80000188:	f9fa                	sd	t5,240(sp)
    8000018a:	fdfe                	sd	t6,248(sp)
    8000018c:	34102573          	csrr	a0,mepc
    80000190:	342025f3          	csrr	a1,mcause
    80000194:	34302673          	csrr	a2,mtval
    80000198:	868a                	mv	a3,sp
    8000019a:	025150ef          	jal	800159be <handle_trap>
    8000019e:	34151073          	csrw	mepc,a0
    800001a2:	6289                	lui	t0,0x2
    800001a4:	8002829b          	addiw	t0,t0,-2048 # 1800 <__stack_align+0x17f0>
    800001a8:	3002a073          	csrs	mstatus,t0
    800001ac:	60a2                	ld	ra,8(sp)
    800001ae:	61e2                	ld	gp,24(sp)
    800001b0:	7202                	ld	tp,32(sp)
    800001b2:	72a2                	ld	t0,40(sp)
    800001b4:	7342                	ld	t1,48(sp)
    800001b6:	73e2                	ld	t2,56(sp)
    800001b8:	6406                	ld	s0,64(sp)
    800001ba:	64a6                	ld	s1,72(sp)
    800001bc:	6546                	ld	a0,80(sp)
    800001be:	65e6                	ld	a1,88(sp)
    800001c0:	7606                	ld	a2,96(sp)
    800001c2:	76a6                	ld	a3,104(sp)
    800001c4:	7746                	ld	a4,112(sp)
    800001c6:	77e6                	ld	a5,120(sp)
    800001c8:	680a                	ld	a6,128(sp)
    800001ca:	68aa                	ld	a7,136(sp)
    800001cc:	694a                	ld	s2,144(sp)
    800001ce:	69ea                	ld	s3,152(sp)
    800001d0:	7a0a                	ld	s4,160(sp)
    800001d2:	7aaa                	ld	s5,168(sp)
    800001d4:	7b4a                	ld	s6,176(sp)
    800001d6:	7bea                	ld	s7,184(sp)
    800001d8:	6c0e                	ld	s8,192(sp)
    800001da:	6cae                	ld	s9,200(sp)
    800001dc:	6d4e                	ld	s10,208(sp)
    800001de:	6dee                	ld	s11,216(sp)
    800001e0:	7e0e                	ld	t3,224(sp)
    800001e2:	7eae                	ld	t4,232(sp)
    800001e4:	7f4e                	ld	t5,240(sp)
    800001e6:	7fee                	ld	t6,248(sp)
    800001e8:	6142                	ld	sp,16(sp)
    800001ea:	30200073          	mret

00000000800001ee <_start_main>:
    800001ee:	52fd                	li	t0,-1
    800001f0:	0110000f          	fence	w,w
    800001f4:	0020a317          	auipc	t1,0x20a
    800001f8:	2a532223          	sw	t0,676(t1) # 8020a498 <__boot_sync>
    800001fc:	4505                	li	a0,1
    800001fe:	000ab597          	auipc	a1,0xab
    80000202:	e5258593          	addi	a1,a1,-430 # 800ab050 <argv>
    80000206:	8401b603          	ld	a2,-1984(gp) # 800b2378 <environ>
    8000020a:	5e4000ef          	jal	800007ee <main>
    8000020e:	35b1206f          	j	80012d68 <exit>

0000000080000212 <_start_secondary>:
    80000212:	0020a317          	auipc	t1,0x20a
    80000216:	28632283          	lw	t0,646(t1) # 8020a498 <__boot_sync>
    8000021a:	fe028ee3          	beqz	t0,80000216 <_start_secondary+0x4>
    8000021e:	0220000f          	fence	r,r
    80000222:	4505                	li	a0,1
    80000224:	000ab597          	auipc	a1,0xab
    80000228:	e2c58593          	addi	a1,a1,-468 # 800ab050 <argv>
    8000022c:	8401b603          	ld	a2,-1984(gp) # 800b2378 <environ>
    80000230:	7d4150ef          	jal	80015a04 <__main>
    80000234:	3351206f          	j	80012d68 <exit>

0000000080000238 <__cxa_bad_cast>:
    80000238:	1141                	addi	sp,sp,-16
    8000023a:	4521                	li	a0,8
    8000023c:	e406                	sd	ra,8(sp)
    8000023e:	5f5040ef          	jal	80005032 <__cxa_allocate_exception>
    80000242:	000a8797          	auipc	a5,0xa8
    80000246:	3ce78793          	addi	a5,a5,974 # 800a8610 <_ZTVSt8bad_cast+0x10>
    8000024a:	e11c                	sd	a5,0(a0)
    8000024c:	00005617          	auipc	a2,0x5
    80000250:	cb660613          	addi	a2,a2,-842 # 80004f02 <_ZNSt8bad_castD1Ev>
    80000254:	000a8597          	auipc	a1,0xa8
    80000258:	39458593          	addi	a1,a1,916 # 800a85e8 <_ZTISt8bad_cast>
    8000025c:	3df040ef          	jal	80004e3a <__cxa_throw>

0000000080000260 <__cxa_bad_typeid>:
    80000260:	1141                	addi	sp,sp,-16
    80000262:	4521                	li	a0,8
    80000264:	e406                	sd	ra,8(sp)
    80000266:	5cd040ef          	jal	80005032 <__cxa_allocate_exception>
    8000026a:	000a8797          	auipc	a5,0xa8
    8000026e:	3f678793          	addi	a5,a5,1014 # 800a8660 <_ZTVSt10bad_typeid+0x10>
    80000272:	e11c                	sd	a5,0(a0)
    80000274:	00005617          	auipc	a2,0x5
    80000278:	cb860613          	addi	a2,a2,-840 # 80004f2c <_ZNSt10bad_typeidD1Ev>
    8000027c:	000a8597          	auipc	a1,0xa8
    80000280:	3bc58593          	addi	a1,a1,956 # 800a8638 <_ZTISt10bad_typeid>
    80000284:	3b7040ef          	jal	80004e3a <__cxa_throw>

0000000080000288 <__cxa_throw_bad_array_new_length>:
    80000288:	1141                	addi	sp,sp,-16
    8000028a:	4521                	li	a0,8
    8000028c:	e406                	sd	ra,8(sp)
    8000028e:	5a5040ef          	jal	80005032 <__cxa_allocate_exception>
    80000292:	000a8797          	auipc	a5,0xa8
    80000296:	32e78793          	addi	a5,a5,814 # 800a85c0 <_ZTVSt20bad_array_new_length+0x10>
    8000029a:	e11c                	sd	a5,0(a0)
    8000029c:	00005617          	auipc	a2,0x5
    800002a0:	c3a60613          	addi	a2,a2,-966 # 80004ed6 <_ZNSt20bad_array_new_lengthD1Ev>
    800002a4:	000a8597          	auipc	a1,0xa8
    800002a8:	2f458593          	addi	a1,a1,756 # 800a8598 <_ZTISt20bad_array_new_length>
    800002ac:	38f040ef          	jal	80004e3a <__cxa_throw>

00000000800002b0 <_ZN9__gnu_cxx9__freeresEv>:
    800002b0:	0020a517          	auipc	a0,0x20a
    800002b4:	f1053503          	ld	a0,-240(a0) # 8020a1c0 <_ZN12_GLOBAL__N_1L14emergency_poolE+0x10>
    800002b8:	cd01                	beqz	a0,800002d0 <_ZN9__gnu_cxx9__freeresEv+0x20>
    800002ba:	1141                	addi	sp,sp,-16
    800002bc:	e406                	sd	ra,8(sp)
    800002be:	39f120ef          	jal	80012e5c <free>
    800002c2:	60a2                	ld	ra,8(sp)
    800002c4:	0020a797          	auipc	a5,0x20a
    800002c8:	ee07be23          	sd	zero,-260(a5) # 8020a1c0 <_ZN12_GLOBAL__N_1L14emergency_poolE+0x10>
    800002cc:	0141                	addi	sp,sp,16
    800002ce:	8082                	ret
    800002d0:	8082                	ret

00000000800002d2 <_ZSt9terminatev>:
    800002d2:	1141                	addi	sp,sp,-16
    800002d4:	e406                	sd	ra,8(sp)
    800002d6:	6b4050ef          	jal	8000598a <_ZSt13get_terminatev>
    800002da:	68a050ef          	jal	80005964 <_ZN10__cxxabiv111__terminateEPFvvE>

00000000800002de <_ZSt10unexpectedv>:
    800002de:	1141                	addi	sp,sp,-16
    800002e0:	e406                	sd	ra,8(sp)
    800002e2:	6d6050ef          	jal	800059b8 <_ZSt14get_unexpectedv>
    800002e6:	6b0050ef          	jal	80005996 <_ZN10__cxxabiv112__unexpectedEPFvvE>

00000000800002ea <_ZSt21__throw_bad_exceptionv>:
    800002ea:	1141                	addi	sp,sp,-16
    800002ec:	4521                	li	a0,8
    800002ee:	e406                	sd	ra,8(sp)
    800002f0:	543040ef          	jal	80005032 <__cxa_allocate_exception>
    800002f4:	000a8797          	auipc	a5,0xa8
    800002f8:	47478793          	addi	a5,a5,1140 # 800a8768 <_ZTVSt13bad_exception+0x10>
    800002fc:	e11c                	sd	a5,0(a0)
    800002fe:	00005617          	auipc	a2,0x5
    80000302:	f5260613          	addi	a2,a2,-174 # 80005250 <_ZNSt13bad_exceptionD1Ev>
    80000306:	000a8597          	auipc	a1,0xa8
    8000030a:	3aa58593          	addi	a1,a1,938 # 800a86b0 <_ZTISt13bad_exception>
    8000030e:	32d040ef          	jal	80004e3a <__cxa_throw>

0000000080000312 <_ZSt17__throw_bad_allocv>:
    80000312:	1141                	addi	sp,sp,-16
    80000314:	4521                	li	a0,8
    80000316:	e406                	sd	ra,8(sp)
    80000318:	51b040ef          	jal	80005032 <__cxa_allocate_exception>
    8000031c:	000a8797          	auipc	a5,0xa8
    80000320:	61c78793          	addi	a5,a5,1564 # 800a8938 <_ZTVSt9bad_alloc+0x10>
    80000324:	e11c                	sd	a5,0(a0)
    80000326:	00006617          	auipc	a2,0x6
    8000032a:	ac660613          	addi	a2,a2,-1338 # 80005dec <_ZNSt9bad_allocD1Ev>
    8000032e:	000a8597          	auipc	a1,0xa8
    80000332:	5e258593          	addi	a1,a1,1506 # 800a8910 <_ZTISt9bad_alloc>
    80000336:	305040ef          	jal	80004e3a <__cxa_throw>

000000008000033a <_ZSt28__throw_bad_array_new_lengthv>:
    8000033a:	1141                	addi	sp,sp,-16
    8000033c:	4521                	li	a0,8
    8000033e:	e406                	sd	ra,8(sp)
    80000340:	4f3040ef          	jal	80005032 <__cxa_allocate_exception>
    80000344:	000a8797          	auipc	a5,0xa8
    80000348:	27c78793          	addi	a5,a5,636 # 800a85c0 <_ZTVSt20bad_array_new_length+0x10>
    8000034c:	e11c                	sd	a5,0(a0)
    8000034e:	00005617          	auipc	a2,0x5
    80000352:	b8860613          	addi	a2,a2,-1144 # 80004ed6 <_ZNSt20bad_array_new_lengthD1Ev>
    80000356:	000a8597          	auipc	a1,0xa8
    8000035a:	24258593          	addi	a1,a1,578 # 800a8598 <_ZTISt20bad_array_new_length>
    8000035e:	2dd040ef          	jal	80004e3a <__cxa_throw>

0000000080000362 <_ZSt16__throw_bad_castv>:
    80000362:	1141                	addi	sp,sp,-16
    80000364:	4521                	li	a0,8
    80000366:	e406                	sd	ra,8(sp)
    80000368:	4cb040ef          	jal	80005032 <__cxa_allocate_exception>
    8000036c:	000a8797          	auipc	a5,0xa8
    80000370:	2a478793          	addi	a5,a5,676 # 800a8610 <_ZTVSt8bad_cast+0x10>
    80000374:	e11c                	sd	a5,0(a0)
    80000376:	00005617          	auipc	a2,0x5
    8000037a:	b8c60613          	addi	a2,a2,-1140 # 80004f02 <_ZNSt8bad_castD1Ev>
    8000037e:	000a8597          	auipc	a1,0xa8
    80000382:	26a58593          	addi	a1,a1,618 # 800a85e8 <_ZTISt8bad_cast>
    80000386:	2b5040ef          	jal	80004e3a <__cxa_throw>

000000008000038a <_ZSt18__throw_bad_typeidv>:
    8000038a:	1141                	addi	sp,sp,-16
    8000038c:	4521                	li	a0,8
    8000038e:	e406                	sd	ra,8(sp)
    80000390:	4a3040ef          	jal	80005032 <__cxa_allocate_exception>
    80000394:	000a8797          	auipc	a5,0xa8
    80000398:	2cc78793          	addi	a5,a5,716 # 800a8660 <_ZTVSt10bad_typeid+0x10>
    8000039c:	e11c                	sd	a5,0(a0)
    8000039e:	00005617          	auipc	a2,0x5
    800003a2:	b8e60613          	addi	a2,a2,-1138 # 80004f2c <_ZNSt10bad_typeidD1Ev>
    800003a6:	000a8597          	auipc	a1,0xa8
    800003aa:	29258593          	addi	a1,a1,658 # 800a8638 <_ZTISt10bad_typeid>
    800003ae:	28d040ef          	jal	80004e3a <__cxa_throw>

00000000800003b2 <_ZSt19__throw_logic_errorPKc>:
    800003b2:	7179                	addi	sp,sp,-48
    800003b4:	e42a                	sd	a0,8(sp)
    800003b6:	4541                	li	a0,16
    800003b8:	f022                	sd	s0,32(sp)
    800003ba:	f406                	sd	ra,40(sp)
    800003bc:	ec26                	sd	s1,24(sp)
    800003be:	475040ef          	jal	80005032 <__cxa_allocate_exception>
    800003c2:	65a2                	ld	a1,8(sp)
    800003c4:	842a                	mv	s0,a0
    800003c6:	5320a0ef          	jal	8000a8f8 <_ZNSt11logic_errorC1EPKc>
    800003ca:	0000a617          	auipc	a2,0xa
    800003ce:	20260613          	addi	a2,a2,514 # 8000a5cc <_ZNSt11logic_errorD1Ev>
    800003d2:	000a9597          	auipc	a1,0xa9
    800003d6:	78658593          	addi	a1,a1,1926 # 800a9b58 <_ZTISt11logic_error>
    800003da:	8522                	mv	a0,s0
    800003dc:	25f040ef          	jal	80004e3a <__cxa_throw>
    800003e0:	84aa                	mv	s1,a0
    800003e2:	8522                	mv	a0,s0
    800003e4:	489040ef          	jal	8000506c <__cxa_free_exception>
    800003e8:	8526                	mv	a0,s1
    800003ea:	566110ef          	jal	80011950 <_Unwind_Resume>

00000000800003ee <_ZSt20__throw_domain_errorPKc>:
    800003ee:	7179                	addi	sp,sp,-48
    800003f0:	e42a                	sd	a0,8(sp)
    800003f2:	4541                	li	a0,16
    800003f4:	f022                	sd	s0,32(sp)
    800003f6:	f406                	sd	ra,40(sp)
    800003f8:	ec26                	sd	s1,24(sp)
    800003fa:	439040ef          	jal	80005032 <__cxa_allocate_exception>
    800003fe:	65a2                	ld	a1,8(sp)
    80000400:	842a                	mv	s0,a0
    80000402:	52c0a0ef          	jal	8000a92e <_ZNSt12domain_errorC1EPKc>
    80000406:	0000a617          	auipc	a2,0xa
    8000040a:	20260613          	addi	a2,a2,514 # 8000a608 <_ZNSt12domain_errorD1Ev>
    8000040e:	000a9597          	auipc	a1,0xa9
    80000412:	77a58593          	addi	a1,a1,1914 # 800a9b88 <_ZTISt12domain_error>
    80000416:	8522                	mv	a0,s0
    80000418:	223040ef          	jal	80004e3a <__cxa_throw>
    8000041c:	84aa                	mv	s1,a0
    8000041e:	8522                	mv	a0,s0
    80000420:	44d040ef          	jal	8000506c <__cxa_free_exception>
    80000424:	8526                	mv	a0,s1
    80000426:	52a110ef          	jal	80011950 <_Unwind_Resume>

000000008000042a <_ZSt24__throw_invalid_argumentPKc>:
    8000042a:	7179                	addi	sp,sp,-48
    8000042c:	e42a                	sd	a0,8(sp)
    8000042e:	4541                	li	a0,16
    80000430:	f022                	sd	s0,32(sp)
    80000432:	f406                	sd	ra,40(sp)
    80000434:	ec26                	sd	s1,24(sp)
    80000436:	3fd040ef          	jal	80005032 <__cxa_allocate_exception>
    8000043a:	65a2                	ld	a1,8(sp)
    8000043c:	842a                	mv	s0,a0
    8000043e:	50c0a0ef          	jal	8000a94a <_ZNSt16invalid_argumentC1EPKc>
    80000442:	0000a617          	auipc	a2,0xa
    80000446:	1e860613          	addi	a2,a2,488 # 8000a62a <_ZNSt16invalid_argumentD1Ev>
    8000044a:	000a9597          	auipc	a1,0xa9
    8000044e:	76e58593          	addi	a1,a1,1902 # 800a9bb8 <_ZTISt16invalid_argument>
    80000452:	8522                	mv	a0,s0
    80000454:	1e7040ef          	jal	80004e3a <__cxa_throw>
    80000458:	84aa                	mv	s1,a0
    8000045a:	8522                	mv	a0,s0
    8000045c:	411040ef          	jal	8000506c <__cxa_free_exception>
    80000460:	8526                	mv	a0,s1
    80000462:	4ee110ef          	jal	80011950 <_Unwind_Resume>

0000000080000466 <_ZSt20__throw_length_errorPKc>:
    80000466:	7179                	addi	sp,sp,-48
    80000468:	e42a                	sd	a0,8(sp)
    8000046a:	4541                	li	a0,16
    8000046c:	f022                	sd	s0,32(sp)
    8000046e:	f406                	sd	ra,40(sp)
    80000470:	ec26                	sd	s1,24(sp)
    80000472:	3c1040ef          	jal	80005032 <__cxa_allocate_exception>
    80000476:	65a2                	ld	a1,8(sp)
    80000478:	842a                	mv	s0,a0
    8000047a:	4ec0a0ef          	jal	8000a966 <_ZNSt12length_errorC1EPKc>
    8000047e:	0000a617          	auipc	a2,0xa
    80000482:	1ce60613          	addi	a2,a2,462 # 8000a64c <_ZNSt12length_errorD1Ev>
    80000486:	000a9597          	auipc	a1,0xa9
    8000048a:	76258593          	addi	a1,a1,1890 # 800a9be8 <_ZTISt12length_error>
    8000048e:	8522                	mv	a0,s0
    80000490:	1ab040ef          	jal	80004e3a <__cxa_throw>
    80000494:	84aa                	mv	s1,a0
    80000496:	8522                	mv	a0,s0
    80000498:	3d5040ef          	jal	8000506c <__cxa_free_exception>
    8000049c:	8526                	mv	a0,s1
    8000049e:	4b2110ef          	jal	80011950 <_Unwind_Resume>

00000000800004a2 <_ZSt20__throw_out_of_rangePKc>:
    800004a2:	7179                	addi	sp,sp,-48
    800004a4:	e42a                	sd	a0,8(sp)
    800004a6:	4541                	li	a0,16
    800004a8:	f022                	sd	s0,32(sp)
    800004aa:	f406                	sd	ra,40(sp)
    800004ac:	ec26                	sd	s1,24(sp)
    800004ae:	385040ef          	jal	80005032 <__cxa_allocate_exception>
    800004b2:	65a2                	ld	a1,8(sp)
    800004b4:	842a                	mv	s0,a0
    800004b6:	4cc0a0ef          	jal	8000a982 <_ZNSt12out_of_rangeC1EPKc>
    800004ba:	0000a617          	auipc	a2,0xa
    800004be:	1b460613          	addi	a2,a2,436 # 8000a66e <_ZNSt12out_of_rangeD1Ev>
    800004c2:	000a9597          	auipc	a1,0xa9
    800004c6:	75658593          	addi	a1,a1,1878 # 800a9c18 <_ZTISt12out_of_range>
    800004ca:	8522                	mv	a0,s0
    800004cc:	16f040ef          	jal	80004e3a <__cxa_throw>
    800004d0:	84aa                	mv	s1,a0
    800004d2:	8522                	mv	a0,s0
    800004d4:	399040ef          	jal	8000506c <__cxa_free_exception>
    800004d8:	8526                	mv	a0,s1
    800004da:	476110ef          	jal	80011950 <_Unwind_Resume>

00000000800004de <_ZSt24__throw_out_of_range_fmtPKcz>:
    800004de:	7159                	addi	sp,sp,-112
    800004e0:	f406                	sd	ra,40(sp)
    800004e2:	f022                	sd	s0,32(sp)
    800004e4:	ec26                	sd	s1,24(sp)
    800004e6:	1800                	addi	s0,sp,48
    800004e8:	e84a                	sd	s2,16(sp)
    800004ea:	84aa                	mv	s1,a0
    800004ec:	f018                	sd	a4,32(s0)
    800004ee:	03043823          	sd	a6,48(s0)
    800004f2:	03143c23          	sd	a7,56(s0)
    800004f6:	e40c                	sd	a1,8(s0)
    800004f8:	e810                	sd	a2,16(s0)
    800004fa:	ec14                	sd	a3,24(s0)
    800004fc:	f41c                	sd	a5,40(s0)
    800004fe:	765130ef          	jal	80014462 <strlen>
    80000502:	20f50793          	addi	a5,a0,527
    80000506:	9bc1                	andi	a5,a5,-16
    80000508:	40f10133          	sub	sp,sp,a5
    8000050c:	20050593          	addi	a1,a0,512
    80000510:	00840693          	addi	a3,s0,8
    80000514:	8626                	mv	a2,s1
    80000516:	850a                	mv	a0,sp
    80000518:	fcd43c23          	sd	a3,-40(s0)
    8000051c:	00b050ef          	jal	80005d26 <_ZN9__gnu_cxx15__snprintf_liteEPcmPKcPv>
    80000520:	4541                	li	a0,16
    80000522:	311040ef          	jal	80005032 <__cxa_allocate_exception>
    80000526:	858a                	mv	a1,sp
    80000528:	84aa                	mv	s1,a0
    8000052a:	4580a0ef          	jal	8000a982 <_ZNSt12out_of_rangeC1EPKc>
    8000052e:	0000a617          	auipc	a2,0xa
    80000532:	14060613          	addi	a2,a2,320 # 8000a66e <_ZNSt12out_of_rangeD1Ev>
    80000536:	000a9597          	auipc	a1,0xa9
    8000053a:	6e258593          	addi	a1,a1,1762 # 800a9c18 <_ZTISt12out_of_range>
    8000053e:	8526                	mv	a0,s1
    80000540:	0fb040ef          	jal	80004e3a <__cxa_throw>
    80000544:	892a                	mv	s2,a0
    80000546:	8526                	mv	a0,s1
    80000548:	325040ef          	jal	8000506c <__cxa_free_exception>
    8000054c:	854a                	mv	a0,s2
    8000054e:	402110ef          	jal	80011950 <_Unwind_Resume>

0000000080000552 <_ZSt21__throw_runtime_errorPKc>:
    80000552:	7179                	addi	sp,sp,-48
    80000554:	e42a                	sd	a0,8(sp)
    80000556:	4541                	li	a0,16
    80000558:	f022                	sd	s0,32(sp)
    8000055a:	f406                	sd	ra,40(sp)
    8000055c:	ec26                	sd	s1,24(sp)
    8000055e:	2d5040ef          	jal	80005032 <__cxa_allocate_exception>
    80000562:	65a2                	ld	a1,8(sp)
    80000564:	842a                	mv	s0,a0
    80000566:	4380a0ef          	jal	8000a99e <_ZNSt13runtime_errorC1EPKc>
    8000056a:	0000a617          	auipc	a2,0xa
    8000056e:	fc060613          	addi	a2,a2,-64 # 8000a52a <_ZNSt13runtime_errorD1Ev>
    80000572:	000a9597          	auipc	a1,0xa9
    80000576:	6d658593          	addi	a1,a1,1750 # 800a9c48 <_ZTISt13runtime_error>
    8000057a:	8522                	mv	a0,s0
    8000057c:	0bf040ef          	jal	80004e3a <__cxa_throw>
    80000580:	84aa                	mv	s1,a0
    80000582:	8522                	mv	a0,s0
    80000584:	2e9040ef          	jal	8000506c <__cxa_free_exception>
    80000588:	8526                	mv	a0,s1
    8000058a:	3c6110ef          	jal	80011950 <_Unwind_Resume>

000000008000058e <_ZSt19__throw_range_errorPKc>:
    8000058e:	7179                	addi	sp,sp,-48
    80000590:	e42a                	sd	a0,8(sp)
    80000592:	4541                	li	a0,16
    80000594:	f022                	sd	s0,32(sp)
    80000596:	f406                	sd	ra,40(sp)
    80000598:	ec26                	sd	s1,24(sp)
    8000059a:	299040ef          	jal	80005032 <__cxa_allocate_exception>
    8000059e:	65a2                	ld	a1,8(sp)
    800005a0:	842a                	mv	s0,a0
    800005a2:	4320a0ef          	jal	8000a9d4 <_ZNSt11range_errorC1EPKc>
    800005a6:	0000a617          	auipc	a2,0xa
    800005aa:	fc060613          	addi	a2,a2,-64 # 8000a566 <_ZNSt11range_errorD1Ev>
    800005ae:	000a9597          	auipc	a1,0xa9
    800005b2:	6c258593          	addi	a1,a1,1730 # 800a9c70 <_ZTISt11range_error>
    800005b6:	8522                	mv	a0,s0
    800005b8:	083040ef          	jal	80004e3a <__cxa_throw>
    800005bc:	84aa                	mv	s1,a0
    800005be:	8522                	mv	a0,s0
    800005c0:	2ad040ef          	jal	8000506c <__cxa_free_exception>
    800005c4:	8526                	mv	a0,s1
    800005c6:	38a110ef          	jal	80011950 <_Unwind_Resume>

00000000800005ca <_ZSt22__throw_overflow_errorPKc>:
    800005ca:	7179                	addi	sp,sp,-48
    800005cc:	e42a                	sd	a0,8(sp)
    800005ce:	4541                	li	a0,16
    800005d0:	f022                	sd	s0,32(sp)
    800005d2:	f406                	sd	ra,40(sp)
    800005d4:	ec26                	sd	s1,24(sp)
    800005d6:	25d040ef          	jal	80005032 <__cxa_allocate_exception>
    800005da:	65a2                	ld	a1,8(sp)
    800005dc:	842a                	mv	s0,a0
    800005de:	4120a0ef          	jal	8000a9f0 <_ZNSt14overflow_errorC1EPKc>
    800005e2:	0000a617          	auipc	a2,0xa
    800005e6:	fa660613          	addi	a2,a2,-90 # 8000a588 <_ZNSt14overflow_errorD1Ev>
    800005ea:	000a9597          	auipc	a1,0xa9
    800005ee:	6b658593          	addi	a1,a1,1718 # 800a9ca0 <_ZTISt14overflow_error>
    800005f2:	8522                	mv	a0,s0
    800005f4:	047040ef          	jal	80004e3a <__cxa_throw>
    800005f8:	84aa                	mv	s1,a0
    800005fa:	8522                	mv	a0,s0
    800005fc:	271040ef          	jal	8000506c <__cxa_free_exception>
    80000600:	8526                	mv	a0,s1
    80000602:	34e110ef          	jal	80011950 <_Unwind_Resume>

0000000080000606 <_ZSt23__throw_underflow_errorPKc>:
    80000606:	7179                	addi	sp,sp,-48
    80000608:	e42a                	sd	a0,8(sp)
    8000060a:	4541                	li	a0,16
    8000060c:	f022                	sd	s0,32(sp)
    8000060e:	f406                	sd	ra,40(sp)
    80000610:	ec26                	sd	s1,24(sp)
    80000612:	221040ef          	jal	80005032 <__cxa_allocate_exception>
    80000616:	65a2                	ld	a1,8(sp)
    80000618:	842a                	mv	s0,a0
    8000061a:	3f20a0ef          	jal	8000aa0c <_ZNSt15underflow_errorC1EPKc>
    8000061e:	0000a617          	auipc	a2,0xa
    80000622:	f8c60613          	addi	a2,a2,-116 # 8000a5aa <_ZNSt15underflow_errorD1Ev>
    80000626:	000a9597          	auipc	a1,0xa9
    8000062a:	6aa58593          	addi	a1,a1,1706 # 800a9cd0 <_ZTISt15underflow_error>
    8000062e:	8522                	mv	a0,s0
    80000630:	00b040ef          	jal	80004e3a <__cxa_throw>
    80000634:	84aa                	mv	s1,a0
    80000636:	8522                	mv	a0,s0
    80000638:	235040ef          	jal	8000506c <__cxa_free_exception>
    8000063c:	8526                	mv	a0,s1
    8000063e:	312110ef          	jal	80011950 <_Unwind_Resume>

0000000080000642 <_ZN9__gnu_cxx26__throw_insufficient_spaceEPKcS1_>:
    80000642:	7175                	addi	sp,sp,-144
    80000644:	e122                	sd	s0,128(sp)
    80000646:	0900                	addi	s0,sp,144
    80000648:	e506                	sd	ra,136(sp)
    8000064a:	fca6                	sd	s1,120(sp)
    8000064c:	f8ca                	sd	s2,112(sp)
    8000064e:	84ae                	mv	s1,a1
    80000650:	892a                	mv	s2,a0
    80000652:	06900613          	li	a2,105
    80000656:	00017597          	auipc	a1,0x17
    8000065a:	66258593          	addi	a1,a1,1634 # 80017cb8 <__tbss_end+0x2088>
    8000065e:	f7040513          	addi	a0,s0,-144
    80000662:	412484b3          	sub	s1,s1,s2
    80000666:	5e7130ef          	jal	8001444c <memcpy>
    8000066a:	07848793          	addi	a5,s1,120
    8000066e:	9bc1                	andi	a5,a5,-16
    80000670:	40f10133          	sub	sp,sp,a5
    80000674:	06800613          	li	a2,104
    80000678:	f7040593          	addi	a1,s0,-144
    8000067c:	850a                	mv	a0,sp
    8000067e:	5cf130ef          	jal	8001444c <memcpy>
    80000682:	8626                	mv	a2,s1
    80000684:	85ca                	mv	a1,s2
    80000686:	10a8                	addi	a0,sp,104
    80000688:	5c5130ef          	jal	8001444c <memcpy>
    8000068c:	948a                	add	s1,s1,sp
    8000068e:	06048423          	sb	zero,104(s1)
    80000692:	850a                	mv	a0,sp
    80000694:	d1fff0ef          	jal	800003b2 <_ZSt19__throw_logic_errorPKc>

0000000080000698 <__cxa_call_terminate>:
    80000698:	1141                	addi	sp,sp,-16
    8000069a:	e406                	sd	ra,8(sp)
    8000069c:	e022                	sd	s0,0(sp)
    8000069e:	c905                	beqz	a0,800006ce <__cxa_call_terminate+0x36>
    800006a0:	842a                	mv	s0,a0
    800006a2:	2b1040ef          	jal	80005152 <__cxa_begin_catch>
    800006a6:	b8b1b7b7          	lui	a5,0xb8b1b
    800006aa:	abd78793          	addi	a5,a5,-1347 # ffffffffb8b1aabd <__heap_end+0xffffffff388efabd>
    800006ae:	07b2                	slli	a5,a5,0xc
    800006b0:	bcd78793          	addi	a5,a5,-1075
    800006b4:	6018                	ld	a4,0(s0)
    800006b6:	07b2                	slli	a5,a5,0xc
    800006b8:	4d578793          	addi	a5,a5,1237
    800006bc:	07a2                	slli	a5,a5,0x8
    800006be:	97ba                	add	a5,a5,a4
    800006c0:	4705                	li	a4,1
    800006c2:	00f76663          	bltu	a4,a5,800006ce <__cxa_call_terminate+0x36>
    800006c6:	fc843503          	ld	a0,-56(s0)
    800006ca:	29a050ef          	jal	80005964 <_ZN10__cxxabiv111__terminateEPFvvE>
    800006ce:	c05ff0ef          	jal	800002d2 <_ZSt9terminatev>

00000000800006d2 <_ZNSt7__cxx1112basic_stringIcSt11char_traitsIcESaIcEE15_M_replace_coldEPcmPKcmm>:
    800006d2:	7139                	addi	sp,sp,-64
    800006d4:	f822                	sd	s0,48(sp)
    800006d6:	f426                	sd	s1,40(sp)
    800006d8:	f04a                	sd	s2,32(sp)
    800006da:	ec4e                	sd	s3,24(sp)
    800006dc:	843a                	mv	s0,a4
    800006de:	fc06                	sd	ra,56(sp)
    800006e0:	177d                	addi	a4,a4,-1
    800006e2:	84ae                	mv	s1,a1
    800006e4:	8932                	mv	s2,a2
    800006e6:	89b6                	mv	s3,a3
    800006e8:	00c77963          	bgeu	a4,a2,800006fa <_ZNSt7__cxx1112basic_stringIcSt11char_traitsIcESaIcEE15_M_replace_coldEPcmPKcmm+0x28>
    800006ec:	8622                	mv	a2,s0
    800006ee:	85b6                	mv	a1,a3
    800006f0:	8526                	mv	a0,s1
    800006f2:	e43e                	sd	a5,8(sp)
    800006f4:	4f70c0ef          	jal	8000d3ea <_ZNSt7__cxx1112basic_stringIcSt11char_traitsIcESaIcEE7_S_moveEPcPKcm>
    800006f8:	67a2                	ld	a5,8(sp)
    800006fa:	cb91                	beqz	a5,8000070e <_ZNSt7__cxx1112basic_stringIcSt11char_traitsIcESaIcEE15_M_replace_coldEPcmPKcmm+0x3c>
    800006fc:	07240963          	beq	s0,s2,8000076e <_ZNSt7__cxx1112basic_stringIcSt11char_traitsIcESaIcEE15_M_replace_coldEPcmPKcmm+0x9c>
    80000700:	863e                	mv	a2,a5
    80000702:	012485b3          	add	a1,s1,s2
    80000706:	00848533          	add	a0,s1,s0
    8000070a:	4e10c0ef          	jal	8000d3ea <_ZNSt7__cxx1112basic_stringIcSt11char_traitsIcESaIcEE7_S_moveEPcPKcm>
    8000070e:	06897063          	bgeu	s2,s0,8000076e <_ZNSt7__cxx1112basic_stringIcSt11char_traitsIcESaIcEE15_M_replace_coldEPcmPKcmm+0x9c>
    80000712:	012487b3          	add	a5,s1,s2
    80000716:	00898733          	add	a4,s3,s0
    8000071a:	00e7ed63          	bltu	a5,a4,80000734 <_ZNSt7__cxx1112basic_stringIcSt11char_traitsIcESaIcEE15_M_replace_coldEPcmPKcmm+0x62>
    8000071e:	8622                	mv	a2,s0
    80000720:	7442                	ld	s0,48(sp)
    80000722:	70e2                	ld	ra,56(sp)
    80000724:	7902                	ld	s2,32(sp)
    80000726:	85ce                	mv	a1,s3
    80000728:	8526                	mv	a0,s1
    8000072a:	69e2                	ld	s3,24(sp)
    8000072c:	74a2                	ld	s1,40(sp)
    8000072e:	6121                	addi	sp,sp,64
    80000730:	4bb0c06f          	j	8000d3ea <_ZNSt7__cxx1112basic_stringIcSt11char_traitsIcESaIcEE7_S_moveEPcPKcm>
    80000734:	00f9ef63          	bltu	s3,a5,80000752 <_ZNSt7__cxx1112basic_stringIcSt11char_traitsIcESaIcEE15_M_replace_coldEPcmPKcmm+0x80>
    80000738:	412405b3          	sub	a1,s0,s2
    8000073c:	8622                	mv	a2,s0
    8000073e:	95ce                	add	a1,a1,s3
    80000740:	8526                	mv	a0,s1
    80000742:	7442                	ld	s0,48(sp)
    80000744:	70e2                	ld	ra,56(sp)
    80000746:	74a2                	ld	s1,40(sp)
    80000748:	7902                	ld	s2,32(sp)
    8000074a:	69e2                	ld	s3,24(sp)
    8000074c:	6121                	addi	sp,sp,64
    8000074e:	4890c06f          	j	8000d3d6 <_ZNSt7__cxx1112basic_stringIcSt11char_traitsIcESaIcEE7_S_copyEPcPKcm>
    80000752:	41378933          	sub	s2,a5,s3
    80000756:	864a                	mv	a2,s2
    80000758:	85ce                	mv	a1,s3
    8000075a:	8526                	mv	a0,s1
    8000075c:	48f0c0ef          	jal	8000d3ea <_ZNSt7__cxx1112basic_stringIcSt11char_traitsIcESaIcEE7_S_moveEPcPKcm>
    80000760:	41240633          	sub	a2,s0,s2
    80000764:	008485b3          	add	a1,s1,s0
    80000768:	01248533          	add	a0,s1,s2
    8000076c:	bfd9                	j	80000742 <_ZNSt7__cxx1112basic_stringIcSt11char_traitsIcESaIcEE15_M_replace_coldEPcmPKcmm+0x70>
    8000076e:	70e2                	ld	ra,56(sp)
    80000770:	7442                	ld	s0,48(sp)
    80000772:	74a2                	ld	s1,40(sp)
    80000774:	7902                	ld	s2,32(sp)
    80000776:	69e2                	ld	s3,24(sp)
    80000778:	6121                	addi	sp,sp,64
    8000077a:	8082                	ret

000000008000077c <_ZSt20__throw_system_errori>:
    8000077c:	7139                	addi	sp,sp,-64
    8000077e:	f04a                	sd	s2,32(sp)
    80000780:	892a                	mv	s2,a0
    80000782:	02000513          	li	a0,32
    80000786:	f822                	sd	s0,48(sp)
    80000788:	f426                	sd	s1,40(sp)
    8000078a:	83018413          	addi	s0,gp,-2000 # 800b2368 <_ZN12_GLOBAL__N_1L25generic_category_instanceE>
    8000078e:	fc06                	sd	ra,56(sp)
    80000790:	0a3040ef          	jal	80005032 <__cxa_allocate_exception>
    80000794:	601c                	ld	a5,0(s0)
    80000796:	84aa                	mv	s1,a0
    80000798:	864a                	mv	a2,s2
    8000079a:	739c                	ld	a5,32(a5)
    8000079c:	85a2                	mv	a1,s0
    8000079e:	850a                	mv	a0,sp
    800007a0:	9782                	jalr	a5
    800007a2:	858a                	mv	a1,sp
    800007a4:	8526                	mv	a0,s1
    800007a6:	7dc0e0ef          	jal	8000ef82 <_ZNSt13runtime_errorC1ERKNSt7__cxx1112basic_stringIcSt11char_traitsIcESaIcEEE>
    800007aa:	850a                	mv	a0,sp
    800007ac:	3b10c0ef          	jal	8000d35c <_ZNSt7__cxx1112basic_stringIcSt11char_traitsIcESaIcEE10_M_disposeEv>
    800007b0:	000aa797          	auipc	a5,0xaa
    800007b4:	89078793          	addi	a5,a5,-1904 # 800aa040 <_ZTVSt12system_error+0x10>
    800007b8:	e09c                	sd	a5,0(s1)
    800007ba:	0124a823          	sw	s2,16(s1)
    800007be:	ec80                	sd	s0,24(s1)
    800007c0:	0000e617          	auipc	a2,0xe
    800007c4:	5c260613          	addi	a2,a2,1474 # 8000ed82 <_ZNSt12system_errorD1Ev>
    800007c8:	000a9597          	auipc	a1,0xa9
    800007cc:	6d058593          	addi	a1,a1,1744 # 800a9e98 <_ZTISt12system_error>
    800007d0:	8526                	mv	a0,s1
    800007d2:	668040ef          	jal	80004e3a <__cxa_throw>
    800007d6:	842a                	mv	s0,a0
    800007d8:	850a                	mv	a0,sp
    800007da:	3830c0ef          	jal	8000d35c <_ZNSt7__cxx1112basic_stringIcSt11char_traitsIcESaIcEE10_M_disposeEv>
    800007de:	8526                	mv	a0,s1
    800007e0:	08d040ef          	jal	8000506c <__cxa_free_exception>
    800007e4:	8522                	mv	a0,s0
    800007e6:	16a110ef          	jal	80011950 <_Unwind_Resume>
    800007ea:	842a                	mv	s0,a0
    800007ec:	bfcd                	j	800007de <_ZSt20__throw_system_errori+0x62>

00000000800007ee <main>:
    800007ee:	7169                	addi	sp,sp,-304
    800007f0:	00015517          	auipc	a0,0x15
    800007f4:	4e050513          	addi	a0,a0,1248 # 80015cd0 <__tbss_end+0xa0>
    800007f8:	f606                	sd	ra,296(sp)
    800007fa:	f222                	sd	s0,288(sp)
    800007fc:	ee26                	sd	s1,280(sp)
    800007fe:	ea4a                	sd	s2,272(sp)
    80000800:	e64e                	sd	s3,264(sp)
    80000802:	2b2130ef          	jal	80013ab4 <puts>
    80000806:	00015517          	auipc	a0,0x15
    8000080a:	51250513          	addi	a0,a0,1298 # 80015d18 <__tbss_end+0xe8>
    8000080e:	2a6130ef          	jal	80013ab4 <puts>
    80000812:	00015517          	auipc	a0,0x15
    80000816:	4be50513          	addi	a0,a0,1214 # 80015cd0 <__tbss_end+0xa0>
    8000081a:	29a130ef          	jal	80013ab4 <puts>
    8000081e:	47a9                	li	a5,10
    80000820:	04000713          	li	a4,64
    80000824:	08000693          	li	a3,128
    80000828:	10000613          	li	a2,256
    8000082c:	31000593          	li	a1,784
    80000830:	00015517          	auipc	a0,0x15
    80000834:	51850513          	addi	a0,a0,1304 # 80015d48 <__tbss_end+0x118>
    80000838:	136130ef          	jal	8001396e <iprintf>
    8000083c:	04000593          	li	a1,64
    80000840:	00015517          	auipc	a0,0x15
    80000844:	53850513          	addi	a0,a0,1336 # 80015d78 <__tbss_end+0x148>
    80000848:	126130ef          	jal	8001396e <iprintf>
    8000084c:	00015517          	auipc	a0,0x15
    80000850:	54450513          	addi	a0,a0,1348 # 80015d90 <__tbss_end+0x160>
    80000854:	260130ef          	jal	80013ab4 <puts>
    80000858:	00015517          	auipc	a0,0x15
    8000085c:	56850513          	addi	a0,a0,1384 # 80015dc0 <__tbss_end+0x190>
    80000860:	10e130ef          	jal	8001396e <iprintf>
    80000864:	00015517          	auipc	a0,0x15
    80000868:	58450513          	addi	a0,a0,1412 # 80015de8 <__tbss_end+0x1b8>
    8000086c:	248130ef          	jal	80013ab4 <puts>
    80000870:	00015517          	auipc	a0,0x15
    80000874:	5c050513          	addi	a0,a0,1472 # 80015e30 <__tbss_end+0x200>
    80000878:	520120ef          	jal	80012d98 <getenv>
    8000087c:	54050263          	beqz	a0,80000dc0 <main+0x5d2>
    80000880:	85aa                	mv	a1,a0
    80000882:	00015517          	auipc	a0,0x15
    80000886:	5c650513          	addi	a0,a0,1478 # 80015e48 <__tbss_end+0x218>
    8000088a:	0e4130ef          	jal	8001396e <iprintf>
    8000088e:	00015517          	auipc	a0,0x15
    80000892:	63250513          	addi	a0,a0,1586 # 80015ec0 <__tbss_end+0x290>
    80000896:	21e130ef          	jal	80013ab4 <puts>
    8000089a:	692000ef          	jal	80000f2c <_Z18dequantize_weightsv>
    8000089e:	4529                	li	a0,10
    800008a0:	160130ef          	jal	80013a00 <putchar>
    800008a4:	00015517          	auipc	a0,0x15
    800008a8:	63450513          	addi	a0,a0,1588 # 80015ed8 <__tbss_end+0x2a8>
    800008ac:	208130ef          	jal	80013ab4 <puts>
    800008b0:	0003b5b7          	lui	a1,0x3b
    800008b4:	44a58593          	addi	a1,a1,1098 # 3b44a <__heap_size+0x1b44a>
    800008b8:	00015517          	auipc	a0,0x15
    800008bc:	64050513          	addi	a0,a0,1600 # 80015ef8 <__tbss_end+0x2c8>
    800008c0:	0ae130ef          	jal	8001396e <iprintf>
    800008c4:	10000693          	li	a3,256
    800008c8:	85b6                	mv	a1,a3
    800008ca:	31000613          	li	a2,784
    800008ce:	00015517          	auipc	a0,0x15
    800008d2:	64250513          	addi	a0,a0,1602 # 80015f10 <__tbss_end+0x2e0>
    800008d6:	098130ef          	jal	8001396e <iprintf>
    800008da:	08000693          	li	a3,128
    800008de:	85b6                	mv	a1,a3
    800008e0:	10000613          	li	a2,256
    800008e4:	00015517          	auipc	a0,0x15
    800008e8:	64c50513          	addi	a0,a0,1612 # 80015f30 <__tbss_end+0x300>
    800008ec:	082130ef          	jal	8001396e <iprintf>
    800008f0:	04000693          	li	a3,64
    800008f4:	85b6                	mv	a1,a3
    800008f6:	08000613          	li	a2,128
    800008fa:	00015517          	auipc	a0,0x15
    800008fe:	65650513          	addi	a0,a0,1622 # 80015f50 <__tbss_end+0x320>
    80000902:	06c130ef          	jal	8001396e <iprintf>
    80000906:	46a9                	li	a3,10
    80000908:	85b6                	mv	a1,a3
    8000090a:	04000613          	li	a2,64
    8000090e:	00015517          	auipc	a0,0x15
    80000912:	66250513          	addi	a0,a0,1634 # 80015f70 <__tbss_end+0x340>
    80000916:	058130ef          	jal	8001396e <iprintf>
    8000091a:	4529                	li	a0,10
    8000091c:	0e4130ef          	jal	80013a00 <putchar>
    80000920:	00015517          	auipc	a0,0x15
    80000924:	67050513          	addi	a0,a0,1648 # 80015f90 <__tbss_end+0x360>
    80000928:	18c130ef          	jal	80013ab4 <puts>
    8000092c:	10000613          	li	a2,256
    80000930:	31000593          	li	a1,784
    80000934:	00015517          	auipc	a0,0x15
    80000938:	68450513          	addi	a0,a0,1668 # 80015fb8 <__tbss_end+0x388>
    8000093c:	032130ef          	jal	8001396e <iprintf>
    80000940:	10000793          	li	a5,256
    80000944:	31000713          	li	a4,784
    80000948:	04000813          	li	a6,64
    8000094c:	a5018693          	addi	a3,gp,-1456 # 800b2588 <_ZL7b1_fp32>
    80000950:	000eb617          	auipc	a2,0xeb
    80000954:	d6060613          	addi	a2,a2,-672 # 800eb6b0 <_ZL11test_X_fp32>
    80000958:	00144597          	auipc	a1,0x144
    8000095c:	75858593          	addi	a1,a1,1880 # 801450b0 <_ZL7w1_fp32>
    80000960:	000db517          	auipc	a0,0xdb
    80000964:	d5050513          	addi	a0,a0,-688 # 800db6b0 <_ZL5y_fc1>
    80000968:	015000ef          	jal	8000117c <_Z14nn_linear_fp32PfPKfS1_S1_mmm>
    8000096c:	10000693          	li	a3,256
    80000970:	04000613          	li	a2,64
    80000974:	000db597          	auipc	a1,0xdb
    80000978:	d3c58593          	addi	a1,a1,-708 # 800db6b0 <_ZL5y_fc1>
    8000097c:	00015517          	auipc	a0,0x15
    80000980:	66450513          	addi	a0,a0,1636 # 80015fe0 <__tbss_end+0x3b0>
    80000984:	0f5000ef          	jal	80001278 <_Z22print_layer_stats_fp32PKcPKfii>
    80000988:	f0000753          	fmv.w.x	fa4,zero
    8000098c:	000db797          	auipc	a5,0xdb
    80000990:	d2478793          	addi	a5,a5,-732 # 800db6b0 <_ZL5y_fc1>
    80000994:	000cb717          	auipc	a4,0xcb
    80000998:	d1c70713          	addi	a4,a4,-740 # 800cb6b0 <_ZL7y_relu1>
    8000099c:	000eb697          	auipc	a3,0xeb
    800009a0:	d1468693          	addi	a3,a3,-748 # 800eb6b0 <_ZL11test_X_fp32>
    800009a4:	0007a787          	flw	fa5,0(a5)
    800009a8:	0791                	addi	a5,a5,4
    800009aa:	0711                	addi	a4,a4,4
    800009ac:	28e797d3          	fmax.s	fa5,fa5,fa4
    800009b0:	fef72e27          	fsw	fa5,-4(a4)
    800009b4:	fed798e3          	bne	a5,a3,800009a4 <main+0x1b6>
    800009b8:	10000693          	li	a3,256
    800009bc:	04000613          	li	a2,64
    800009c0:	000cb597          	auipc	a1,0xcb
    800009c4:	cf058593          	addi	a1,a1,-784 # 800cb6b0 <_ZL7y_relu1>
    800009c8:	00015517          	auipc	a0,0x15
    800009cc:	62850513          	addi	a0,a0,1576 # 80015ff0 <__tbss_end+0x3c0>
    800009d0:	0a9000ef          	jal	80001278 <_Z22print_layer_stats_fp32PKcPKfii>
    800009d4:	08000613          	li	a2,128
    800009d8:	10000593          	li	a1,256
    800009dc:	00015517          	auipc	a0,0x15
    800009e0:	62450513          	addi	a0,a0,1572 # 80016000 <__tbss_end+0x3d0>
    800009e4:	78b120ef          	jal	8001396e <iprintf>
    800009e8:	08000793          	li	a5,128
    800009ec:	10000713          	li	a4,256
    800009f0:	04000813          	li	a6,64
    800009f4:	f5018693          	addi	a3,gp,-176 # 800b2a88 <_ZL7b2_fp32>
    800009f8:	000cb617          	auipc	a2,0xcb
    800009fc:	cb860613          	addi	a2,a2,-840 # 800cb6b0 <_ZL7y_relu1>
    80000a00:	00124597          	auipc	a1,0x124
    80000a04:	6b058593          	addi	a1,a1,1712 # 801250b0 <_ZL7w2_fp32>
    80000a08:	000c3517          	auipc	a0,0xc3
    80000a0c:	ca850513          	addi	a0,a0,-856 # 800c36b0 <_ZL5y_fc2>
    80000a10:	76c000ef          	jal	8000117c <_Z14nn_linear_fp32PfPKfS1_S1_mmm>
    80000a14:	08000693          	li	a3,128
    80000a18:	04000613          	li	a2,64
    80000a1c:	000c3597          	auipc	a1,0xc3
    80000a20:	c9458593          	addi	a1,a1,-876 # 800c36b0 <_ZL5y_fc2>
    80000a24:	00015517          	auipc	a0,0x15
    80000a28:	60450513          	addi	a0,a0,1540 # 80016028 <__tbss_end+0x3f8>
    80000a2c:	04d000ef          	jal	80001278 <_Z22print_layer_stats_fp32PKcPKfii>
    80000a30:	f0000753          	fmv.w.x	fa4,zero
    80000a34:	000c3797          	auipc	a5,0xc3
    80000a38:	c7c78793          	addi	a5,a5,-900 # 800c36b0 <_ZL5y_fc2>
    80000a3c:	000bb717          	auipc	a4,0xbb
    80000a40:	c7470713          	addi	a4,a4,-908 # 800bb6b0 <_ZL7y_relu2>
    80000a44:	000cb697          	auipc	a3,0xcb
    80000a48:	c6c68693          	addi	a3,a3,-916 # 800cb6b0 <_ZL7y_relu1>
    80000a4c:	0007a787          	flw	fa5,0(a5)
    80000a50:	0791                	addi	a5,a5,4
    80000a52:	0711                	addi	a4,a4,4
    80000a54:	28e797d3          	fmax.s	fa5,fa5,fa4
    80000a58:	fef72e27          	fsw	fa5,-4(a4)
    80000a5c:	fed798e3          	bne	a5,a3,80000a4c <main+0x25e>
    80000a60:	08000693          	li	a3,128
    80000a64:	04000613          	li	a2,64
    80000a68:	000bb597          	auipc	a1,0xbb
    80000a6c:	c4858593          	addi	a1,a1,-952 # 800bb6b0 <_ZL7y_relu2>
    80000a70:	00015517          	auipc	a0,0x15
    80000a74:	5c850513          	addi	a0,a0,1480 # 80016038 <__tbss_end+0x408>
    80000a78:	001000ef          	jal	80001278 <_Z22print_layer_stats_fp32PKcPKfii>
    80000a7c:	04000613          	li	a2,64
    80000a80:	08000593          	li	a1,128
    80000a84:	00015517          	auipc	a0,0x15
    80000a88:	5c450513          	addi	a0,a0,1476 # 80016048 <__tbss_end+0x418>
    80000a8c:	6e3120ef          	jal	8001396e <iprintf>
    80000a90:	04000813          	li	a6,64
    80000a94:	87c2                	mv	a5,a6
    80000a96:	08000713          	li	a4,128
    80000a9a:	e5018693          	addi	a3,gp,-432 # 800b2988 <_ZL7b3_fp32>
    80000a9e:	000bb617          	auipc	a2,0xbb
    80000aa2:	c1260613          	addi	a2,a2,-1006 # 800bb6b0 <_ZL7y_relu2>
    80000aa6:	0011c597          	auipc	a1,0x11c
    80000aaa:	60a58593          	addi	a1,a1,1546 # 8011d0b0 <_ZL7w3_fp32>
    80000aae:	000b7517          	auipc	a0,0xb7
    80000ab2:	c0250513          	addi	a0,a0,-1022 # 800b76b0 <_ZL5y_fc3>
    80000ab6:	6c6000ef          	jal	8000117c <_Z14nn_linear_fp32PfPKfS1_S1_mmm>
    80000aba:	04000693          	li	a3,64
    80000abe:	8636                	mv	a2,a3
    80000ac0:	000b7597          	auipc	a1,0xb7
    80000ac4:	bf058593          	addi	a1,a1,-1040 # 800b76b0 <_ZL5y_fc3>
    80000ac8:	00015517          	auipc	a0,0x15
    80000acc:	5a850513          	addi	a0,a0,1448 # 80016070 <__tbss_end+0x440>
    80000ad0:	7a8000ef          	jal	80001278 <_Z22print_layer_stats_fp32PKcPKfii>
    80000ad4:	f0000753          	fmv.w.x	fa4,zero
    80000ad8:	000b7797          	auipc	a5,0xb7
    80000adc:	bd878793          	addi	a5,a5,-1064 # 800b76b0 <_ZL5y_fc3>
    80000ae0:	000b3717          	auipc	a4,0xb3
    80000ae4:	bd070713          	addi	a4,a4,-1072 # 800b36b0 <_ZL7y_relu3>
    80000ae8:	000bb697          	auipc	a3,0xbb
    80000aec:	bc868693          	addi	a3,a3,-1080 # 800bb6b0 <_ZL7y_relu2>
    80000af0:	0007a787          	flw	fa5,0(a5)
    80000af4:	0791                	addi	a5,a5,4
    80000af6:	0711                	addi	a4,a4,4
    80000af8:	28e797d3          	fmax.s	fa5,fa5,fa4
    80000afc:	fef72e27          	fsw	fa5,-4(a4)
    80000b00:	fed798e3          	bne	a5,a3,80000af0 <main+0x302>
    80000b04:	04000693          	li	a3,64
    80000b08:	8636                	mv	a2,a3
    80000b0a:	000b3597          	auipc	a1,0xb3
    80000b0e:	ba658593          	addi	a1,a1,-1114 # 800b36b0 <_ZL7y_relu3>
    80000b12:	00015517          	auipc	a0,0x15
    80000b16:	56e50513          	addi	a0,a0,1390 # 80016080 <__tbss_end+0x450>
    80000b1a:	75e000ef          	jal	80001278 <_Z22print_layer_stats_fp32PKcPKfii>
    80000b1e:	4629                	li	a2,10
    80000b20:	04000593          	li	a1,64
    80000b24:	00015517          	auipc	a0,0x15
    80000b28:	56c50513          	addi	a0,a0,1388 # 80016090 <__tbss_end+0x460>
    80000b2c:	643120ef          	jal	8001396e <iprintf>
    80000b30:	04000813          	li	a6,64
    80000b34:	8742                	mv	a4,a6
    80000b36:	47a9                	li	a5,10
    80000b38:	15018693          	addi	a3,gp,336 # 800b2c88 <_ZL7b4_fp32>
    80000b3c:	000b3617          	auipc	a2,0xb3
    80000b40:	b7460613          	addi	a2,a2,-1164 # 800b36b0 <_ZL7y_relu3>
    80000b44:	0011c597          	auipc	a1,0x11c
    80000b48:	b6c58593          	addi	a1,a1,-1172 # 8011c6b0 <_ZL7w4_fp32>
    80000b4c:	000b2517          	auipc	a0,0xb2
    80000b50:	16450513          	addi	a0,a0,356 # 800b2cb0 <_ZL5y_fc4>
    80000b54:	628000ef          	jal	8000117c <_Z14nn_linear_fp32PfPKfS1_S1_mmm>
    80000b58:	46a9                	li	a3,10
    80000b5a:	04000613          	li	a2,64
    80000b5e:	000b2597          	auipc	a1,0xb2
    80000b62:	15258593          	addi	a1,a1,338 # 800b2cb0 <_ZL5y_fc4>
    80000b66:	00015517          	auipc	a0,0x15
    80000b6a:	55250513          	addi	a0,a0,1362 # 800160b8 <__tbss_end+0x488>
    80000b6e:	70a000ef          	jal	80001278 <_Z22print_layer_stats_fp32PKcPKfii>
    80000b72:	4529                	li	a0,10
    80000b74:	68d120ef          	jal	80013a00 <putchar>
    80000b78:	00015517          	auipc	a0,0x15
    80000b7c:	55050513          	addi	a0,a0,1360 # 800160c8 <__tbss_end+0x498>
    80000b80:	735120ef          	jal	80013ab4 <puts>
    80000b84:	46a9                	li	a3,10
    80000b86:	04000613          	li	a2,64
    80000b8a:	000b2597          	auipc	a1,0xb2
    80000b8e:	12658593          	addi	a1,a1,294 # 800b2cb0 <_ZL5y_fc4>
    80000b92:	850a                	mv	a0,sp
    80000b94:	694000ef          	jal	80001228 <_Z11argmax_fp32PiPKfmm>
    80000b98:	00015517          	auipc	a0,0x15
    80000b9c:	54050513          	addi	a0,a0,1344 # 800160d8 <__tbss_end+0x4a8>
    80000ba0:	5cf120ef          	jal	8001396e <iprintf>
    80000ba4:	848a                	mv	s1,sp
    80000ba6:	408c                	lw	a1,0(s1)
    80000ba8:	00015517          	auipc	a0,0x15
    80000bac:	55050513          	addi	a0,a0,1360 # 800160f8 <__tbss_end+0x4c8>
    80000bb0:	05010913          	addi	s2,sp,80
    80000bb4:	5bb120ef          	jal	8001396e <iprintf>
    80000bb8:	0491                	addi	s1,s1,4
    80000bba:	840a                	mv	s0,sp
    80000bbc:	00015517          	auipc	a0,0x15
    80000bc0:	56c50513          	addi	a0,a0,1388 # 80016128 <__tbss_end+0x4f8>
    80000bc4:	03248263          	beq	s1,s2,80000be8 <main+0x3fa>
    80000bc8:	5a7120ef          	jal	8001396e <iprintf>
    80000bcc:	408c                	lw	a1,0(s1)
    80000bce:	00015517          	auipc	a0,0x15
    80000bd2:	52a50513          	addi	a0,a0,1322 # 800160f8 <__tbss_end+0x4c8>
    80000bd6:	0491                	addi	s1,s1,4
    80000bd8:	597120ef          	jal	8001396e <iprintf>
    80000bdc:	00015517          	auipc	a0,0x15
    80000be0:	54c50513          	addi	a0,a0,1356 # 80016128 <__tbss_end+0x4f8>
    80000be4:	ff2492e3          	bne	s1,s2,80000bc8 <main+0x3da>
    80000be8:	00015517          	auipc	a0,0x15
    80000bec:	51850513          	addi	a0,a0,1304 # 80016100 <__tbss_end+0x4d0>
    80000bf0:	6c5120ef          	jal	80013ab4 <puts>
    80000bf4:	00015517          	auipc	a0,0x15
    80000bf8:	51450513          	addi	a0,a0,1300 # 80016108 <__tbss_end+0x4d8>
    80000bfc:	00019497          	auipc	s1,0x19
    80000c00:	0fc48493          	addi	s1,s1,252 # 80019cf8 <_ZL16mnist_mlp_test_Y>
    80000c04:	56b120ef          	jal	8001396e <iprintf>
    80000c08:	8926                	mv	s2,s1
    80000c0a:	00091583          	lh	a1,0(s2)
    80000c0e:	00015517          	auipc	a0,0x15
    80000c12:	4ea50513          	addi	a0,a0,1258 # 800160f8 <__tbss_end+0x4c8>
    80000c16:	00019997          	auipc	s3,0x19
    80000c1a:	10a98993          	addi	s3,s3,266 # 80019d20 <_ZL16mnist_mlp_test_Y+0x28>
    80000c1e:	551120ef          	jal	8001396e <iprintf>
    80000c22:	0909                	addi	s2,s2,2
    80000c24:	00015517          	auipc	a0,0x15
    80000c28:	50450513          	addi	a0,a0,1284 # 80016128 <__tbss_end+0x4f8>
    80000c2c:	03390363          	beq	s2,s3,80000c52 <main+0x464>
    80000c30:	53f120ef          	jal	8001396e <iprintf>
    80000c34:	00091583          	lh	a1,0(s2)
    80000c38:	00015517          	auipc	a0,0x15
    80000c3c:	4c050513          	addi	a0,a0,1216 # 800160f8 <__tbss_end+0x4c8>
    80000c40:	0909                	addi	s2,s2,2
    80000c42:	52d120ef          	jal	8001396e <iprintf>
    80000c46:	00015517          	auipc	a0,0x15
    80000c4a:	4e250513          	addi	a0,a0,1250 # 80016128 <__tbss_end+0x4f8>
    80000c4e:	ff3911e3          	bne	s2,s3,80000c30 <main+0x442>
    80000c52:	00015517          	auipc	a0,0x15
    80000c56:	4ae50513          	addi	a0,a0,1198 # 80016100 <__tbss_end+0x4d0>
    80000c5a:	65b120ef          	jal	80013ab4 <puts>
    80000c5e:	0214                	addi	a3,sp,256
    80000c60:	4581                	li	a1,0
    80000c62:	00049703          	lh	a4,0(s1)
    80000c66:	401c                	lw	a5,0(s0)
    80000c68:	0489                	addi	s1,s1,2
    80000c6a:	0411                	addi	s0,s0,4
    80000c6c:	14f70663          	beq	a4,a5,80000db8 <main+0x5ca>
    80000c70:	fed419e3          	bne	s0,a3,80000c62 <main+0x474>
    80000c74:	000b1797          	auipc	a5,0xb1
    80000c78:	7987a707          	flw	fa4,1944(a5) # 800b240c <__atexit_dummy+0x84>
    80000c7c:	d005f7d3          	fcvt.s.w	fa5,a1
    80000c80:	04000613          	li	a2,64
    80000c84:	00015517          	auipc	a0,0x15
    80000c88:	4ac50513          	addi	a0,a0,1196 # 80016130 <__tbss_end+0x500>
    80000c8c:	10e7f7d3          	fmul.s	fa5,fa5,fa4
    80000c90:	420787d3          	fcvt.d.s	fa5,fa5
    80000c94:	e20786d3          	fmv.x.d	a3,fa5
    80000c98:	e2078453          	fmv.x.d	s0,fa5
    80000c9c:	4d3120ef          	jal	8001396e <iprintf>
    80000ca0:	00015517          	auipc	a0,0x15
    80000ca4:	4c050513          	addi	a0,a0,1216 # 80016160 <__tbss_end+0x530>
    80000ca8:	4c7120ef          	jal	8001396e <iprintf>
    80000cac:	00015517          	auipc	a0,0x15
    80000cb0:	4d450513          	addi	a0,a0,1236 # 80016180 <__tbss_end+0x550>
    80000cb4:	601120ef          	jal	80013ab4 <puts>
    80000cb8:	00015517          	auipc	a0,0x15
    80000cbc:	4e050513          	addi	a0,a0,1248 # 80016198 <__tbss_end+0x568>
    80000cc0:	4af120ef          	jal	8001396e <iprintf>
    80000cc4:	85a2                	mv	a1,s0
    80000cc6:	00015517          	auipc	a0,0x15
    80000cca:	50a50513          	addi	a0,a0,1290 # 800161d0 <__tbss_end+0x5a0>
    80000cce:	4a1120ef          	jal	8001396e <iprintf>
    80000cd2:	4529                	li	a0,10
    80000cd4:	52d120ef          	jal	80013a00 <putchar>
    80000cd8:	00015517          	auipc	a0,0x15
    80000cdc:	53050513          	addi	a0,a0,1328 # 80016208 <__tbss_end+0x5d8>
    80000ce0:	5d5120ef          	jal	80013ab4 <puts>
    80000ce4:	00015517          	auipc	a0,0x15
    80000ce8:	56450513          	addi	a0,a0,1380 # 80016248 <__tbss_end+0x618>
    80000cec:	5c9120ef          	jal	80013ab4 <puts>
    80000cf0:	00015517          	auipc	a0,0x15
    80000cf4:	59850513          	addi	a0,a0,1432 # 80016288 <__tbss_end+0x658>
    80000cf8:	5bd120ef          	jal	80013ab4 <puts>
    80000cfc:	00015517          	auipc	a0,0x15
    80000d00:	5cc50513          	addi	a0,a0,1484 # 800162c8 <__tbss_end+0x698>
    80000d04:	5b1120ef          	jal	80013ab4 <puts>
    80000d08:	00eca5b7          	lui	a1,0xeca
    80000d0c:	00015517          	auipc	a0,0x15
    80000d10:	5dc50513          	addi	a0,a0,1500 # 800162e8 <__tbss_end+0x6b8>
    80000d14:	45b120ef          	jal	8001396e <iprintf>
    80000d18:	00c40737          	lui	a4,0xc40
    80000d1c:	10000693          	li	a3,256
    80000d20:	31000613          	li	a2,784
    80000d24:	04000593          	li	a1,64
    80000d28:	00015517          	auipc	a0,0x15
    80000d2c:	5e050513          	addi	a0,a0,1504 # 80016308 <__tbss_end+0x6d8>
    80000d30:	43f120ef          	jal	8001396e <iprintf>
    80000d34:	00200737          	lui	a4,0x200
    80000d38:	08000693          	li	a3,128
    80000d3c:	10000613          	li	a2,256
    80000d40:	04000593          	li	a1,64
    80000d44:	00015517          	auipc	a0,0x15
    80000d48:	5ec50513          	addi	a0,a0,1516 # 80016330 <__tbss_end+0x700>
    80000d4c:	423120ef          	jal	8001396e <iprintf>
    80000d50:	04000693          	li	a3,64
    80000d54:	85b6                	mv	a1,a3
    80000d56:	00080737          	lui	a4,0x80
    80000d5a:	08000613          	li	a2,128
    80000d5e:	00015517          	auipc	a0,0x15
    80000d62:	5fa50513          	addi	a0,a0,1530 # 80016358 <__tbss_end+0x728>
    80000d66:	409120ef          	jal	8001396e <iprintf>
    80000d6a:	04000613          	li	a2,64
    80000d6e:	85b2                	mv	a1,a2
    80000d70:	6729                	lui	a4,0xa
    80000d72:	46a9                	li	a3,10
    80000d74:	00015517          	auipc	a0,0x15
    80000d78:	60c50513          	addi	a0,a0,1548 # 80016380 <__tbss_end+0x750>
    80000d7c:	3f3120ef          	jal	8001396e <iprintf>
    80000d80:	00015517          	auipc	a0,0x15
    80000d84:	62850513          	addi	a0,a0,1576 # 800163a8 <__tbss_end+0x778>
    80000d88:	52d120ef          	jal	80013ab4 <puts>
    80000d8c:	00015517          	auipc	a0,0x15
    80000d90:	66450513          	addi	a0,a0,1636 # 800163f0 <__tbss_end+0x7c0>
    80000d94:	521120ef          	jal	80013ab4 <puts>
    80000d98:	00015517          	auipc	a0,0x15
    80000d9c:	f3850513          	addi	a0,a0,-200 # 80015cd0 <__tbss_end+0xa0>
    80000da0:	515120ef          	jal	80013ab4 <puts>
    80000da4:	1e00000b          	.insn	4, 0x1e00000b
    80000da8:	70b2                	ld	ra,296(sp)
    80000daa:	7412                	ld	s0,288(sp)
    80000dac:	64f2                	ld	s1,280(sp)
    80000dae:	6952                	ld	s2,272(sp)
    80000db0:	69b2                	ld	s3,264(sp)
    80000db2:	4501                	li	a0,0
    80000db4:	6155                	addi	sp,sp,304
    80000db6:	8082                	ret
    80000db8:	2585                	addiw	a1,a1,1 # eca001 <__heap_size+0xeaa001>
    80000dba:	ead414e3          	bne	s0,a3,80000c62 <main+0x474>
    80000dbe:	bd5d                	j	80000c74 <main+0x486>
    80000dc0:	00015517          	auipc	a0,0x15
    80000dc4:	0c850513          	addi	a0,a0,200 # 80015e88 <__tbss_end+0x258>
    80000dc8:	4ed120ef          	jal	80013ab4 <puts>
    80000dcc:	b4c9                	j	8000088e <main+0xa0>

0000000080000dce <_GLOBAL__sub_I__ZN9__gnu_cxx9__freeresEv>:
    80000dce:	7175                	addi	sp,sp,-144
    80000dd0:	00017517          	auipc	a0,0x17
    80000dd4:	dd850513          	addi	a0,a0,-552 # 80017ba8 <__tbss_end+0x1f78>
    80000dd8:	e122                	sd	s0,128(sp)
    80000dda:	f8ca                	sd	s2,112(sp)
    80000ddc:	f4ce                	sd	s3,104(sp)
    80000dde:	00209797          	auipc	a5,0x209
    80000de2:	3c07bd23          	sd	zero,986(a5) # 8020a1b8 <_ZN12_GLOBAL__N_1L14emergency_poolE+0x8>
    80000de6:	00209797          	auipc	a5,0x209
    80000dea:	3c07bd23          	sd	zero,986(a5) # 8020a1c0 <_ZN12_GLOBAL__N_1L14emergency_poolE+0x10>
    80000dee:	00209797          	auipc	a5,0x209
    80000df2:	3c07bd23          	sd	zero,986(a5) # 8020a1c8 <_ZN12_GLOBAL__N_1L14emergency_poolE+0x18>
    80000df6:	e506                	sd	ra,136(sp)
    80000df8:	fca6                	sd	s1,120(sp)
    80000dfa:	79f110ef          	jal	80012d98 <getenv>
    80000dfe:	47bd                	li	a5,15
    80000e00:	f03e                	sd	a5,32(sp)
    80000e02:	00017797          	auipc	a5,0x17
    80000e06:	dbe78793          	addi	a5,a5,-578 # 80017bc0 <__tbss_end+0x1f90>
    80000e0a:	f43e                	sd	a5,40(sp)
    80000e0c:	47a1                	li	a5,8
    80000e0e:	f83e                	sd	a5,48(sp)
    80000e10:	00017797          	auipc	a5,0x17
    80000e14:	dc078793          	addi	a5,a5,-576 # 80017bd0 <__tbss_end+0x1fa0>
    80000e18:	fc3e                	sd	a5,56(sp)
    80000e1a:	47a5                	li	a5,9
    80000e1c:	e4be                	sd	a5,72(sp)
    80000e1e:	00017797          	auipc	a5,0x17
    80000e22:	dc278793          	addi	a5,a5,-574 # 80017be0 <__tbss_end+0x1fb0>
    80000e26:	e8be                	sd	a5,80(sp)
    80000e28:	4791                	li	a5,4
    80000e2a:	842a                	mv	s0,a0
    80000e2c:	e082                	sd	zero,64(sp)
    80000e2e:	ccbe                	sw	a5,88(sp)
    80000e30:	03a00913          	li	s2,58
    80000e34:	02e00993          	li	s3,46
    80000e38:	e829                	bnez	s0,80000e8a <_GLOBAL__sub_I__ZN9__gnu_cxx9__freeresEv+0xbc>
    80000e3a:	46e6                	lw	a3,88(sp)
    80000e3c:	04000713          	li	a4,64
    80000e40:	0006879b          	sext.w	a5,a3
    80000e44:	00d75463          	bge	a4,a3,80000e4c <_GLOBAL__sub_I__ZN9__gnu_cxx9__freeresEv+0x7e>
    80000e48:	0007079b          	sext.w	a5,a4
    80000e4c:	4406                	lw	s0,64(sp)
    80000e4e:	e011                	bnez	s0,80000e52 <_GLOBAL__sub_I__ZN9__gnu_cxx9__freeresEv+0x84>
    80000e50:	4419                	li	s0,6
    80000e52:	0479                	addi	s0,s0,30
    80000e54:	02f40433          	mul	s0,s0,a5
    80000e58:	040e                	slli	s0,s0,0x3
    80000e5a:	00209797          	auipc	a5,0x209
    80000e5e:	3687b723          	sd	s0,878(a5) # 8020a1c8 <_ZN12_GLOBAL__N_1L14emergency_poolE+0x18>
    80000e62:	cc09                	beqz	s0,80000e7c <_GLOBAL__sub_I__ZN9__gnu_cxx9__freeresEv+0xae>
    80000e64:	8522                	mv	a0,s0
    80000e66:	7ef110ef          	jal	80012e54 <malloc>
    80000e6a:	00209797          	auipc	a5,0x209
    80000e6e:	34a7bb23          	sd	a0,854(a5) # 8020a1c0 <_ZN12_GLOBAL__N_1L14emergency_poolE+0x10>
    80000e72:	e545                	bnez	a0,80000f1a <_GLOBAL__sub_I__ZN9__gnu_cxx9__freeresEv+0x14c>
    80000e74:	00209797          	auipc	a5,0x209
    80000e78:	3407ba23          	sd	zero,852(a5) # 8020a1c8 <_ZN12_GLOBAL__N_1L14emergency_poolE+0x18>
    80000e7c:	60aa                	ld	ra,136(sp)
    80000e7e:	640a                	ld	s0,128(sp)
    80000e80:	74e6                	ld	s1,120(sp)
    80000e82:	7946                	ld	s2,112(sp)
    80000e84:	79a6                	ld	s3,104(sp)
    80000e86:	6149                	addi	sp,sp,144
    80000e88:	8082                	ret
    80000e8a:	00044783          	lbu	a5,0(s0)
    80000e8e:	01279363          	bne	a5,s2,80000e94 <_GLOBAL__sub_I__ZN9__gnu_cxx9__freeresEv+0xc6>
    80000e92:	0405                	addi	s0,s0,1
    80000e94:	473d                	li	a4,15
    80000e96:	86a2                	mv	a3,s0
    80000e98:	863a                	mv	a2,a4
    80000e9a:	4581                	li	a1,0
    80000e9c:	1008                	addi	a0,sp,32
    80000e9e:	244040ef          	jal	800050e2 <_ZNKSt17basic_string_viewIcSt11char_traitsIcEE7compareEmmPKcm>
    80000ea2:	ed0d                	bnez	a0,80000edc <_GLOBAL__sub_I__ZN9__gnu_cxx9__freeresEv+0x10e>
    80000ea4:	00f44783          	lbu	a5,15(s0)
    80000ea8:	03379a63          	bne	a5,s3,80000edc <_GLOBAL__sub_I__ZN9__gnu_cxx9__freeresEv+0x10e>
    80000eac:	0441                	addi	s0,s0,16
    80000eae:	1804                	addi	s1,sp,48
    80000eb0:	6098                	ld	a4,0(s1)
    80000eb2:	86a2                	mv	a3,s0
    80000eb4:	4581                	li	a1,0
    80000eb6:	863a                	mv	a2,a4
    80000eb8:	8526                	mv	a0,s1
    80000eba:	e43a                	sd	a4,8(sp)
    80000ebc:	226040ef          	jal	800050e2 <_ZNKSt17basic_string_viewIcSt11char_traitsIcEE7compareEmmPKcm>
    80000ec0:	e911                	bnez	a0,80000ed4 <_GLOBAL__sub_I__ZN9__gnu_cxx9__freeresEv+0x106>
    80000ec2:	6722                	ld	a4,8(sp)
    80000ec4:	00e407b3          	add	a5,s0,a4
    80000ec8:	0007c683          	lbu	a3,0(a5)
    80000ecc:	03d00793          	li	a5,61
    80000ed0:	00f68d63          	beq	a3,a5,80000eea <_GLOBAL__sub_I__ZN9__gnu_cxx9__freeresEv+0x11c>
    80000ed4:	04e1                	addi	s1,s1,24
    80000ed6:	109c                	addi	a5,sp,96
    80000ed8:	fcf49ce3          	bne	s1,a5,80000eb0 <_GLOBAL__sub_I__ZN9__gnu_cxx9__freeresEv+0xe2>
    80000edc:	8522                	mv	a0,s0
    80000ede:	03a00593          	li	a1,58
    80000ee2:	11e130ef          	jal	80014000 <strchr>
    80000ee6:	842a                	mv	s0,a0
    80000ee8:	bf81                	j	80000e38 <_GLOBAL__sub_I__ZN9__gnu_cxx9__freeresEv+0x6a>
    80000eea:	0705                	addi	a4,a4,1 # a001 <__stack_size+0x2001>
    80000eec:	00e40533          	add	a0,s0,a4
    80000ef0:	4601                	li	a2,0
    80000ef2:	082c                	addi	a1,sp,24
    80000ef4:	292120ef          	jal	80013186 <strtoul>
    80000ef8:	6462                	ld	s0,24(sp)
    80000efa:	00044703          	lbu	a4,0(s0)
    80000efe:	fc670793          	addi	a5,a4,-58
    80000f02:	0017b793          	seqz	a5,a5
    80000f06:	00173713          	seqz	a4,a4
    80000f0a:	8fd9                	or	a5,a5,a4
    80000f0c:	dbe1                	beqz	a5,80000edc <_GLOBAL__sub_I__ZN9__gnu_cxx9__freeresEv+0x10e>
    80000f0e:	4785                	li	a5,1
    80000f10:	07fe                	slli	a5,a5,0x1f
    80000f12:	fcf575e3          	bgeu	a0,a5,80000edc <_GLOBAL__sub_I__ZN9__gnu_cxx9__freeresEv+0x10e>
    80000f16:	c888                	sw	a0,16(s1)
    80000f18:	b7d1                	j	80000edc <_GLOBAL__sub_I__ZN9__gnu_cxx9__freeresEv+0x10e>
    80000f1a:	00209797          	auipc	a5,0x209
    80000f1e:	28a7bf23          	sd	a0,670(a5) # 8020a1b8 <_ZN12_GLOBAL__N_1L14emergency_poolE+0x8>
    80000f22:	e100                	sd	s0,0(a0)
    80000f24:	00053423          	sd	zero,8(a0)
    80000f28:	bf91                	j	80000e7c <_GLOBAL__sub_I__ZN9__gnu_cxx9__freeresEv+0xae>

0000000080000f2a <_GLOBAL__sub_I__ZSt20__throw_system_errori>:
    80000f2a:	8082                	ret

0000000080000f2c <_Z18dequantize_weightsv>:
    80000f2c:	1141                	addi	sp,sp,-16
    80000f2e:	00015517          	auipc	a0,0x15
    80000f32:	d0250513          	addi	a0,a0,-766 # 80015c30 <__tbss_end>
    80000f36:	e406                	sd	ra,8(sp)
    80000f38:	37d120ef          	jal	80013ab4 <puts>
    80000f3c:	000b1797          	auipc	a5,0xb1
    80000f40:	4ac7a707          	flw	fa4,1196(a5) # 800b23e8 <__atexit_dummy+0x60>
    80000f44:	000b1797          	auipc	a5,0xb1
    80000f48:	4a87a687          	flw	fa3,1192(a5) # 800b23ec <__atexit_dummy+0x64>
    80000f4c:	00018517          	auipc	a0,0x18
    80000f50:	51450513          	addi	a0,a0,1300 # 80019460 <_ZL12mnist_mlp_b1>
    80000f54:	a5018813          	addi	a6,gp,-1456 # 800b2588 <_ZL7b1_fp32>
    80000f58:	00144597          	auipc	a1,0x144
    80000f5c:	15858593          	addi	a1,a1,344 # 801450b0 <_ZL7w1_fp32>
    80000f60:	00046617          	auipc	a2,0x46
    80000f64:	c3860613          	addi	a2,a2,-968 # 80046b98 <_ZL12mnist_mlp_w1+0x620>
    80000f68:	00018897          	auipc	a7,0x18
    80000f6c:	6f888893          	addi	a7,a7,1784 # 80019660 <_ZL12mnist_mlp_b3>
    80000f70:	9e060793          	addi	a5,a2,-1568
    80000f74:	872e                	mv	a4,a1
    80000f76:	00079683          	lh	a3,0(a5)
    80000f7a:	0789                	addi	a5,a5,2
    80000f7c:	0711                	addi	a4,a4,4
    80000f7e:	d006f7d3          	fcvt.s.w	fa5,a3
    80000f82:	10e7f7d3          	fmul.s	fa5,fa5,fa4
    80000f86:	fef72e27          	fsw	fa5,-4(a4)
    80000f8a:	fec796e3          	bne	a5,a2,80000f76 <_Z18dequantize_weightsv+0x4a>
    80000f8e:	00051703          	lh	a4,0(a0)
    80000f92:	7ff58593          	addi	a1,a1,2047
    80000f96:	0509                	addi	a0,a0,2
    80000f98:	d00777d3          	fcvt.s.w	fa5,a4
    80000f9c:	44158593          	addi	a1,a1,1089
    80000fa0:	62078613          	addi	a2,a5,1568
    80000fa4:	10d7f7d3          	fmul.s	fa5,fa5,fa3
    80000fa8:	0811                	addi	a6,a6,4
    80000faa:	fef82e27          	fsw	fa5,-4(a6)
    80000fae:	fd1511e3          	bne	a0,a7,80000f70 <_Z18dequantize_weightsv+0x44>
    80000fb2:	000b1797          	auipc	a5,0xb1
    80000fb6:	43e7a707          	flw	fa4,1086(a5) # 800b23f0 <__atexit_dummy+0x68>
    80000fba:	000b1797          	auipc	a5,0xb1
    80000fbe:	43a7a687          	flw	fa3,1082(a5) # 800b23f4 <__atexit_dummy+0x6c>
    80000fc2:	00018317          	auipc	t1,0x18
    80000fc6:	71e30313          	addi	t1,t1,1822 # 800196e0 <_ZL12mnist_mlp_b2>
    80000fca:	859a                	mv	a1,t1
    80000fcc:	f5018813          	addi	a6,gp,-176 # 800b2a88 <_ZL7b2_fp32>
    80000fd0:	00124517          	auipc	a0,0x124
    80000fd4:	0e050513          	addi	a0,a0,224 # 801250b0 <_ZL7w2_fp32>
    80000fd8:	00035617          	auipc	a2,0x35
    80000fdc:	7a060613          	addi	a2,a2,1952 # 80036778 <_ZL12mnist_mlp_w2+0x200>
    80000fe0:	00019897          	auipc	a7,0x19
    80000fe4:	80088893          	addi	a7,a7,-2048 # 800197e0 <_ZL12mnist_mlp_b4>
    80000fe8:	e0060793          	addi	a5,a2,-512
    80000fec:	872a                	mv	a4,a0
    80000fee:	00079683          	lh	a3,0(a5)
    80000ff2:	0789                	addi	a5,a5,2
    80000ff4:	0711                	addi	a4,a4,4
    80000ff6:	d006f7d3          	fcvt.s.w	fa5,a3
    80000ffa:	10e7f7d3          	fmul.s	fa5,fa5,fa4
    80000ffe:	fef72e27          	fsw	fa5,-4(a4)
    80001002:	fec796e3          	bne	a5,a2,80000fee <_Z18dequantize_weightsv+0xc2>
    80001006:	00059703          	lh	a4,0(a1)
    8000100a:	0589                	addi	a1,a1,2
    8000100c:	40050513          	addi	a0,a0,1024
    80001010:	d00777d3          	fcvt.s.w	fa5,a4
    80001014:	20078613          	addi	a2,a5,512
    80001018:	0811                	addi	a6,a6,4
    8000101a:	10d7f7d3          	fmul.s	fa5,fa5,fa3
    8000101e:	fef82e27          	fsw	fa5,-4(a6)
    80001022:	fd1593e3          	bne	a1,a7,80000fe8 <_Z18dequantize_weightsv+0xbc>
    80001026:	000b1797          	auipc	a5,0xb1
    8000102a:	3d27a707          	flw	fa4,978(a5) # 800b23f8 <__atexit_dummy+0x70>
    8000102e:	000b1797          	auipc	a5,0xb1
    80001032:	3ce7a687          	flw	fa3,974(a5) # 800b23fc <__atexit_dummy+0x74>
    80001036:	00018597          	auipc	a1,0x18
    8000103a:	62a58593          	addi	a1,a1,1578 # 80019660 <_ZL12mnist_mlp_b3>
    8000103e:	e5018813          	addi	a6,gp,-432 # 800b2988 <_ZL7b3_fp32>
    80001042:	0011c517          	auipc	a0,0x11c
    80001046:	06e50513          	addi	a0,a0,110 # 8011d0b0 <_ZL7w3_fp32>
    8000104a:	00031617          	auipc	a2,0x31
    8000104e:	62e60613          	addi	a2,a2,1582 # 80032678 <_ZL12mnist_mlp_w3+0x100>
    80001052:	f0060793          	addi	a5,a2,-256
    80001056:	872a                	mv	a4,a0
    80001058:	00079683          	lh	a3,0(a5)
    8000105c:	0789                	addi	a5,a5,2
    8000105e:	0711                	addi	a4,a4,4
    80001060:	d006f7d3          	fcvt.s.w	fa5,a3
    80001064:	10e7f7d3          	fmul.s	fa5,fa5,fa4
    80001068:	fef72e27          	fsw	fa5,-4(a4)
    8000106c:	fec796e3          	bne	a5,a2,80001058 <_Z18dequantize_weightsv+0x12c>
    80001070:	00059703          	lh	a4,0(a1)
    80001074:	0589                	addi	a1,a1,2
    80001076:	20050513          	addi	a0,a0,512
    8000107a:	d00777d3          	fcvt.s.w	fa5,a4
    8000107e:	10078613          	addi	a2,a5,256
    80001082:	0811                	addi	a6,a6,4
    80001084:	10d7f7d3          	fmul.s	fa5,fa5,fa3
    80001088:	fef82e27          	fsw	fa5,-4(a6)
    8000108c:	fc6593e3          	bne	a1,t1,80001052 <_Z18dequantize_weightsv+0x126>
    80001090:	000b1797          	auipc	a5,0xb1
    80001094:	3707a707          	flw	fa4,880(a5) # 800b2400 <__atexit_dummy+0x78>
    80001098:	000b1797          	auipc	a5,0xb1
    8000109c:	36c7a687          	flw	fa3,876(a5) # 800b2404 <__atexit_dummy+0x7c>
    800010a0:	00018597          	auipc	a1,0x18
    800010a4:	74058593          	addi	a1,a1,1856 # 800197e0 <_ZL12mnist_mlp_b4>
    800010a8:	15018813          	addi	a6,gp,336 # 800b2c88 <_ZL7b4_fp32>
    800010ac:	0011b517          	auipc	a0,0x11b
    800010b0:	60450513          	addi	a0,a0,1540 # 8011c6b0 <_ZL7w4_fp32>
    800010b4:	00018617          	auipc	a2,0x18
    800010b8:	7c460613          	addi	a2,a2,1988 # 80019878 <_ZL12mnist_mlp_w4+0x80>
    800010bc:	00018897          	auipc	a7,0x18
    800010c0:	73888893          	addi	a7,a7,1848 # 800197f4 <_ZL12mnist_mlp_b4+0x14>
    800010c4:	f8060793          	addi	a5,a2,-128
    800010c8:	872a                	mv	a4,a0
    800010ca:	00079683          	lh	a3,0(a5)
    800010ce:	0789                	addi	a5,a5,2
    800010d0:	0711                	addi	a4,a4,4
    800010d2:	d006f7d3          	fcvt.s.w	fa5,a3
    800010d6:	10e7f7d3          	fmul.s	fa5,fa5,fa4
    800010da:	fef72e27          	fsw	fa5,-4(a4)
    800010de:	fec796e3          	bne	a5,a2,800010ca <_Z18dequantize_weightsv+0x19e>
    800010e2:	00059703          	lh	a4,0(a1)
    800010e6:	0589                	addi	a1,a1,2
    800010e8:	10050513          	addi	a0,a0,256
    800010ec:	d00777d3          	fcvt.s.w	fa5,a4
    800010f0:	08078613          	addi	a2,a5,128
    800010f4:	0811                	addi	a6,a6,4
    800010f6:	10d7f7d3          	fmul.s	fa5,fa5,fa3
    800010fa:	fef82e27          	fsw	fa5,-4(a6)
    800010fe:	fd1593e3          	bne	a1,a7,800010c4 <_Z18dequantize_weightsv+0x198>
    80001102:	000b1797          	auipc	a5,0xb1
    80001106:	3067a707          	flw	fa4,774(a5) # 800b2408 <__atexit_dummy+0x80>
    8000110a:	000ea597          	auipc	a1,0xea
    8000110e:	5a658593          	addi	a1,a1,1446 # 800eb6b0 <_ZL11test_X_fp32>
    80001112:	00019617          	auipc	a2,0x19
    80001116:	28660613          	addi	a2,a2,646 # 8001a398 <_ZL16mnist_mlp_test_X+0x620>
    8000111a:	00032517          	auipc	a0,0x32
    8000111e:	a7e50513          	addi	a0,a0,-1410 # 80032b98 <_ZL12mnist_mlp_w3+0x620>
    80001122:	9e060793          	addi	a5,a2,-1568
    80001126:	872e                	mv	a4,a1
    80001128:	00079683          	lh	a3,0(a5)
    8000112c:	0789                	addi	a5,a5,2
    8000112e:	0711                	addi	a4,a4,4
    80001130:	d006f7d3          	fcvt.s.w	fa5,a3
    80001134:	10e7f7d3          	fmul.s	fa5,fa5,fa4
    80001138:	fef72e27          	fsw	fa5,-4(a4)
    8000113c:	fec796e3          	bne	a5,a2,80001128 <_Z18dequantize_weightsv+0x1fc>
    80001140:	7ff58593          	addi	a1,a1,2047
    80001144:	62078613          	addi	a2,a5,1568
    80001148:	44158593          	addi	a1,a1,1089
    8000114c:	fca61be3          	bne	a2,a0,80001122 <_Z18dequantize_weightsv+0x1f6>
    80001150:	00015517          	auipc	a0,0x15
    80001154:	b1050513          	addi	a0,a0,-1264 # 80015c60 <__tbss_end+0x30>
    80001158:	15d120ef          	jal	80013ab4 <puts>
    8000115c:	60a2                	ld	ra,8(sp)
    8000115e:	000b1617          	auipc	a2,0xb1
    80001162:	23263603          	ld	a2,562(a2) # 800b2390 <__atexit_dummy+0x8>
    80001166:	000b1597          	auipc	a1,0xb1
    8000116a:	2325b583          	ld	a1,562(a1) # 800b2398 <__atexit_dummy+0x10>
    8000116e:	00015517          	auipc	a0,0x15
    80001172:	b1250513          	addi	a0,a0,-1262 # 80015c80 <__tbss_end+0x50>
    80001176:	0141                	addi	sp,sp,16
    80001178:	7f61206f          	j	8001396e <iprintf>

000000008000117c <_Z14nn_linear_fp32PfPKfS1_S1_mmm>:
    8000117c:	1141                	addi	sp,sp,-16
    8000117e:	e422                	sd	s0,8(sp)
    80001180:	8442                	mv	s0,a6
    80001182:	02080063          	beqz	a6,800011a2 <_Z14nn_linear_fp32PfPKfS1_S1_mmm+0x26>
    80001186:	e026                	sd	s1,0(sp)
    80001188:	84aa                	mv	s1,a0
    8000118a:	00271513          	slli	a0,a4,0x2
    8000118e:	883e                	mv	a6,a5
    80001190:	8fb2                	mv	t6,a2
    80001192:	00a60333          	add	t1,a2,a0
    80001196:	4381                	li	t2,0
    80001198:	eb81                	bnez	a5,800011a8 <_Z14nn_linear_fp32PfPKfS1_S1_mmm+0x2c>
    8000119a:	0385                	addi	t2,t2,1
    8000119c:	fe741fe3          	bne	s0,t2,8000119a <_Z14nn_linear_fp32PfPKfS1_S1_mmm+0x1e>
    800011a0:	6482                	ld	s1,0(sp)
    800011a2:	6422                	ld	s0,8(sp)
    800011a4:	0141                	addi	sp,sp,16
    800011a6:	8082                	ret
    800011a8:	00279293          	slli	t0,a5,0x2
    800011ac:	92b6                	add	t0,t0,a3
    800011ae:	4781                	li	a5,0
    800011b0:	00279e93          	slli	t4,a5,0x2
    800011b4:	9ea6                	add	t4,t4,s1
    800011b6:	8e36                	mv	t3,a3
    800011b8:	4f01                	li	t5,0
    800011ba:	002f1893          	slli	a7,t5,0x2
    800011be:	f00007d3          	fmv.w.x	fa5,zero
    800011c2:	98ae                	add	a7,a7,a1
    800011c4:	867e                	mv	a2,t6
    800011c6:	cb19                	beqz	a4,800011dc <_Z14nn_linear_fp32PfPKfS1_S1_mmm+0x60>
    800011c8:	00062687          	flw	fa3,0(a2)
    800011cc:	0008a707          	flw	fa4,0(a7)
    800011d0:	0611                	addi	a2,a2,4
    800011d2:	0891                	addi	a7,a7,4
    800011d4:	78e6f7c3          	fmadd.s	fa5,fa3,fa4,fa5
    800011d8:	fec318e3          	bne	t1,a2,800011c8 <_Z14nn_linear_fp32PfPKfS1_S1_mmm+0x4c>
    800011dc:	c689                	beqz	a3,800011e6 <_Z14nn_linear_fp32PfPKfS1_S1_mmm+0x6a>
    800011de:	000e2707          	flw	fa4,0(t3)
    800011e2:	00e7f7d3          	fadd.s	fa5,fa5,fa4
    800011e6:	00fea027          	fsw	fa5,0(t4)
    800011ea:	0e11                	addi	t3,t3,4
    800011ec:	0e91                	addi	t4,t4,4
    800011ee:	9f3a                	add	t5,t5,a4
    800011f0:	fc5e15e3          	bne	t3,t0,800011ba <_Z14nn_linear_fp32PfPKfS1_S1_mmm+0x3e>
    800011f4:	0385                	addi	t2,t2,1
    800011f6:	97c2                	add	a5,a5,a6
    800011f8:	9faa                	add	t6,t6,a0
    800011fa:	932a                	add	t1,t1,a0
    800011fc:	fa741ae3          	bne	s0,t2,800011b0 <_Z14nn_linear_fp32PfPKfS1_S1_mmm+0x34>
    80001200:	b745                	j	800011a0 <_Z14nn_linear_fp32PfPKfS1_S1_mmm+0x24>

0000000080001202 <_Z9relu_fp32PfPKfmm>:
    80001202:	02d60633          	mul	a2,a2,a3
    80001206:	c205                	beqz	a2,80001226 <_Z9relu_fp32PfPKfmm+0x24>
    80001208:	f0000753          	fmv.w.x	fa4,zero
    8000120c:	060a                	slli	a2,a2,0x2
    8000120e:	00c587b3          	add	a5,a1,a2
    80001212:	0005a787          	flw	fa5,0(a1)
    80001216:	0591                	addi	a1,a1,4
    80001218:	0511                	addi	a0,a0,4
    8000121a:	28e797d3          	fmax.s	fa5,fa5,fa4
    8000121e:	fef52e27          	fsw	fa5,-4(a0)
    80001222:	fef598e3          	bne	a1,a5,80001212 <_Z9relu_fp32PfPKfmm+0x10>
    80001226:	8082                	ret

0000000080001228 <_Z11argmax_fp32PiPKfmm>:
    80001228:	c639                	beqz	a2,80001276 <_Z11argmax_fp32PiPKfmm+0x4e>
    8000122a:	060a                	slli	a2,a2,0x2
    8000122c:	4785                	li	a5,1
    8000122e:	00c508b3          	add	a7,a0,a2
    80001232:	02d7fd63          	bgeu	a5,a3,8000126c <_Z11argmax_fp32PiPKfmm+0x44>
    80001236:	00269313          	slli	t1,a3,0x2
    8000123a:	0005a707          	flw	fa4,0(a1)
    8000123e:	872e                	mv	a4,a1
    80001240:	4785                	li	a5,1
    80001242:	4801                	li	a6,0
    80001244:	00472787          	flw	fa5,4(a4)
    80001248:	0711                	addi	a4,a4,4
    8000124a:	a0e78653          	fle.s	a2,fa5,fa4
    8000124e:	e609                	bnez	a2,80001258 <_Z11argmax_fp32PiPKfmm+0x30>
    80001250:	20f78753          	fmv.s	fa4,fa5
    80001254:	0007881b          	sext.w	a6,a5
    80001258:	0785                	addi	a5,a5,1
    8000125a:	fef695e3          	bne	a3,a5,80001244 <_Z11argmax_fp32PiPKfmm+0x1c>
    8000125e:	01052023          	sw	a6,0(a0)
    80001262:	0511                	addi	a0,a0,4
    80001264:	959a                	add	a1,a1,t1
    80001266:	fd151ae3          	bne	a0,a7,8000123a <_Z11argmax_fp32PiPKfmm+0x12>
    8000126a:	8082                	ret
    8000126c:	00052023          	sw	zero,0(a0)
    80001270:	0511                	addi	a0,a0,4
    80001272:	ff151de3          	bne	a0,a7,8000126c <_Z11argmax_fp32PiPKfmm+0x44>
    80001276:	8082                	ret

0000000080001278 <_Z22print_layer_stats_fp32PKcPKfii>:
    80001278:	02d6063b          	mulw	a2,a2,a3
    8000127c:	87ae                	mv	a5,a1
    8000127e:	0007a687          	flw	fa3,0(a5)
    80001282:	f2000753          	fmv.d.x	fa4,zero
    80001286:	85aa                	mv	a1,a0
    80001288:	20d68653          	fmv.s	fa2,fa3
    8000128c:	02c05263          	blez	a2,800012b0 <_Z22print_layer_stats_fp32PKcPKfii+0x38>
    80001290:	00261713          	slli	a4,a2,0x2
    80001294:	973e                	add	a4,a4,a5
    80001296:	0007a787          	flw	fa5,0(a5)
    8000129a:	0791                	addi	a5,a5,4
    8000129c:	420785d3          	fcvt.d.s	fa1,fa5
    800012a0:	28f686d3          	fmin.s	fa3,fa3,fa5
    800012a4:	28f61653          	fmax.s	fa2,fa2,fa5
    800012a8:	02b77753          	fadd.d	fa4,fa4,fa1
    800012ac:	fef715e3          	bne	a4,a5,80001296 <_Z22print_layer_stats_fp32PKcPKfii+0x1e>
    800012b0:	d20607d3          	fcvt.d.w	fa5,a2
    800012b4:	42060653          	fcvt.d.s	fa2,fa2
    800012b8:	420686d3          	fcvt.d.s	fa3,fa3
    800012bc:	1af77753          	fdiv.d	fa4,fa4,fa5
    800012c0:	e20606d3          	fmv.x.d	a3,fa2
    800012c4:	e2068653          	fmv.x.d	a2,fa3
    800012c8:	00015517          	auipc	a0,0x15
    800012cc:	9e050513          	addi	a0,a0,-1568 # 80015ca8 <__tbss_end+0x78>
    800012d0:	40177753          	fcvt.s.d	fa4,fa4
    800012d4:	420707d3          	fcvt.d.s	fa5,fa4
    800012d8:	e2078753          	fmv.x.d	a4,fa5
    800012dc:	6921206f          	j	8001396e <iprintf>

00000000800012e0 <_Z10matrix_sumPsPKsmm.part.0>:
    800012e0:	1141                	addi	sp,sp,-16
    800012e2:	00015517          	auipc	a0,0x15
    800012e6:	13e50513          	addi	a0,a0,318 # 80016420 <__tbss_end+0x7f0>
    800012ea:	e406                	sd	ra,8(sp)
    800012ec:	7c8120ef          	jal	80013ab4 <puts>
    800012f0:	00015517          	auipc	a0,0x15
    800012f4:	18050513          	addi	a0,a0,384 # 80016470 <__tbss_end+0x840>
    800012f8:	7bc120ef          	jal	80013ab4 <puts>
    800012fc:	557d                	li	a0,-1
    800012fe:	26b110ef          	jal	80012d68 <exit>

0000000080001302 <_Z12vector_equalPsPKsS1_m>:
    80001302:	c505                	beqz	a0,8000132a <_Z12vector_equalPsPKsS1_m+0x28>
    80001304:	c295                	beqz	a3,80001328 <_Z12vector_equalPsPKsS1_m+0x26>
    80001306:	0686                	slli	a3,a3,0x1
    80001308:	96ae                	add	a3,a3,a1
    8000130a:	00059783          	lh	a5,0(a1)
    8000130e:	00061703          	lh	a4,0(a2)
    80001312:	0589                	addi	a1,a1,2
    80001314:	0609                	addi	a2,a2,2
    80001316:	8f99                	sub	a5,a5,a4
    80001318:	0017b793          	seqz	a5,a5
    8000131c:	00f51023          	sh	a5,0(a0)
    80001320:	0509                	addi	a0,a0,2
    80001322:	fed594e3          	bne	a1,a3,8000130a <_Z12vector_equalPsPKsS1_m+0x8>
    80001326:	8082                	ret
    80001328:	8082                	ret
    8000132a:	1101                	addi	sp,sp,-32
    8000132c:	00015517          	auipc	a0,0x15
    80001330:	15c50513          	addi	a0,a0,348 # 80016488 <__tbss_end+0x858>
    80001334:	ec06                	sd	ra,24(sp)
    80001336:	e436                	sd	a3,8(sp)
    80001338:	77c120ef          	jal	80013ab4 <puts>
    8000133c:	65a2                	ld	a1,8(sp)
    8000133e:	00015517          	auipc	a0,0x15
    80001342:	19a50513          	addi	a0,a0,410 # 800164d8 <__tbss_end+0x8a8>
    80001346:	628120ef          	jal	8001396e <iprintf>
    8000134a:	557d                	li	a0,-1
    8000134c:	21d110ef          	jal	80012d68 <exit>

0000000080001350 <_Z10vector_sumPsPKsm>:
    80001350:	c11d                	beqz	a0,80001376 <_Z10vector_sumPsPKsm+0x26>
    80001352:	4781                	li	a5,0
    80001354:	ce11                	beqz	a2,80001370 <_Z10vector_sumPsPKsm+0x20>
    80001356:	0606                	slli	a2,a2,0x1
    80001358:	962e                	add	a2,a2,a1
    8000135a:	4781                	li	a5,0
    8000135c:	0005d703          	lhu	a4,0(a1)
    80001360:	0589                	addi	a1,a1,2
    80001362:	9fb9                	addw	a5,a5,a4
    80001364:	0107979b          	slliw	a5,a5,0x10
    80001368:	4107d79b          	sraiw	a5,a5,0x10
    8000136c:	feb618e3          	bne	a2,a1,8000135c <_Z10vector_sumPsPKsm+0xc>
    80001370:	00f51023          	sh	a5,0(a0)
    80001374:	8082                	ret
    80001376:	1141                	addi	sp,sp,-16
    80001378:	00015517          	auipc	a0,0x15
    8000137c:	18850513          	addi	a0,a0,392 # 80016500 <__tbss_end+0x8d0>
    80001380:	e406                	sd	ra,8(sp)
    80001382:	732120ef          	jal	80013ab4 <puts>
    80001386:	00015517          	auipc	a0,0x15
    8000138a:	0ea50513          	addi	a0,a0,234 # 80016470 <__tbss_end+0x840>
    8000138e:	726120ef          	jal	80013ab4 <puts>
    80001392:	557d                	li	a0,-1
    80001394:	1d5110ef          	jal	80012d68 <exit>

0000000080001398 <_Z11vector_meanPsPKsm>:
    80001398:	c515                	beqz	a0,800013c4 <_Z11vector_meanPsPKsm+0x2c>
    8000139a:	4781                	li	a5,0
    8000139c:	c20d                	beqz	a2,800013be <_Z11vector_meanPsPKsm+0x26>
    8000139e:	00161693          	slli	a3,a2,0x1
    800013a2:	96ae                	add	a3,a3,a1
    800013a4:	4781                	li	a5,0
    800013a6:	0005d703          	lhu	a4,0(a1)
    800013aa:	0589                	addi	a1,a1,2
    800013ac:	9fb9                	addw	a5,a5,a4
    800013ae:	0107979b          	slliw	a5,a5,0x10
    800013b2:	4107d79b          	sraiw	a5,a5,0x10
    800013b6:	feb698e3          	bne	a3,a1,800013a6 <_Z11vector_meanPsPKsm+0xe>
    800013ba:	02c7d7b3          	divu	a5,a5,a2
    800013be:	00f51023          	sh	a5,0(a0)
    800013c2:	8082                	ret
    800013c4:	1141                	addi	sp,sp,-16
    800013c6:	00015517          	auipc	a0,0x15
    800013ca:	18a50513          	addi	a0,a0,394 # 80016550 <__tbss_end+0x920>
    800013ce:	e406                	sd	ra,8(sp)
    800013d0:	6e4120ef          	jal	80013ab4 <puts>
    800013d4:	00015517          	auipc	a0,0x15
    800013d8:	09c50513          	addi	a0,a0,156 # 80016470 <__tbss_end+0x840>
    800013dc:	6d8120ef          	jal	80013ab4 <puts>
    800013e0:	557d                	li	a0,-1
    800013e2:	187110ef          	jal	80012d68 <exit>

00000000800013e6 <_Z10vector_varPsPKsm>:
    800013e6:	7179                	addi	sp,sp,-48
    800013e8:	f406                	sd	ra,40(sp)
    800013ea:	f022                	sd	s0,32(sp)
    800013ec:	ec26                	sd	s1,24(sp)
    800013ee:	e84a                	sd	s2,16(sp)
    800013f0:	c525                	beqz	a0,80001458 <_Z10vector_varPsPKsm+0x72>
    800013f2:	57cd                	li	a5,-13
    800013f4:	8389                	srli	a5,a5,0x2
    800013f6:	84b2                	mv	s1,a2
    800013f8:	06c7ef63          	bltu	a5,a2,80001476 <_Z10vector_varPsPKsm+0x90>
    800013fc:	00161413          	slli	s0,a2,0x1
    80001400:	892a                	mv	s2,a0
    80001402:	8522                	mv	a0,s0
    80001404:	e42e                	sd	a1,8(sp)
    80001406:	2c3030ef          	jal	80004ec8 <_Znam>
    8000140a:	65a2                	ld	a1,8(sp)
    8000140c:	c4a1                	beqz	s1,80001454 <_Z10vector_varPsPKsm+0x6e>
    8000140e:	00858833          	add	a6,a1,s0
    80001412:	87ae                	mv	a5,a1
    80001414:	4601                	li	a2,0
    80001416:	0007d703          	lhu	a4,0(a5)
    8000141a:	0789                	addi	a5,a5,2
    8000141c:	9e39                	addw	a2,a2,a4
    8000141e:	0106161b          	slliw	a2,a2,0x10
    80001422:	4106561b          	sraiw	a2,a2,0x10
    80001426:	fef818e3          	bne	a6,a5,80001416 <_Z10vector_varPsPKsm+0x30>
    8000142a:	02965633          	divu	a2,a2,s1
    8000142e:	0106161b          	slliw	a2,a2,0x10
    80001432:	4106561b          	sraiw	a2,a2,0x10
    80001436:	86a6                	mv	a3,s1
    80001438:	e42a                	sd	a0,8(sp)
    8000143a:	7a0000ef          	jal	80001bda <_Z23tiled_vector_sub_scalarPsPKssm>
    8000143e:	6622                	ld	a2,8(sp)
    80001440:	7402                	ld	s0,32(sp)
    80001442:	70a2                	ld	ra,40(sp)
    80001444:	86a6                	mv	a3,s1
    80001446:	854a                	mv	a0,s2
    80001448:	64e2                	ld	s1,24(sp)
    8000144a:	6942                	ld	s2,16(sp)
    8000144c:	85b2                	mv	a1,a2
    8000144e:	6145                	addi	sp,sp,48
    80001450:	4e80106f          	j	80002938 <_Z13tiled_dotprodPsPKsS1_m>
    80001454:	4601                	li	a2,0
    80001456:	b7c5                	j	80001436 <_Z10vector_varPsPKsm+0x50>
    80001458:	00015517          	auipc	a0,0x15
    8000145c:	14850513          	addi	a0,a0,328 # 800165a0 <__tbss_end+0x970>
    80001460:	654120ef          	jal	80013ab4 <puts>
    80001464:	00015517          	auipc	a0,0x15
    80001468:	00c50513          	addi	a0,a0,12 # 80016470 <__tbss_end+0x840>
    8000146c:	648120ef          	jal	80013ab4 <puts>
    80001470:	557d                	li	a0,-1
    80001472:	0f7110ef          	jal	80012d68 <exit>
    80001476:	e13fe0ef          	jal	80000288 <__cxa_throw_bad_array_new_length>

000000008000147a <_Z14vector_softmaxPsPKsms>:
    8000147a:	715d                	addi	sp,sp,-80
    8000147c:	e486                	sd	ra,72(sp)
    8000147e:	e0a2                	sd	s0,64(sp)
    80001480:	fc26                	sd	s1,56(sp)
    80001482:	f84a                	sd	s2,48(sp)
    80001484:	f44e                	sd	s3,40(sp)
    80001486:	c141                	beqz	a0,80001506 <_Z14vector_softmaxPsPKsms+0x8c>
    80001488:	842a                	mv	s0,a0
    8000148a:	00e10513          	addi	a0,sp,14
    8000148e:	8932                	mv	s2,a2
    80001490:	89b6                	mv	s3,a3
    80001492:	84ae                	mv	s1,a1
    80001494:	391000ef          	jal	80002024 <_Z16tiled_vector_maxPsPKsm>
    80001498:	00e11603          	lh	a2,14(sp)
    8000149c:	86ca                	mv	a3,s2
    8000149e:	85a6                	mv	a1,s1
    800014a0:	8522                	mv	a0,s0
    800014a2:	738000ef          	jal	80001bda <_Z23tiled_vector_sub_scalarPsPKssm>
    800014a6:	04090963          	beqz	s2,800014f8 <_Z14vector_softmaxPsPKsms+0x7e>
    800014aa:	ac22                	fsd	fs0,24(sp)
    800014ac:	f2000453          	fmv.d.x	fs0,zero
    800014b0:	0906                	slli	s2,s2,0x1
    800014b2:	9922                	add	s2,s2,s0
    800014b4:	84a2                	mv	s1,s0
    800014b6:	00049783          	lh	a5,0(s1)
    800014ba:	0489                	addi	s1,s1,2
    800014bc:	d2078553          	fcvt.d.w	fa0,a5
    800014c0:	42d0d0ef          	jal	8000f0ec <exp>
    800014c4:	02a47453          	fadd.d	fs0,fs0,fa0
    800014c8:	fe9917e3          	bne	s2,s1,800014b6 <_Z14vector_softmaxPsPKsms+0x3c>
    800014cc:	000b1797          	auipc	a5,0xb1
    800014d0:	ed47b707          	fld	fa4,-300(a5) # 800b23a0 <__atexit_dummy+0x18>
    800014d4:	1a877753          	fdiv.d	fa4,fa4,fs0
    800014d8:	00041783          	lh	a5,0(s0)
    800014dc:	0409                	addi	s0,s0,2
    800014de:	033787bb          	mulw	a5,a5,s3
    800014e2:	d20787d3          	fcvt.d.w	fa5,a5
    800014e6:	12e7f7d3          	fmul.d	fa5,fa5,fa4
    800014ea:	c20797d3          	fcvt.w.d	a5,fa5,rtz
    800014ee:	fef41f23          	sh	a5,-2(s0)
    800014f2:	fe8913e3          	bne	s2,s0,800014d8 <_Z14vector_softmaxPsPKsms+0x5e>
    800014f6:	2462                	fld	fs0,24(sp)
    800014f8:	6406                	ld	s0,64(sp)
    800014fa:	60a6                	ld	ra,72(sp)
    800014fc:	74e2                	ld	s1,56(sp)
    800014fe:	7942                	ld	s2,48(sp)
    80001500:	79a2                	ld	s3,40(sp)
    80001502:	6161                	addi	sp,sp,80
    80001504:	8082                	ret
    80001506:	00015517          	auipc	a0,0x15
    8000150a:	0ea50513          	addi	a0,a0,234 # 800165f0 <__tbss_end+0x9c0>
    8000150e:	ac22                	fsd	fs0,24(sp)
    80001510:	5a4120ef          	jal	80013ab4 <puts>
    80001514:	00015517          	auipc	a0,0x15
    80001518:	f5c50513          	addi	a0,a0,-164 # 80016470 <__tbss_end+0x840>
    8000151c:	598120ef          	jal	80013ab4 <puts>
    80001520:	557d                	li	a0,-1
    80001522:	047110ef          	jal	80012d68 <exit>

0000000080001526 <_Z10matrix_sumPsPKsmm>:
    80001526:	cd31                	beqz	a0,80001582 <_Z10matrix_sumPsPKsmm+0x5c>
    80001528:	ca19                	beqz	a2,8000153e <_Z10matrix_sumPsPKsmm+0x18>
    8000152a:	00169313          	slli	t1,a3,0x1
    8000152e:	959a                	add	a1,a1,t1
    80001530:	00161e13          	slli	t3,a2,0x1
    80001534:	4881                	li	a7,0
    80001536:	ea81                	bnez	a3,80001546 <_Z10matrix_sumPsPKsmm+0x20>
    80001538:	0885                	addi	a7,a7,1
    8000153a:	ff161fe3          	bne	a2,a7,80001538 <_Z10matrix_sumPsPKsmm+0x12>
    8000153e:	4801                	li	a6,0
    80001540:	01051023          	sh	a6,0(a0)
    80001544:	8082                	ret
    80001546:	4801                	li	a6,0
    80001548:	40658733          	sub	a4,a1,t1
    8000154c:	4781                	li	a5,0
    8000154e:	00075683          	lhu	a3,0(a4)
    80001552:	0709                	addi	a4,a4,2
    80001554:	9fb5                	addw	a5,a5,a3
    80001556:	03079693          	slli	a3,a5,0x30
    8000155a:	0107979b          	slliw	a5,a5,0x10
    8000155e:	92c1                	srli	a3,a3,0x30
    80001560:	4107d79b          	sraiw	a5,a5,0x10
    80001564:	fee595e3          	bne	a1,a4,8000154e <_Z10matrix_sumPsPKsmm+0x28>
    80001568:	00d8083b          	addw	a6,a6,a3
    8000156c:	0108181b          	slliw	a6,a6,0x10
    80001570:	0885                	addi	a7,a7,1
    80001572:	4108581b          	sraiw	a6,a6,0x10
    80001576:	95f2                	add	a1,a1,t3
    80001578:	fcc898e3          	bne	a7,a2,80001548 <_Z10matrix_sumPsPKsmm+0x22>
    8000157c:	01051023          	sh	a6,0(a0)
    80001580:	8082                	ret
    80001582:	1141                	addi	sp,sp,-16
    80001584:	e406                	sd	ra,8(sp)
    80001586:	d5bff0ef          	jal	800012e0 <_Z10matrix_sumPsPKsmm.part.0>

000000008000158a <_Z10matrix_sumPsPKsmmm>:
    8000158a:	1141                	addi	sp,sp,-16
    8000158c:	e406                	sd	ra,8(sp)
    8000158e:	e022                	sd	s0,0(sp)
    80001590:	cd49                	beqz	a0,8000162a <_Z10matrix_sumPsPKsmmm+0xa0>
    80001592:	842a                	mv	s0,a0
    80001594:	c741                	beqz	a4,8000161c <_Z10matrix_sumPsPKsmmm+0x92>
    80001596:	c259                	beqz	a2,8000161c <_Z10matrix_sumPsPKsmmm+0x92>
    80001598:	00169e93          	slli	t4,a3,0x1
    8000159c:	01d582b3          	add	t0,a1,t4
    800015a0:	00171513          	slli	a0,a4,0x1
    800015a4:	00161f13          	slli	t5,a2,0x1
    800015a8:	4f81                	li	t6,0
    800015aa:	4381                	li	t2,0
    800015ac:	8896                	mv	a7,t0
    800015ae:	4e01                	li	t3,0
    800015b0:	e68d                	bnez	a3,800015da <_Z10matrix_sumPsPKsmmm+0x50>
    800015b2:	0e05                	addi	t3,t3,1
    800015b4:	ffc61fe3          	bne	a2,t3,800015b2 <_Z10matrix_sumPsPKsmmm+0x28>
    800015b8:	4581                	li	a1,0
    800015ba:	00bf8fbb          	addw	t6,t6,a1
    800015be:	010f9f9b          	slliw	t6,t6,0x10
    800015c2:	0385                	addi	t2,t2,1
    800015c4:	410fdf9b          	sraiw	t6,t6,0x10
    800015c8:	92aa                	add	t0,t0,a0
    800015ca:	fee391e3          	bne	t2,a4,800015ac <_Z10matrix_sumPsPKsmmm+0x22>
    800015ce:	60a2                	ld	ra,8(sp)
    800015d0:	01f41023          	sh	t6,0(s0)
    800015d4:	6402                	ld	s0,0(sp)
    800015d6:	0141                	addi	sp,sp,16
    800015d8:	8082                	ret
    800015da:	4301                	li	t1,0
    800015dc:	41d885b3          	sub	a1,a7,t4
    800015e0:	4781                	li	a5,0
    800015e2:	0005d803          	lhu	a6,0(a1)
    800015e6:	0589                	addi	a1,a1,2
    800015e8:	00f807bb          	addw	a5,a6,a5
    800015ec:	03079813          	slli	a6,a5,0x30
    800015f0:	0107979b          	slliw	a5,a5,0x10
    800015f4:	03085813          	srli	a6,a6,0x30
    800015f8:	4107d79b          	sraiw	a5,a5,0x10
    800015fc:	ff1593e3          	bne	a1,a7,800015e2 <_Z10matrix_sumPsPKsmmm+0x58>
    80001600:	010307bb          	addw	a5,t1,a6
    80001604:	03079593          	slli	a1,a5,0x30
    80001608:	0107931b          	slliw	t1,a5,0x10
    8000160c:	0e05                	addi	t3,t3,1
    8000160e:	98fa                	add	a7,a7,t5
    80001610:	91c1                	srli	a1,a1,0x30
    80001612:	4103531b          	sraiw	t1,t1,0x10
    80001616:	fdc613e3          	bne	a2,t3,800015dc <_Z10matrix_sumPsPKsmmm+0x52>
    8000161a:	b745                	j	800015ba <_Z10matrix_sumPsPKsmmm+0x30>
    8000161c:	4f81                	li	t6,0
    8000161e:	60a2                	ld	ra,8(sp)
    80001620:	01f41023          	sh	t6,0(s0)
    80001624:	6402                	ld	s0,0(sp)
    80001626:	0141                	addi	sp,sp,16
    80001628:	8082                	ret
    8000162a:	cb7ff0ef          	jal	800012e0 <_Z10matrix_sumPsPKsmm.part.0>

000000008000162e <_Z11matrix_meanPsPKsmm>:
    8000162e:	c12d                	beqz	a0,80001690 <_Z11matrix_meanPsPKsmm+0x62>
    80001630:	4801                	li	a6,0
    80001632:	c205                	beqz	a2,80001652 <_Z11matrix_meanPsPKsmm+0x24>
    80001634:	00169313          	slli	t1,a3,0x1
    80001638:	02d60eb3          	mul	t4,a2,a3
    8000163c:	959a                	add	a1,a1,t1
    8000163e:	00161e13          	slli	t3,a2,0x1
    80001642:	4881                	li	a7,0
    80001644:	ea91                	bnez	a3,80001658 <_Z11matrix_meanPsPKsmm+0x2a>
    80001646:	0885                	addi	a7,a7,1
    80001648:	ff161fe3          	bne	a2,a7,80001646 <_Z11matrix_meanPsPKsmm+0x18>
    8000164c:	4801                	li	a6,0
    8000164e:	03d85833          	divu	a6,a6,t4
    80001652:	01051023          	sh	a6,0(a0)
    80001656:	8082                	ret
    80001658:	4801                	li	a6,0
    8000165a:	40658733          	sub	a4,a1,t1
    8000165e:	4781                	li	a5,0
    80001660:	00075683          	lhu	a3,0(a4)
    80001664:	0709                	addi	a4,a4,2
    80001666:	9fb5                	addw	a5,a5,a3
    80001668:	03079693          	slli	a3,a5,0x30
    8000166c:	0107979b          	slliw	a5,a5,0x10
    80001670:	92c1                	srli	a3,a3,0x30
    80001672:	4107d79b          	sraiw	a5,a5,0x10
    80001676:	fee595e3          	bne	a1,a4,80001660 <_Z11matrix_meanPsPKsmm+0x32>
    8000167a:	00d8083b          	addw	a6,a6,a3
    8000167e:	0108181b          	slliw	a6,a6,0x10
    80001682:	0885                	addi	a7,a7,1
    80001684:	4108581b          	sraiw	a6,a6,0x10
    80001688:	95f2                	add	a1,a1,t3
    8000168a:	fd1618e3          	bne	a2,a7,8000165a <_Z11matrix_meanPsPKsmm+0x2c>
    8000168e:	b7c1                	j	8000164e <_Z11matrix_meanPsPKsmm+0x20>
    80001690:	1141                	addi	sp,sp,-16
    80001692:	00015517          	auipc	a0,0x15
    80001696:	fae50513          	addi	a0,a0,-82 # 80016640 <__tbss_end+0xa10>
    8000169a:	e406                	sd	ra,8(sp)
    8000169c:	418120ef          	jal	80013ab4 <puts>
    800016a0:	00015517          	auipc	a0,0x15
    800016a4:	dd050513          	addi	a0,a0,-560 # 80016470 <__tbss_end+0x840>
    800016a8:	40c120ef          	jal	80013ab4 <puts>
    800016ac:	557d                	li	a0,-1
    800016ae:	6ba110ef          	jal	80012d68 <exit>

00000000800016b2 <_Z11matrix_meanPsPKsmmm>:
    800016b2:	7139                	addi	sp,sp,-64
    800016b4:	fc06                	sd	ra,56(sp)
    800016b6:	f822                	sd	s0,48(sp)
    800016b8:	f426                	sd	s1,40(sp)
    800016ba:	f04a                	sd	s2,32(sp)
    800016bc:	ec4e                	sd	s3,24(sp)
    800016be:	cd05                	beqz	a0,800016f6 <_Z11matrix_meanPsPKsmmm+0x44>
    800016c0:	842a                	mv	s0,a0
    800016c2:	00e10513          	addi	a0,sp,14
    800016c6:	84b2                	mv	s1,a2
    800016c8:	8936                	mv	s2,a3
    800016ca:	89ba                	mv	s3,a4
    800016cc:	00011723          	sh	zero,14(sp)
    800016d0:	ebbff0ef          	jal	8000158a <_Z10matrix_sumPsPKsmmm>
    800016d4:	03390633          	mul	a2,s2,s3
    800016d8:	00e11783          	lh	a5,14(sp)
    800016dc:	70e2                	ld	ra,56(sp)
    800016de:	7902                	ld	s2,32(sp)
    800016e0:	69e2                	ld	s3,24(sp)
    800016e2:	02960633          	mul	a2,a2,s1
    800016e6:	74a2                	ld	s1,40(sp)
    800016e8:	02c7d7b3          	divu	a5,a5,a2
    800016ec:	00f41023          	sh	a5,0(s0)
    800016f0:	7442                	ld	s0,48(sp)
    800016f2:	6121                	addi	sp,sp,64
    800016f4:	8082                	ret
    800016f6:	00015517          	auipc	a0,0x15
    800016fa:	f4a50513          	addi	a0,a0,-182 # 80016640 <__tbss_end+0xa10>
    800016fe:	3b6120ef          	jal	80013ab4 <puts>
    80001702:	00015517          	auipc	a0,0x15
    80001706:	d6e50513          	addi	a0,a0,-658 # 80016470 <__tbss_end+0x840>
    8000170a:	3aa120ef          	jal	80013ab4 <puts>
    8000170e:	557d                	li	a0,-1
    80001710:	658110ef          	jal	80012d68 <exit>

0000000080001714 <_Z14fit_vector_addPsPKsS1_m>:
    80001714:	02000793          	li	a5,32
    80001718:	02d7e263          	bltu	a5,a3,8000173c <_Z14fit_vector_addPsPKsS1_m+0x28>
    8000171c:	872a                	mv	a4,a0
    8000171e:	8536                	mv	a0,a3
    80001720:	1805200b          	.insn	4, 0x1805200b
    80001724:	852e                	mv	a0,a1
    80001726:	1005208b          	.insn	4, 0x1005208b
    8000172a:	8532                	mv	a0,a2
    8000172c:	1005210b          	.insn	4, 0x1005210b
    80001730:	0220818b          	.insn	4, 0x0220818b
    80001734:	853a                	mv	a0,a4
    80001736:	1235200b          	.insn	4, 0x1235200b
    8000173a:	8082                	ret
    8000173c:	1141                	addi	sp,sp,-16
    8000173e:	00015697          	auipc	a3,0x15
    80001742:	f5268693          	addi	a3,a3,-174 # 80016690 <__tbss_end+0xa60>
    80001746:	00015617          	auipc	a2,0x15
    8000174a:	f6260613          	addi	a2,a2,-158 # 800166a8 <__tbss_end+0xa78>
    8000174e:	4599                	li	a1,6
    80001750:	00015517          	auipc	a0,0x15
    80001754:	fa050513          	addi	a0,a0,-96 # 800166f0 <__tbss_end+0xac0>
    80001758:	e406                	sd	ra,8(sp)
    8000175a:	5c8110ef          	jal	80012d22 <__assert_func>

000000008000175e <_Z16tiled_vector_addPsPKsS1_m>:
    8000175e:	cd49                	beqz	a0,800017f8 <_Z16tiled_vector_addPsPKsS1_m+0x9a>
    80001760:	02000793          	li	a5,32
    80001764:	8e2a                	mv	t3,a0
    80001766:	06d7fa63          	bgeu	a5,a3,800017da <_Z16tiled_vector_addPsPKsS1_m+0x7c>
    8000176a:	01f6fe93          	andi	t4,a3,31
    8000176e:	0056d313          	srli	t1,a3,0x5
    80001772:	88ae                	mv	a7,a1
    80001774:	8832                	mv	a6,a2
    80001776:	872a                	mv	a4,a0
    80001778:	4781                	li	a5,0
    8000177a:	02000513          	li	a0,32
    8000177e:	1805200b          	.insn	4, 0x1805200b
    80001782:	8546                	mv	a0,a7
    80001784:	1005208b          	.insn	4, 0x1005208b
    80001788:	8542                	mv	a0,a6
    8000178a:	1005210b          	.insn	4, 0x1005210b
    8000178e:	0220818b          	.insn	4, 0x0220818b
    80001792:	853a                	mv	a0,a4
    80001794:	1235200b          	.insn	4, 0x1235200b
    80001798:	0785                	addi	a5,a5,1
    8000179a:	04088893          	addi	a7,a7,64
    8000179e:	04080813          	addi	a6,a6,64
    800017a2:	04070713          	addi	a4,a4,64
    800017a6:	fcf31ae3          	bne	t1,a5,8000177a <_Z16tiled_vector_addPsPKsS1_m+0x1c>
    800017aa:	000e9363          	bnez	t4,800017b0 <_Z16tiled_vector_addPsPKsS1_m+0x52>
    800017ae:	8082                	ret
    800017b0:	41d686b3          	sub	a3,a3,t4
    800017b4:	0686                	slli	a3,a3,0x1
    800017b6:	8576                	mv	a0,t4
    800017b8:	1805200b          	.insn	4, 0x1805200b
    800017bc:	00d58533          	add	a0,a1,a3
    800017c0:	1005208b          	.insn	4, 0x1005208b
    800017c4:	00d60533          	add	a0,a2,a3
    800017c8:	1005210b          	.insn	4, 0x1005210b
    800017cc:	0220818b          	.insn	4, 0x0220818b
    800017d0:	00de0533          	add	a0,t3,a3
    800017d4:	1235200b          	.insn	4, 0x1235200b
    800017d8:	8082                	ret
    800017da:	8536                	mv	a0,a3
    800017dc:	1805200b          	.insn	4, 0x1805200b
    800017e0:	852e                	mv	a0,a1
    800017e2:	1005208b          	.insn	4, 0x1005208b
    800017e6:	8532                	mv	a0,a2
    800017e8:	1005210b          	.insn	4, 0x1005210b
    800017ec:	0220818b          	.insn	4, 0x0220818b
    800017f0:	8572                	mv	a0,t3
    800017f2:	1235200b          	.insn	4, 0x1235200b
    800017f6:	8082                	ret
    800017f8:	1101                	addi	sp,sp,-32
    800017fa:	00015517          	auipc	a0,0x15
    800017fe:	f0e50513          	addi	a0,a0,-242 # 80016708 <__tbss_end+0xad8>
    80001802:	ec06                	sd	ra,24(sp)
    80001804:	e436                	sd	a3,8(sp)
    80001806:	2ae120ef          	jal	80013ab4 <puts>
    8000180a:	65a2                	ld	a1,8(sp)
    8000180c:	00015517          	auipc	a0,0x15
    80001810:	f4c50513          	addi	a0,a0,-180 # 80016758 <__tbss_end+0xb28>
    80001814:	15a120ef          	jal	8001396e <iprintf>
    80001818:	557d                	li	a0,-1
    8000181a:	54e110ef          	jal	80012d68 <exit>

000000008000181e <_Z23tiled_matrix_vector_addPsPKsS1_mm>:
    8000181e:	7139                	addi	sp,sp,-64
    80001820:	e852                	sd	s4,16(sp)
    80001822:	e456                	sd	s5,8(sp)
    80001824:	fc06                	sd	ra,56(sp)
    80001826:	8a36                	mv	s4,a3
    80001828:	8aba                	mv	s5,a4
    8000182a:	c131                	beqz	a0,8000186e <_Z23tiled_matrix_vector_addPsPKsS1_mm+0x50>
    8000182c:	ce85                	beqz	a3,80001864 <_Z23tiled_matrix_vector_addPsPKsS1_mm+0x46>
    8000182e:	f822                	sd	s0,48(sp)
    80001830:	f426                	sd	s1,40(sp)
    80001832:	f04a                	sd	s2,32(sp)
    80001834:	ec4e                	sd	s3,24(sp)
    80001836:	e05a                	sd	s6,0(sp)
    80001838:	842a                	mv	s0,a0
    8000183a:	8b32                	mv	s6,a2
    8000183c:	84ae                	mv	s1,a1
    8000183e:	00171993          	slli	s3,a4,0x1
    80001842:	4901                	li	s2,0
    80001844:	85a6                	mv	a1,s1
    80001846:	8522                	mv	a0,s0
    80001848:	86d6                	mv	a3,s5
    8000184a:	865a                	mv	a2,s6
    8000184c:	0905                	addi	s2,s2,1
    8000184e:	f11ff0ef          	jal	8000175e <_Z16tiled_vector_addPsPKsS1_m>
    80001852:	944e                	add	s0,s0,s3
    80001854:	94ce                	add	s1,s1,s3
    80001856:	ff2a17e3          	bne	s4,s2,80001844 <_Z23tiled_matrix_vector_addPsPKsS1_mm+0x26>
    8000185a:	7442                	ld	s0,48(sp)
    8000185c:	74a2                	ld	s1,40(sp)
    8000185e:	7902                	ld	s2,32(sp)
    80001860:	69e2                	ld	s3,24(sp)
    80001862:	6b02                	ld	s6,0(sp)
    80001864:	70e2                	ld	ra,56(sp)
    80001866:	6a42                	ld	s4,16(sp)
    80001868:	6aa2                	ld	s5,8(sp)
    8000186a:	6121                	addi	sp,sp,64
    8000186c:	8082                	ret
    8000186e:	00015517          	auipc	a0,0x15
    80001872:	f0a50513          	addi	a0,a0,-246 # 80016778 <__tbss_end+0xb48>
    80001876:	f822                	sd	s0,48(sp)
    80001878:	f426                	sd	s1,40(sp)
    8000187a:	f04a                	sd	s2,32(sp)
    8000187c:	ec4e                	sd	s3,24(sp)
    8000187e:	e05a                	sd	s6,0(sp)
    80001880:	234120ef          	jal	80013ab4 <puts>
    80001884:	8656                	mv	a2,s5
    80001886:	85d2                	mv	a1,s4
    80001888:	00015517          	auipc	a0,0x15
    8000188c:	f4850513          	addi	a0,a0,-184 # 800167d0 <__tbss_end+0xba0>
    80001890:	0de120ef          	jal	8001396e <iprintf>
    80001894:	557d                	li	a0,-1
    80001896:	4d2110ef          	jal	80012d68 <exit>

000000008000189a <_Z14fit_vector_subPsPKsS1_m>:
    8000189a:	02000793          	li	a5,32
    8000189e:	02d7e263          	bltu	a5,a3,800018c2 <_Z14fit_vector_subPsPKsS1_m+0x28>
    800018a2:	872a                	mv	a4,a0
    800018a4:	8536                	mv	a0,a3
    800018a6:	1805200b          	.insn	4, 0x1805200b
    800018aa:	852e                	mv	a0,a1
    800018ac:	1005208b          	.insn	4, 0x1005208b
    800018b0:	8532                	mv	a0,a2
    800018b2:	1005210b          	.insn	4, 0x1005210b
    800018b6:	0420818b          	.insn	4, 0x0420818b
    800018ba:	853a                	mv	a0,a4
    800018bc:	1235200b          	.insn	4, 0x1235200b
    800018c0:	8082                	ret
    800018c2:	1141                	addi	sp,sp,-16
    800018c4:	00015697          	auipc	a3,0x15
    800018c8:	dcc68693          	addi	a3,a3,-564 # 80016690 <__tbss_end+0xa60>
    800018cc:	00015617          	auipc	a2,0x15
    800018d0:	f3460613          	addi	a2,a2,-204 # 80016800 <__tbss_end+0xbd0>
    800018d4:	03600593          	li	a1,54
    800018d8:	00015517          	auipc	a0,0x15
    800018dc:	e1850513          	addi	a0,a0,-488 # 800166f0 <__tbss_end+0xac0>
    800018e0:	e406                	sd	ra,8(sp)
    800018e2:	440110ef          	jal	80012d22 <__assert_func>

00000000800018e6 <_Z16tiled_vector_subPsPKsS1_m>:
    800018e6:	cd49                	beqz	a0,80001980 <_Z16tiled_vector_subPsPKsS1_m+0x9a>
    800018e8:	02000793          	li	a5,32
    800018ec:	8e2a                	mv	t3,a0
    800018ee:	06d7fa63          	bgeu	a5,a3,80001962 <_Z16tiled_vector_subPsPKsS1_m+0x7c>
    800018f2:	01f6fe93          	andi	t4,a3,31
    800018f6:	0056d313          	srli	t1,a3,0x5
    800018fa:	88ae                	mv	a7,a1
    800018fc:	8832                	mv	a6,a2
    800018fe:	872a                	mv	a4,a0
    80001900:	4781                	li	a5,0
    80001902:	02000513          	li	a0,32
    80001906:	1805200b          	.insn	4, 0x1805200b
    8000190a:	8546                	mv	a0,a7
    8000190c:	1005208b          	.insn	4, 0x1005208b
    80001910:	8542                	mv	a0,a6
    80001912:	1005210b          	.insn	4, 0x1005210b
    80001916:	0420818b          	.insn	4, 0x0420818b
    8000191a:	853a                	mv	a0,a4
    8000191c:	1235200b          	.insn	4, 0x1235200b
    80001920:	0785                	addi	a5,a5,1
    80001922:	04088893          	addi	a7,a7,64
    80001926:	04080813          	addi	a6,a6,64
    8000192a:	04070713          	addi	a4,a4,64
    8000192e:	fcf31ae3          	bne	t1,a5,80001902 <_Z16tiled_vector_subPsPKsS1_m+0x1c>
    80001932:	000e9363          	bnez	t4,80001938 <_Z16tiled_vector_subPsPKsS1_m+0x52>
    80001936:	8082                	ret
    80001938:	41d686b3          	sub	a3,a3,t4
    8000193c:	0686                	slli	a3,a3,0x1
    8000193e:	8576                	mv	a0,t4
    80001940:	1805200b          	.insn	4, 0x1805200b
    80001944:	00d58533          	add	a0,a1,a3
    80001948:	1005208b          	.insn	4, 0x1005208b
    8000194c:	00d60533          	add	a0,a2,a3
    80001950:	1005210b          	.insn	4, 0x1005210b
    80001954:	0420818b          	.insn	4, 0x0420818b
    80001958:	00de0533          	add	a0,t3,a3
    8000195c:	1235200b          	.insn	4, 0x1235200b
    80001960:	8082                	ret
    80001962:	8536                	mv	a0,a3
    80001964:	1805200b          	.insn	4, 0x1805200b
    80001968:	852e                	mv	a0,a1
    8000196a:	1005208b          	.insn	4, 0x1005208b
    8000196e:	8532                	mv	a0,a2
    80001970:	1005210b          	.insn	4, 0x1005210b
    80001974:	0420818b          	.insn	4, 0x0420818b
    80001978:	8572                	mv	a0,t3
    8000197a:	1235200b          	.insn	4, 0x1235200b
    8000197e:	8082                	ret
    80001980:	1101                	addi	sp,sp,-32
    80001982:	00015517          	auipc	a0,0x15
    80001986:	ec650513          	addi	a0,a0,-314 # 80016848 <__tbss_end+0xc18>
    8000198a:	ec06                	sd	ra,24(sp)
    8000198c:	e436                	sd	a3,8(sp)
    8000198e:	126120ef          	jal	80013ab4 <puts>
    80001992:	65a2                	ld	a1,8(sp)
    80001994:	00015517          	auipc	a0,0x15
    80001998:	dc450513          	addi	a0,a0,-572 # 80016758 <__tbss_end+0xb28>
    8000199c:	7d3110ef          	jal	8001396e <iprintf>
    800019a0:	557d                	li	a0,-1
    800019a2:	3c6110ef          	jal	80012d68 <exit>

00000000800019a6 <_Z23tiled_matrix_vector_subPsPKsS1_mm>:
    800019a6:	7139                	addi	sp,sp,-64
    800019a8:	e852                	sd	s4,16(sp)
    800019aa:	e456                	sd	s5,8(sp)
    800019ac:	fc06                	sd	ra,56(sp)
    800019ae:	8a36                	mv	s4,a3
    800019b0:	8aba                	mv	s5,a4
    800019b2:	c131                	beqz	a0,800019f6 <_Z23tiled_matrix_vector_subPsPKsS1_mm+0x50>
    800019b4:	ce85                	beqz	a3,800019ec <_Z23tiled_matrix_vector_subPsPKsS1_mm+0x46>
    800019b6:	f822                	sd	s0,48(sp)
    800019b8:	f426                	sd	s1,40(sp)
    800019ba:	f04a                	sd	s2,32(sp)
    800019bc:	ec4e                	sd	s3,24(sp)
    800019be:	e05a                	sd	s6,0(sp)
    800019c0:	842a                	mv	s0,a0
    800019c2:	8b32                	mv	s6,a2
    800019c4:	84ae                	mv	s1,a1
    800019c6:	00171993          	slli	s3,a4,0x1
    800019ca:	4901                	li	s2,0
    800019cc:	85a6                	mv	a1,s1
    800019ce:	8522                	mv	a0,s0
    800019d0:	86d6                	mv	a3,s5
    800019d2:	865a                	mv	a2,s6
    800019d4:	0905                	addi	s2,s2,1
    800019d6:	f11ff0ef          	jal	800018e6 <_Z16tiled_vector_subPsPKsS1_m>
    800019da:	944e                	add	s0,s0,s3
    800019dc:	94ce                	add	s1,s1,s3
    800019de:	ff2a17e3          	bne	s4,s2,800019cc <_Z23tiled_matrix_vector_subPsPKsS1_mm+0x26>
    800019e2:	7442                	ld	s0,48(sp)
    800019e4:	74a2                	ld	s1,40(sp)
    800019e6:	7902                	ld	s2,32(sp)
    800019e8:	69e2                	ld	s3,24(sp)
    800019ea:	6b02                	ld	s6,0(sp)
    800019ec:	70e2                	ld	ra,56(sp)
    800019ee:	6a42                	ld	s4,16(sp)
    800019f0:	6aa2                	ld	s5,8(sp)
    800019f2:	6121                	addi	sp,sp,64
    800019f4:	8082                	ret
    800019f6:	00015517          	auipc	a0,0x15
    800019fa:	ea250513          	addi	a0,a0,-350 # 80016898 <__tbss_end+0xc68>
    800019fe:	f822                	sd	s0,48(sp)
    80001a00:	f426                	sd	s1,40(sp)
    80001a02:	f04a                	sd	s2,32(sp)
    80001a04:	ec4e                	sd	s3,24(sp)
    80001a06:	e05a                	sd	s6,0(sp)
    80001a08:	0ac120ef          	jal	80013ab4 <puts>
    80001a0c:	8656                	mv	a2,s5
    80001a0e:	85d2                	mv	a1,s4
    80001a10:	00015517          	auipc	a0,0x15
    80001a14:	dc050513          	addi	a0,a0,-576 # 800167d0 <__tbss_end+0xba0>
    80001a18:	757110ef          	jal	8001396e <iprintf>
    80001a1c:	557d                	li	a0,-1
    80001a1e:	34a110ef          	jal	80012d68 <exit>

0000000080001a22 <_Z21fit_vector_add_scalarPsPKssm>:
    80001a22:	02000793          	li	a5,32
    80001a26:	02d7e063          	bltu	a5,a3,80001a46 <_Z21fit_vector_add_scalarPsPKssm+0x24>
    80001a2a:	872a                	mv	a4,a0
    80001a2c:	8536                	mv	a0,a3
    80001a2e:	1805200b          	.insn	4, 0x1805200b
    80001a32:	852e                	mv	a0,a1
    80001a34:	1005208b          	.insn	4, 0x1005208b
    80001a38:	8532                	mv	a0,a2
    80001a3a:	0615210b          	.insn	4, 0x0615210b
    80001a3e:	853a                	mv	a0,a4
    80001a40:	1235200b          	.insn	4, 0x1235200b
    80001a44:	8082                	ret
    80001a46:	1141                	addi	sp,sp,-16
    80001a48:	00015697          	auipc	a3,0x15
    80001a4c:	c4868693          	addi	a3,a3,-952 # 80016690 <__tbss_end+0xa60>
    80001a50:	00015617          	auipc	a2,0x15
    80001a54:	ea060613          	addi	a2,a2,-352 # 800168f0 <__tbss_end+0xcc0>
    80001a58:	06600593          	li	a1,102
    80001a5c:	00015517          	auipc	a0,0x15
    80001a60:	c9450513          	addi	a0,a0,-876 # 800166f0 <__tbss_end+0xac0>
    80001a64:	e406                	sd	ra,8(sp)
    80001a66:	2bc110ef          	jal	80012d22 <__assert_func>

0000000080001a6a <_Z23tiled_vector_add_scalarPsPKssm>:
    80001a6a:	c159                	beqz	a0,80001af0 <_Z23tiled_vector_add_scalarPsPKssm+0x86>
    80001a6c:	02000793          	li	a5,32
    80001a70:	832a                	mv	t1,a0
    80001a72:	06d7f263          	bgeu	a5,a3,80001ad6 <_Z23tiled_vector_add_scalarPsPKssm+0x6c>
    80001a76:	01f6fe13          	andi	t3,a3,31
    80001a7a:	0056d893          	srli	a7,a3,0x5
    80001a7e:	882e                	mv	a6,a1
    80001a80:	872a                	mv	a4,a0
    80001a82:	4781                	li	a5,0
    80001a84:	02000513          	li	a0,32
    80001a88:	1805200b          	.insn	4, 0x1805200b
    80001a8c:	8542                	mv	a0,a6
    80001a8e:	1005208b          	.insn	4, 0x1005208b
    80001a92:	8532                	mv	a0,a2
    80001a94:	0615210b          	.insn	4, 0x0615210b
    80001a98:	853a                	mv	a0,a4
    80001a9a:	1235200b          	.insn	4, 0x1235200b
    80001a9e:	0785                	addi	a5,a5,1
    80001aa0:	04080813          	addi	a6,a6,64
    80001aa4:	04070713          	addi	a4,a4,64
    80001aa8:	fcf89ee3          	bne	a7,a5,80001a84 <_Z23tiled_vector_add_scalarPsPKssm+0x1a>
    80001aac:	000e1363          	bnez	t3,80001ab2 <_Z23tiled_vector_add_scalarPsPKssm+0x48>
    80001ab0:	8082                	ret
    80001ab2:	41c686b3          	sub	a3,a3,t3
    80001ab6:	0686                	slli	a3,a3,0x1
    80001ab8:	8572                	mv	a0,t3
    80001aba:	1805200b          	.insn	4, 0x1805200b
    80001abe:	00d58533          	add	a0,a1,a3
    80001ac2:	1005208b          	.insn	4, 0x1005208b
    80001ac6:	8532                	mv	a0,a2
    80001ac8:	0615210b          	.insn	4, 0x0615210b
    80001acc:	00d30533          	add	a0,t1,a3
    80001ad0:	1235200b          	.insn	4, 0x1235200b
    80001ad4:	8082                	ret
    80001ad6:	8536                	mv	a0,a3
    80001ad8:	1805200b          	.insn	4, 0x1805200b
    80001adc:	852e                	mv	a0,a1
    80001ade:	1005208b          	.insn	4, 0x1005208b
    80001ae2:	8532                	mv	a0,a2
    80001ae4:	0615210b          	.insn	4, 0x0615210b
    80001ae8:	851a                	mv	a0,t1
    80001aea:	1235200b          	.insn	4, 0x1235200b
    80001aee:	8082                	ret
    80001af0:	1101                	addi	sp,sp,-32
    80001af2:	00015517          	auipc	a0,0x15
    80001af6:	e4650513          	addi	a0,a0,-442 # 80016938 <__tbss_end+0xd08>
    80001afa:	ec06                	sd	ra,24(sp)
    80001afc:	e436                	sd	a3,8(sp)
    80001afe:	7b7110ef          	jal	80013ab4 <puts>
    80001b02:	65a2                	ld	a1,8(sp)
    80001b04:	00015517          	auipc	a0,0x15
    80001b08:	c5450513          	addi	a0,a0,-940 # 80016758 <__tbss_end+0xb28>
    80001b0c:	663110ef          	jal	8001396e <iprintf>
    80001b10:	557d                	li	a0,-1
    80001b12:	256110ef          	jal	80012d68 <exit>

0000000080001b16 <_Z23tiled_matrix_add_scalarPsPKssmm>:
    80001b16:	7139                	addi	sp,sp,-64
    80001b18:	e852                	sd	s4,16(sp)
    80001b1a:	e456                	sd	s5,8(sp)
    80001b1c:	fc06                	sd	ra,56(sp)
    80001b1e:	8a36                	mv	s4,a3
    80001b20:	8aba                	mv	s5,a4
    80001b22:	c131                	beqz	a0,80001b66 <_Z23tiled_matrix_add_scalarPsPKssmm+0x50>
    80001b24:	ce85                	beqz	a3,80001b5c <_Z23tiled_matrix_add_scalarPsPKssmm+0x46>
    80001b26:	f822                	sd	s0,48(sp)
    80001b28:	f426                	sd	s1,40(sp)
    80001b2a:	f04a                	sd	s2,32(sp)
    80001b2c:	ec4e                	sd	s3,24(sp)
    80001b2e:	e05a                	sd	s6,0(sp)
    80001b30:	842a                	mv	s0,a0
    80001b32:	8b32                	mv	s6,a2
    80001b34:	84ae                	mv	s1,a1
    80001b36:	00171993          	slli	s3,a4,0x1
    80001b3a:	4901                	li	s2,0
    80001b3c:	85a6                	mv	a1,s1
    80001b3e:	8522                	mv	a0,s0
    80001b40:	86d6                	mv	a3,s5
    80001b42:	865a                	mv	a2,s6
    80001b44:	0905                	addi	s2,s2,1
    80001b46:	f25ff0ef          	jal	80001a6a <_Z23tiled_vector_add_scalarPsPKssm>
    80001b4a:	944e                	add	s0,s0,s3
    80001b4c:	94ce                	add	s1,s1,s3
    80001b4e:	ff2a17e3          	bne	s4,s2,80001b3c <_Z23tiled_matrix_add_scalarPsPKssmm+0x26>
    80001b52:	7442                	ld	s0,48(sp)
    80001b54:	74a2                	ld	s1,40(sp)
    80001b56:	7902                	ld	s2,32(sp)
    80001b58:	69e2                	ld	s3,24(sp)
    80001b5a:	6b02                	ld	s6,0(sp)
    80001b5c:	70e2                	ld	ra,56(sp)
    80001b5e:	6a42                	ld	s4,16(sp)
    80001b60:	6aa2                	ld	s5,8(sp)
    80001b62:	6121                	addi	sp,sp,64
    80001b64:	8082                	ret
    80001b66:	00015517          	auipc	a0,0x15
    80001b6a:	e2a50513          	addi	a0,a0,-470 # 80016990 <__tbss_end+0xd60>
    80001b6e:	f822                	sd	s0,48(sp)
    80001b70:	f426                	sd	s1,40(sp)
    80001b72:	f04a                	sd	s2,32(sp)
    80001b74:	ec4e                	sd	s3,24(sp)
    80001b76:	e05a                	sd	s6,0(sp)
    80001b78:	73d110ef          	jal	80013ab4 <puts>
    80001b7c:	8656                	mv	a2,s5
    80001b7e:	85d2                	mv	a1,s4
    80001b80:	00015517          	auipc	a0,0x15
    80001b84:	c5050513          	addi	a0,a0,-944 # 800167d0 <__tbss_end+0xba0>
    80001b88:	5e7110ef          	jal	8001396e <iprintf>
    80001b8c:	557d                	li	a0,-1
    80001b8e:	1da110ef          	jal	80012d68 <exit>

0000000080001b92 <_Z21fit_vector_sub_scalarPsPKssm>:
    80001b92:	02000793          	li	a5,32
    80001b96:	02d7e063          	bltu	a5,a3,80001bb6 <_Z21fit_vector_sub_scalarPsPKssm+0x24>
    80001b9a:	872a                	mv	a4,a0
    80001b9c:	8536                	mv	a0,a3
    80001b9e:	1805200b          	.insn	4, 0x1805200b
    80001ba2:	852e                	mv	a0,a1
    80001ba4:	1005208b          	.insn	4, 0x1005208b
    80001ba8:	8532                	mv	a0,a2
    80001baa:	0815210b          	.insn	4, 0x0815210b
    80001bae:	853a                	mv	a0,a4
    80001bb0:	1235200b          	.insn	4, 0x1235200b
    80001bb4:	8082                	ret
    80001bb6:	1141                	addi	sp,sp,-16
    80001bb8:	00015697          	auipc	a3,0x15
    80001bbc:	ad868693          	addi	a3,a3,-1320 # 80016690 <__tbss_end+0xa60>
    80001bc0:	00015617          	auipc	a2,0x15
    80001bc4:	e2860613          	addi	a2,a2,-472 # 800169e8 <__tbss_end+0xdb8>
    80001bc8:	09500593          	li	a1,149
    80001bcc:	00015517          	auipc	a0,0x15
    80001bd0:	b2450513          	addi	a0,a0,-1244 # 800166f0 <__tbss_end+0xac0>
    80001bd4:	e406                	sd	ra,8(sp)
    80001bd6:	14c110ef          	jal	80012d22 <__assert_func>

0000000080001bda <_Z23tiled_vector_sub_scalarPsPKssm>:
    80001bda:	c159                	beqz	a0,80001c60 <_Z23tiled_vector_sub_scalarPsPKssm+0x86>
    80001bdc:	02000793          	li	a5,32
    80001be0:	832a                	mv	t1,a0
    80001be2:	06d7f263          	bgeu	a5,a3,80001c46 <_Z23tiled_vector_sub_scalarPsPKssm+0x6c>
    80001be6:	01f6fe13          	andi	t3,a3,31
    80001bea:	0056d893          	srli	a7,a3,0x5
    80001bee:	882e                	mv	a6,a1
    80001bf0:	872a                	mv	a4,a0
    80001bf2:	4781                	li	a5,0
    80001bf4:	02000513          	li	a0,32
    80001bf8:	1805200b          	.insn	4, 0x1805200b
    80001bfc:	8542                	mv	a0,a6
    80001bfe:	1005208b          	.insn	4, 0x1005208b
    80001c02:	8532                	mv	a0,a2
    80001c04:	0815210b          	.insn	4, 0x0815210b
    80001c08:	853a                	mv	a0,a4
    80001c0a:	1235200b          	.insn	4, 0x1235200b
    80001c0e:	0785                	addi	a5,a5,1
    80001c10:	04080813          	addi	a6,a6,64
    80001c14:	04070713          	addi	a4,a4,64
    80001c18:	fcf89ee3          	bne	a7,a5,80001bf4 <_Z23tiled_vector_sub_scalarPsPKssm+0x1a>
    80001c1c:	000e1363          	bnez	t3,80001c22 <_Z23tiled_vector_sub_scalarPsPKssm+0x48>
    80001c20:	8082                	ret
    80001c22:	41c686b3          	sub	a3,a3,t3
    80001c26:	0686                	slli	a3,a3,0x1
    80001c28:	8572                	mv	a0,t3
    80001c2a:	1805200b          	.insn	4, 0x1805200b
    80001c2e:	00d58533          	add	a0,a1,a3
    80001c32:	1005208b          	.insn	4, 0x1005208b
    80001c36:	8532                	mv	a0,a2
    80001c38:	0815210b          	.insn	4, 0x0815210b
    80001c3c:	00d30533          	add	a0,t1,a3
    80001c40:	1235200b          	.insn	4, 0x1235200b
    80001c44:	8082                	ret
    80001c46:	8536                	mv	a0,a3
    80001c48:	1805200b          	.insn	4, 0x1805200b
    80001c4c:	852e                	mv	a0,a1
    80001c4e:	1005208b          	.insn	4, 0x1005208b
    80001c52:	8532                	mv	a0,a2
    80001c54:	0815210b          	.insn	4, 0x0815210b
    80001c58:	851a                	mv	a0,t1
    80001c5a:	1235200b          	.insn	4, 0x1235200b
    80001c5e:	8082                	ret
    80001c60:	1101                	addi	sp,sp,-32
    80001c62:	00015517          	auipc	a0,0x15
    80001c66:	dce50513          	addi	a0,a0,-562 # 80016a30 <__tbss_end+0xe00>
    80001c6a:	ec06                	sd	ra,24(sp)
    80001c6c:	e436                	sd	a3,8(sp)
    80001c6e:	647110ef          	jal	80013ab4 <puts>
    80001c72:	65a2                	ld	a1,8(sp)
    80001c74:	00015517          	auipc	a0,0x15
    80001c78:	ae450513          	addi	a0,a0,-1308 # 80016758 <__tbss_end+0xb28>
    80001c7c:	4f3110ef          	jal	8001396e <iprintf>
    80001c80:	557d                	li	a0,-1
    80001c82:	0e6110ef          	jal	80012d68 <exit>

0000000080001c86 <_Z23tiled_matrix_sub_scalarPsPKssmm>:
    80001c86:	7139                	addi	sp,sp,-64
    80001c88:	e852                	sd	s4,16(sp)
    80001c8a:	e456                	sd	s5,8(sp)
    80001c8c:	fc06                	sd	ra,56(sp)
    80001c8e:	8a36                	mv	s4,a3
    80001c90:	8aba                	mv	s5,a4
    80001c92:	c131                	beqz	a0,80001cd6 <_Z23tiled_matrix_sub_scalarPsPKssmm+0x50>
    80001c94:	ce85                	beqz	a3,80001ccc <_Z23tiled_matrix_sub_scalarPsPKssmm+0x46>
    80001c96:	f822                	sd	s0,48(sp)
    80001c98:	f426                	sd	s1,40(sp)
    80001c9a:	f04a                	sd	s2,32(sp)
    80001c9c:	ec4e                	sd	s3,24(sp)
    80001c9e:	e05a                	sd	s6,0(sp)
    80001ca0:	842a                	mv	s0,a0
    80001ca2:	8b32                	mv	s6,a2
    80001ca4:	84ae                	mv	s1,a1
    80001ca6:	00171993          	slli	s3,a4,0x1
    80001caa:	4901                	li	s2,0
    80001cac:	85a6                	mv	a1,s1
    80001cae:	8522                	mv	a0,s0
    80001cb0:	86d6                	mv	a3,s5
    80001cb2:	865a                	mv	a2,s6
    80001cb4:	0905                	addi	s2,s2,1
    80001cb6:	f25ff0ef          	jal	80001bda <_Z23tiled_vector_sub_scalarPsPKssm>
    80001cba:	944e                	add	s0,s0,s3
    80001cbc:	94ce                	add	s1,s1,s3
    80001cbe:	ff2a17e3          	bne	s4,s2,80001cac <_Z23tiled_matrix_sub_scalarPsPKssmm+0x26>
    80001cc2:	7442                	ld	s0,48(sp)
    80001cc4:	74a2                	ld	s1,40(sp)
    80001cc6:	7902                	ld	s2,32(sp)
    80001cc8:	69e2                	ld	s3,24(sp)
    80001cca:	6b02                	ld	s6,0(sp)
    80001ccc:	70e2                	ld	ra,56(sp)
    80001cce:	6a42                	ld	s4,16(sp)
    80001cd0:	6aa2                	ld	s5,8(sp)
    80001cd2:	6121                	addi	sp,sp,64
    80001cd4:	8082                	ret
    80001cd6:	00015517          	auipc	a0,0x15
    80001cda:	db250513          	addi	a0,a0,-590 # 80016a88 <__tbss_end+0xe58>
    80001cde:	f822                	sd	s0,48(sp)
    80001ce0:	f426                	sd	s1,40(sp)
    80001ce2:	f04a                	sd	s2,32(sp)
    80001ce4:	ec4e                	sd	s3,24(sp)
    80001ce6:	e05a                	sd	s6,0(sp)
    80001ce8:	5cd110ef          	jal	80013ab4 <puts>
    80001cec:	8656                	mv	a2,s5
    80001cee:	85d2                	mv	a1,s4
    80001cf0:	00015517          	auipc	a0,0x15
    80001cf4:	ae050513          	addi	a0,a0,-1312 # 800167d0 <__tbss_end+0xba0>
    80001cf8:	477110ef          	jal	8001396e <iprintf>
    80001cfc:	557d                	li	a0,-1
    80001cfe:	06a110ef          	jal	80012d68 <exit>

0000000080001d02 <_Z21fit_vector_mul_scalarPsPKssm>:
    80001d02:	02000793          	li	a5,32
    80001d06:	02d7e063          	bltu	a5,a3,80001d26 <_Z21fit_vector_mul_scalarPsPKssm+0x24>
    80001d0a:	872a                	mv	a4,a0
    80001d0c:	8536                	mv	a0,a3
    80001d0e:	1805200b          	.insn	4, 0x1805200b
    80001d12:	852e                	mv	a0,a1
    80001d14:	1005208b          	.insn	4, 0x1005208b
    80001d18:	8532                	mv	a0,a2
    80001d1a:	0a15210b          	.insn	4, 0x0a15210b
    80001d1e:	853a                	mv	a0,a4
    80001d20:	1235200b          	.insn	4, 0x1235200b
    80001d24:	8082                	ret
    80001d26:	1141                	addi	sp,sp,-16
    80001d28:	00015697          	auipc	a3,0x15
    80001d2c:	96868693          	addi	a3,a3,-1688 # 80016690 <__tbss_end+0xa60>
    80001d30:	00015617          	auipc	a2,0x15
    80001d34:	db060613          	addi	a2,a2,-592 # 80016ae0 <__tbss_end+0xeb0>
    80001d38:	0c400593          	li	a1,196
    80001d3c:	00015517          	auipc	a0,0x15
    80001d40:	9b450513          	addi	a0,a0,-1612 # 800166f0 <__tbss_end+0xac0>
    80001d44:	e406                	sd	ra,8(sp)
    80001d46:	7dd100ef          	jal	80012d22 <__assert_func>

0000000080001d4a <_Z23tiled_vector_mul_scalarPsPKssm>:
    80001d4a:	c159                	beqz	a0,80001dd0 <_Z23tiled_vector_mul_scalarPsPKssm+0x86>
    80001d4c:	02000793          	li	a5,32
    80001d50:	832a                	mv	t1,a0
    80001d52:	06d7f263          	bgeu	a5,a3,80001db6 <_Z23tiled_vector_mul_scalarPsPKssm+0x6c>
    80001d56:	01f6fe13          	andi	t3,a3,31
    80001d5a:	0056d893          	srli	a7,a3,0x5
    80001d5e:	882e                	mv	a6,a1
    80001d60:	872a                	mv	a4,a0
    80001d62:	4781                	li	a5,0
    80001d64:	02000513          	li	a0,32
    80001d68:	1805200b          	.insn	4, 0x1805200b
    80001d6c:	8542                	mv	a0,a6
    80001d6e:	1005208b          	.insn	4, 0x1005208b
    80001d72:	8532                	mv	a0,a2
    80001d74:	0a15210b          	.insn	4, 0x0a15210b
    80001d78:	853a                	mv	a0,a4
    80001d7a:	1235200b          	.insn	4, 0x1235200b
    80001d7e:	0785                	addi	a5,a5,1
    80001d80:	04080813          	addi	a6,a6,64
    80001d84:	04070713          	addi	a4,a4,64
    80001d88:	fcf89ee3          	bne	a7,a5,80001d64 <_Z23tiled_vector_mul_scalarPsPKssm+0x1a>
    80001d8c:	000e1363          	bnez	t3,80001d92 <_Z23tiled_vector_mul_scalarPsPKssm+0x48>
    80001d90:	8082                	ret
    80001d92:	41c686b3          	sub	a3,a3,t3
    80001d96:	0686                	slli	a3,a3,0x1
    80001d98:	8572                	mv	a0,t3
    80001d9a:	1805200b          	.insn	4, 0x1805200b
    80001d9e:	00d58533          	add	a0,a1,a3
    80001da2:	1005208b          	.insn	4, 0x1005208b
    80001da6:	8532                	mv	a0,a2
    80001da8:	0a15210b          	.insn	4, 0x0a15210b
    80001dac:	00d30533          	add	a0,t1,a3
    80001db0:	1235200b          	.insn	4, 0x1235200b
    80001db4:	8082                	ret
    80001db6:	8536                	mv	a0,a3
    80001db8:	1805200b          	.insn	4, 0x1805200b
    80001dbc:	852e                	mv	a0,a1
    80001dbe:	1005208b          	.insn	4, 0x1005208b
    80001dc2:	8532                	mv	a0,a2
    80001dc4:	0a15210b          	.insn	4, 0x0a15210b
    80001dc8:	851a                	mv	a0,t1
    80001dca:	1235200b          	.insn	4, 0x1235200b
    80001dce:	8082                	ret
    80001dd0:	1101                	addi	sp,sp,-32
    80001dd2:	00015517          	auipc	a0,0x15
    80001dd6:	d5650513          	addi	a0,a0,-682 # 80016b28 <__tbss_end+0xef8>
    80001dda:	ec06                	sd	ra,24(sp)
    80001ddc:	e436                	sd	a3,8(sp)
    80001dde:	4d7110ef          	jal	80013ab4 <puts>
    80001de2:	65a2                	ld	a1,8(sp)
    80001de4:	00015517          	auipc	a0,0x15
    80001de8:	97450513          	addi	a0,a0,-1676 # 80016758 <__tbss_end+0xb28>
    80001dec:	383110ef          	jal	8001396e <iprintf>
    80001df0:	557d                	li	a0,-1
    80001df2:	777100ef          	jal	80012d68 <exit>

0000000080001df6 <_Z23tiled_matrix_mul_scalarPsPKssmm>:
    80001df6:	7139                	addi	sp,sp,-64
    80001df8:	e852                	sd	s4,16(sp)
    80001dfa:	e456                	sd	s5,8(sp)
    80001dfc:	fc06                	sd	ra,56(sp)
    80001dfe:	8a36                	mv	s4,a3
    80001e00:	8aba                	mv	s5,a4
    80001e02:	c131                	beqz	a0,80001e46 <_Z23tiled_matrix_mul_scalarPsPKssmm+0x50>
    80001e04:	ce85                	beqz	a3,80001e3c <_Z23tiled_matrix_mul_scalarPsPKssmm+0x46>
    80001e06:	f822                	sd	s0,48(sp)
    80001e08:	f426                	sd	s1,40(sp)
    80001e0a:	f04a                	sd	s2,32(sp)
    80001e0c:	ec4e                	sd	s3,24(sp)
    80001e0e:	e05a                	sd	s6,0(sp)
    80001e10:	842a                	mv	s0,a0
    80001e12:	8b32                	mv	s6,a2
    80001e14:	84ae                	mv	s1,a1
    80001e16:	00171993          	slli	s3,a4,0x1
    80001e1a:	4901                	li	s2,0
    80001e1c:	85a6                	mv	a1,s1
    80001e1e:	8522                	mv	a0,s0
    80001e20:	86d6                	mv	a3,s5
    80001e22:	865a                	mv	a2,s6
    80001e24:	0905                	addi	s2,s2,1
    80001e26:	f25ff0ef          	jal	80001d4a <_Z23tiled_vector_mul_scalarPsPKssm>
    80001e2a:	944e                	add	s0,s0,s3
    80001e2c:	94ce                	add	s1,s1,s3
    80001e2e:	ff2a17e3          	bne	s4,s2,80001e1c <_Z23tiled_matrix_mul_scalarPsPKssmm+0x26>
    80001e32:	7442                	ld	s0,48(sp)
    80001e34:	74a2                	ld	s1,40(sp)
    80001e36:	7902                	ld	s2,32(sp)
    80001e38:	69e2                	ld	s3,24(sp)
    80001e3a:	6b02                	ld	s6,0(sp)
    80001e3c:	70e2                	ld	ra,56(sp)
    80001e3e:	6a42                	ld	s4,16(sp)
    80001e40:	6aa2                	ld	s5,8(sp)
    80001e42:	6121                	addi	sp,sp,64
    80001e44:	8082                	ret
    80001e46:	00015517          	auipc	a0,0x15
    80001e4a:	d3a50513          	addi	a0,a0,-710 # 80016b80 <__tbss_end+0xf50>
    80001e4e:	f822                	sd	s0,48(sp)
    80001e50:	f426                	sd	s1,40(sp)
    80001e52:	f04a                	sd	s2,32(sp)
    80001e54:	ec4e                	sd	s3,24(sp)
    80001e56:	e05a                	sd	s6,0(sp)
    80001e58:	45d110ef          	jal	80013ab4 <puts>
    80001e5c:	8656                	mv	a2,s5
    80001e5e:	85d2                	mv	a1,s4
    80001e60:	00015517          	auipc	a0,0x15
    80001e64:	97050513          	addi	a0,a0,-1680 # 800167d0 <__tbss_end+0xba0>
    80001e68:	307110ef          	jal	8001396e <iprintf>
    80001e6c:	557d                	li	a0,-1
    80001e6e:	6fb100ef          	jal	80012d68 <exit>

0000000080001e72 <_Z21fit_vector_div_scalarPsPKssm>:
    80001e72:	02000793          	li	a5,32
    80001e76:	02d7e063          	bltu	a5,a3,80001e96 <_Z21fit_vector_div_scalarPsPKssm+0x24>
    80001e7a:	872a                	mv	a4,a0
    80001e7c:	8536                	mv	a0,a3
    80001e7e:	1805200b          	.insn	4, 0x1805200b
    80001e82:	852e                	mv	a0,a1
    80001e84:	1005208b          	.insn	4, 0x1005208b
    80001e88:	8532                	mv	a0,a2
    80001e8a:	0c15210b          	.insn	4, 0x0c15210b
    80001e8e:	853a                	mv	a0,a4
    80001e90:	1235200b          	.insn	4, 0x1235200b
    80001e94:	8082                	ret
    80001e96:	1141                	addi	sp,sp,-16
    80001e98:	00014697          	auipc	a3,0x14
    80001e9c:	7f868693          	addi	a3,a3,2040 # 80016690 <__tbss_end+0xa60>
    80001ea0:	00015617          	auipc	a2,0x15
    80001ea4:	d3860613          	addi	a2,a2,-712 # 80016bd8 <__tbss_end+0xfa8>
    80001ea8:	0f300593          	li	a1,243
    80001eac:	00015517          	auipc	a0,0x15
    80001eb0:	84450513          	addi	a0,a0,-1980 # 800166f0 <__tbss_end+0xac0>
    80001eb4:	e406                	sd	ra,8(sp)
    80001eb6:	66d100ef          	jal	80012d22 <__assert_func>

0000000080001eba <_Z23tiled_vector_div_scalarPsPKssm>:
    80001eba:	c159                	beqz	a0,80001f40 <_Z23tiled_vector_div_scalarPsPKssm+0x86>
    80001ebc:	02000793          	li	a5,32
    80001ec0:	832a                	mv	t1,a0
    80001ec2:	06d7f263          	bgeu	a5,a3,80001f26 <_Z23tiled_vector_div_scalarPsPKssm+0x6c>
    80001ec6:	01f6fe13          	andi	t3,a3,31
    80001eca:	0056d893          	srli	a7,a3,0x5
    80001ece:	882e                	mv	a6,a1
    80001ed0:	872a                	mv	a4,a0
    80001ed2:	4781                	li	a5,0
    80001ed4:	02000513          	li	a0,32
    80001ed8:	1805200b          	.insn	4, 0x1805200b
    80001edc:	8542                	mv	a0,a6
    80001ede:	1005208b          	.insn	4, 0x1005208b
    80001ee2:	8532                	mv	a0,a2
    80001ee4:	0c15210b          	.insn	4, 0x0c15210b
    80001ee8:	853a                	mv	a0,a4
    80001eea:	1235200b          	.insn	4, 0x1235200b
    80001eee:	0785                	addi	a5,a5,1
    80001ef0:	04080813          	addi	a6,a6,64
    80001ef4:	04070713          	addi	a4,a4,64
    80001ef8:	fcf89ee3          	bne	a7,a5,80001ed4 <_Z23tiled_vector_div_scalarPsPKssm+0x1a>
    80001efc:	000e1363          	bnez	t3,80001f02 <_Z23tiled_vector_div_scalarPsPKssm+0x48>
    80001f00:	8082                	ret
    80001f02:	41c686b3          	sub	a3,a3,t3
    80001f06:	0686                	slli	a3,a3,0x1
    80001f08:	8572                	mv	a0,t3
    80001f0a:	1805200b          	.insn	4, 0x1805200b
    80001f0e:	00d58533          	add	a0,a1,a3
    80001f12:	1005208b          	.insn	4, 0x1005208b
    80001f16:	8532                	mv	a0,a2
    80001f18:	0c15210b          	.insn	4, 0x0c15210b
    80001f1c:	00d30533          	add	a0,t1,a3
    80001f20:	1235200b          	.insn	4, 0x1235200b
    80001f24:	8082                	ret
    80001f26:	8536                	mv	a0,a3
    80001f28:	1805200b          	.insn	4, 0x1805200b
    80001f2c:	852e                	mv	a0,a1
    80001f2e:	1005208b          	.insn	4, 0x1005208b
    80001f32:	8532                	mv	a0,a2
    80001f34:	0c15210b          	.insn	4, 0x0c15210b
    80001f38:	851a                	mv	a0,t1
    80001f3a:	1235200b          	.insn	4, 0x1235200b
    80001f3e:	8082                	ret
    80001f40:	1101                	addi	sp,sp,-32
    80001f42:	00015517          	auipc	a0,0x15
    80001f46:	cde50513          	addi	a0,a0,-802 # 80016c20 <__tbss_end+0xff0>
    80001f4a:	ec06                	sd	ra,24(sp)
    80001f4c:	e436                	sd	a3,8(sp)
    80001f4e:	367110ef          	jal	80013ab4 <puts>
    80001f52:	65a2                	ld	a1,8(sp)
    80001f54:	00015517          	auipc	a0,0x15
    80001f58:	80450513          	addi	a0,a0,-2044 # 80016758 <__tbss_end+0xb28>
    80001f5c:	213110ef          	jal	8001396e <iprintf>
    80001f60:	557d                	li	a0,-1
    80001f62:	607100ef          	jal	80012d68 <exit>

0000000080001f66 <_Z23tiled_matrix_div_scalarPsPKssmm>:
    80001f66:	7139                	addi	sp,sp,-64
    80001f68:	e852                	sd	s4,16(sp)
    80001f6a:	e456                	sd	s5,8(sp)
    80001f6c:	fc06                	sd	ra,56(sp)
    80001f6e:	8a36                	mv	s4,a3
    80001f70:	8aba                	mv	s5,a4
    80001f72:	c131                	beqz	a0,80001fb6 <_Z23tiled_matrix_div_scalarPsPKssmm+0x50>
    80001f74:	ce85                	beqz	a3,80001fac <_Z23tiled_matrix_div_scalarPsPKssmm+0x46>
    80001f76:	f822                	sd	s0,48(sp)
    80001f78:	f426                	sd	s1,40(sp)
    80001f7a:	f04a                	sd	s2,32(sp)
    80001f7c:	ec4e                	sd	s3,24(sp)
    80001f7e:	e05a                	sd	s6,0(sp)
    80001f80:	842a                	mv	s0,a0
    80001f82:	8b32                	mv	s6,a2
    80001f84:	84ae                	mv	s1,a1
    80001f86:	00171993          	slli	s3,a4,0x1
    80001f8a:	4901                	li	s2,0
    80001f8c:	85a6                	mv	a1,s1
    80001f8e:	8522                	mv	a0,s0
    80001f90:	86d6                	mv	a3,s5
    80001f92:	865a                	mv	a2,s6
    80001f94:	0905                	addi	s2,s2,1
    80001f96:	f25ff0ef          	jal	80001eba <_Z23tiled_vector_div_scalarPsPKssm>
    80001f9a:	944e                	add	s0,s0,s3
    80001f9c:	94ce                	add	s1,s1,s3
    80001f9e:	ff2a17e3          	bne	s4,s2,80001f8c <_Z23tiled_matrix_div_scalarPsPKssmm+0x26>
    80001fa2:	7442                	ld	s0,48(sp)
    80001fa4:	74a2                	ld	s1,40(sp)
    80001fa6:	7902                	ld	s2,32(sp)
    80001fa8:	69e2                	ld	s3,24(sp)
    80001faa:	6b02                	ld	s6,0(sp)
    80001fac:	70e2                	ld	ra,56(sp)
    80001fae:	6a42                	ld	s4,16(sp)
    80001fb0:	6aa2                	ld	s5,8(sp)
    80001fb2:	6121                	addi	sp,sp,64
    80001fb4:	8082                	ret
    80001fb6:	00015517          	auipc	a0,0x15
    80001fba:	cc250513          	addi	a0,a0,-830 # 80016c78 <__tbss_end+0x1048>
    80001fbe:	f822                	sd	s0,48(sp)
    80001fc0:	f426                	sd	s1,40(sp)
    80001fc2:	f04a                	sd	s2,32(sp)
    80001fc4:	ec4e                	sd	s3,24(sp)
    80001fc6:	e05a                	sd	s6,0(sp)
    80001fc8:	2ed110ef          	jal	80013ab4 <puts>
    80001fcc:	8656                	mv	a2,s5
    80001fce:	85d2                	mv	a1,s4
    80001fd0:	00015517          	auipc	a0,0x15
    80001fd4:	80050513          	addi	a0,a0,-2048 # 800167d0 <__tbss_end+0xba0>
    80001fd8:	197110ef          	jal	8001396e <iprintf>
    80001fdc:	557d                	li	a0,-1
    80001fde:	58b100ef          	jal	80012d68 <exit>

0000000080001fe2 <_Z14fit_vector_maxPsPKsm>:
    80001fe2:	02000793          	li	a5,32
    80001fe6:	00c7ee63          	bltu	a5,a2,80002002 <_Z14fit_vector_maxPsPKsm+0x20>
    80001fea:	872a                	mv	a4,a0
    80001fec:	8532                	mv	a0,a2
    80001fee:	1805200b          	.insn	4, 0x1805200b
    80001ff2:	852e                	mv	a0,a1
    80001ff4:	1005208b          	.insn	4, 0x1005208b
    80001ff8:	1600c50b          	.insn	4, 0x1600c50b
    80001ffc:	00a71023          	sh	a0,0(a4)
    80002000:	8082                	ret
    80002002:	1141                	addi	sp,sp,-16
    80002004:	00014697          	auipc	a3,0x14
    80002008:	68c68693          	addi	a3,a3,1676 # 80016690 <__tbss_end+0xa60>
    8000200c:	00015617          	auipc	a2,0x15
    80002010:	cc460613          	addi	a2,a2,-828 # 80016cd0 <__tbss_end+0x10a0>
    80002014:	4599                	li	a1,6
    80002016:	00015517          	auipc	a0,0x15
    8000201a:	cf250513          	addi	a0,a0,-782 # 80016d08 <__tbss_end+0x10d8>
    8000201e:	e406                	sd	ra,8(sp)
    80002020:	503100ef          	jal	80012d22 <__assert_func>

0000000080002024 <_Z16tiled_vector_maxPsPKsm>:
    80002024:	c14d                	beqz	a0,800020c6 <_Z16tiled_vector_maxPsPKsm+0xa2>
    80002026:	02000793          	li	a5,32
    8000202a:	8e2a                	mv	t3,a0
    8000202c:	06c7fe63          	bgeu	a5,a2,800020a8 <_Z16tiled_vector_maxPsPKsm+0x84>
    80002030:	01f67e93          	andi	t4,a2,31
    80002034:	00565313          	srli	t1,a2,0x5
    80002038:	882e                	mv	a6,a1
    8000203a:	7761                	lui	a4,0xffff8
    8000203c:	4681                	li	a3,0
    8000203e:	02000513          	li	a0,32
    80002042:	1805200b          	.insn	4, 0x1805200b
    80002046:	8542                	mv	a0,a6
    80002048:	1005208b          	.insn	4, 0x1005208b
    8000204c:	1600c50b          	.insn	4, 0x1600c50b
    80002050:	0105189b          	slliw	a7,a0,0x10
    80002054:	4108d89b          	sraiw	a7,a7,0x10
    80002058:	87aa                	mv	a5,a0
    8000205a:	00e8d363          	bge	a7,a4,80002060 <_Z16tiled_vector_maxPsPKsm+0x3c>
    8000205e:	87ba                	mv	a5,a4
    80002060:	0107971b          	slliw	a4,a5,0x10
    80002064:	0685                	addi	a3,a3,1
    80002066:	04080813          	addi	a6,a6,64
    8000206a:	4107571b          	sraiw	a4,a4,0x10
    8000206e:	fcd318e3          	bne	t1,a3,8000203e <_Z16tiled_vector_maxPsPKsm+0x1a>
    80002072:	000e9563          	bnez	t4,8000207c <_Z16tiled_vector_maxPsPKsm+0x58>
    80002076:	00ee1023          	sh	a4,0(t3)
    8000207a:	8082                	ret
    8000207c:	41d60633          	sub	a2,a2,t4
    80002080:	0606                	slli	a2,a2,0x1
    80002082:	8576                	mv	a0,t4
    80002084:	1805200b          	.insn	4, 0x1805200b
    80002088:	00c58533          	add	a0,a1,a2
    8000208c:	1005208b          	.insn	4, 0x1005208b
    80002090:	1600c50b          	.insn	4, 0x1600c50b
    80002094:	0105169b          	slliw	a3,a0,0x10
    80002098:	4106d69b          	sraiw	a3,a3,0x10
    8000209c:	02e6c263          	blt	a3,a4,800020c0 <_Z16tiled_vector_maxPsPKsm+0x9c>
    800020a0:	872a                	mv	a4,a0
    800020a2:	00ee1023          	sh	a4,0(t3)
    800020a6:	8082                	ret
    800020a8:	8532                	mv	a0,a2
    800020aa:	1805200b          	.insn	4, 0x1805200b
    800020ae:	852e                	mv	a0,a1
    800020b0:	1005208b          	.insn	4, 0x1005208b
    800020b4:	1600c50b          	.insn	4, 0x1600c50b
    800020b8:	872a                	mv	a4,a0
    800020ba:	00ee1023          	sh	a4,0(t3)
    800020be:	8082                	ret
    800020c0:	853e                	mv	a0,a5
    800020c2:	872a                	mv	a4,a0
    800020c4:	bff9                	j	800020a2 <_Z16tiled_vector_maxPsPKsm+0x7e>
    800020c6:	1141                	addi	sp,sp,-16
    800020c8:	00015517          	auipc	a0,0x15
    800020cc:	c5850513          	addi	a0,a0,-936 # 80016d20 <__tbss_end+0x10f0>
    800020d0:	e406                	sd	ra,8(sp)
    800020d2:	1e3110ef          	jal	80013ab4 <puts>
    800020d6:	00014517          	auipc	a0,0x14
    800020da:	39a50513          	addi	a0,a0,922 # 80016470 <__tbss_end+0x840>
    800020de:	1d7110ef          	jal	80013ab4 <puts>
    800020e2:	557d                	li	a0,-1
    800020e4:	485100ef          	jal	80012d68 <exit>

00000000800020e8 <_Z23tiled_matrix_vector_maxPsPKsmm>:
    800020e8:	7139                	addi	sp,sp,-64
    800020ea:	ec4e                	sd	s3,24(sp)
    800020ec:	fc06                	sd	ra,56(sp)
    800020ee:	89b2                	mv	s3,a2
    800020f0:	c121                	beqz	a0,80002130 <_Z23tiled_matrix_vector_maxPsPKsmm+0x48>
    800020f2:	ca1d                	beqz	a2,80002128 <_Z23tiled_matrix_vector_maxPsPKsmm+0x40>
    800020f4:	f822                	sd	s0,48(sp)
    800020f6:	f426                	sd	s1,40(sp)
    800020f8:	f04a                	sd	s2,32(sp)
    800020fa:	e852                	sd	s4,16(sp)
    800020fc:	e456                	sd	s5,8(sp)
    800020fe:	8a36                	mv	s4,a3
    80002100:	842a                	mv	s0,a0
    80002102:	84ae                	mv	s1,a1
    80002104:	00169a93          	slli	s5,a3,0x1
    80002108:	4901                	li	s2,0
    8000210a:	85a6                	mv	a1,s1
    8000210c:	8522                	mv	a0,s0
    8000210e:	8652                	mv	a2,s4
    80002110:	0905                	addi	s2,s2,1
    80002112:	f13ff0ef          	jal	80002024 <_Z16tiled_vector_maxPsPKsm>
    80002116:	0409                	addi	s0,s0,2
    80002118:	94d6                	add	s1,s1,s5
    8000211a:	ff2998e3          	bne	s3,s2,8000210a <_Z23tiled_matrix_vector_maxPsPKsmm+0x22>
    8000211e:	7442                	ld	s0,48(sp)
    80002120:	74a2                	ld	s1,40(sp)
    80002122:	7902                	ld	s2,32(sp)
    80002124:	6a42                	ld	s4,16(sp)
    80002126:	6aa2                	ld	s5,8(sp)
    80002128:	70e2                	ld	ra,56(sp)
    8000212a:	69e2                	ld	s3,24(sp)
    8000212c:	6121                	addi	sp,sp,64
    8000212e:	8082                	ret
    80002130:	00015517          	auipc	a0,0x15
    80002134:	c4050513          	addi	a0,a0,-960 # 80016d70 <__tbss_end+0x1140>
    80002138:	f822                	sd	s0,48(sp)
    8000213a:	f426                	sd	s1,40(sp)
    8000213c:	f04a                	sd	s2,32(sp)
    8000213e:	e852                	sd	s4,16(sp)
    80002140:	e456                	sd	s5,8(sp)
    80002142:	173110ef          	jal	80013ab4 <puts>
    80002146:	85ce                	mv	a1,s3
    80002148:	00015517          	auipc	a0,0x15
    8000214c:	c8050513          	addi	a0,a0,-896 # 80016dc8 <__tbss_end+0x1198>
    80002150:	01f110ef          	jal	8001396e <iprintf>
    80002154:	557d                	li	a0,-1
    80002156:	413100ef          	jal	80012d68 <exit>

000000008000215a <_Z14fit_vector_minPsPKsm>:
    8000215a:	02000793          	li	a5,32
    8000215e:	00c7ee63          	bltu	a5,a2,8000217a <_Z14fit_vector_minPsPKsm+0x20>
    80002162:	872a                	mv	a4,a0
    80002164:	8532                	mv	a0,a2
    80002166:	1805200b          	.insn	4, 0x1805200b
    8000216a:	852e                	mv	a0,a1
    8000216c:	1005208b          	.insn	4, 0x1005208b
    80002170:	1610c50b          	.insn	4, 0x1610c50b
    80002174:	00a71023          	sh	a0,0(a4) # ffffffffffff8000 <__heap_end+0xffffffff7fdcd000>
    80002178:	8082                	ret
    8000217a:	1141                	addi	sp,sp,-16
    8000217c:	00014697          	auipc	a3,0x14
    80002180:	51468693          	addi	a3,a3,1300 # 80016690 <__tbss_end+0xa60>
    80002184:	00015617          	auipc	a2,0x15
    80002188:	c6460613          	addi	a2,a2,-924 # 80016de8 <__tbss_end+0x11b8>
    8000218c:	03400593          	li	a1,52
    80002190:	00015517          	auipc	a0,0x15
    80002194:	b7850513          	addi	a0,a0,-1160 # 80016d08 <__tbss_end+0x10d8>
    80002198:	e406                	sd	ra,8(sp)
    8000219a:	389100ef          	jal	80012d22 <__assert_func>

000000008000219e <_Z16tiled_vector_minPsPKsm>:
    8000219e:	c155                	beqz	a0,80002242 <_Z16tiled_vector_minPsPKsm+0xa4>
    800021a0:	02000793          	li	a5,32
    800021a4:	8e2a                	mv	t3,a0
    800021a6:	06c7ff63          	bgeu	a5,a2,80002224 <_Z16tiled_vector_minPsPKsm+0x86>
    800021aa:	6721                	lui	a4,0x8
    800021ac:	177d                	addi	a4,a4,-1 # 7fff <__stack_size_min+0x1fff>
    800021ae:	01f67e93          	andi	t4,a2,31
    800021b2:	00565313          	srli	t1,a2,0x5
    800021b6:	882e                	mv	a6,a1
    800021b8:	4681                	li	a3,0
    800021ba:	02000513          	li	a0,32
    800021be:	1805200b          	.insn	4, 0x1805200b
    800021c2:	8542                	mv	a0,a6
    800021c4:	1005208b          	.insn	4, 0x1005208b
    800021c8:	1610c50b          	.insn	4, 0x1610c50b
    800021cc:	0105189b          	slliw	a7,a0,0x10
    800021d0:	4108d89b          	sraiw	a7,a7,0x10
    800021d4:	87aa                	mv	a5,a0
    800021d6:	01175363          	bge	a4,a7,800021dc <_Z16tiled_vector_minPsPKsm+0x3e>
    800021da:	87ba                	mv	a5,a4
    800021dc:	0107971b          	slliw	a4,a5,0x10
    800021e0:	0685                	addi	a3,a3,1
    800021e2:	04080813          	addi	a6,a6,64
    800021e6:	4107571b          	sraiw	a4,a4,0x10
    800021ea:	fcd318e3          	bne	t1,a3,800021ba <_Z16tiled_vector_minPsPKsm+0x1c>
    800021ee:	000e9563          	bnez	t4,800021f8 <_Z16tiled_vector_minPsPKsm+0x5a>
    800021f2:	00ee1023          	sh	a4,0(t3)
    800021f6:	8082                	ret
    800021f8:	41d60633          	sub	a2,a2,t4
    800021fc:	0606                	slli	a2,a2,0x1
    800021fe:	8576                	mv	a0,t4
    80002200:	1805200b          	.insn	4, 0x1805200b
    80002204:	00c58533          	add	a0,a1,a2
    80002208:	1005208b          	.insn	4, 0x1005208b
    8000220c:	1610c50b          	.insn	4, 0x1610c50b
    80002210:	0105169b          	slliw	a3,a0,0x10
    80002214:	4106d69b          	sraiw	a3,a3,0x10
    80002218:	02d74263          	blt	a4,a3,8000223c <_Z16tiled_vector_minPsPKsm+0x9e>
    8000221c:	872a                	mv	a4,a0
    8000221e:	00ee1023          	sh	a4,0(t3)
    80002222:	8082                	ret
    80002224:	8532                	mv	a0,a2
    80002226:	1805200b          	.insn	4, 0x1805200b
    8000222a:	852e                	mv	a0,a1
    8000222c:	1005208b          	.insn	4, 0x1005208b
    80002230:	1610c50b          	.insn	4, 0x1610c50b
    80002234:	872a                	mv	a4,a0
    80002236:	00ee1023          	sh	a4,0(t3)
    8000223a:	8082                	ret
    8000223c:	853e                	mv	a0,a5
    8000223e:	872a                	mv	a4,a0
    80002240:	bff9                	j	8000221e <_Z16tiled_vector_minPsPKsm+0x80>
    80002242:	1141                	addi	sp,sp,-16
    80002244:	00015517          	auipc	a0,0x15
    80002248:	bdc50513          	addi	a0,a0,-1060 # 80016e20 <__tbss_end+0x11f0>
    8000224c:	e406                	sd	ra,8(sp)
    8000224e:	067110ef          	jal	80013ab4 <puts>
    80002252:	00014517          	auipc	a0,0x14
    80002256:	21e50513          	addi	a0,a0,542 # 80016470 <__tbss_end+0x840>
    8000225a:	05b110ef          	jal	80013ab4 <puts>
    8000225e:	557d                	li	a0,-1
    80002260:	309100ef          	jal	80012d68 <exit>

0000000080002264 <_Z23tiled_matrix_vector_minPsPKsmm>:
    80002264:	7139                	addi	sp,sp,-64
    80002266:	ec4e                	sd	s3,24(sp)
    80002268:	fc06                	sd	ra,56(sp)
    8000226a:	89b2                	mv	s3,a2
    8000226c:	c121                	beqz	a0,800022ac <_Z23tiled_matrix_vector_minPsPKsmm+0x48>
    8000226e:	ca1d                	beqz	a2,800022a4 <_Z23tiled_matrix_vector_minPsPKsmm+0x40>
    80002270:	f822                	sd	s0,48(sp)
    80002272:	f426                	sd	s1,40(sp)
    80002274:	f04a                	sd	s2,32(sp)
    80002276:	e852                	sd	s4,16(sp)
    80002278:	e456                	sd	s5,8(sp)
    8000227a:	8a36                	mv	s4,a3
    8000227c:	842a                	mv	s0,a0
    8000227e:	84ae                	mv	s1,a1
    80002280:	00169a93          	slli	s5,a3,0x1
    80002284:	4901                	li	s2,0
    80002286:	85a6                	mv	a1,s1
    80002288:	8522                	mv	a0,s0
    8000228a:	8652                	mv	a2,s4
    8000228c:	0905                	addi	s2,s2,1
    8000228e:	f11ff0ef          	jal	8000219e <_Z16tiled_vector_minPsPKsm>
    80002292:	0409                	addi	s0,s0,2
    80002294:	94d6                	add	s1,s1,s5
    80002296:	ff2998e3          	bne	s3,s2,80002286 <_Z23tiled_matrix_vector_minPsPKsmm+0x22>
    8000229a:	7442                	ld	s0,48(sp)
    8000229c:	74a2                	ld	s1,40(sp)
    8000229e:	7902                	ld	s2,32(sp)
    800022a0:	6a42                	ld	s4,16(sp)
    800022a2:	6aa2                	ld	s5,8(sp)
    800022a4:	70e2                	ld	ra,56(sp)
    800022a6:	69e2                	ld	s3,24(sp)
    800022a8:	6121                	addi	sp,sp,64
    800022aa:	8082                	ret
    800022ac:	00015517          	auipc	a0,0x15
    800022b0:	bc450513          	addi	a0,a0,-1084 # 80016e70 <__tbss_end+0x1240>
    800022b4:	f822                	sd	s0,48(sp)
    800022b6:	f426                	sd	s1,40(sp)
    800022b8:	f04a                	sd	s2,32(sp)
    800022ba:	e852                	sd	s4,16(sp)
    800022bc:	e456                	sd	s5,8(sp)
    800022be:	7f6110ef          	jal	80013ab4 <puts>
    800022c2:	85ce                	mv	a1,s3
    800022c4:	00015517          	auipc	a0,0x15
    800022c8:	b0450513          	addi	a0,a0,-1276 # 80016dc8 <__tbss_end+0x1198>
    800022cc:	6a2110ef          	jal	8001396e <iprintf>
    800022d0:	557d                	li	a0,-1
    800022d2:	297100ef          	jal	80012d68 <exit>

00000000800022d6 <_Z18fit_vector_dropoutPsPKssm>:
    800022d6:	02000793          	li	a5,32
    800022da:	02d7e163          	bltu	a5,a3,800022fc <_Z18fit_vector_dropoutPsPKssm+0x26>
    800022de:	852e                	mv	a0,a1
    800022e0:	1005258b          	.insn	4, 0x1005258b
    800022e4:	8536                	mv	a0,a3
    800022e6:	1805200b          	.insn	4, 0x1805200b
    800022ea:	45ad                	li	a1,11
    800022ec:	18c5b08b          	.insn	4, 0x18c5b08b
    800022f0:	0205858b          	.insn	4, 0x0205858b
    800022f4:	567d                	li	a2,-1
    800022f6:	18c5b08b          	.insn	4, 0x18c5b08b
    800022fa:	8082                	ret
    800022fc:	1141                	addi	sp,sp,-16
    800022fe:	00014697          	auipc	a3,0x14
    80002302:	39268693          	addi	a3,a3,914 # 80016690 <__tbss_end+0xa60>
    80002306:	00015617          	auipc	a2,0x15
    8000230a:	bc260613          	addi	a2,a2,-1086 # 80016ec8 <__tbss_end+0x1298>
    8000230e:	06200593          	li	a1,98
    80002312:	00015517          	auipc	a0,0x15
    80002316:	9f650513          	addi	a0,a0,-1546 # 80016d08 <__tbss_end+0x10d8>
    8000231a:	e406                	sd	ra,8(sp)
    8000231c:	207100ef          	jal	80012d22 <__assert_func>

0000000080002320 <_Z13vector_argmaxPsPKsm>:
    80002320:	7139                	addi	sp,sp,-64
    80002322:	f426                	sd	s1,40(sp)
    80002324:	84aa                	mv	s1,a0
    80002326:	01e10513          	addi	a0,sp,30
    8000232a:	f822                	sd	s0,48(sp)
    8000232c:	e432                	sd	a2,8(sp)
    8000232e:	fc06                	sd	ra,56(sp)
    80002330:	842e                	mv	s0,a1
    80002332:	cf3ff0ef          	jal	80002024 <_Z16tiled_vector_maxPsPKsm>
    80002336:	6622                	ld	a2,8(sp)
    80002338:	c60d                	beqz	a2,80002362 <_Z13vector_argmaxPsPKsm+0x42>
    8000233a:	01e11683          	lh	a3,30(sp)
    8000233e:	85a2                	mv	a1,s0
    80002340:	4781                	li	a5,0
    80002342:	a021                	j	8000234a <_Z13vector_argmaxPsPKsm+0x2a>
    80002344:	0785                	addi	a5,a5,1
    80002346:	00f60763          	beq	a2,a5,80002354 <_Z13vector_argmaxPsPKsm+0x34>
    8000234a:	00059703          	lh	a4,0(a1)
    8000234e:	0589                	addi	a1,a1,2
    80002350:	fed71ae3          	bne	a4,a3,80002344 <_Z13vector_argmaxPsPKsm+0x24>
    80002354:	70e2                	ld	ra,56(sp)
    80002356:	7442                	ld	s0,48(sp)
    80002358:	00f49023          	sh	a5,0(s1)
    8000235c:	74a2                	ld	s1,40(sp)
    8000235e:	6121                	addi	sp,sp,64
    80002360:	8082                	ret
    80002362:	4781                	li	a5,0
    80002364:	bfc5                	j	80002354 <_Z13vector_argmaxPsPKsm+0x34>

0000000080002366 <_Z20matrix_vector_argmaxPsPKsmm>:
    80002366:	715d                	addi	sp,sp,-80
    80002368:	f052                	sd	s4,32(sp)
    8000236a:	e486                	sd	ra,72(sp)
    8000236c:	8a32                	mv	s4,a2
    8000236e:	c935                	beqz	a0,800023e2 <_Z20matrix_vector_argmaxPsPKsmm+0x7c>
    80002370:	ce21                	beqz	a2,800023c8 <_Z20matrix_vector_argmaxPsPKsmm+0x62>
    80002372:	e0a2                	sd	s0,64(sp)
    80002374:	fc26                	sd	s1,56(sp)
    80002376:	f84a                	sd	s2,48(sp)
    80002378:	f44e                	sd	s3,40(sp)
    8000237a:	ec56                	sd	s5,24(sp)
    8000237c:	8436                	mv	s0,a3
    8000237e:	84ae                	mv	s1,a1
    80002380:	892a                	mv	s2,a0
    80002382:	00169a93          	slli	s5,a3,0x1
    80002386:	4981                	li	s3,0
    80002388:	8622                	mv	a2,s0
    8000238a:	85a6                	mv	a1,s1
    8000238c:	00e10513          	addi	a0,sp,14
    80002390:	c95ff0ef          	jal	80002024 <_Z16tiled_vector_maxPsPKsm>
    80002394:	cc15                	beqz	s0,800023d0 <_Z20matrix_vector_argmaxPsPKsmm+0x6a>
    80002396:	00e11683          	lh	a3,14(sp)
    8000239a:	8726                	mv	a4,s1
    8000239c:	4781                	li	a5,0
    8000239e:	a029                	j	800023a8 <_Z20matrix_vector_argmaxPsPKsmm+0x42>
    800023a0:	0785                	addi	a5,a5,1
    800023a2:	0709                	addi	a4,a4,2
    800023a4:	00f40663          	beq	s0,a5,800023b0 <_Z20matrix_vector_argmaxPsPKsmm+0x4a>
    800023a8:	00071803          	lh	a6,0(a4)
    800023ac:	fed81ae3          	bne	a6,a3,800023a0 <_Z20matrix_vector_argmaxPsPKsmm+0x3a>
    800023b0:	00f91023          	sh	a5,0(s2)
    800023b4:	0985                	addi	s3,s3,1
    800023b6:	94d6                	add	s1,s1,s5
    800023b8:	0909                	addi	s2,s2,2
    800023ba:	fd3a17e3          	bne	s4,s3,80002388 <_Z20matrix_vector_argmaxPsPKsmm+0x22>
    800023be:	6406                	ld	s0,64(sp)
    800023c0:	74e2                	ld	s1,56(sp)
    800023c2:	7942                	ld	s2,48(sp)
    800023c4:	79a2                	ld	s3,40(sp)
    800023c6:	6ae2                	ld	s5,24(sp)
    800023c8:	60a6                	ld	ra,72(sp)
    800023ca:	7a02                	ld	s4,32(sp)
    800023cc:	6161                	addi	sp,sp,80
    800023ce:	8082                	ret
    800023d0:	4781                	li	a5,0
    800023d2:	00f91023          	sh	a5,0(s2)
    800023d6:	0985                	addi	s3,s3,1
    800023d8:	94d6                	add	s1,s1,s5
    800023da:	0909                	addi	s2,s2,2
    800023dc:	fb3a16e3          	bne	s4,s3,80002388 <_Z20matrix_vector_argmaxPsPKsmm+0x22>
    800023e0:	bff9                	j	800023be <_Z20matrix_vector_argmaxPsPKsmm+0x58>
    800023e2:	00015517          	auipc	a0,0x15
    800023e6:	b2650513          	addi	a0,a0,-1242 # 80016f08 <__tbss_end+0x12d8>
    800023ea:	e0a2                	sd	s0,64(sp)
    800023ec:	fc26                	sd	s1,56(sp)
    800023ee:	f84a                	sd	s2,48(sp)
    800023f0:	f44e                	sd	s3,40(sp)
    800023f2:	ec56                	sd	s5,24(sp)
    800023f4:	6c0110ef          	jal	80013ab4 <puts>
    800023f8:	85d2                	mv	a1,s4
    800023fa:	00015517          	auipc	a0,0x15
    800023fe:	9ce50513          	addi	a0,a0,-1586 # 80016dc8 <__tbss_end+0x1198>
    80002402:	56c110ef          	jal	8001396e <iprintf>
    80002406:	557d                	li	a0,-1
    80002408:	161100ef          	jal	80012d68 <exit>

000000008000240c <_Z12vector_shiftPsmm11direction_t>:
    8000240c:	c215                	beqz	a2,80002430 <_Z12vector_shiftPsmm11direction_t+0x24>
    8000240e:	c121                	beqz	a0,8000244e <_Z12vector_shiftPsmm11direction_t+0x42>
    80002410:	4785                	li	a5,1
    80002412:	02f68063          	beq	a3,a5,80002432 <_Z12vector_shiftPsmm11direction_t+0x26>
    80002416:	00159713          	slli	a4,a1,0x1
    8000241a:	972a                	add	a4,a4,a0
    8000241c:	c985                	beqz	a1,8000244c <_Z12vector_shiftPsmm11direction_t+0x40>
    8000241e:	00051783          	lh	a5,0(a0)
    80002422:	0509                	addi	a0,a0,2
    80002424:	00c797bb          	sllw	a5,a5,a2
    80002428:	fef51f23          	sh	a5,-2(a0)
    8000242c:	fea719e3          	bne	a4,a0,8000241e <_Z12vector_shiftPsmm11direction_t+0x12>
    80002430:	8082                	ret
    80002432:	ddfd                	beqz	a1,80002430 <_Z12vector_shiftPsmm11direction_t+0x24>
    80002434:	0586                	slli	a1,a1,0x1
    80002436:	95aa                	add	a1,a1,a0
    80002438:	00051783          	lh	a5,0(a0)
    8000243c:	0509                	addi	a0,a0,2
    8000243e:	40c7d7bb          	sraw	a5,a5,a2
    80002442:	fef51f23          	sh	a5,-2(a0)
    80002446:	fea599e3          	bne	a1,a0,80002438 <_Z12vector_shiftPsmm11direction_t+0x2c>
    8000244a:	8082                	ret
    8000244c:	8082                	ret
    8000244e:	1101                	addi	sp,sp,-32
    80002450:	00015517          	auipc	a0,0x15
    80002454:	b1050513          	addi	a0,a0,-1264 # 80016f60 <__tbss_end+0x1330>
    80002458:	ec06                	sd	ra,24(sp)
    8000245a:	e42e                	sd	a1,8(sp)
    8000245c:	658110ef          	jal	80013ab4 <puts>
    80002460:	65a2                	ld	a1,8(sp)
    80002462:	00015517          	auipc	a0,0x15
    80002466:	b4e50513          	addi	a0,a0,-1202 # 80016fb0 <__tbss_end+0x1380>
    8000246a:	504110ef          	jal	8001396e <iprintf>
    8000246e:	557d                	li	a0,-1
    80002470:	0f9100ef          	jal	80012d68 <exit>

0000000080002474 <_Z13mat_transposePsPKsmm>:
    80002474:	cd15                	beqz	a0,800024b0 <_Z13mat_transposePsPKsmm+0x3c>
    80002476:	c611                	beqz	a2,80002482 <_Z13mat_transposePsPKsmm+0xe>
    80002478:	4881                	li	a7,0
    8000247a:	e689                	bnez	a3,80002484 <_Z13mat_transposePsPKsmm+0x10>
    8000247c:	0885                	addi	a7,a7,1
    8000247e:	ff161fe3          	bne	a2,a7,8000247c <_Z13mat_transposePsPKsmm+0x8>
    80002482:	8082                	ret
    80002484:	00169313          	slli	t1,a3,0x1
    80002488:	959a                	add	a1,a1,t1
    8000248a:	00161813          	slli	a6,a2,0x1
    8000248e:	406587b3          	sub	a5,a1,t1
    80002492:	872a                	mv	a4,a0
    80002494:	00079683          	lh	a3,0(a5)
    80002498:	0789                	addi	a5,a5,2
    8000249a:	00d71023          	sh	a3,0(a4)
    8000249e:	9742                	add	a4,a4,a6
    800024a0:	fef59ae3          	bne	a1,a5,80002494 <_Z13mat_transposePsPKsmm+0x20>
    800024a4:	0885                	addi	a7,a7,1
    800024a6:	0509                	addi	a0,a0,2
    800024a8:	959a                	add	a1,a1,t1
    800024aa:	ff1612e3          	bne	a2,a7,8000248e <_Z13mat_transposePsPKsmm+0x1a>
    800024ae:	8082                	ret
    800024b0:	1101                	addi	sp,sp,-32
    800024b2:	00015517          	auipc	a0,0x15
    800024b6:	b1e50513          	addi	a0,a0,-1250 # 80016fd0 <__tbss_end+0x13a0>
    800024ba:	ec06                	sd	ra,24(sp)
    800024bc:	e436                	sd	a3,8(sp)
    800024be:	e032                	sd	a2,0(sp)
    800024c0:	5f4110ef          	jal	80013ab4 <puts>
    800024c4:	6602                	ld	a2,0(sp)
    800024c6:	65a2                	ld	a1,8(sp)
    800024c8:	00015517          	auipc	a0,0x15
    800024cc:	b5850513          	addi	a0,a0,-1192 # 80017020 <__tbss_end+0x13f0>
    800024d0:	49e110ef          	jal	8001396e <iprintf>
    800024d4:	557d                	li	a0,-1
    800024d6:	093100ef          	jal	80012d68 <exit>

00000000800024da <_Z15fit_vector_reluPsPKsm>:
    800024da:	02000793          	li	a5,32
    800024de:	00c7ef63          	bltu	a5,a2,800024fc <_Z15fit_vector_reluPsPKsm+0x22>
    800024e2:	872a                	mv	a4,a0
    800024e4:	8532                	mv	a0,a2
    800024e6:	1805200b          	.insn	4, 0x1805200b
    800024ea:	852e                	mv	a0,a1
    800024ec:	1005208b          	.insn	4, 0x1005208b
    800024f0:	0e00810b          	.insn	4, 0x0e00810b
    800024f4:	853a                	mv	a0,a4
    800024f6:	1225200b          	.insn	4, 0x1225200b
    800024fa:	8082                	ret
    800024fc:	1141                	addi	sp,sp,-16
    800024fe:	00014697          	auipc	a3,0x14
    80002502:	19268693          	addi	a3,a3,402 # 80016690 <__tbss_end+0xa60>
    80002506:	00015617          	auipc	a2,0x15
    8000250a:	b4260613          	addi	a2,a2,-1214 # 80017048 <__tbss_end+0x1418>
    8000250e:	4599                	li	a1,6
    80002510:	00015517          	auipc	a0,0x15
    80002514:	b7050513          	addi	a0,a0,-1168 # 80017080 <__tbss_end+0x1450>
    80002518:	e406                	sd	ra,8(sp)
    8000251a:	009100ef          	jal	80012d22 <__assert_func>

000000008000251e <_Z17tiled_vector_reluPsPKsm>:
    8000251e:	c141                	beqz	a0,8000259e <_Z17tiled_vector_reluPsPKsm+0x80>
    80002520:	02000793          	li	a5,32
    80002524:	88aa                	mv	a7,a0
    80002526:	06c7f063          	bgeu	a5,a2,80002586 <_Z17tiled_vector_reluPsPKsm+0x68>
    8000252a:	01f67313          	andi	t1,a2,31
    8000252e:	00565813          	srli	a6,a2,0x5
    80002532:	86ae                	mv	a3,a1
    80002534:	872a                	mv	a4,a0
    80002536:	4781                	li	a5,0
    80002538:	02000513          	li	a0,32
    8000253c:	1805200b          	.insn	4, 0x1805200b
    80002540:	8536                	mv	a0,a3
    80002542:	1005208b          	.insn	4, 0x1005208b
    80002546:	0e00810b          	.insn	4, 0x0e00810b
    8000254a:	853a                	mv	a0,a4
    8000254c:	1225200b          	.insn	4, 0x1225200b
    80002550:	0785                	addi	a5,a5,1
    80002552:	04068693          	addi	a3,a3,64
    80002556:	04070713          	addi	a4,a4,64
    8000255a:	fcf81fe3          	bne	a6,a5,80002538 <_Z17tiled_vector_reluPsPKsm+0x1a>
    8000255e:	00031363          	bnez	t1,80002564 <_Z17tiled_vector_reluPsPKsm+0x46>
    80002562:	8082                	ret
    80002564:	40660633          	sub	a2,a2,t1
    80002568:	0606                	slli	a2,a2,0x1
    8000256a:	851a                	mv	a0,t1
    8000256c:	1805200b          	.insn	4, 0x1805200b
    80002570:	00c58533          	add	a0,a1,a2
    80002574:	1005208b          	.insn	4, 0x1005208b
    80002578:	0e00810b          	.insn	4, 0x0e00810b
    8000257c:	00c88533          	add	a0,a7,a2
    80002580:	1225200b          	.insn	4, 0x1225200b
    80002584:	8082                	ret
    80002586:	8532                	mv	a0,a2
    80002588:	1805200b          	.insn	4, 0x1805200b
    8000258c:	852e                	mv	a0,a1
    8000258e:	1005208b          	.insn	4, 0x1005208b
    80002592:	0e00810b          	.insn	4, 0x0e00810b
    80002596:	8546                	mv	a0,a7
    80002598:	1225200b          	.insn	4, 0x1225200b
    8000259c:	8082                	ret
    8000259e:	1101                	addi	sp,sp,-32
    800025a0:	00015517          	auipc	a0,0x15
    800025a4:	af850513          	addi	a0,a0,-1288 # 80017098 <__tbss_end+0x1468>
    800025a8:	ec06                	sd	ra,24(sp)
    800025aa:	e432                	sd	a2,8(sp)
    800025ac:	508110ef          	jal	80013ab4 <puts>
    800025b0:	65a2                	ld	a1,8(sp)
    800025b2:	00014517          	auipc	a0,0x14
    800025b6:	1a650513          	addi	a0,a0,422 # 80016758 <__tbss_end+0xb28>
    800025ba:	3b4110ef          	jal	8001396e <iprintf>
    800025be:	557d                	li	a0,-1
    800025c0:	7a8100ef          	jal	80012d68 <exit>

00000000800025c4 <_Z17tiled_matrix_reluPsPKsmm>:
    800025c4:	7139                	addi	sp,sp,-64
    800025c6:	e852                	sd	s4,16(sp)
    800025c8:	e456                	sd	s5,8(sp)
    800025ca:	fc06                	sd	ra,56(sp)
    800025cc:	8a32                	mv	s4,a2
    800025ce:	8ab6                	mv	s5,a3
    800025d0:	cd15                	beqz	a0,8000260c <_Z17tiled_matrix_reluPsPKsmm+0x48>
    800025d2:	ca05                	beqz	a2,80002602 <_Z17tiled_matrix_reluPsPKsmm+0x3e>
    800025d4:	f822                	sd	s0,48(sp)
    800025d6:	f426                	sd	s1,40(sp)
    800025d8:	f04a                	sd	s2,32(sp)
    800025da:	ec4e                	sd	s3,24(sp)
    800025dc:	842a                	mv	s0,a0
    800025de:	84ae                	mv	s1,a1
    800025e0:	00169993          	slli	s3,a3,0x1
    800025e4:	4901                	li	s2,0
    800025e6:	85a6                	mv	a1,s1
    800025e8:	8522                	mv	a0,s0
    800025ea:	8656                	mv	a2,s5
    800025ec:	0905                	addi	s2,s2,1
    800025ee:	f31ff0ef          	jal	8000251e <_Z17tiled_vector_reluPsPKsm>
    800025f2:	944e                	add	s0,s0,s3
    800025f4:	94ce                	add	s1,s1,s3
    800025f6:	ff2a18e3          	bne	s4,s2,800025e6 <_Z17tiled_matrix_reluPsPKsmm+0x22>
    800025fa:	7442                	ld	s0,48(sp)
    800025fc:	74a2                	ld	s1,40(sp)
    800025fe:	7902                	ld	s2,32(sp)
    80002600:	69e2                	ld	s3,24(sp)
    80002602:	70e2                	ld	ra,56(sp)
    80002604:	6a42                	ld	s4,16(sp)
    80002606:	6aa2                	ld	s5,8(sp)
    80002608:	6121                	addi	sp,sp,64
    8000260a:	8082                	ret
    8000260c:	00015517          	auipc	a0,0x15
    80002610:	ae450513          	addi	a0,a0,-1308 # 800170f0 <__tbss_end+0x14c0>
    80002614:	f822                	sd	s0,48(sp)
    80002616:	f426                	sd	s1,40(sp)
    80002618:	f04a                	sd	s2,32(sp)
    8000261a:	ec4e                	sd	s3,24(sp)
    8000261c:	498110ef          	jal	80013ab4 <puts>
    80002620:	8656                	mv	a2,s5
    80002622:	85d2                	mv	a1,s4
    80002624:	00015517          	auipc	a0,0x15
    80002628:	b2450513          	addi	a0,a0,-1244 # 80017148 <__tbss_end+0x1518>
    8000262c:	342110ef          	jal	8001396e <iprintf>
    80002630:	557d                	li	a0,-1
    80002632:	736100ef          	jal	80012d68 <exit>

0000000080002636 <_Z15fit_vector_tanhPsPKsm>:
    80002636:	02000793          	li	a5,32
    8000263a:	00c7ef63          	bltu	a5,a2,80002658 <_Z15fit_vector_tanhPsPKsm+0x22>
    8000263e:	872a                	mv	a4,a0
    80002640:	8532                	mv	a0,a2
    80002642:	1805200b          	.insn	4, 0x1805200b
    80002646:	852e                	mv	a0,a1
    80002648:	1005208b          	.insn	4, 0x1005208b
    8000264c:	0e10810b          	.insn	4, 0x0e10810b
    80002650:	853a                	mv	a0,a4
    80002652:	1225200b          	.insn	4, 0x1225200b
    80002656:	8082                	ret
    80002658:	1141                	addi	sp,sp,-16
    8000265a:	00014697          	auipc	a3,0x14
    8000265e:	03668693          	addi	a3,a3,54 # 80016690 <__tbss_end+0xa60>
    80002662:	00015617          	auipc	a2,0x15
    80002666:	b1660613          	addi	a2,a2,-1258 # 80017178 <__tbss_end+0x1548>
    8000266a:	03100593          	li	a1,49
    8000266e:	00015517          	auipc	a0,0x15
    80002672:	a1250513          	addi	a0,a0,-1518 # 80017080 <__tbss_end+0x1450>
    80002676:	e406                	sd	ra,8(sp)
    80002678:	6aa100ef          	jal	80012d22 <__assert_func>

000000008000267c <_Z17tiled_vector_tanhPsPKsm>:
    8000267c:	c141                	beqz	a0,800026fc <_Z17tiled_vector_tanhPsPKsm+0x80>
    8000267e:	02000793          	li	a5,32
    80002682:	88aa                	mv	a7,a0
    80002684:	06c7f063          	bgeu	a5,a2,800026e4 <_Z17tiled_vector_tanhPsPKsm+0x68>
    80002688:	01f67313          	andi	t1,a2,31
    8000268c:	00565813          	srli	a6,a2,0x5
    80002690:	86ae                	mv	a3,a1
    80002692:	872a                	mv	a4,a0
    80002694:	4781                	li	a5,0
    80002696:	02000513          	li	a0,32
    8000269a:	1805200b          	.insn	4, 0x1805200b
    8000269e:	8536                	mv	a0,a3
    800026a0:	1005208b          	.insn	4, 0x1005208b
    800026a4:	0e10810b          	.insn	4, 0x0e10810b
    800026a8:	853a                	mv	a0,a4
    800026aa:	1225200b          	.insn	4, 0x1225200b
    800026ae:	0785                	addi	a5,a5,1
    800026b0:	04068693          	addi	a3,a3,64
    800026b4:	04070713          	addi	a4,a4,64
    800026b8:	fcf81fe3          	bne	a6,a5,80002696 <_Z17tiled_vector_tanhPsPKsm+0x1a>
    800026bc:	00031363          	bnez	t1,800026c2 <_Z17tiled_vector_tanhPsPKsm+0x46>
    800026c0:	8082                	ret
    800026c2:	40660633          	sub	a2,a2,t1
    800026c6:	0606                	slli	a2,a2,0x1
    800026c8:	851a                	mv	a0,t1
    800026ca:	1805200b          	.insn	4, 0x1805200b
    800026ce:	00c58533          	add	a0,a1,a2
    800026d2:	1005208b          	.insn	4, 0x1005208b
    800026d6:	0e10810b          	.insn	4, 0x0e10810b
    800026da:	00c88533          	add	a0,a7,a2
    800026de:	1225200b          	.insn	4, 0x1225200b
    800026e2:	8082                	ret
    800026e4:	8532                	mv	a0,a2
    800026e6:	1805200b          	.insn	4, 0x1805200b
    800026ea:	852e                	mv	a0,a1
    800026ec:	1005208b          	.insn	4, 0x1005208b
    800026f0:	0e10810b          	.insn	4, 0x0e10810b
    800026f4:	8546                	mv	a0,a7
    800026f6:	1225200b          	.insn	4, 0x1225200b
    800026fa:	8082                	ret
    800026fc:	1101                	addi	sp,sp,-32
    800026fe:	00015517          	auipc	a0,0x15
    80002702:	ab250513          	addi	a0,a0,-1358 # 800171b0 <__tbss_end+0x1580>
    80002706:	ec06                	sd	ra,24(sp)
    80002708:	e432                	sd	a2,8(sp)
    8000270a:	3aa110ef          	jal	80013ab4 <puts>
    8000270e:	65a2                	ld	a1,8(sp)
    80002710:	00014517          	auipc	a0,0x14
    80002714:	04850513          	addi	a0,a0,72 # 80016758 <__tbss_end+0xb28>
    80002718:	256110ef          	jal	8001396e <iprintf>
    8000271c:	557d                	li	a0,-1
    8000271e:	64a100ef          	jal	80012d68 <exit>

0000000080002722 <_Z17tiled_matrix_tanhPsPKsmm>:
    80002722:	7139                	addi	sp,sp,-64
    80002724:	e852                	sd	s4,16(sp)
    80002726:	e456                	sd	s5,8(sp)
    80002728:	fc06                	sd	ra,56(sp)
    8000272a:	8a32                	mv	s4,a2
    8000272c:	8ab6                	mv	s5,a3
    8000272e:	cd15                	beqz	a0,8000276a <_Z17tiled_matrix_tanhPsPKsmm+0x48>
    80002730:	ca05                	beqz	a2,80002760 <_Z17tiled_matrix_tanhPsPKsmm+0x3e>
    80002732:	f822                	sd	s0,48(sp)
    80002734:	f426                	sd	s1,40(sp)
    80002736:	f04a                	sd	s2,32(sp)
    80002738:	ec4e                	sd	s3,24(sp)
    8000273a:	842a                	mv	s0,a0
    8000273c:	84ae                	mv	s1,a1
    8000273e:	00169993          	slli	s3,a3,0x1
    80002742:	4901                	li	s2,0
    80002744:	85a6                	mv	a1,s1
    80002746:	8522                	mv	a0,s0
    80002748:	8656                	mv	a2,s5
    8000274a:	0905                	addi	s2,s2,1
    8000274c:	f31ff0ef          	jal	8000267c <_Z17tiled_vector_tanhPsPKsm>
    80002750:	944e                	add	s0,s0,s3
    80002752:	94ce                	add	s1,s1,s3
    80002754:	ff2a18e3          	bne	s4,s2,80002744 <_Z17tiled_matrix_tanhPsPKsmm+0x22>
    80002758:	7442                	ld	s0,48(sp)
    8000275a:	74a2                	ld	s1,40(sp)
    8000275c:	7902                	ld	s2,32(sp)
    8000275e:	69e2                	ld	s3,24(sp)
    80002760:	70e2                	ld	ra,56(sp)
    80002762:	6a42                	ld	s4,16(sp)
    80002764:	6aa2                	ld	s5,8(sp)
    80002766:	6121                	addi	sp,sp,64
    80002768:	8082                	ret
    8000276a:	00015517          	auipc	a0,0x15
    8000276e:	a9e50513          	addi	a0,a0,-1378 # 80017208 <__tbss_end+0x15d8>
    80002772:	f822                	sd	s0,48(sp)
    80002774:	f426                	sd	s1,40(sp)
    80002776:	f04a                	sd	s2,32(sp)
    80002778:	ec4e                	sd	s3,24(sp)
    8000277a:	33a110ef          	jal	80013ab4 <puts>
    8000277e:	8656                	mv	a2,s5
    80002780:	85d2                	mv	a1,s4
    80002782:	00015517          	auipc	a0,0x15
    80002786:	9c650513          	addi	a0,a0,-1594 # 80017148 <__tbss_end+0x1518>
    8000278a:	1e4110ef          	jal	8001396e <iprintf>
    8000278e:	557d                	li	a0,-1
    80002790:	5d8100ef          	jal	80012d68 <exit>

0000000080002794 <_Z18fit_vector_sigmoidPsPKsm>:
    80002794:	02000793          	li	a5,32
    80002798:	00c7ef63          	bltu	a5,a2,800027b6 <_Z18fit_vector_sigmoidPsPKsm+0x22>
    8000279c:	872a                	mv	a4,a0
    8000279e:	8532                	mv	a0,a2
    800027a0:	1805200b          	.insn	4, 0x1805200b
    800027a4:	852e                	mv	a0,a1
    800027a6:	1005208b          	.insn	4, 0x1005208b
    800027aa:	0e20810b          	.insn	4, 0x0e20810b
    800027ae:	853a                	mv	a0,a4
    800027b0:	1225200b          	.insn	4, 0x1225200b
    800027b4:	8082                	ret
    800027b6:	1141                	addi	sp,sp,-16
    800027b8:	00014697          	auipc	a3,0x14
    800027bc:	ed868693          	addi	a3,a3,-296 # 80016690 <__tbss_end+0xa60>
    800027c0:	00015617          	auipc	a2,0x15
    800027c4:	aa060613          	addi	a2,a2,-1376 # 80017260 <__tbss_end+0x1630>
    800027c8:	05c00593          	li	a1,92
    800027cc:	00015517          	auipc	a0,0x15
    800027d0:	8b450513          	addi	a0,a0,-1868 # 80017080 <__tbss_end+0x1450>
    800027d4:	e406                	sd	ra,8(sp)
    800027d6:	54c100ef          	jal	80012d22 <__assert_func>

00000000800027da <_Z20tiled_vector_sigmoidPsPKsm>:
    800027da:	c141                	beqz	a0,8000285a <_Z20tiled_vector_sigmoidPsPKsm+0x80>
    800027dc:	02000793          	li	a5,32
    800027e0:	88aa                	mv	a7,a0
    800027e2:	06c7f063          	bgeu	a5,a2,80002842 <_Z20tiled_vector_sigmoidPsPKsm+0x68>
    800027e6:	01f67313          	andi	t1,a2,31
    800027ea:	00565813          	srli	a6,a2,0x5
    800027ee:	86ae                	mv	a3,a1
    800027f0:	872a                	mv	a4,a0
    800027f2:	4781                	li	a5,0
    800027f4:	02000513          	li	a0,32
    800027f8:	1805200b          	.insn	4, 0x1805200b
    800027fc:	8536                	mv	a0,a3
    800027fe:	1005208b          	.insn	4, 0x1005208b
    80002802:	0e20810b          	.insn	4, 0x0e20810b
    80002806:	853a                	mv	a0,a4
    80002808:	1225200b          	.insn	4, 0x1225200b
    8000280c:	0785                	addi	a5,a5,1
    8000280e:	04068693          	addi	a3,a3,64
    80002812:	04070713          	addi	a4,a4,64
    80002816:	fcf81fe3          	bne	a6,a5,800027f4 <_Z20tiled_vector_sigmoidPsPKsm+0x1a>
    8000281a:	00031363          	bnez	t1,80002820 <_Z20tiled_vector_sigmoidPsPKsm+0x46>
    8000281e:	8082                	ret
    80002820:	40660633          	sub	a2,a2,t1
    80002824:	0606                	slli	a2,a2,0x1
    80002826:	851a                	mv	a0,t1
    80002828:	1805200b          	.insn	4, 0x1805200b
    8000282c:	00c58533          	add	a0,a1,a2
    80002830:	1005208b          	.insn	4, 0x1005208b
    80002834:	0e20810b          	.insn	4, 0x0e20810b
    80002838:	00c88533          	add	a0,a7,a2
    8000283c:	1225200b          	.insn	4, 0x1225200b
    80002840:	8082                	ret
    80002842:	8532                	mv	a0,a2
    80002844:	1805200b          	.insn	4, 0x1805200b
    80002848:	852e                	mv	a0,a1
    8000284a:	1005208b          	.insn	4, 0x1005208b
    8000284e:	0e20810b          	.insn	4, 0x0e20810b
    80002852:	8546                	mv	a0,a7
    80002854:	1225200b          	.insn	4, 0x1225200b
    80002858:	8082                	ret
    8000285a:	1101                	addi	sp,sp,-32
    8000285c:	00015517          	auipc	a0,0x15
    80002860:	a3c50513          	addi	a0,a0,-1476 # 80017298 <__tbss_end+0x1668>
    80002864:	ec06                	sd	ra,24(sp)
    80002866:	e432                	sd	a2,8(sp)
    80002868:	24c110ef          	jal	80013ab4 <puts>
    8000286c:	65a2                	ld	a1,8(sp)
    8000286e:	00014517          	auipc	a0,0x14
    80002872:	eea50513          	addi	a0,a0,-278 # 80016758 <__tbss_end+0xb28>
    80002876:	0f8110ef          	jal	8001396e <iprintf>
    8000287a:	557d                	li	a0,-1
    8000287c:	4ec100ef          	jal	80012d68 <exit>

0000000080002880 <_Z20tiled_matrix_sigmoidPsPKsmm>:
    80002880:	7139                	addi	sp,sp,-64
    80002882:	e852                	sd	s4,16(sp)
    80002884:	e456                	sd	s5,8(sp)
    80002886:	fc06                	sd	ra,56(sp)
    80002888:	8a32                	mv	s4,a2
    8000288a:	8ab6                	mv	s5,a3
    8000288c:	cd15                	beqz	a0,800028c8 <_Z20tiled_matrix_sigmoidPsPKsmm+0x48>
    8000288e:	ca05                	beqz	a2,800028be <_Z20tiled_matrix_sigmoidPsPKsmm+0x3e>
    80002890:	f822                	sd	s0,48(sp)
    80002892:	f426                	sd	s1,40(sp)
    80002894:	f04a                	sd	s2,32(sp)
    80002896:	ec4e                	sd	s3,24(sp)
    80002898:	842a                	mv	s0,a0
    8000289a:	84ae                	mv	s1,a1
    8000289c:	00169993          	slli	s3,a3,0x1
    800028a0:	4901                	li	s2,0
    800028a2:	85a6                	mv	a1,s1
    800028a4:	8522                	mv	a0,s0
    800028a6:	8656                	mv	a2,s5
    800028a8:	0905                	addi	s2,s2,1
    800028aa:	f31ff0ef          	jal	800027da <_Z20tiled_vector_sigmoidPsPKsm>
    800028ae:	944e                	add	s0,s0,s3
    800028b0:	94ce                	add	s1,s1,s3
    800028b2:	ff2a18e3          	bne	s4,s2,800028a2 <_Z20tiled_matrix_sigmoidPsPKsmm+0x22>
    800028b6:	7442                	ld	s0,48(sp)
    800028b8:	74a2                	ld	s1,40(sp)
    800028ba:	7902                	ld	s2,32(sp)
    800028bc:	69e2                	ld	s3,24(sp)
    800028be:	70e2                	ld	ra,56(sp)
    800028c0:	6a42                	ld	s4,16(sp)
    800028c2:	6aa2                	ld	s5,8(sp)
    800028c4:	6121                	addi	sp,sp,64
    800028c6:	8082                	ret
    800028c8:	00015517          	auipc	a0,0x15
    800028cc:	a2850513          	addi	a0,a0,-1496 # 800172f0 <__tbss_end+0x16c0>
    800028d0:	f822                	sd	s0,48(sp)
    800028d2:	f426                	sd	s1,40(sp)
    800028d4:	f04a                	sd	s2,32(sp)
    800028d6:	ec4e                	sd	s3,24(sp)
    800028d8:	1dc110ef          	jal	80013ab4 <puts>
    800028dc:	8656                	mv	a2,s5
    800028de:	85d2                	mv	a1,s4
    800028e0:	00015517          	auipc	a0,0x15
    800028e4:	86850513          	addi	a0,a0,-1944 # 80017148 <__tbss_end+0x1518>
    800028e8:	086110ef          	jal	8001396e <iprintf>
    800028ec:	557d                	li	a0,-1
    800028ee:	47a100ef          	jal	80012d68 <exit>

00000000800028f2 <_Z11fit_dotprodPsPKsS1_m>:
    800028f2:	47a1                	li	a5,8
    800028f4:	02d7e163          	bltu	a5,a3,80002916 <_Z11fit_dotprodPsPKsS1_m+0x24>
    800028f8:	872a                	mv	a4,a0
    800028fa:	8536                	mv	a0,a3
    800028fc:	1805200b          	.insn	4, 0x1805200b
    80002900:	852e                	mv	a0,a1
    80002902:	1005208b          	.insn	4, 0x1005208b
    80002906:	8532                	mv	a0,a2
    80002908:	1005210b          	.insn	4, 0x1005210b
    8000290c:	1a20c50b          	.insn	4, 0x1a20c50b
    80002910:	00a71023          	sh	a0,0(a4)
    80002914:	8082                	ret
    80002916:	1141                	addi	sp,sp,-16
    80002918:	00015697          	auipc	a3,0x15
    8000291c:	a3068693          	addi	a3,a3,-1488 # 80017348 <__tbss_end+0x1718>
    80002920:	00015617          	auipc	a2,0x15
    80002924:	a4060613          	addi	a2,a2,-1472 # 80017360 <__tbss_end+0x1730>
    80002928:	4591                	li	a1,4
    8000292a:	00015517          	auipc	a0,0x15
    8000292e:	a7650513          	addi	a0,a0,-1418 # 800173a0 <__tbss_end+0x1770>
    80002932:	e406                	sd	ra,8(sp)
    80002934:	3ee100ef          	jal	80012d22 <__assert_func>

0000000080002938 <_Z13tiled_dotprodPsPKsS1_m>:
    80002938:	47a1                	li	a5,8
    8000293a:	8eaa                	mv	t4,a0
    8000293c:	06d7fa63          	bgeu	a5,a3,800029b0 <_Z13tiled_dotprodPsPKsS1_m+0x78>
    80002940:	0076ff13          	andi	t5,a3,7
    80002944:	0036de13          	srli	t3,a3,0x3
    80002948:	88ae                	mv	a7,a1
    8000294a:	8832                	mv	a6,a2
    8000294c:	4301                	li	t1,0
    8000294e:	4701                	li	a4,0
    80002950:	4521                	li	a0,8
    80002952:	1805200b          	.insn	4, 0x1805200b
    80002956:	8546                	mv	a0,a7
    80002958:	1005208b          	.insn	4, 0x1005208b
    8000295c:	8542                	mv	a0,a6
    8000295e:	1005210b          	.insn	4, 0x1005210b
    80002962:	1a20c50b          	.insn	4, 0x1a20c50b
    80002966:	00a307bb          	addw	a5,t1,a0
    8000296a:	0107931b          	slliw	t1,a5,0x10
    8000296e:	0705                	addi	a4,a4,1
    80002970:	08c1                	addi	a7,a7,16
    80002972:	0841                	addi	a6,a6,16
    80002974:	4103531b          	sraiw	t1,t1,0x10
    80002978:	fcee1ce3          	bne	t3,a4,80002950 <_Z13tiled_dotprodPsPKsS1_m+0x18>
    8000297c:	000f1563          	bnez	t5,80002986 <_Z13tiled_dotprodPsPKsS1_m+0x4e>
    80002980:	006e9023          	sh	t1,0(t4)
    80002984:	8082                	ret
    80002986:	41e686b3          	sub	a3,a3,t5
    8000298a:	0686                	slli	a3,a3,0x1
    8000298c:	857a                	mv	a0,t5
    8000298e:	1805200b          	.insn	4, 0x1805200b
    80002992:	00d58533          	add	a0,a1,a3
    80002996:	1005208b          	.insn	4, 0x1005208b
    8000299a:	00d60533          	add	a0,a2,a3
    8000299e:	1005210b          	.insn	4, 0x1005210b
    800029a2:	1a20c50b          	.insn	4, 0x1a20c50b
    800029a6:	00f5033b          	addw	t1,a0,a5
    800029aa:	006e9023          	sh	t1,0(t4)
    800029ae:	8082                	ret
    800029b0:	8536                	mv	a0,a3
    800029b2:	1805200b          	.insn	4, 0x1805200b
    800029b6:	852e                	mv	a0,a1
    800029b8:	1005208b          	.insn	4, 0x1005208b
    800029bc:	8532                	mv	a0,a2
    800029be:	1005210b          	.insn	4, 0x1005210b
    800029c2:	1a20c50b          	.insn	4, 0x1a20c50b
    800029c6:	832a                	mv	t1,a0
    800029c8:	006e9023          	sh	t1,0(t4)
    800029cc:	8082                	ret

00000000800029ce <_Z9tiled_mvmPsPKsS1_mm>:
    800029ce:	7139                	addi	sp,sp,-64
    800029d0:	ec4e                	sd	s3,24(sp)
    800029d2:	fc06                	sd	ra,56(sp)
    800029d4:	89b6                	mv	s3,a3
    800029d6:	c521                	beqz	a0,80002a1e <_Z9tiled_mvmPsPKsS1_mm+0x50>
    800029d8:	ce9d                	beqz	a3,80002a16 <_Z9tiled_mvmPsPKsS1_mm+0x48>
    800029da:	f822                	sd	s0,48(sp)
    800029dc:	f426                	sd	s1,40(sp)
    800029de:	f04a                	sd	s2,32(sp)
    800029e0:	e852                	sd	s4,16(sp)
    800029e2:	e456                	sd	s5,8(sp)
    800029e4:	e05a                	sd	s6,0(sp)
    800029e6:	8ab2                	mv	s5,a2
    800029e8:	8a3a                	mv	s4,a4
    800029ea:	842a                	mv	s0,a0
    800029ec:	84ae                	mv	s1,a1
    800029ee:	00171b13          	slli	s6,a4,0x1
    800029f2:	4901                	li	s2,0
    800029f4:	85a6                	mv	a1,s1
    800029f6:	8522                	mv	a0,s0
    800029f8:	86d2                	mv	a3,s4
    800029fa:	8656                	mv	a2,s5
    800029fc:	0905                	addi	s2,s2,1
    800029fe:	f3bff0ef          	jal	80002938 <_Z13tiled_dotprodPsPKsS1_m>
    80002a02:	0409                	addi	s0,s0,2
    80002a04:	94da                	add	s1,s1,s6
    80002a06:	ff2997e3          	bne	s3,s2,800029f4 <_Z9tiled_mvmPsPKsS1_mm+0x26>
    80002a0a:	7442                	ld	s0,48(sp)
    80002a0c:	74a2                	ld	s1,40(sp)
    80002a0e:	7902                	ld	s2,32(sp)
    80002a10:	6a42                	ld	s4,16(sp)
    80002a12:	6aa2                	ld	s5,8(sp)
    80002a14:	6b02                	ld	s6,0(sp)
    80002a16:	70e2                	ld	ra,56(sp)
    80002a18:	69e2                	ld	s3,24(sp)
    80002a1a:	6121                	addi	sp,sp,64
    80002a1c:	8082                	ret
    80002a1e:	00015517          	auipc	a0,0x15
    80002a22:	99a50513          	addi	a0,a0,-1638 # 800173b8 <__tbss_end+0x1788>
    80002a26:	f822                	sd	s0,48(sp)
    80002a28:	f426                	sd	s1,40(sp)
    80002a2a:	f04a                	sd	s2,32(sp)
    80002a2c:	e852                	sd	s4,16(sp)
    80002a2e:	e456                	sd	s5,8(sp)
    80002a30:	e05a                	sd	s6,0(sp)
    80002a32:	082110ef          	jal	80013ab4 <puts>
    80002a36:	85ce                	mv	a1,s3
    80002a38:	00014517          	auipc	a0,0x14
    80002a3c:	39050513          	addi	a0,a0,912 # 80016dc8 <__tbss_end+0x1198>
    80002a40:	72f100ef          	jal	8001396e <iprintf>
    80002a44:	557d                	li	a0,-1
    80002a46:	322100ef          	jal	80012d68 <exit>

0000000080002a4a <_Z22tiled_matmul_transposePsPKsS1_mmm>:
    80002a4a:	7159                	addi	sp,sp,-112
    80002a4c:	e4ce                	sd	s3,72(sp)
    80002a4e:	f062                	sd	s8,32(sp)
    80002a50:	f486                	sd	ra,104(sp)
    80002a52:	89b6                	mv	s3,a3
    80002a54:	8c3e                	mv	s8,a5
    80002a56:	c92d                	beqz	a0,80002ac8 <_Z22tiled_matmul_transposePsPKsS1_mmm+0x7e>
    80002a58:	c3bd                	beqz	a5,80002abe <_Z22tiled_matmul_transposePsPKsS1_mmm+0x74>
    80002a5a:	c2b5                	beqz	a3,80002abe <_Z22tiled_matmul_transposePsPKsS1_mmm+0x74>
    80002a5c:	e8ca                	sd	s2,80(sp)
    80002a5e:	e0d2                	sd	s4,64(sp)
    80002a60:	fc56                	sd	s5,56(sp)
    80002a62:	f85a                	sd	s6,48(sp)
    80002a64:	f45e                	sd	s7,40(sp)
    80002a66:	ec66                	sd	s9,24(sp)
    80002a68:	e86a                	sd	s10,16(sp)
    80002a6a:	f0a2                	sd	s0,96(sp)
    80002a6c:	eca6                	sd	s1,88(sp)
    80002a6e:	e46e                	sd	s11,8(sp)
    80002a70:	8caa                	mv	s9,a0
    80002a72:	8d2e                	mv	s10,a1
    80002a74:	8aba                	mv	s5,a4
    80002a76:	8932                	mv	s2,a2
    80002a78:	00171a13          	slli	s4,a4,0x1
    80002a7c:	4b81                	li	s7,0
    80002a7e:	4b01                	li	s6,0
    80002a80:	001b9413          	slli	s0,s7,0x1
    80002a84:	9466                	add	s0,s0,s9
    80002a86:	8dea                	mv	s11,s10
    80002a88:	4481                	li	s1,0
    80002a8a:	85ee                	mv	a1,s11
    80002a8c:	8522                	mv	a0,s0
    80002a8e:	86d6                	mv	a3,s5
    80002a90:	864a                	mv	a2,s2
    80002a92:	0485                	addi	s1,s1,1
    80002a94:	ea5ff0ef          	jal	80002938 <_Z13tiled_dotprodPsPKsS1_m>
    80002a98:	0409                	addi	s0,s0,2
    80002a9a:	9dd2                	add	s11,s11,s4
    80002a9c:	fe9997e3          	bne	s3,s1,80002a8a <_Z22tiled_matmul_transposePsPKsS1_mmm+0x40>
    80002aa0:	0b05                	addi	s6,s6,1
    80002aa2:	9bce                	add	s7,s7,s3
    80002aa4:	9952                	add	s2,s2,s4
    80002aa6:	fd8b1de3          	bne	s6,s8,80002a80 <_Z22tiled_matmul_transposePsPKsS1_mmm+0x36>
    80002aaa:	7406                	ld	s0,96(sp)
    80002aac:	64e6                	ld	s1,88(sp)
    80002aae:	6946                	ld	s2,80(sp)
    80002ab0:	6a06                	ld	s4,64(sp)
    80002ab2:	7ae2                	ld	s5,56(sp)
    80002ab4:	7b42                	ld	s6,48(sp)
    80002ab6:	7ba2                	ld	s7,40(sp)
    80002ab8:	6ce2                	ld	s9,24(sp)
    80002aba:	6d42                	ld	s10,16(sp)
    80002abc:	6da2                	ld	s11,8(sp)
    80002abe:	70a6                	ld	ra,104(sp)
    80002ac0:	69a6                	ld	s3,72(sp)
    80002ac2:	7c02                	ld	s8,32(sp)
    80002ac4:	6165                	addi	sp,sp,112
    80002ac6:	8082                	ret
    80002ac8:	00015517          	auipc	a0,0x15
    80002acc:	94050513          	addi	a0,a0,-1728 # 80017408 <__tbss_end+0x17d8>
    80002ad0:	f0a2                	sd	s0,96(sp)
    80002ad2:	eca6                	sd	s1,88(sp)
    80002ad4:	e8ca                	sd	s2,80(sp)
    80002ad6:	e0d2                	sd	s4,64(sp)
    80002ad8:	fc56                	sd	s5,56(sp)
    80002ada:	f85a                	sd	s6,48(sp)
    80002adc:	f45e                	sd	s7,40(sp)
    80002ade:	ec66                	sd	s9,24(sp)
    80002ae0:	e86a                	sd	s10,16(sp)
    80002ae2:	e46e                	sd	s11,8(sp)
    80002ae4:	7d1100ef          	jal	80013ab4 <puts>
    80002ae8:	864e                	mv	a2,s3
    80002aea:	85e2                	mv	a1,s8
    80002aec:	00015517          	auipc	a0,0x15
    80002af0:	97450513          	addi	a0,a0,-1676 # 80017460 <__tbss_end+0x1830>
    80002af4:	67b100ef          	jal	8001396e <iprintf>
    80002af8:	557d                	li	a0,-1
    80002afa:	26e100ef          	jal	80012d68 <exit>

0000000080002afe <_Z10array_initPsms>:
    80002afe:	c981                	beqz	a1,80002b0e <_Z10array_initPsms+0x10>
    80002b00:	0586                	slli	a1,a1,0x1
    80002b02:	95aa                	add	a1,a1,a0
    80002b04:	00c51023          	sh	a2,0(a0)
    80002b08:	0509                	addi	a0,a0,2
    80002b0a:	feb51de3          	bne	a0,a1,80002b04 <_Z10array_initPsms+0x6>
    80002b0e:	8082                	ret

0000000080002b10 <_Z12conv2d_shapePmS_S_mmmmmmmm>:
    80002b10:	6e02                	ld	t3,0(sp)
    80002b12:	6842                	ld	a6,16(sp)
    80002b14:	6322                	ld	t1,8(sp)
    80002b16:	41c70733          	sub	a4,a4,t3
    80002b1a:	0806                	slli	a6,a6,0x1
    80002b1c:	9742                	add	a4,a4,a6
    80002b1e:	02675733          	divu	a4,a4,t1
    80002b22:	41c787b3          	sub	a5,a5,t3
    80002b26:	97c2                	add	a5,a5,a6
    80002b28:	0267d7b3          	divu	a5,a5,t1
    80002b2c:	0705                	addi	a4,a4,1
    80002b2e:	031686b3          	mul	a3,a3,a7
    80002b32:	0785                	addi	a5,a5,1
    80002b34:	02e686b3          	mul	a3,a3,a4
    80002b38:	02f686b3          	mul	a3,a3,a5
    80002b3c:	e114                	sd	a3,0(a0)
    80002b3e:	e198                	sd	a4,0(a1)
    80002b40:	e21c                	sd	a5,0(a2)
    80002b42:	8082                	ret

0000000080002b44 <_Z15padding2d_shapePmS_S_mmmmm>:
    80002b44:	03180833          	mul	a6,a6,a7
    80002b48:	0686                	slli	a3,a3,0x1
    80002b4a:	9736                	add	a4,a4,a3
    80002b4c:	e198                	sd	a4,0(a1)
    80002b4e:	96be                	add	a3,a3,a5
    80002b50:	e214                	sd	a3,0(a2)
    80002b52:	619c                	ld	a5,0(a1)
    80002b54:	02f80833          	mul	a6,a6,a5
    80002b58:	02d80833          	mul	a6,a6,a3
    80002b5c:	01053023          	sd	a6,0(a0)
    80002b60:	8082                	ret

0000000080002b62 <_Z9padding2dPsPKsmsmm>:
    80002b62:	7159                	addi	sp,sp,-112
    80002b64:	e4ce                	sd	s3,72(sp)
    80002b66:	00161993          	slli	s3,a2,0x1
    80002b6a:	f062                	sd	s8,32(sp)
    80002b6c:	00f98c33          	add	s8,s3,a5
    80002b70:	eca6                	sd	s1,88(sp)
    80002b72:	02cc04b3          	mul	s1,s8,a2
    80002b76:	f0a2                	sd	s0,96(sp)
    80002b78:	e8ca                	sd	s2,80(sp)
    80002b7a:	fc56                	sd	s5,56(sp)
    80002b7c:	f45e                	sd	s7,40(sp)
    80002b7e:	f486                	sd	ra,104(sp)
    80002b80:	8bb2                	mv	s7,a2
    80002b82:	8aaa                	mv	s5,a0
    80002b84:	8436                	mv	s0,a3
    80002b86:	893a                	mv	s2,a4
    80002b88:	cce9                	beqz	s1,80002c62 <_Z9padding2dPsPKsmsmm+0x100>
    80002b8a:	00149693          	slli	a3,s1,0x1
    80002b8e:	96aa                	add	a3,a3,a0
    80002b90:	872a                	mv	a4,a0
    80002b92:	00871023          	sh	s0,0(a4)
    80002b96:	0709                	addi	a4,a4,2
    80002b98:	fed71de3          	bne	a4,a3,80002b92 <_Z9padding2dPsPKsmsmm+0x30>
    80002b9c:	8726                	mv	a4,s1
    80002b9e:	08090263          	beqz	s2,80002c22 <_Z9padding2dPsPKsmsmm+0xc0>
    80002ba2:	f85a                	sd	s6,48(sp)
    80002ba4:	417c0b33          	sub	s6,s8,s7
    80002ba8:	e0d2                	sd	s4,64(sp)
    80002baa:	ec66                	sd	s9,24(sp)
    80002bac:	e86a                	sd	s10,16(sp)
    80002bae:	e46e                	sd	s11,8(sp)
    80002bb0:	00179a13          	slli	s4,a5,0x1
    80002bb4:	8d2e                	mv	s10,a1
    80002bb6:	99d6                	add	s3,s3,s5
    80002bb8:	9b26                	add	s6,s6,s1
    80002bba:	8ca6                	mv	s9,s1
    80002bbc:	4d81                	li	s11,0
    80002bbe:	001c9793          	slli	a5,s9,0x1
    80002bc2:	00f98533          	add	a0,s3,a5
    80002bc6:	080b8363          	beqz	s7,80002c4c <_Z9padding2dPsPKsmsmm+0xea>
    80002bca:	019b8733          	add	a4,s7,s9
    80002bce:	0706                	slli	a4,a4,0x1
    80002bd0:	97d6                	add	a5,a5,s5
    80002bd2:	9756                	add	a4,a4,s5
    80002bd4:	00879023          	sh	s0,0(a5)
    80002bd8:	0789                	addi	a5,a5,2
    80002bda:	fee79de3          	bne	a5,a4,80002bd4 <_Z9padding2dPsPKsmsmm+0x72>
    80002bde:	8652                	mv	a2,s4
    80002be0:	85ea                	mv	a1,s10
    80002be2:	06b110ef          	jal	8001444c <memcpy>
    80002be6:	016b8733          	add	a4,s7,s6
    80002bea:	0706                	slli	a4,a4,0x1
    80002bec:	001b1793          	slli	a5,s6,0x1
    80002bf0:	9756                	add	a4,a4,s5
    80002bf2:	97d6                	add	a5,a5,s5
    80002bf4:	00879023          	sh	s0,0(a5)
    80002bf8:	0789                	addi	a5,a5,2
    80002bfa:	fee79de3          	bne	a5,a4,80002bf4 <_Z9padding2dPsPKsmsmm+0x92>
    80002bfe:	0d85                	addi	s11,s11,1
    80002c00:	9ce2                	add	s9,s9,s8
    80002c02:	9d52                	add	s10,s10,s4
    80002c04:	9b62                	add	s6,s6,s8
    80002c06:	fb2dece3          	bltu	s11,s2,80002bbe <_Z9padding2dPsPKsmsmm+0x5c>
    80002c0a:	ccb1                	beqz	s1,80002c66 <_Z9padding2dPsPKsmsmm+0x104>
    80002c0c:	fff90713          	addi	a4,s2,-1
    80002c10:	03870733          	mul	a4,a4,s8
    80002c14:	6a06                	ld	s4,64(sp)
    80002c16:	7b42                	ld	s6,48(sp)
    80002c18:	6ce2                	ld	s9,24(sp)
    80002c1a:	6d42                	ld	s10,16(sp)
    80002c1c:	6da2                	ld	s11,8(sp)
    80002c1e:	9c26                	add	s8,s8,s1
    80002c20:	9762                	add	a4,a4,s8
    80002c22:	00e487b3          	add	a5,s1,a4
    80002c26:	0786                	slli	a5,a5,0x1
    80002c28:	0706                	slli	a4,a4,0x1
    80002c2a:	97d6                	add	a5,a5,s5
    80002c2c:	9aba                	add	s5,s5,a4
    80002c2e:	008a9023          	sh	s0,0(s5)
    80002c32:	0a89                	addi	s5,s5,2
    80002c34:	ff579de3          	bne	a5,s5,80002c2e <_Z9padding2dPsPKsmsmm+0xcc>
    80002c38:	70a6                	ld	ra,104(sp)
    80002c3a:	7406                	ld	s0,96(sp)
    80002c3c:	64e6                	ld	s1,88(sp)
    80002c3e:	6946                	ld	s2,80(sp)
    80002c40:	69a6                	ld	s3,72(sp)
    80002c42:	7ae2                	ld	s5,56(sp)
    80002c44:	7ba2                	ld	s7,40(sp)
    80002c46:	7c02                	ld	s8,32(sp)
    80002c48:	6165                	addi	sp,sp,112
    80002c4a:	8082                	ret
    80002c4c:	85ea                	mv	a1,s10
    80002c4e:	8652                	mv	a2,s4
    80002c50:	0d85                	addi	s11,s11,1
    80002c52:	7fa110ef          	jal	8001444c <memcpy>
    80002c56:	9ce2                	add	s9,s9,s8
    80002c58:	9d52                	add	s10,s10,s4
    80002c5a:	9b62                	add	s6,s6,s8
    80002c5c:	f72de1e3          	bltu	s11,s2,80002bbe <_Z9padding2dPsPKsmsmm+0x5c>
    80002c60:	b76d                	j	80002c0a <_Z9padding2dPsPKsmsmm+0xa8>
    80002c62:	f321                	bnez	a4,80002ba2 <_Z9padding2dPsPKsmsmm+0x40>
    80002c64:	bfd1                	j	80002c38 <_Z9padding2dPsPKsmsmm+0xd6>
    80002c66:	6a06                	ld	s4,64(sp)
    80002c68:	7b42                	ld	s6,48(sp)
    80002c6a:	6ce2                	ld	s9,24(sp)
    80002c6c:	6d42                	ld	s10,16(sp)
    80002c6e:	6da2                	ld	s11,8(sp)
    80002c70:	b7e1                	j	80002c38 <_Z9padding2dPsPKsmsmm+0xd6>

0000000080002c72 <_Z9padding2dPsPKsmsmmm>:
    80002c72:	06080b63          	beqz	a6,80002ce8 <_Z9padding2dPsPKsmsmmm+0x76>
    80002c76:	711d                	addi	sp,sp,-96
    80002c78:	fc4e                	sd	s3,56(sp)
    80002c7a:	89be                	mv	s3,a5
    80002c7c:	00161793          	slli	a5,a2,0x1
    80002c80:	f456                	sd	s5,40(sp)
    80002c82:	00e78ab3          	add	s5,a5,a4
    80002c86:	97ce                	add	a5,a5,s3
    80002c88:	02fa8ab3          	mul	s5,s5,a5
    80002c8c:	e466                	sd	s9,8(sp)
    80002c8e:	e8a2                	sd	s0,80(sp)
    80002c90:	e4a6                	sd	s1,72(sp)
    80002c92:	e0ca                	sd	s2,64(sp)
    80002c94:	f852                	sd	s4,48(sp)
    80002c96:	f05a                	sd	s6,32(sp)
    80002c98:	ec5e                	sd	s7,24(sp)
    80002c9a:	e862                	sd	s8,16(sp)
    80002c9c:	ec86                	sd	ra,88(sp)
    80002c9e:	03370cb3          	mul	s9,a4,s3
    80002ca2:	8a3a                	mv	s4,a4
    80002ca4:	8bb6                	mv	s7,a3
    80002ca6:	8b32                	mv	s6,a2
    80002ca8:	8c42                	mv	s8,a6
    80002caa:	84aa                	mv	s1,a0
    80002cac:	842e                	mv	s0,a1
    80002cae:	4901                	li	s2,0
    80002cb0:	0a86                	slli	s5,s5,0x1
    80002cb2:	0c86                	slli	s9,s9,0x1
    80002cb4:	85a2                	mv	a1,s0
    80002cb6:	8526                	mv	a0,s1
    80002cb8:	87ce                	mv	a5,s3
    80002cba:	8752                	mv	a4,s4
    80002cbc:	86de                	mv	a3,s7
    80002cbe:	865a                	mv	a2,s6
    80002cc0:	0905                	addi	s2,s2,1
    80002cc2:	ea1ff0ef          	jal	80002b62 <_Z9padding2dPsPKsmsmm>
    80002cc6:	94d6                	add	s1,s1,s5
    80002cc8:	9466                	add	s0,s0,s9
    80002cca:	ff2c15e3          	bne	s8,s2,80002cb4 <_Z9padding2dPsPKsmsmmm+0x42>
    80002cce:	60e6                	ld	ra,88(sp)
    80002cd0:	6446                	ld	s0,80(sp)
    80002cd2:	64a6                	ld	s1,72(sp)
    80002cd4:	6906                	ld	s2,64(sp)
    80002cd6:	79e2                	ld	s3,56(sp)
    80002cd8:	7a42                	ld	s4,48(sp)
    80002cda:	7aa2                	ld	s5,40(sp)
    80002cdc:	7b02                	ld	s6,32(sp)
    80002cde:	6be2                	ld	s7,24(sp)
    80002ce0:	6c42                	ld	s8,16(sp)
    80002ce2:	6ca2                	ld	s9,8(sp)
    80002ce4:	6125                	addi	sp,sp,96
    80002ce6:	8082                	ret
    80002ce8:	8082                	ret

0000000080002cea <_Z9padding2dPsPKsmsmmmm>:
    80002cea:	0c088163          	beqz	a7,80002dac <_Z9padding2dPsPKsmsmmmm+0xc2>
    80002cee:	0a080f63          	beqz	a6,80002dac <_Z9padding2dPsPKsmsmmmm+0xc2>
    80002cf2:	7135                	addi	sp,sp,-160
    80002cf4:	e526                	sd	s1,136(sp)
    80002cf6:	e14a                	sd	s2,128(sp)
    80002cf8:	84be                	mv	s1,a5
    80002cfa:	893a                	mv	s2,a4
    80002cfc:	00161713          	slli	a4,a2,0x1
    80002d00:	012707b3          	add	a5,a4,s2
    80002d04:	9726                	add	a4,a4,s1
    80002d06:	02e787b3          	mul	a5,a5,a4
    80002d0a:	f0da                	sd	s6,96(sp)
    80002d0c:	e922                	sd	s0,144(sp)
    80002d0e:	fcce                	sd	s3,120(sp)
    80002d10:	f8d2                	sd	s4,112(sp)
    80002d12:	f4d6                	sd	s5,104(sp)
    80002d14:	e8e2                	sd	s8,80(sp)
    80002d16:	e4e6                	sd	s9,72(sp)
    80002d18:	ed06                	sd	ra,152(sp)
    80002d1a:	ecde                	sd	s7,88(sp)
    80002d1c:	02990733          	mul	a4,s2,s1
    80002d20:	00179b13          	slli	s6,a5,0x1
    80002d24:	e0ea                	sd	s10,64(sp)
    80002d26:	fc6e                	sd	s11,56(sp)
    80002d28:	8442                	mv	s0,a6
    80002d2a:	8a36                	mv	s4,a3
    80002d2c:	89b2                	mv	s3,a2
    80002d2e:	f42e                	sd	a1,40(sp)
    80002d30:	f02a                	sd	a0,32(sp)
    80002d32:	ec46                	sd	a7,24(sp)
    80002d34:	030787b3          	mul	a5,a5,a6
    80002d38:	4c81                	li	s9,0
    80002d3a:	4c01                	li	s8,0
    80002d3c:	e002                	sd	zero,0(sp)
    80002d3e:	00171a93          	slli	s5,a4,0x1
    80002d42:	e43e                	sd	a5,8(sp)
    80002d44:	030707b3          	mul	a5,a4,a6
    80002d48:	e83e                	sd	a5,16(sp)
    80002d4a:	7782                	ld	a5,32(sp)
    80002d4c:	001c1513          	slli	a0,s8,0x1
    80002d50:	001c9593          	slli	a1,s9,0x1
    80002d54:	00a78bb3          	add	s7,a5,a0
    80002d58:	77a2                	ld	a5,40(sp)
    80002d5a:	4d01                	li	s10,0
    80002d5c:	00b78db3          	add	s11,a5,a1
    80002d60:	85ee                	mv	a1,s11
    80002d62:	855e                	mv	a0,s7
    80002d64:	87a6                	mv	a5,s1
    80002d66:	874a                	mv	a4,s2
    80002d68:	86d2                	mv	a3,s4
    80002d6a:	864e                	mv	a2,s3
    80002d6c:	0d05                	addi	s10,s10,1
    80002d6e:	df5ff0ef          	jal	80002b62 <_Z9padding2dPsPKsmsmm>
    80002d72:	9bda                	add	s7,s7,s6
    80002d74:	9dd6                	add	s11,s11,s5
    80002d76:	ffa415e3          	bne	s0,s10,80002d60 <_Z9padding2dPsPKsmsmmmm+0x76>
    80002d7a:	6722                	ld	a4,8(sp)
    80002d7c:	6782                	ld	a5,0(sp)
    80002d7e:	9c3a                	add	s8,s8,a4
    80002d80:	6742                	ld	a4,16(sp)
    80002d82:	0785                	addi	a5,a5,1
    80002d84:	e03e                	sd	a5,0(sp)
    80002d86:	9cba                	add	s9,s9,a4
    80002d88:	6762                	ld	a4,24(sp)
    80002d8a:	fce790e3          	bne	a5,a4,80002d4a <_Z9padding2dPsPKsmsmmmm+0x60>
    80002d8e:	60ea                	ld	ra,152(sp)
    80002d90:	644a                	ld	s0,144(sp)
    80002d92:	64aa                	ld	s1,136(sp)
    80002d94:	690a                	ld	s2,128(sp)
    80002d96:	79e6                	ld	s3,120(sp)
    80002d98:	7a46                	ld	s4,112(sp)
    80002d9a:	7aa6                	ld	s5,104(sp)
    80002d9c:	7b06                	ld	s6,96(sp)
    80002d9e:	6be6                	ld	s7,88(sp)
    80002da0:	6c46                	ld	s8,80(sp)
    80002da2:	6ca6                	ld	s9,72(sp)
    80002da4:	6d06                	ld	s10,64(sp)
    80002da6:	7de2                	ld	s11,56(sp)
    80002da8:	610d                	addi	sp,sp,160
    80002daa:	8082                	ret
    80002dac:	8082                	ret

0000000080002dae <_Z15pooling2d_shapePmS_S_mmmmmmm>:
    80002dae:	6e22                	ld	t3,8(sp)
    80002db0:	6302                	ld	t1,0(sp)
    80002db2:	000e1363          	bnez	t3,80002db8 <_Z15pooling2d_shapePmS_S_mmmmmmm+0xa>
    80002db6:	8e46                	mv	t3,a7
    80002db8:	0306                	slli	t1,t1,0x1
    80002dba:	969a                	add	a3,a3,t1
    80002dbc:	411686b3          	sub	a3,a3,a7
    80002dc0:	971a                	add	a4,a4,t1
    80002dc2:	03c6d6b3          	divu	a3,a3,t3
    80002dc6:	41170733          	sub	a4,a4,a7
    80002dca:	03c75733          	divu	a4,a4,t3
    80002dce:	0685                	addi	a3,a3,1
    80002dd0:	e194                	sd	a3,0(a1)
    80002dd2:	0705                	addi	a4,a4,1
    80002dd4:	e218                	sd	a4,0(a2)
    80002dd6:	6194                	ld	a3,0(a1)
    80002dd8:	02d80833          	mul	a6,a6,a3
    80002ddc:	02f80833          	mul	a6,a6,a5
    80002de0:	02e80833          	mul	a6,a6,a4
    80002de4:	01053023          	sd	a6,0(a0)
    80002de8:	8082                	ret

0000000080002dea <_Z9nn_conv2dPsPKsS1_mmmmmmmm>:
    80002dea:	7109                	addi	sp,sp,-384
    80002dec:	faa2                	sd	s0,368(sp)
    80002dee:	f6a6                	sd	s1,360(sp)
    80002df0:	0300                	addi	s0,sp,384
    80002df2:	e6d6                	sd	s5,328(sp)
    80002df4:	fa62                	sd	s8,304(sp)
    80002df6:	fe86                	sd	ra,376(sp)
    80002df8:	f2ca                	sd	s2,352(sp)
    80002dfa:	eece                	sd	s3,344(sp)
    80002dfc:	ead2                	sd	s4,336(sp)
    80002dfe:	e2da                	sd	s6,320(sp)
    80002e00:	fe5e                	sd	s7,312(sp)
    80002e02:	f666                	sd	s9,296(sp)
    80002e04:	f26a                	sd	s10,288(sp)
    80002e06:	ee6e                	sd	s11,280(sp)
    80002e08:	00843c03          	ld	s8,8(s0)
    80002e0c:	f2a43c23          	sd	a0,-200(s0)
    80002e10:	eab43423          	sd	a1,-344(s0)
    80002e14:	f0d43c23          	sd	a3,-232(s0)
    80002e18:	f1143823          	sd	a7,-240(s0)
    80002e1c:	f3043023          	sd	a6,-224(s0)
    80002e20:	00043a83          	ld	s5,0(s0)
    80002e24:	6804                	ld	s1,16(s0)
    80002e26:	2a0c0c63          	beqz	s8,800030de <_Z9nn_conv2dPsPKsS1_mmmmmmmm+0x2f4>
    80002e2a:	f3843683          	ld	a3,-200(s0)
    80002e2e:	2c068763          	beqz	a3,800030fc <_Z9nn_conv2dPsPKsS1_mmmmmmmm+0x312>
    80002e32:	f1843b03          	ld	s6,-232(s0)
    80002e36:	8a32                	mv	s4,a2
    80002e38:	86a6                	mv	a3,s1
    80002e3a:	88da                	mv	a7,s6
    80002e3c:	f8840613          	addi	a2,s0,-120
    80002e40:	f8040593          	addi	a1,s0,-128
    80002e44:	f7840513          	addi	a0,s0,-136
    80002e48:	89be                	mv	s3,a5
    80002e4a:	893a                	mv	s2,a4
    80002e4c:	cf9ff0ef          	jal	80002b44 <_Z15padding2d_shapePmS_S_mmmmm>
    80002e50:	f7843783          	ld	a5,-136(s0)
    80002e54:	f2043c83          	ld	s9,-224(s0)
    80002e58:	85d2                	mv	a1,s4
    80002e5a:	0786                	slli	a5,a5,0x1
    80002e5c:	07bd                	addi	a5,a5,15
    80002e5e:	9bc1                	andi	a5,a5,-16
    80002e60:	40f10133          	sub	sp,sp,a5
    80002e64:	88da                	mv	a7,s6
    80002e66:	850a                	mv	a0,sp
    80002e68:	8866                	mv	a6,s9
    80002e6a:	87ce                	mv	a5,s3
    80002e6c:	874a                	mv	a4,s2
    80002e6e:	8626                	mv	a2,s1
    80002e70:	4681                	li	a3,0
    80002e72:	f6243023          	sd	sp,-160(s0)
    80002e76:	e75ff0ef          	jal	80002cea <_Z9padding2dPsPKsmsmmmm>
    80002e7a:	100b0363          	beqz	s6,80002f80 <_Z9nn_conv2dPsPKsS1_mmmmmmmm+0x196>
    80002e7e:	f1043703          	ld	a4,-240(s0)
    80002e82:	cf7d                	beqz	a4,80002f80 <_Z9nn_conv2dPsPKsS1_mmmmmmmm+0x196>
    80002e84:	00149793          	slli	a5,s1,0x1
    80002e88:	41598633          	sub	a2,s3,s5
    80002e8c:	415904b3          	sub	s1,s2,s5
    80002e90:	94be                	add	s1,s1,a5
    80002e92:	963e                	add	a2,a2,a5
    80002e94:	0384d4b3          	divu	s1,s1,s8
    80002e98:	85e2                	mv	a1,s8
    80002e9a:	00199b93          	slli	s7,s3,0x1
    80002e9e:	001a9b13          	slli	s6,s5,0x1
    80002ea2:	4d81                	li	s11,0
    80002ea4:	03865633          	divu	a2,a2,s8
    80002ea8:	00148e13          	addi	t3,s1,1
    80002eac:	00160513          	addi	a0,a2,1
    80002eb0:	02ae06b3          	mul	a3,t3,a0
    80002eb4:	8a32                	mv	s4,a2
    80002eb6:	033c0833          	mul	a6,s8,s3
    80002eba:	4c01                	li	s8,0
    80002ebc:	033908b3          	mul	a7,s2,s3
    80002ec0:	f3043423          	sd	a6,-216(s0)
    80002ec4:	8826                	mv	a6,s1
    80002ec6:	84b6                	mv	s1,a3
    80002ec8:	035a8333          	mul	t1,s5,s5
    80002ecc:	02e68933          	mul	s2,a3,a4
    80002ed0:	03930eb3          	mul	t4,t1,s9
    80002ed4:	031c8d33          	mul	s10,s9,a7
    80002ed8:	4c81                	li	s9,0
    80002eda:	f2043603          	ld	a2,-224(s0)
    80002ede:	876e                	mv	a4,s11
    80002ee0:	ca49                	beqz	a2,80002f72 <_Z9nn_conv2dPsPKsS1_mmmmmmmm+0x188>
    80002ee2:	e9a43c23          	sd	s10,-360(s0)
    80002ee6:	eb843023          	sd	s8,-352(s0)
    80002eea:	8d52                	mv	s10,s4
    80002eec:	4981                	li	s3,0
    80002eee:	4a01                	li	s4,0
    80002ef0:	879a                	mv	a5,t1
    80002ef2:	e9243823          	sd	s2,-368(s0)
    80002ef6:	e9b43423          	sd	s11,-376(s0)
    80002efa:	f1343423          	sd	s3,-248(s0)
    80002efe:	8c56                	mv	s8,s5
    80002f00:	8de6                	mv	s11,s9
    80002f02:	f1443023          	sd	s4,-256(s0)
    80002f06:	efd43c23          	sd	t4,-264(s0)
    80002f0a:	ee943823          	sd	s1,-272(s0)
    80002f0e:	ef943423          	sd	s9,-280(s0)
    80002f12:	4981                	li	s3,0
    80002f14:	8652                	mv	a2,s4
    80002f16:	8aae                	mv	s5,a1
    80002f18:	180e0063          	beqz	t3,80003098 <_Z9nn_conv2dPsPKsS1_mmmmmmmm+0x2ae>
    80002f1c:	4481                	li	s1,0
    80002f1e:	e151                	bnez	a0,80002fa2 <_Z9nn_conv2dPsPKsS1_mmmmmmmm+0x1b8>
    80002f20:	00980563          	beq	a6,s1,80002f2a <_Z9nn_conv2dPsPKsS1_mmmmmmmm+0x140>
    80002f24:	0485                	addi	s1,s1,1
    80002f26:	fe981fe3          	bne	a6,s1,80002f24 <_Z9nn_conv2dPsPKsS1_mmmmmmmm+0x13a>
    80002f2a:	f2043683          	ld	a3,-224(s0)
    80002f2e:	0985                	addi	s3,s3,1
    80002f30:	9dc6                	add	s11,s11,a7
    80002f32:	963e                	add	a2,a2,a5
    80002f34:	ff3694e3          	bne	a3,s3,80002f1c <_Z9nn_conv2dPsPKsS1_mmmmmmmm+0x132>
    80002f38:	f0843983          	ld	s3,-248(s0)
    80002f3c:	f0043a03          	ld	s4,-256(s0)
    80002f40:	ef843e83          	ld	t4,-264(s0)
    80002f44:	ef043483          	ld	s1,-272(s0)
    80002f48:	f1043683          	ld	a3,-240(s0)
    80002f4c:	0985                	addi	s3,s3,1
    80002f4e:	85d6                	mv	a1,s5
    80002f50:	ee843c83          	ld	s9,-280(s0)
    80002f54:	8ae2                	mv	s5,s8
    80002f56:	9726                	add	a4,a4,s1
    80002f58:	9a76                	add	s4,s4,t4
    80002f5a:	fb3690e3          	bne	a3,s3,80002efa <_Z9nn_conv2dPsPKsS1_mmmmmmmm+0x110>
    80002f5e:	8a6a                	mv	s4,s10
    80002f60:	ea043c03          	ld	s8,-352(s0)
    80002f64:	e9843d03          	ld	s10,-360(s0)
    80002f68:	e9043903          	ld	s2,-368(s0)
    80002f6c:	e8843d83          	ld	s11,-376(s0)
    80002f70:	833e                	mv	t1,a5
    80002f72:	f1843783          	ld	a5,-232(s0)
    80002f76:	0c05                	addi	s8,s8,1
    80002f78:	9cea                	add	s9,s9,s10
    80002f7a:	9dca                	add	s11,s11,s2
    80002f7c:	f5879fe3          	bne	a5,s8,80002eda <_Z9nn_conv2dPsPKsS1_mmmmmmmm+0xf0>
    80002f80:	e8040113          	addi	sp,s0,-384
    80002f84:	70f6                	ld	ra,376(sp)
    80002f86:	7456                	ld	s0,368(sp)
    80002f88:	74b6                	ld	s1,360(sp)
    80002f8a:	7916                	ld	s2,352(sp)
    80002f8c:	69f6                	ld	s3,344(sp)
    80002f8e:	6a56                	ld	s4,336(sp)
    80002f90:	6ab6                	ld	s5,328(sp)
    80002f92:	6b16                	ld	s6,320(sp)
    80002f94:	7bf2                	ld	s7,312(sp)
    80002f96:	7c52                	ld	s8,304(sp)
    80002f98:	7cb2                	ld	s9,296(sp)
    80002f9a:	7d12                	ld	s10,288(sp)
    80002f9c:	6df2                	ld	s11,280(sp)
    80002f9e:	6119                	addi	sp,sp,384
    80002fa0:	8082                	ret
    80002fa2:	ea843683          	ld	a3,-344(s0)
    80002fa6:	00161c93          	slli	s9,a2,0x1
    80002faa:	eee43023          	sd	a4,-288(s0)
    80002fae:	96e6                	add	a3,a3,s9
    80002fb0:	f6d43423          	sd	a3,-152(s0)
    80002fb4:	ecf43c23          	sd	a5,-296(s0)
    80002fb8:	86a6                	mv	a3,s1
    80002fba:	f5043023          	sd	a6,-192(s0)
    80002fbe:	edc43823          	sd	t3,-304(s0)
    80002fc2:	f2a43823          	sd	a0,-208(s0)
    80002fc6:	ed143423          	sd	a7,-312(s0)
    80002fca:	ed343023          	sd	s3,-320(s0)
    80002fce:	ebb43c23          	sd	s11,-328(s0)
    80002fd2:	eac43823          	sd	a2,-336(s0)
    80002fd6:	84e2                	mv	s1,s8
    80002fd8:	87ba                	mv	a5,a4
    80002fda:	876e                	mv	a4,s11
    80002fdc:	c4c9                	beqz	s1,80003066 <_Z9nn_conv2dPsPKsS1_mmmmmmmm+0x27c>
    80002fde:	f3843603          	ld	a2,-200(s0)
    80002fe2:	00179813          	slli	a6,a5,0x1
    80002fe6:	8ca6                	mv	s9,s1
    80002fe8:	01060933          	add	s2,a2,a6
    80002fec:	8a3a                	mv	s4,a4
    80002fee:	f4f43c23          	sd	a5,-168(s0)
    80002ff2:	f4d43823          	sd	a3,-176(s0)
    80002ff6:	f4e43423          	sd	a4,-184(s0)
    80002ffa:	4481                	li	s1,0
    80002ffc:	f6043783          	ld	a5,-160(s0)
    80003000:	f6843983          	ld	s3,-152(s0)
    80003004:	001a1613          	slli	a2,s4,0x1
    80003008:	00c78c33          	add	s8,a5,a2
    8000300c:	4d81                	li	s11,0
    8000300e:	8662                	mv	a2,s8
    80003010:	85ce                	mv	a1,s3
    80003012:	86e6                	mv	a3,s9
    80003014:	f7640513          	addi	a0,s0,-138
    80003018:	921ff0ef          	jal	80002938 <_Z13tiled_dotprodPsPKsS1_m>
    8000301c:	00095783          	lhu	a5,0(s2)
    80003020:	f7645703          	lhu	a4,-138(s0)
    80003024:	0d85                	addi	s11,s11,1
    80003026:	99da                	add	s3,s3,s6
    80003028:	9fb9                	addw	a5,a5,a4
    8000302a:	00f91023          	sh	a5,0(s2)
    8000302e:	9c5e                	add	s8,s8,s7
    80003030:	fdbc9fe3          	bne	s9,s11,8000300e <_Z9nn_conv2dPsPKsS1_mmmmmmmm+0x224>
    80003034:	9a56                	add	s4,s4,s5
    80003036:	0909                	addi	s2,s2,2
    80003038:	009d0463          	beq	s10,s1,80003040 <_Z9nn_conv2dPsPKsS1_mmmmmmmm+0x256>
    8000303c:	0485                	addi	s1,s1,1
    8000303e:	bf7d                	j	80002ffc <_Z9nn_conv2dPsPKsS1_mmmmmmmm+0x212>
    80003040:	f5043683          	ld	a3,-176(s0)
    80003044:	f4043603          	ld	a2,-192(s0)
    80003048:	f5843783          	ld	a5,-168(s0)
    8000304c:	f4843703          	ld	a4,-184(s0)
    80003050:	84e6                	mv	s1,s9
    80003052:	04d60b63          	beq	a2,a3,800030a8 <_Z9nn_conv2dPsPKsS1_mmmmmmmm+0x2be>
    80003056:	f3043603          	ld	a2,-208(s0)
    8000305a:	0685                	addi	a3,a3,1
    8000305c:	97b2                	add	a5,a5,a2
    8000305e:	f2843603          	ld	a2,-216(s0)
    80003062:	9732                	add	a4,a4,a2
    80003064:	fcad                	bnez	s1,80002fde <_Z9nn_conv2dPsPKsS1_mmmmmmmm+0x1f4>
    80003066:	f4043803          	ld	a6,-192(s0)
    8000306a:	8c26                	mv	s8,s1
    8000306c:	84b6                	mv	s1,a3
    8000306e:	ee043703          	ld	a4,-288(s0)
    80003072:	ed843783          	ld	a5,-296(s0)
    80003076:	ed043e03          	ld	t3,-304(s0)
    8000307a:	f3043503          	ld	a0,-208(s0)
    8000307e:	ec843883          	ld	a7,-312(s0)
    80003082:	ec043983          	ld	s3,-320(s0)
    80003086:	eb843d83          	ld	s11,-328(s0)
    8000308a:	eb043603          	ld	a2,-336(s0)
    8000308e:	00980563          	beq	a6,s1,80003098 <_Z9nn_conv2dPsPKsS1_mmmmmmmm+0x2ae>
    80003092:	0485                	addi	s1,s1,1
    80003094:	fe981fe3          	bne	a6,s1,80003092 <_Z9nn_conv2dPsPKsS1_mmmmmmmm+0x2a8>
    80003098:	f2043683          	ld	a3,-224(s0)
    8000309c:	0985                	addi	s3,s3,1
    8000309e:	9dc6                	add	s11,s11,a7
    800030a0:	963e                	add	a2,a2,a5
    800030a2:	e7369be3          	bne	a3,s3,80002f18 <_Z9nn_conv2dPsPKsS1_mmmmmmmm+0x12e>
    800030a6:	bd49                	j	80002f38 <_Z9nn_conv2dPsPKsS1_mmmmmmmm+0x14e>
    800030a8:	ec043983          	ld	s3,-320(s0)
    800030ac:	ed843783          	ld	a5,-296(s0)
    800030b0:	ec843883          	ld	a7,-312(s0)
    800030b4:	eb843d83          	ld	s11,-328(s0)
    800030b8:	eb043603          	ld	a2,-336(s0)
    800030bc:	f2043683          	ld	a3,-224(s0)
    800030c0:	0985                	addi	s3,s3,1
    800030c2:	f4043803          	ld	a6,-192(s0)
    800030c6:	ee043703          	ld	a4,-288(s0)
    800030ca:	ed043e03          	ld	t3,-304(s0)
    800030ce:	f3043503          	ld	a0,-208(s0)
    800030d2:	8c66                	mv	s8,s9
    800030d4:	9dc6                	add	s11,s11,a7
    800030d6:	963e                	add	a2,a2,a5
    800030d8:	e53690e3          	bne	a3,s3,80002f18 <_Z9nn_conv2dPsPKsS1_mmmmmmmm+0x12e>
    800030dc:	bdb1                	j	80002f38 <_Z9nn_conv2dPsPKsS1_mmmmmmmm+0x14e>
    800030de:	00014697          	auipc	a3,0x14
    800030e2:	3aa68693          	addi	a3,a3,938 # 80017488 <__tbss_end+0x1858>
    800030e6:	00014617          	auipc	a2,0x14
    800030ea:	3b260613          	addi	a2,a2,946 # 80017498 <__tbss_end+0x1868>
    800030ee:	45a9                	li	a1,10
    800030f0:	00014517          	auipc	a0,0x14
    800030f4:	42050513          	addi	a0,a0,1056 # 80017510 <__tbss_end+0x18e0>
    800030f8:	42b0f0ef          	jal	80012d22 <__assert_func>
    800030fc:	00014517          	auipc	a0,0x14
    80003100:	42c50513          	addi	a0,a0,1068 # 80017528 <__tbss_end+0x18f8>
    80003104:	1b1100ef          	jal	80013ab4 <puts>
    80003108:	00014517          	auipc	a0,0x14
    8000310c:	47050513          	addi	a0,a0,1136 # 80017578 <__tbss_end+0x1948>
    80003110:	1a5100ef          	jal	80013ab4 <puts>
    80003114:	00014517          	auipc	a0,0x14
    80003118:	4a450513          	addi	a0,a0,1188 # 800175b8 <__tbss_end+0x1988>
    8000311c:	199100ef          	jal	80013ab4 <puts>
    80003120:	557d                	li	a0,-1
    80003122:	4470f0ef          	jal	80012d68 <exit>

0000000080003126 <_Z9nn_linearPsPKsS1_mmm>:
    80003126:	883a                	mv	a6,a4
    80003128:	c509                	beqz	a0,80003132 <_Z9nn_linearPsPKsS1_mmm+0xc>
    8000312a:	8736                	mv	a4,a3
    8000312c:	86c2                	mv	a3,a6
    8000312e:	91dff06f          	j	80002a4a <_Z22tiled_matmul_transposePsPKsS1_mmm>
    80003132:	1101                	addi	sp,sp,-32
    80003134:	00014517          	auipc	a0,0x14
    80003138:	4c450513          	addi	a0,a0,1220 # 800175f8 <__tbss_end+0x19c8>
    8000313c:	ec06                	sd	ra,24(sp)
    8000313e:	e43e                	sd	a5,8(sp)
    80003140:	e03a                	sd	a4,0(sp)
    80003142:	173100ef          	jal	80013ab4 <puts>
    80003146:	6602                	ld	a2,0(sp)
    80003148:	65a2                	ld	a1,8(sp)
    8000314a:	00014517          	auipc	a0,0x14
    8000314e:	4fe50513          	addi	a0,a0,1278 # 80017648 <__tbss_end+0x1a18>
    80003152:	01d100ef          	jal	8001396e <iprintf>
    80003156:	557d                	li	a0,-1
    80003158:	4110f0ef          	jal	80012d68 <exit>

000000008000315c <_Z9nn_linearPsPKsS1_S1_mmm>:
    8000315c:	7179                	addi	sp,sp,-48
    8000315e:	ec26                	sd	s1,24(sp)
    80003160:	f406                	sd	ra,40(sp)
    80003162:	f022                	sd	s0,32(sp)
    80003164:	84b6                	mv	s1,a3
    80003166:	86be                	mv	a3,a5
    80003168:	c115                	beqz	a0,8000318c <_Z9nn_linearPsPKsS1_S1_mmm+0x30>
    8000316a:	87c2                	mv	a5,a6
    8000316c:	842a                	mv	s0,a0
    8000316e:	e036                	sd	a3,0(sp)
    80003170:	e442                	sd	a6,8(sp)
    80003172:	8d9ff0ef          	jal	80002a4a <_Z22tiled_matmul_transposePsPKsS1_mmm>
    80003176:	85a2                	mv	a1,s0
    80003178:	8522                	mv	a0,s0
    8000317a:	7402                	ld	s0,32(sp)
    8000317c:	6702                	ld	a4,0(sp)
    8000317e:	66a2                	ld	a3,8(sp)
    80003180:	70a2                	ld	ra,40(sp)
    80003182:	8626                	mv	a2,s1
    80003184:	64e2                	ld	s1,24(sp)
    80003186:	6145                	addi	sp,sp,48
    80003188:	e96fe06f          	j	8000181e <_Z23tiled_matrix_vector_addPsPKsS1_mm>
    8000318c:	00014517          	auipc	a0,0x14
    80003190:	46c50513          	addi	a0,a0,1132 # 800175f8 <__tbss_end+0x19c8>
    80003194:	e442                	sd	a6,8(sp)
    80003196:	e03e                	sd	a5,0(sp)
    80003198:	11d100ef          	jal	80013ab4 <puts>
    8000319c:	6602                	ld	a2,0(sp)
    8000319e:	65a2                	ld	a1,8(sp)
    800031a0:	00014517          	auipc	a0,0x14
    800031a4:	4a850513          	addi	a0,a0,1192 # 80017648 <__tbss_end+0x1a18>
    800031a8:	7c6100ef          	jal	8001396e <iprintf>
    800031ac:	557d                	li	a0,-1
    800031ae:	3bb0f0ef          	jal	80012d68 <exit>

00000000800031b2 <_Z14nn_batchnorm2dPsPKsmmmmR14BatchNormParam7stage_t>:
    800031b2:	7135                	addi	sp,sp,-160
    800031b4:	fcce                	sd	s3,120(sp)
    800031b6:	f8d2                	sd	s4,112(sp)
    800031b8:	f4d6                	sd	s5,104(sp)
    800031ba:	ed06                	sd	ra,152(sp)
    800031bc:	e82e                	sd	a1,16(sp)
    800031be:	e432                	sd	a2,8(sp)
    800031c0:	8ab6                	mv	s5,a3
    800031c2:	8a3a                	mv	s4,a4
    800031c4:	89be                	mv	s3,a5
    800031c6:	12050363          	beqz	a0,800032ec <_Z14nn_batchnorm2dPsPKsmmmmR14BatchNormParam7stage_t+0x13a>
    800031ca:	0e089563          	bnez	a7,800032b4 <_Z14nn_batchnorm2dPsPKsmmmmR14BatchNormParam7stage_t+0x102>
    800031ce:	67a2                	ld	a5,8(sp)
    800031d0:	c7ed                	beqz	a5,800032ba <_Z14nn_batchnorm2dPsPKsmmmmR14BatchNormParam7stage_t+0x108>
    800031d2:	c6e5                	beqz	a3,800032ba <_Z14nn_batchnorm2dPsPKsmmmmR14BatchNormParam7stage_t+0x108>
    800031d4:	033708b3          	mul	a7,a4,s3
    800031d8:	e526                	sd	s1,136(sp)
    800031da:	f0da                	sd	s6,96(sp)
    800031dc:	ecde                	sd	s7,88(sp)
    800031de:	e8e2                	sd	s8,80(sp)
    800031e0:	fc6e                	sd	s11,56(sp)
    800031e2:	e922                	sd	s0,144(sp)
    800031e4:	e14a                	sd	s2,128(sp)
    800031e6:	e4e6                	sd	s9,72(sp)
    800031e8:	e0ea                	sd	s10,64(sp)
    800031ea:	02d887b3          	mul	a5,a7,a3
    800031ee:	b422                	fsd	fs0,40(sp)
    800031f0:	8c2a                	mv	s8,a0
    800031f2:	84c2                	mv	s1,a6
    800031f4:	4b81                	li	s7,0
    800031f6:	4b01                	li	s6,0
    800031f8:	00189d93          	slli	s11,a7,0x1
    800031fc:	ec3e                	sd	a5,24(sp)
    800031fe:	67c2                	ld	a5,16(sp)
    80003200:	001b1813          	slli	a6,s6,0x1
    80003204:	010c0433          	add	s0,s8,a6
    80003208:	01078cb3          	add	s9,a5,a6
    8000320c:	4d01                	li	s10,0
    8000320e:	6c98                	ld	a4,24(s1)
    80003210:	001d1913          	slli	s2,s10,0x1
    80003214:	0204a787          	flw	fa5,32(s1)
    80003218:	974a                	add	a4,a4,s2
    8000321a:	00071603          	lh	a2,0(a4)
    8000321e:	6894                	ld	a3,16(s1)
    80003220:	85e6                	mv	a1,s9
    80003222:	d0067453          	fcvt.s.w	fs0,a2
    80003226:	96ca                	add	a3,a3,s2
    80003228:	00069603          	lh	a2,0(a3)
    8000322c:	00f47453          	fadd.s	fs0,fs0,fa5
    80003230:	8522                	mv	a0,s0
    80003232:	874e                	mv	a4,s3
    80003234:	86d2                	mv	a3,s4
    80003236:	a51fe0ef          	jal	80001c86 <_Z23tiled_matrix_sub_scalarPsPKssmm>
    8000323a:	58047453          	fsqrt.s	fs0,fs0
    8000323e:	85a2                	mv	a1,s0
    80003240:	8522                	mv	a0,s0
    80003242:	874e                	mv	a4,s3
    80003244:	86d2                	mv	a3,s4
    80003246:	0d05                	addi	s10,s10,1
    80003248:	9cee                	add	s9,s9,s11
    8000324a:	c0041653          	fcvt.w.s	a2,fs0,rtz
    8000324e:	0106161b          	slliw	a2,a2,0x10
    80003252:	4106561b          	sraiw	a2,a2,0x10
    80003256:	d11fe0ef          	jal	80001f66 <_Z23tiled_matrix_div_scalarPsPKssmm>
    8000325a:	6090                	ld	a2,0(s1)
    8000325c:	85a2                	mv	a1,s0
    8000325e:	8522                	mv	a0,s0
    80003260:	964a                	add	a2,a2,s2
    80003262:	00061603          	lh	a2,0(a2)
    80003266:	874e                	mv	a4,s3
    80003268:	86d2                	mv	a3,s4
    8000326a:	b8dfe0ef          	jal	80001df6 <_Z23tiled_matrix_mul_scalarPsPKssmm>
    8000326e:	6490                	ld	a2,8(s1)
    80003270:	85a2                	mv	a1,s0
    80003272:	8522                	mv	a0,s0
    80003274:	964a                	add	a2,a2,s2
    80003276:	00061603          	lh	a2,0(a2)
    8000327a:	874e                	mv	a4,s3
    8000327c:	86d2                	mv	a3,s4
    8000327e:	899fe0ef          	jal	80001b16 <_Z23tiled_matrix_add_scalarPsPKssmm>
    80003282:	946e                	add	s0,s0,s11
    80003284:	f9aa95e3          	bne	s5,s10,8000320e <_Z14nn_batchnorm2dPsPKsmmmmR14BatchNormParam7stage_t+0x5c>
    80003288:	67e2                	ld	a5,24(sp)
    8000328a:	0b85                	addi	s7,s7,1
    8000328c:	9b3e                	add	s6,s6,a5
    8000328e:	67a2                	ld	a5,8(sp)
    80003290:	f77797e3          	bne	a5,s7,800031fe <_Z14nn_batchnorm2dPsPKsmmmmR14BatchNormParam7stage_t+0x4c>
    80003294:	644a                	ld	s0,144(sp)
    80003296:	60ea                	ld	ra,152(sp)
    80003298:	64aa                	ld	s1,136(sp)
    8000329a:	690a                	ld	s2,128(sp)
    8000329c:	7b06                	ld	s6,96(sp)
    8000329e:	6be6                	ld	s7,88(sp)
    800032a0:	6c46                	ld	s8,80(sp)
    800032a2:	6ca6                	ld	s9,72(sp)
    800032a4:	6d06                	ld	s10,64(sp)
    800032a6:	7de2                	ld	s11,56(sp)
    800032a8:	3422                	fld	fs0,40(sp)
    800032aa:	79e6                	ld	s3,120(sp)
    800032ac:	7a46                	ld	s4,112(sp)
    800032ae:	7aa6                	ld	s5,104(sp)
    800032b0:	610d                	addi	sp,sp,160
    800032b2:	8082                	ret
    800032b4:	4785                	li	a5,1
    800032b6:	00f88863          	beq	a7,a5,800032c6 <_Z14nn_batchnorm2dPsPKsmmmmR14BatchNormParam7stage_t+0x114>
    800032ba:	60ea                	ld	ra,152(sp)
    800032bc:	79e6                	ld	s3,120(sp)
    800032be:	7a46                	ld	s4,112(sp)
    800032c0:	7aa6                	ld	s5,104(sp)
    800032c2:	610d                	addi	sp,sp,160
    800032c4:	8082                	ret
    800032c6:	00014517          	auipc	a0,0x14
    800032ca:	45250513          	addi	a0,a0,1106 # 80017718 <__tbss_end+0x1ae8>
    800032ce:	e922                	sd	s0,144(sp)
    800032d0:	e526                	sd	s1,136(sp)
    800032d2:	e14a                	sd	s2,128(sp)
    800032d4:	f0da                	sd	s6,96(sp)
    800032d6:	ecde                	sd	s7,88(sp)
    800032d8:	e8e2                	sd	s8,80(sp)
    800032da:	e4e6                	sd	s9,72(sp)
    800032dc:	e0ea                	sd	s10,64(sp)
    800032de:	fc6e                	sd	s11,56(sp)
    800032e0:	b422                	fsd	fs0,40(sp)
    800032e2:	68c100ef          	jal	8001396e <iprintf>
    800032e6:	557d                	li	a0,-1
    800032e8:	2810f0ef          	jal	80012d68 <exit>
    800032ec:	00014517          	auipc	a0,0x14
    800032f0:	39450513          	addi	a0,a0,916 # 80017680 <__tbss_end+0x1a50>
    800032f4:	e922                	sd	s0,144(sp)
    800032f6:	e526                	sd	s1,136(sp)
    800032f8:	e14a                	sd	s2,128(sp)
    800032fa:	f0da                	sd	s6,96(sp)
    800032fc:	ecde                	sd	s7,88(sp)
    800032fe:	e8e2                	sd	s8,80(sp)
    80003300:	e4e6                	sd	s9,72(sp)
    80003302:	e0ea                	sd	s10,64(sp)
    80003304:	fc6e                	sd	s11,56(sp)
    80003306:	b422                	fsd	fs0,40(sp)
    80003308:	7ac100ef          	jal	80013ab4 <puts>
    8000330c:	65a2                	ld	a1,8(sp)
    8000330e:	874e                	mv	a4,s3
    80003310:	86d2                	mv	a3,s4
    80003312:	8656                	mv	a2,s5
    80003314:	00014517          	auipc	a0,0x14
    80003318:	3bc50513          	addi	a0,a0,956 # 800176d0 <__tbss_end+0x1aa0>
    8000331c:	652100ef          	jal	8001396e <iprintf>
    80003320:	557d                	li	a0,-1
    80003322:	2470f0ef          	jal	80012d68 <exit>

0000000080003326 <_Z14nn_layernorm2dPsPKsmmmmR14LayerNormParam7stage_t>:
    80003326:	7135                	addi	sp,sp,-160
    80003328:	e526                	sd	s1,136(sp)
    8000332a:	e14a                	sd	s2,128(sp)
    8000332c:	ecde                	sd	s7,88(sp)
    8000332e:	ed06                	sd	ra,152(sp)
    80003330:	ec2a                	sd	a0,24(sp)
    80003332:	e82e                	sd	a1,16(sp)
    80003334:	e432                	sd	a2,8(sp)
    80003336:	8bb6                	mv	s7,a3
    80003338:	893a                	mv	s2,a4
    8000333a:	84be                	mv	s1,a5
    8000333c:	12050c63          	beqz	a0,80003474 <_Z14nn_layernorm2dPsPKsmmmmR14LayerNormParam7stage_t+0x14e>
    80003340:	0e089f63          	bnez	a7,8000343e <_Z14nn_layernorm2dPsPKsmmmmR14LayerNormParam7stage_t+0x118>
    80003344:	67a2                	ld	a5,8(sp)
    80003346:	0e078f63          	beqz	a5,80003444 <_Z14nn_layernorm2dPsPKsmmmmR14LayerNormParam7stage_t+0x11e>
    8000334a:	f4d6                	sd	s5,104(sp)
    8000334c:	02970ab3          	mul	s5,a4,s1
    80003350:	fcce                	sd	s3,120(sp)
    80003352:	e8e2                	sd	s8,80(sp)
    80003354:	e4e6                	sd	s9,72(sp)
    80003356:	e922                	sd	s0,144(sp)
    80003358:	f8d2                	sd	s4,112(sp)
    8000335a:	f0da                	sd	s6,96(sp)
    8000335c:	e0ea                	sd	s10,64(sp)
    8000335e:	fc6e                	sd	s11,56(sp)
    80003360:	89c2                	mv	s3,a6
    80003362:	02da87b3          	mul	a5,s5,a3
    80003366:	4c81                	li	s9,0
    80003368:	4c01                	li	s8,0
    8000336a:	0a86                	slli	s5,s5,0x1
    8000336c:	e03e                	sd	a5,0(sp)
    8000336e:	67c2                	ld	a5,16(sp)
    80003370:	001c9413          	slli	s0,s9,0x1
    80003374:	864a                	mv	a2,s2
    80003376:	00878d33          	add	s10,a5,s0
    8000337a:	85ea                	mv	a1,s10
    8000337c:	1068                	addi	a0,sp,44
    8000337e:	875e                	mv	a4,s7
    80003380:	86a6                	mv	a3,s1
    80003382:	b30fe0ef          	jal	800016b2 <_Z11matrix_meanPsPKsmmm>
    80003386:	6602                	ld	a2,0(sp)
    80003388:	85ea                	mv	a1,s10
    8000338a:	02e10513          	addi	a0,sp,46
    8000338e:	858fe0ef          	jal	800013e6 <_Z10vector_varPsPKsm>
    80003392:	080b8163          	beqz	s7,80003414 <_Z14nn_layernorm2dPsPKsmmmmR14LayerNormParam7stage_t+0xee>
    80003396:	02e11783          	lh	a5,46(sp)
    8000339a:	0109a707          	flw	fa4,16(s3)
    8000339e:	6762                	ld	a4,24(sp)
    800033a0:	d007f7d3          	fcvt.s.w	fa5,a5
    800033a4:	001c1a13          	slli	s4,s8,0x1
    800033a8:	943a                	add	s0,s0,a4
    800033aa:	00e7f7d3          	fadd.s	fa5,fa5,fa4
    800033ae:	4d81                	li	s11,0
    800033b0:	5807f7d3          	fsqrt.s	fa5,fa5
    800033b4:	c0079b53          	fcvt.w.s	s6,fa5,rtz
    800033b8:	010b1b1b          	slliw	s6,s6,0x10
    800033bc:	410b5b1b          	sraiw	s6,s6,0x10
    800033c0:	02c11603          	lh	a2,44(sp)
    800033c4:	85ea                	mv	a1,s10
    800033c6:	8522                	mv	a0,s0
    800033c8:	8726                	mv	a4,s1
    800033ca:	86ca                	mv	a3,s2
    800033cc:	8bbfe0ef          	jal	80001c86 <_Z23tiled_matrix_sub_scalarPsPKssmm>
    800033d0:	85a2                	mv	a1,s0
    800033d2:	8522                	mv	a0,s0
    800033d4:	8726                	mv	a4,s1
    800033d6:	86ca                	mv	a3,s2
    800033d8:	865a                	mv	a2,s6
    800033da:	b8dfe0ef          	jal	80001f66 <_Z23tiled_matrix_div_scalarPsPKssmm>
    800033de:	0009b783          	ld	a5,0(s3)
    800033e2:	85a2                	mv	a1,s0
    800033e4:	8522                	mv	a0,s0
    800033e6:	97d2                	add	a5,a5,s4
    800033e8:	00079603          	lh	a2,0(a5)
    800033ec:	8726                	mv	a4,s1
    800033ee:	86ca                	mv	a3,s2
    800033f0:	a07fe0ef          	jal	80001df6 <_Z23tiled_matrix_mul_scalarPsPKssmm>
    800033f4:	0089b783          	ld	a5,8(s3)
    800033f8:	85a2                	mv	a1,s0
    800033fa:	8522                	mv	a0,s0
    800033fc:	97d2                	add	a5,a5,s4
    800033fe:	00079603          	lh	a2,0(a5)
    80003402:	8726                	mv	a4,s1
    80003404:	86ca                	mv	a3,s2
    80003406:	0d85                	addi	s11,s11,1
    80003408:	f0efe0ef          	jal	80001b16 <_Z23tiled_matrix_add_scalarPsPKssmm>
    8000340c:	9456                	add	s0,s0,s5
    8000340e:	9d56                	add	s10,s10,s5
    80003410:	fbbb98e3          	bne	s7,s11,800033c0 <_Z14nn_layernorm2dPsPKsmmmmR14LayerNormParam7stage_t+0x9a>
    80003414:	6782                	ld	a5,0(sp)
    80003416:	0c05                	addi	s8,s8,1
    80003418:	9cbe                	add	s9,s9,a5
    8000341a:	67a2                	ld	a5,8(sp)
    8000341c:	f58799e3          	bne	a5,s8,8000336e <_Z14nn_layernorm2dPsPKsmmmmR14LayerNormParam7stage_t+0x48>
    80003420:	644a                	ld	s0,144(sp)
    80003422:	60ea                	ld	ra,152(sp)
    80003424:	79e6                	ld	s3,120(sp)
    80003426:	7a46                	ld	s4,112(sp)
    80003428:	7aa6                	ld	s5,104(sp)
    8000342a:	7b06                	ld	s6,96(sp)
    8000342c:	6c46                	ld	s8,80(sp)
    8000342e:	6ca6                	ld	s9,72(sp)
    80003430:	6d06                	ld	s10,64(sp)
    80003432:	7de2                	ld	s11,56(sp)
    80003434:	64aa                	ld	s1,136(sp)
    80003436:	690a                	ld	s2,128(sp)
    80003438:	6be6                	ld	s7,88(sp)
    8000343a:	610d                	addi	sp,sp,160
    8000343c:	8082                	ret
    8000343e:	4785                	li	a5,1
    80003440:	00f88863          	beq	a7,a5,80003450 <_Z14nn_layernorm2dPsPKsmmmmR14LayerNormParam7stage_t+0x12a>
    80003444:	60ea                	ld	ra,152(sp)
    80003446:	64aa                	ld	s1,136(sp)
    80003448:	690a                	ld	s2,128(sp)
    8000344a:	6be6                	ld	s7,88(sp)
    8000344c:	610d                	addi	sp,sp,160
    8000344e:	8082                	ret
    80003450:	00014517          	auipc	a0,0x14
    80003454:	34850513          	addi	a0,a0,840 # 80017798 <__tbss_end+0x1b68>
    80003458:	e922                	sd	s0,144(sp)
    8000345a:	fcce                	sd	s3,120(sp)
    8000345c:	f8d2                	sd	s4,112(sp)
    8000345e:	f4d6                	sd	s5,104(sp)
    80003460:	f0da                	sd	s6,96(sp)
    80003462:	e8e2                	sd	s8,80(sp)
    80003464:	e4e6                	sd	s9,72(sp)
    80003466:	e0ea                	sd	s10,64(sp)
    80003468:	fc6e                	sd	s11,56(sp)
    8000346a:	504100ef          	jal	8001396e <iprintf>
    8000346e:	557d                	li	a0,-1
    80003470:	0f90f0ef          	jal	80012d68 <exit>
    80003474:	00014517          	auipc	a0,0x14
    80003478:	2d450513          	addi	a0,a0,724 # 80017748 <__tbss_end+0x1b18>
    8000347c:	e922                	sd	s0,144(sp)
    8000347e:	fcce                	sd	s3,120(sp)
    80003480:	f8d2                	sd	s4,112(sp)
    80003482:	f4d6                	sd	s5,104(sp)
    80003484:	f0da                	sd	s6,96(sp)
    80003486:	e8e2                	sd	s8,80(sp)
    80003488:	e4e6                	sd	s9,72(sp)
    8000348a:	e0ea                	sd	s10,64(sp)
    8000348c:	fc6e                	sd	s11,56(sp)
    8000348e:	626100ef          	jal	80013ab4 <puts>
    80003492:	65a2                	ld	a1,8(sp)
    80003494:	8726                	mv	a4,s1
    80003496:	86ca                	mv	a3,s2
    80003498:	865e                	mv	a2,s7
    8000349a:	00014517          	auipc	a0,0x14
    8000349e:	23650513          	addi	a0,a0,566 # 800176d0 <__tbss_end+0x1aa0>
    800034a2:	4cc100ef          	jal	8001396e <iprintf>
    800034a6:	557d                	li	a0,-1
    800034a8:	0c10f0ef          	jal	80012d68 <exit>

00000000800034ac <_Z15nn_maxpooling2dPsPKsmmmmmmm>:
