
build-baremetal/mlp_mnist_photonic.elf:     file format elf64-littleriscv


Disassembly of section .text:

0000000080000000 <_start>:
    80000000:	4081                	li	ra,0
    80000002:	4101                	li	sp,0
    80000004:	4181                	li	gp,0
    80000006:	4201                	li	tp,0
    80000008:	4281                	li	t0,0
    8000000a:	4301                	li	t1,0
    8000000c:	4381                	li	t2,0
    8000000e:	4401                	li	s0,0
    80000010:	4481                	li	s1,0
    80000012:	4501                	li	a0,0
    80000014:	4581                	li	a1,0
    80000016:	4601                	li	a2,0
    80000018:	4681                	li	a3,0
    8000001a:	4701                	li	a4,0
    8000001c:	4781                	li	a5,0
    8000001e:	4801                	li	a6,0
    80000020:	4881                	li	a7,0
    80000022:	4901                	li	s2,0
    80000024:	4981                	li	s3,0
    80000026:	4a01                	li	s4,0
    80000028:	4a81                	li	s5,0
    8000002a:	4b01                	li	s6,0
    8000002c:	4b81                	li	s7,0
    8000002e:	4c01                	li	s8,0
    80000030:	4c81                	li	s9,0
    80000032:	4d01                	li	s10,0
    80000034:	4d81                	li	s11,0
    80000036:	4e01                	li	t3,0
    80000038:	4e81                	li	t4,0
    8000003a:	4f01                	li	t5,0
    8000003c:	4f81                	li	t6,0
    8000003e:	62f9                	lui	t0,0x1e
    80000040:	3002a073          	csrs	mstatus,t0
    80000044:	00000297          	auipc	t0,0x0
    80000048:	09028293          	addi	t0,t0,144 # 800000d4 <_start+0xd4>
    8000004c:	30529073          	csrw	mtvec,t0
    80000050:	00301073          	fscsr	zero
    80000054:	f0000053          	fmv.w.x	ft0,zero
    80000058:	f00000d3          	fmv.w.x	ft1,zero
    8000005c:	f0000153          	fmv.w.x	ft2,zero
    80000060:	f00001d3          	fmv.w.x	ft3,zero
    80000064:	f0000253          	fmv.w.x	ft4,zero
    80000068:	f00002d3          	fmv.w.x	ft5,zero
    8000006c:	f0000353          	fmv.w.x	ft6,zero
    80000070:	f00003d3          	fmv.w.x	ft7,zero
    80000074:	f0000453          	fmv.w.x	fs0,zero
    80000078:	f00004d3          	fmv.w.x	fs1,zero
    8000007c:	f0000553          	fmv.w.x	fa0,zero
    80000080:	f00005d3          	fmv.w.x	fa1,zero
    80000084:	f0000653          	fmv.w.x	fa2,zero
    80000088:	f00006d3          	fmv.w.x	fa3,zero
    8000008c:	f0000753          	fmv.w.x	fa4,zero
    80000090:	f00007d3          	fmv.w.x	fa5,zero
    80000094:	f0000853          	fmv.w.x	fa6,zero
    80000098:	f00008d3          	fmv.w.x	fa7,zero
    8000009c:	f0000953          	fmv.w.x	fs2,zero
    800000a0:	f00009d3          	fmv.w.x	fs3,zero
    800000a4:	f0000a53          	fmv.w.x	fs4,zero
    800000a8:	f0000ad3          	fmv.w.x	fs5,zero
    800000ac:	f0000b53          	fmv.w.x	fs6,zero
    800000b0:	f0000bd3          	fmv.w.x	fs7,zero
    800000b4:	f0000c53          	fmv.w.x	fs8,zero
    800000b8:	f0000cd3          	fmv.w.x	fs9,zero
    800000bc:	f0000d53          	fmv.w.x	fs10,zero
    800000c0:	f0000dd3          	fmv.w.x	fs11,zero
    800000c4:	f0000e53          	fmv.w.x	ft8,zero
    800000c8:	f0000ed3          	fmv.w.x	ft9,zero
    800000cc:	f0000f53          	fmv.w.x	ft10,zero
    800000d0:	f0000fd3          	fmv.w.x	ft11,zero
    800000d4:	0040f197          	auipc	gp,0x40f
    800000d8:	0a418193          	addi	gp,gp,164 # 8040f178 <__global_pointer$>
    800000dc:	f1402473          	csrr	s0,mhartid
    800000e0:	00f00293          	li	t0,15
    800000e4:	00432217          	auipc	tp,0x432
    800000e8:	f1c20213          	addi	tp,tp,-228 # 80432000 <__heap_end>
    800000ec:	005412b3          	sll	t0,s0,t0
    800000f0:	9216                	add	tp,tp,t0
    800000f2:	62a1                	lui	t0,0x8
    800000f4:	00028293          	mv	t0,t0
    800000f8:	00520133          	add	sp,tp,t0
    800000fc:	00000297          	auipc	t0,0x0
    80000100:	04828293          	addi	t0,t0,72 # 80000144 <trap_entry>
    80000104:	30529073          	csrw	mtvec,t0
    80000108:	061150ef          	jal	80015968 <__init_tls>
    8000010c:	00000293          	li	t0,0
    80000110:	00540463          	beq	s0,t0,80000118 <_start+0x118>
    80000114:	0fe0006f          	j	80000212 <_start_secondary>
    80000118:	9d818293          	addi	t0,gp,-1576 # 8040eb50 <_ZZN9__gnu_cxx27__verbose_terminate_handlerEvE11terminating>
    8000011c:	00412317          	auipc	t1,0x412
    80000120:	ebc30313          	addi	t1,t1,-324 # 80411fd8 <_end>
    80000124:	0062f763          	bgeu	t0,t1,80000132 <_start+0x132>
    80000128:	0002b023          	sd	zero,0(t0)
    8000012c:	02a1                	addi	t0,t0,8
    8000012e:	fe62ede3          	bltu	t0,t1,80000128 <_start+0x128>
    80000132:	00016517          	auipc	a0,0x16
    80000136:	91e50513          	addi	a0,a0,-1762 # 80015a50 <__libc_fini_array>
    8000013a:	0af150ef          	jal	800159e8 <atexit>
    8000013e:	0b5150ef          	jal	800159f2 <__libc_init_array>
    80000142:	a075                	j	800001ee <_start_main>

0000000080000144 <trap_entry>:
    80000144:	34011073          	csrw	mscratch,sp
    80000148:	7111                	addi	sp,sp,-256
    8000014a:	e406                	sd	ra,8(sp)
    8000014c:	340020f3          	csrr	ra,mscratch
    80000150:	e806                	sd	ra,16(sp)
    80000152:	ec0e                	sd	gp,24(sp)
    80000154:	f012                	sd	tp,32(sp)
    80000156:	f416                	sd	t0,40(sp)
    80000158:	f81a                	sd	t1,48(sp)
    8000015a:	fc1e                	sd	t2,56(sp)
    8000015c:	e0a2                	sd	s0,64(sp)
    8000015e:	e4a6                	sd	s1,72(sp)
    80000160:	e8aa                	sd	a0,80(sp)
    80000162:	ecae                	sd	a1,88(sp)
    80000164:	f0b2                	sd	a2,96(sp)
    80000166:	f4b6                	sd	a3,104(sp)
    80000168:	f8ba                	sd	a4,112(sp)
    8000016a:	fcbe                	sd	a5,120(sp)
    8000016c:	e142                	sd	a6,128(sp)
    8000016e:	e546                	sd	a7,136(sp)
    80000170:	e94a                	sd	s2,144(sp)
    80000172:	ed4e                	sd	s3,152(sp)
    80000174:	f152                	sd	s4,160(sp)
    80000176:	f556                	sd	s5,168(sp)
    80000178:	f95a                	sd	s6,176(sp)
    8000017a:	fd5e                	sd	s7,184(sp)
    8000017c:	e1e2                	sd	s8,192(sp)
    8000017e:	e5e6                	sd	s9,200(sp)
    80000180:	e9ea                	sd	s10,208(sp)
    80000182:	edee                	sd	s11,216(sp)
    80000184:	f1f2                	sd	t3,224(sp)
    80000186:	f5f6                	sd	t4,232(sp)
    80000188:	f9fa                	sd	t5,240(sp)
    8000018a:	fdfe                	sd	t6,248(sp)
    8000018c:	34102573          	csrr	a0,mepc
    80000190:	342025f3          	csrr	a1,mcause
    80000194:	34302673          	csrr	a2,mtval
    80000198:	868a                	mv	a3,sp
    8000019a:	7b8150ef          	jal	80015952 <handle_trap>
    8000019e:	34151073          	csrw	mepc,a0
    800001a2:	6289                	lui	t0,0x2
    800001a4:	8002829b          	addiw	t0,t0,-2048 # 1800 <__stack_align+0x17f0>
    800001a8:	3002a073          	csrs	mstatus,t0
    800001ac:	60a2                	ld	ra,8(sp)
    800001ae:	61e2                	ld	gp,24(sp)
    800001b0:	7202                	ld	tp,32(sp)
    800001b2:	72a2                	ld	t0,40(sp)
    800001b4:	7342                	ld	t1,48(sp)
    800001b6:	73e2                	ld	t2,56(sp)
    800001b8:	6406                	ld	s0,64(sp)
    800001ba:	64a6                	ld	s1,72(sp)
    800001bc:	6546                	ld	a0,80(sp)
    800001be:	65e6                	ld	a1,88(sp)
    800001c0:	7606                	ld	a2,96(sp)
    800001c2:	76a6                	ld	a3,104(sp)
    800001c4:	7746                	ld	a4,112(sp)
    800001c6:	77e6                	ld	a5,120(sp)
    800001c8:	680a                	ld	a6,128(sp)
    800001ca:	68aa                	ld	a7,136(sp)
    800001cc:	694a                	ld	s2,144(sp)
    800001ce:	69ea                	ld	s3,152(sp)
    800001d0:	7a0a                	ld	s4,160(sp)
    800001d2:	7aaa                	ld	s5,168(sp)
    800001d4:	7b4a                	ld	s6,176(sp)
    800001d6:	7bea                	ld	s7,184(sp)
    800001d8:	6c0e                	ld	s8,192(sp)
    800001da:	6cae                	ld	s9,200(sp)
    800001dc:	6d4e                	ld	s10,208(sp)
    800001de:	6dee                	ld	s11,216(sp)
    800001e0:	7e0e                	ld	t3,224(sp)
    800001e2:	7eae                	ld	t4,232(sp)
    800001e4:	7f4e                	ld	t5,240(sp)
    800001e6:	7fee                	ld	t6,248(sp)
    800001e8:	6142                	ld	sp,16(sp)
    800001ea:	30200073          	mret

00000000800001ee <_start_main>:
    800001ee:	52fd                	li	t0,-1
    800001f0:	0110000f          	fence	w,w
    800001f4:	00412317          	auipc	t1,0x412
    800001f8:	cc532223          	sw	t0,-828(t1) # 80411eb8 <__boot_sync>
    800001fc:	4505                	li	a0,1
    800001fe:	00407597          	auipc	a1,0x407
    80000202:	3ea58593          	addi	a1,a1,1002 # 804075e8 <argv>
    80000206:	8401b603          	ld	a2,-1984(gp) # 8040e9b8 <environ>
    8000020a:	5e4000ef          	jal	800007ee <main>
    8000020e:	2ef1206f          	j	80012cfc <exit>

0000000080000212 <_start_secondary>:
    80000212:	00412317          	auipc	t1,0x412
    80000216:	ca632283          	lw	t0,-858(t1) # 80411eb8 <__boot_sync>
    8000021a:	fe028ee3          	beqz	t0,80000216 <_start_secondary+0x4>
    8000021e:	0220000f          	fence	r,r
    80000222:	4505                	li	a0,1
    80000224:	00407597          	auipc	a1,0x407
    80000228:	3c458593          	addi	a1,a1,964 # 804075e8 <argv>
    8000022c:	8401b603          	ld	a2,-1984(gp) # 8040e9b8 <environ>
    80000230:	768150ef          	jal	80015998 <__main>
    80000234:	2c91206f          	j	80012cfc <exit>

0000000080000238 <__cxa_bad_cast>:
    80000238:	1141                	addi	sp,sp,-16
    8000023a:	4521                	li	a0,8
    8000023c:	e406                	sd	ra,8(sp)
    8000023e:	589040ef          	jal	80004fc6 <__cxa_allocate_exception>
    80000242:	00405797          	auipc	a5,0x405
    80000246:	96678793          	addi	a5,a5,-1690 # 80404ba8 <_ZTVSt8bad_cast+0x10>
    8000024a:	e11c                	sd	a5,0(a0)
    8000024c:	00005617          	auipc	a2,0x5
    80000250:	c4a60613          	addi	a2,a2,-950 # 80004e96 <_ZNSt8bad_castD1Ev>
    80000254:	00405597          	auipc	a1,0x405
    80000258:	92c58593          	addi	a1,a1,-1748 # 80404b80 <_ZTISt8bad_cast>
    8000025c:	373040ef          	jal	80004dce <__cxa_throw>

0000000080000260 <__cxa_bad_typeid>:
    80000260:	1141                	addi	sp,sp,-16
    80000262:	4521                	li	a0,8
    80000264:	e406                	sd	ra,8(sp)
    80000266:	561040ef          	jal	80004fc6 <__cxa_allocate_exception>
    8000026a:	00405797          	auipc	a5,0x405
    8000026e:	98e78793          	addi	a5,a5,-1650 # 80404bf8 <_ZTVSt10bad_typeid+0x10>
    80000272:	e11c                	sd	a5,0(a0)
    80000274:	00005617          	auipc	a2,0x5
    80000278:	c4c60613          	addi	a2,a2,-948 # 80004ec0 <_ZNSt10bad_typeidD1Ev>
    8000027c:	00405597          	auipc	a1,0x405
    80000280:	95458593          	addi	a1,a1,-1708 # 80404bd0 <_ZTISt10bad_typeid>
    80000284:	34b040ef          	jal	80004dce <__cxa_throw>

0000000080000288 <__cxa_throw_bad_array_new_length>:
    80000288:	1141                	addi	sp,sp,-16
    8000028a:	4521                	li	a0,8
    8000028c:	e406                	sd	ra,8(sp)
    8000028e:	539040ef          	jal	80004fc6 <__cxa_allocate_exception>
    80000292:	00405797          	auipc	a5,0x405
    80000296:	8c678793          	addi	a5,a5,-1850 # 80404b58 <_ZTVSt20bad_array_new_length+0x10>
    8000029a:	e11c                	sd	a5,0(a0)
    8000029c:	00005617          	auipc	a2,0x5
    800002a0:	bce60613          	addi	a2,a2,-1074 # 80004e6a <_ZNSt20bad_array_new_lengthD1Ev>
    800002a4:	00405597          	auipc	a1,0x405
    800002a8:	88c58593          	addi	a1,a1,-1908 # 80404b30 <_ZTISt20bad_array_new_length>
    800002ac:	323040ef          	jal	80004dce <__cxa_throw>

00000000800002b0 <_ZN9__gnu_cxx9__freeresEv>:
    800002b0:	00412517          	auipc	a0,0x412
    800002b4:	93053503          	ld	a0,-1744(a0) # 80411be0 <_ZN12_GLOBAL__N_1L14emergency_poolE+0x10>
    800002b8:	cd01                	beqz	a0,800002d0 <_ZN9__gnu_cxx9__freeresEv+0x20>
    800002ba:	1141                	addi	sp,sp,-16
    800002bc:	e406                	sd	ra,8(sp)
    800002be:	333120ef          	jal	80012df0 <free>
    800002c2:	60a2                	ld	ra,8(sp)
    800002c4:	00412797          	auipc	a5,0x412
    800002c8:	9007be23          	sd	zero,-1764(a5) # 80411be0 <_ZN12_GLOBAL__N_1L14emergency_poolE+0x10>
    800002cc:	0141                	addi	sp,sp,16
    800002ce:	8082                	ret
    800002d0:	8082                	ret

00000000800002d2 <_ZSt9terminatev>:
    800002d2:	1141                	addi	sp,sp,-16
    800002d4:	e406                	sd	ra,8(sp)
    800002d6:	648050ef          	jal	8000591e <_ZSt13get_terminatev>
    800002da:	61e050ef          	jal	800058f8 <_ZN10__cxxabiv111__terminateEPFvvE>

00000000800002de <_ZSt10unexpectedv>:
    800002de:	1141                	addi	sp,sp,-16
    800002e0:	e406                	sd	ra,8(sp)
    800002e2:	66a050ef          	jal	8000594c <_ZSt14get_unexpectedv>
    800002e6:	644050ef          	jal	8000592a <_ZN10__cxxabiv112__unexpectedEPFvvE>

00000000800002ea <_ZSt21__throw_bad_exceptionv>:
    800002ea:	1141                	addi	sp,sp,-16
    800002ec:	4521                	li	a0,8
    800002ee:	e406                	sd	ra,8(sp)
    800002f0:	4d7040ef          	jal	80004fc6 <__cxa_allocate_exception>
    800002f4:	00405797          	auipc	a5,0x405
    800002f8:	a0c78793          	addi	a5,a5,-1524 # 80404d00 <_ZTVSt13bad_exception+0x10>
    800002fc:	e11c                	sd	a5,0(a0)
    800002fe:	00005617          	auipc	a2,0x5
    80000302:	ee660613          	addi	a2,a2,-282 # 800051e4 <_ZNSt13bad_exceptionD1Ev>
    80000306:	00405597          	auipc	a1,0x405
    8000030a:	94258593          	addi	a1,a1,-1726 # 80404c48 <_ZTISt13bad_exception>
    8000030e:	2c1040ef          	jal	80004dce <__cxa_throw>

0000000080000312 <_ZSt17__throw_bad_allocv>:
    80000312:	1141                	addi	sp,sp,-16
    80000314:	4521                	li	a0,8
    80000316:	e406                	sd	ra,8(sp)
    80000318:	4af040ef          	jal	80004fc6 <__cxa_allocate_exception>
    8000031c:	00405797          	auipc	a5,0x405
    80000320:	bb478793          	addi	a5,a5,-1100 # 80404ed0 <_ZTVSt9bad_alloc+0x10>
    80000324:	e11c                	sd	a5,0(a0)
    80000326:	00006617          	auipc	a2,0x6
    8000032a:	a5a60613          	addi	a2,a2,-1446 # 80005d80 <_ZNSt9bad_allocD1Ev>
    8000032e:	00405597          	auipc	a1,0x405
    80000332:	b7a58593          	addi	a1,a1,-1158 # 80404ea8 <_ZTISt9bad_alloc>
    80000336:	299040ef          	jal	80004dce <__cxa_throw>

000000008000033a <_ZSt28__throw_bad_array_new_lengthv>:
    8000033a:	1141                	addi	sp,sp,-16
    8000033c:	4521                	li	a0,8
    8000033e:	e406                	sd	ra,8(sp)
    80000340:	487040ef          	jal	80004fc6 <__cxa_allocate_exception>
    80000344:	00405797          	auipc	a5,0x405
    80000348:	81478793          	addi	a5,a5,-2028 # 80404b58 <_ZTVSt20bad_array_new_length+0x10>
    8000034c:	e11c                	sd	a5,0(a0)
    8000034e:	00005617          	auipc	a2,0x5
    80000352:	b1c60613          	addi	a2,a2,-1252 # 80004e6a <_ZNSt20bad_array_new_lengthD1Ev>
    80000356:	00404597          	auipc	a1,0x404
    8000035a:	7da58593          	addi	a1,a1,2010 # 80404b30 <_ZTISt20bad_array_new_length>
    8000035e:	271040ef          	jal	80004dce <__cxa_throw>

0000000080000362 <_ZSt16__throw_bad_castv>:
    80000362:	1141                	addi	sp,sp,-16
    80000364:	4521                	li	a0,8
    80000366:	e406                	sd	ra,8(sp)
    80000368:	45f040ef          	jal	80004fc6 <__cxa_allocate_exception>
    8000036c:	00405797          	auipc	a5,0x405
    80000370:	83c78793          	addi	a5,a5,-1988 # 80404ba8 <_ZTVSt8bad_cast+0x10>
    80000374:	e11c                	sd	a5,0(a0)
    80000376:	00005617          	auipc	a2,0x5
    8000037a:	b2060613          	addi	a2,a2,-1248 # 80004e96 <_ZNSt8bad_castD1Ev>
    8000037e:	00405597          	auipc	a1,0x405
    80000382:	80258593          	addi	a1,a1,-2046 # 80404b80 <_ZTISt8bad_cast>
    80000386:	249040ef          	jal	80004dce <__cxa_throw>

000000008000038a <_ZSt18__throw_bad_typeidv>:
    8000038a:	1141                	addi	sp,sp,-16
    8000038c:	4521                	li	a0,8
    8000038e:	e406                	sd	ra,8(sp)
    80000390:	437040ef          	jal	80004fc6 <__cxa_allocate_exception>
    80000394:	00405797          	auipc	a5,0x405
    80000398:	86478793          	addi	a5,a5,-1948 # 80404bf8 <_ZTVSt10bad_typeid+0x10>
    8000039c:	e11c                	sd	a5,0(a0)
    8000039e:	00005617          	auipc	a2,0x5
    800003a2:	b2260613          	addi	a2,a2,-1246 # 80004ec0 <_ZNSt10bad_typeidD1Ev>
    800003a6:	00405597          	auipc	a1,0x405
    800003aa:	82a58593          	addi	a1,a1,-2006 # 80404bd0 <_ZTISt10bad_typeid>
    800003ae:	221040ef          	jal	80004dce <__cxa_throw>

00000000800003b2 <_ZSt19__throw_logic_errorPKc>:
    800003b2:	7179                	addi	sp,sp,-48
    800003b4:	e42a                	sd	a0,8(sp)
    800003b6:	4541                	li	a0,16
    800003b8:	f022                	sd	s0,32(sp)
    800003ba:	f406                	sd	ra,40(sp)
    800003bc:	ec26                	sd	s1,24(sp)
    800003be:	409040ef          	jal	80004fc6 <__cxa_allocate_exception>
    800003c2:	65a2                	ld	a1,8(sp)
    800003c4:	842a                	mv	s0,a0
    800003c6:	4c60a0ef          	jal	8000a88c <_ZNSt11logic_errorC1EPKc>
    800003ca:	0000a617          	auipc	a2,0xa
    800003ce:	19660613          	addi	a2,a2,406 # 8000a560 <_ZNSt11logic_errorD1Ev>
    800003d2:	00406597          	auipc	a1,0x406
    800003d6:	d1e58593          	addi	a1,a1,-738 # 804060f0 <_ZTISt11logic_error>
    800003da:	8522                	mv	a0,s0
    800003dc:	1f3040ef          	jal	80004dce <__cxa_throw>
    800003e0:	84aa                	mv	s1,a0
    800003e2:	8522                	mv	a0,s0
    800003e4:	41d040ef          	jal	80005000 <__cxa_free_exception>
    800003e8:	8526                	mv	a0,s1
    800003ea:	4fa110ef          	jal	800118e4 <_Unwind_Resume>

00000000800003ee <_ZSt20__throw_domain_errorPKc>:
    800003ee:	7179                	addi	sp,sp,-48
    800003f0:	e42a                	sd	a0,8(sp)
    800003f2:	4541                	li	a0,16
    800003f4:	f022                	sd	s0,32(sp)
    800003f6:	f406                	sd	ra,40(sp)
    800003f8:	ec26                	sd	s1,24(sp)
    800003fa:	3cd040ef          	jal	80004fc6 <__cxa_allocate_exception>
    800003fe:	65a2                	ld	a1,8(sp)
    80000400:	842a                	mv	s0,a0
    80000402:	4c00a0ef          	jal	8000a8c2 <_ZNSt12domain_errorC1EPKc>
    80000406:	0000a617          	auipc	a2,0xa
    8000040a:	19660613          	addi	a2,a2,406 # 8000a59c <_ZNSt12domain_errorD1Ev>
    8000040e:	00406597          	auipc	a1,0x406
    80000412:	d1258593          	addi	a1,a1,-750 # 80406120 <_ZTISt12domain_error>
    80000416:	8522                	mv	a0,s0
    80000418:	1b7040ef          	jal	80004dce <__cxa_throw>
    8000041c:	84aa                	mv	s1,a0
    8000041e:	8522                	mv	a0,s0
    80000420:	3e1040ef          	jal	80005000 <__cxa_free_exception>
    80000424:	8526                	mv	a0,s1
    80000426:	4be110ef          	jal	800118e4 <_Unwind_Resume>

000000008000042a <_ZSt24__throw_invalid_argumentPKc>:
    8000042a:	7179                	addi	sp,sp,-48
    8000042c:	e42a                	sd	a0,8(sp)
    8000042e:	4541                	li	a0,16
    80000430:	f022                	sd	s0,32(sp)
    80000432:	f406                	sd	ra,40(sp)
    80000434:	ec26                	sd	s1,24(sp)
    80000436:	391040ef          	jal	80004fc6 <__cxa_allocate_exception>
    8000043a:	65a2                	ld	a1,8(sp)
    8000043c:	842a                	mv	s0,a0
    8000043e:	4a00a0ef          	jal	8000a8de <_ZNSt16invalid_argumentC1EPKc>
    80000442:	0000a617          	auipc	a2,0xa
    80000446:	17c60613          	addi	a2,a2,380 # 8000a5be <_ZNSt16invalid_argumentD1Ev>
    8000044a:	00406597          	auipc	a1,0x406
    8000044e:	d0658593          	addi	a1,a1,-762 # 80406150 <_ZTISt16invalid_argument>
    80000452:	8522                	mv	a0,s0
    80000454:	17b040ef          	jal	80004dce <__cxa_throw>
    80000458:	84aa                	mv	s1,a0
    8000045a:	8522                	mv	a0,s0
    8000045c:	3a5040ef          	jal	80005000 <__cxa_free_exception>
    80000460:	8526                	mv	a0,s1
    80000462:	482110ef          	jal	800118e4 <_Unwind_Resume>

0000000080000466 <_ZSt20__throw_length_errorPKc>:
    80000466:	7179                	addi	sp,sp,-48
    80000468:	e42a                	sd	a0,8(sp)
    8000046a:	4541                	li	a0,16
    8000046c:	f022                	sd	s0,32(sp)
    8000046e:	f406                	sd	ra,40(sp)
    80000470:	ec26                	sd	s1,24(sp)
    80000472:	355040ef          	jal	80004fc6 <__cxa_allocate_exception>
    80000476:	65a2                	ld	a1,8(sp)
    80000478:	842a                	mv	s0,a0
    8000047a:	4800a0ef          	jal	8000a8fa <_ZNSt12length_errorC1EPKc>
    8000047e:	0000a617          	auipc	a2,0xa
    80000482:	16260613          	addi	a2,a2,354 # 8000a5e0 <_ZNSt12length_errorD1Ev>
    80000486:	00406597          	auipc	a1,0x406
    8000048a:	cfa58593          	addi	a1,a1,-774 # 80406180 <_ZTISt12length_error>
    8000048e:	8522                	mv	a0,s0
    80000490:	13f040ef          	jal	80004dce <__cxa_throw>
    80000494:	84aa                	mv	s1,a0
    80000496:	8522                	mv	a0,s0
    80000498:	369040ef          	jal	80005000 <__cxa_free_exception>
    8000049c:	8526                	mv	a0,s1
    8000049e:	446110ef          	jal	800118e4 <_Unwind_Resume>

00000000800004a2 <_ZSt20__throw_out_of_rangePKc>:
    800004a2:	7179                	addi	sp,sp,-48
    800004a4:	e42a                	sd	a0,8(sp)
    800004a6:	4541                	li	a0,16
    800004a8:	f022                	sd	s0,32(sp)
    800004aa:	f406                	sd	ra,40(sp)
    800004ac:	ec26                	sd	s1,24(sp)
    800004ae:	319040ef          	jal	80004fc6 <__cxa_allocate_exception>
    800004b2:	65a2                	ld	a1,8(sp)
    800004b4:	842a                	mv	s0,a0
    800004b6:	4600a0ef          	jal	8000a916 <_ZNSt12out_of_rangeC1EPKc>
    800004ba:	0000a617          	auipc	a2,0xa
    800004be:	14860613          	addi	a2,a2,328 # 8000a602 <_ZNSt12out_of_rangeD1Ev>
    800004c2:	00406597          	auipc	a1,0x406
    800004c6:	cee58593          	addi	a1,a1,-786 # 804061b0 <_ZTISt12out_of_range>
    800004ca:	8522                	mv	a0,s0
    800004cc:	103040ef          	jal	80004dce <__cxa_throw>
    800004d0:	84aa                	mv	s1,a0
    800004d2:	8522                	mv	a0,s0
    800004d4:	32d040ef          	jal	80005000 <__cxa_free_exception>
    800004d8:	8526                	mv	a0,s1
    800004da:	40a110ef          	jal	800118e4 <_Unwind_Resume>

00000000800004de <_ZSt24__throw_out_of_range_fmtPKcz>:
    800004de:	7159                	addi	sp,sp,-112
    800004e0:	f406                	sd	ra,40(sp)
    800004e2:	f022                	sd	s0,32(sp)
    800004e4:	ec26                	sd	s1,24(sp)
    800004e6:	1800                	addi	s0,sp,48
    800004e8:	e84a                	sd	s2,16(sp)
    800004ea:	84aa                	mv	s1,a0
    800004ec:	f018                	sd	a4,32(s0)
    800004ee:	03043823          	sd	a6,48(s0)
    800004f2:	03143c23          	sd	a7,56(s0)
    800004f6:	e40c                	sd	a1,8(s0)
    800004f8:	e810                	sd	a2,16(s0)
    800004fa:	ec14                	sd	a3,24(s0)
    800004fc:	f41c                	sd	a5,40(s0)
    800004fe:	6f9130ef          	jal	800143f6 <strlen>
    80000502:	20f50793          	addi	a5,a0,527
    80000506:	9bc1                	andi	a5,a5,-16
    80000508:	40f10133          	sub	sp,sp,a5
    8000050c:	20050593          	addi	a1,a0,512
    80000510:	00840693          	addi	a3,s0,8
    80000514:	8626                	mv	a2,s1
    80000516:	850a                	mv	a0,sp
    80000518:	fcd43c23          	sd	a3,-40(s0)
    8000051c:	79e050ef          	jal	80005cba <_ZN9__gnu_cxx15__snprintf_liteEPcmPKcPv>
    80000520:	4541                	li	a0,16
    80000522:	2a5040ef          	jal	80004fc6 <__cxa_allocate_exception>
    80000526:	858a                	mv	a1,sp
    80000528:	84aa                	mv	s1,a0
    8000052a:	3ec0a0ef          	jal	8000a916 <_ZNSt12out_of_rangeC1EPKc>
    8000052e:	0000a617          	auipc	a2,0xa
    80000532:	0d460613          	addi	a2,a2,212 # 8000a602 <_ZNSt12out_of_rangeD1Ev>
    80000536:	00406597          	auipc	a1,0x406
    8000053a:	c7a58593          	addi	a1,a1,-902 # 804061b0 <_ZTISt12out_of_range>
    8000053e:	8526                	mv	a0,s1
    80000540:	08f040ef          	jal	80004dce <__cxa_throw>
    80000544:	892a                	mv	s2,a0
    80000546:	8526                	mv	a0,s1
    80000548:	2b9040ef          	jal	80005000 <__cxa_free_exception>
    8000054c:	854a                	mv	a0,s2
    8000054e:	396110ef          	jal	800118e4 <_Unwind_Resume>

0000000080000552 <_ZSt21__throw_runtime_errorPKc>:
    80000552:	7179                	addi	sp,sp,-48
    80000554:	e42a                	sd	a0,8(sp)
    80000556:	4541                	li	a0,16
    80000558:	f022                	sd	s0,32(sp)
    8000055a:	f406                	sd	ra,40(sp)
    8000055c:	ec26                	sd	s1,24(sp)
    8000055e:	269040ef          	jal	80004fc6 <__cxa_allocate_exception>
    80000562:	65a2                	ld	a1,8(sp)
    80000564:	842a                	mv	s0,a0
    80000566:	3cc0a0ef          	jal	8000a932 <_ZNSt13runtime_errorC1EPKc>
    8000056a:	0000a617          	auipc	a2,0xa
    8000056e:	f5460613          	addi	a2,a2,-172 # 8000a4be <_ZNSt13runtime_errorD1Ev>
    80000572:	00406597          	auipc	a1,0x406
    80000576:	c6e58593          	addi	a1,a1,-914 # 804061e0 <_ZTISt13runtime_error>
    8000057a:	8522                	mv	a0,s0
    8000057c:	053040ef          	jal	80004dce <__cxa_throw>
    80000580:	84aa                	mv	s1,a0
    80000582:	8522                	mv	a0,s0
    80000584:	27d040ef          	jal	80005000 <__cxa_free_exception>
    80000588:	8526                	mv	a0,s1
    8000058a:	35a110ef          	jal	800118e4 <_Unwind_Resume>

000000008000058e <_ZSt19__throw_range_errorPKc>:
    8000058e:	7179                	addi	sp,sp,-48
    80000590:	e42a                	sd	a0,8(sp)
    80000592:	4541                	li	a0,16
    80000594:	f022                	sd	s0,32(sp)
    80000596:	f406                	sd	ra,40(sp)
    80000598:	ec26                	sd	s1,24(sp)
    8000059a:	22d040ef          	jal	80004fc6 <__cxa_allocate_exception>
    8000059e:	65a2                	ld	a1,8(sp)
    800005a0:	842a                	mv	s0,a0
    800005a2:	3c60a0ef          	jal	8000a968 <_ZNSt11range_errorC1EPKc>
    800005a6:	0000a617          	auipc	a2,0xa
    800005aa:	f5460613          	addi	a2,a2,-172 # 8000a4fa <_ZNSt11range_errorD1Ev>
    800005ae:	00406597          	auipc	a1,0x406
    800005b2:	c5a58593          	addi	a1,a1,-934 # 80406208 <_ZTISt11range_error>
    800005b6:	8522                	mv	a0,s0
    800005b8:	017040ef          	jal	80004dce <__cxa_throw>
    800005bc:	84aa                	mv	s1,a0
    800005be:	8522                	mv	a0,s0
    800005c0:	241040ef          	jal	80005000 <__cxa_free_exception>
    800005c4:	8526                	mv	a0,s1
    800005c6:	31e110ef          	jal	800118e4 <_Unwind_Resume>

00000000800005ca <_ZSt22__throw_overflow_errorPKc>:
    800005ca:	7179                	addi	sp,sp,-48
    800005cc:	e42a                	sd	a0,8(sp)
    800005ce:	4541                	li	a0,16
    800005d0:	f022                	sd	s0,32(sp)
    800005d2:	f406                	sd	ra,40(sp)
    800005d4:	ec26                	sd	s1,24(sp)
    800005d6:	1f1040ef          	jal	80004fc6 <__cxa_allocate_exception>
    800005da:	65a2                	ld	a1,8(sp)
    800005dc:	842a                	mv	s0,a0
    800005de:	3a60a0ef          	jal	8000a984 <_ZNSt14overflow_errorC1EPKc>
    800005e2:	0000a617          	auipc	a2,0xa
    800005e6:	f3a60613          	addi	a2,a2,-198 # 8000a51c <_ZNSt14overflow_errorD1Ev>
    800005ea:	00406597          	auipc	a1,0x406
    800005ee:	c4e58593          	addi	a1,a1,-946 # 80406238 <_ZTISt14overflow_error>
    800005f2:	8522                	mv	a0,s0
    800005f4:	7da040ef          	jal	80004dce <__cxa_throw>
    800005f8:	84aa                	mv	s1,a0
    800005fa:	8522                	mv	a0,s0
    800005fc:	205040ef          	jal	80005000 <__cxa_free_exception>
    80000600:	8526                	mv	a0,s1
    80000602:	2e2110ef          	jal	800118e4 <_Unwind_Resume>

0000000080000606 <_ZSt23__throw_underflow_errorPKc>:
    80000606:	7179                	addi	sp,sp,-48
    80000608:	e42a                	sd	a0,8(sp)
    8000060a:	4541                	li	a0,16
    8000060c:	f022                	sd	s0,32(sp)
    8000060e:	f406                	sd	ra,40(sp)
    80000610:	ec26                	sd	s1,24(sp)
    80000612:	1b5040ef          	jal	80004fc6 <__cxa_allocate_exception>
    80000616:	65a2                	ld	a1,8(sp)
    80000618:	842a                	mv	s0,a0
    8000061a:	3860a0ef          	jal	8000a9a0 <_ZNSt15underflow_errorC1EPKc>
    8000061e:	0000a617          	auipc	a2,0xa
    80000622:	f2060613          	addi	a2,a2,-224 # 8000a53e <_ZNSt15underflow_errorD1Ev>
    80000626:	00406597          	auipc	a1,0x406
    8000062a:	c4258593          	addi	a1,a1,-958 # 80406268 <_ZTISt15underflow_error>
    8000062e:	8522                	mv	a0,s0
    80000630:	79e040ef          	jal	80004dce <__cxa_throw>
    80000634:	84aa                	mv	s1,a0
    80000636:	8522                	mv	a0,s0
    80000638:	1c9040ef          	jal	80005000 <__cxa_free_exception>
    8000063c:	8526                	mv	a0,s1
    8000063e:	2a6110ef          	jal	800118e4 <_Unwind_Resume>

0000000080000642 <_ZN9__gnu_cxx26__throw_insufficient_spaceEPKcS1_>:
    80000642:	7175                	addi	sp,sp,-144
    80000644:	e122                	sd	s0,128(sp)
    80000646:	0900                	addi	s0,sp,144
    80000648:	e506                	sd	ra,136(sp)
    8000064a:	fca6                	sd	s1,120(sp)
    8000064c:	f8ca                	sd	s2,112(sp)
    8000064e:	84ae                	mv	s1,a1
    80000650:	892a                	mv	s2,a0
    80000652:	06900613          	li	a2,105
    80000656:	00017597          	auipc	a1,0x17
    8000065a:	24258593          	addi	a1,a1,578 # 80017898 <__tbss_end+0x1cd4>
    8000065e:	f7040513          	addi	a0,s0,-144
    80000662:	412484b3          	sub	s1,s1,s2
    80000666:	57b130ef          	jal	800143e0 <memcpy>
    8000066a:	07848793          	addi	a5,s1,120
    8000066e:	9bc1                	andi	a5,a5,-16
    80000670:	40f10133          	sub	sp,sp,a5
    80000674:	06800613          	li	a2,104
    80000678:	f7040593          	addi	a1,s0,-144
    8000067c:	850a                	mv	a0,sp
    8000067e:	563130ef          	jal	800143e0 <memcpy>
    80000682:	8626                	mv	a2,s1
    80000684:	85ca                	mv	a1,s2
    80000686:	10a8                	addi	a0,sp,104
    80000688:	559130ef          	jal	800143e0 <memcpy>
    8000068c:	948a                	add	s1,s1,sp
    8000068e:	06048423          	sb	zero,104(s1)
    80000692:	850a                	mv	a0,sp
    80000694:	d1fff0ef          	jal	800003b2 <_ZSt19__throw_logic_errorPKc>

0000000080000698 <__cxa_call_terminate>:
    80000698:	1141                	addi	sp,sp,-16
    8000069a:	e406                	sd	ra,8(sp)
    8000069c:	e022                	sd	s0,0(sp)
    8000069e:	c905                	beqz	a0,800006ce <__cxa_call_terminate+0x36>
    800006a0:	842a                	mv	s0,a0
    800006a2:	245040ef          	jal	800050e6 <__cxa_begin_catch>
    800006a6:	b8b1b7b7          	lui	a5,0xb8b1b
    800006aa:	abd78793          	addi	a5,a5,-1347 # ffffffffb8b1aabd <__heap_end+0xffffffff386e8abd>
    800006ae:	07b2                	slli	a5,a5,0xc
    800006b0:	bcd78793          	addi	a5,a5,-1075
    800006b4:	6018                	ld	a4,0(s0)
    800006b6:	07b2                	slli	a5,a5,0xc
    800006b8:	4d578793          	addi	a5,a5,1237
    800006bc:	07a2                	slli	a5,a5,0x8
    800006be:	97ba                	add	a5,a5,a4
    800006c0:	4705                	li	a4,1
    800006c2:	00f76663          	bltu	a4,a5,800006ce <__cxa_call_terminate+0x36>
    800006c6:	fc843503          	ld	a0,-56(s0)
    800006ca:	22e050ef          	jal	800058f8 <_ZN10__cxxabiv111__terminateEPFvvE>
    800006ce:	c05ff0ef          	jal	800002d2 <_ZSt9terminatev>

00000000800006d2 <_ZNSt7__cxx1112basic_stringIcSt11char_traitsIcESaIcEE15_M_replace_coldEPcmPKcmm>:
    800006d2:	7139                	addi	sp,sp,-64
    800006d4:	f822                	sd	s0,48(sp)
    800006d6:	f426                	sd	s1,40(sp)
    800006d8:	f04a                	sd	s2,32(sp)
    800006da:	ec4e                	sd	s3,24(sp)
    800006dc:	843a                	mv	s0,a4
    800006de:	fc06                	sd	ra,56(sp)
    800006e0:	177d                	addi	a4,a4,-1
    800006e2:	84ae                	mv	s1,a1
    800006e4:	8932                	mv	s2,a2
    800006e6:	89b6                	mv	s3,a3
    800006e8:	00c77963          	bgeu	a4,a2,800006fa <_ZNSt7__cxx1112basic_stringIcSt11char_traitsIcESaIcEE15_M_replace_coldEPcmPKcmm+0x28>
    800006ec:	8622                	mv	a2,s0
    800006ee:	85b6                	mv	a1,a3
    800006f0:	8526                	mv	a0,s1
    800006f2:	e43e                	sd	a5,8(sp)
    800006f4:	48b0c0ef          	jal	8000d37e <_ZNSt7__cxx1112basic_stringIcSt11char_traitsIcESaIcEE7_S_moveEPcPKcm>
    800006f8:	67a2                	ld	a5,8(sp)
    800006fa:	cb91                	beqz	a5,8000070e <_ZNSt7__cxx1112basic_stringIcSt11char_traitsIcESaIcEE15_M_replace_coldEPcmPKcmm+0x3c>
    800006fc:	07240963          	beq	s0,s2,8000076e <_ZNSt7__cxx1112basic_stringIcSt11char_traitsIcESaIcEE15_M_replace_coldEPcmPKcmm+0x9c>
    80000700:	863e                	mv	a2,a5
    80000702:	012485b3          	add	a1,s1,s2
    80000706:	00848533          	add	a0,s1,s0
    8000070a:	4750c0ef          	jal	8000d37e <_ZNSt7__cxx1112basic_stringIcSt11char_traitsIcESaIcEE7_S_moveEPcPKcm>
    8000070e:	06897063          	bgeu	s2,s0,8000076e <_ZNSt7__cxx1112basic_stringIcSt11char_traitsIcESaIcEE15_M_replace_coldEPcmPKcmm+0x9c>
    80000712:	012487b3          	add	a5,s1,s2
    80000716:	00898733          	add	a4,s3,s0
    8000071a:	00e7ed63          	bltu	a5,a4,80000734 <_ZNSt7__cxx1112basic_stringIcSt11char_traitsIcESaIcEE15_M_replace_coldEPcmPKcmm+0x62>
    8000071e:	8622                	mv	a2,s0
    80000720:	7442                	ld	s0,48(sp)
    80000722:	70e2                	ld	ra,56(sp)
    80000724:	7902                	ld	s2,32(sp)
    80000726:	85ce                	mv	a1,s3
    80000728:	8526                	mv	a0,s1
    8000072a:	69e2                	ld	s3,24(sp)
    8000072c:	74a2                	ld	s1,40(sp)
    8000072e:	6121                	addi	sp,sp,64
    80000730:	44f0c06f          	j	8000d37e <_ZNSt7__cxx1112basic_stringIcSt11char_traitsIcESaIcEE7_S_moveEPcPKcm>
    80000734:	00f9ef63          	bltu	s3,a5,80000752 <_ZNSt7__cxx1112basic_stringIcSt11char_traitsIcESaIcEE15_M_replace_coldEPcmPKcmm+0x80>
    80000738:	412405b3          	sub	a1,s0,s2
    8000073c:	8622                	mv	a2,s0
    8000073e:	95ce                	add	a1,a1,s3
    80000740:	8526                	mv	a0,s1
    80000742:	7442                	ld	s0,48(sp)
    80000744:	70e2                	ld	ra,56(sp)
    80000746:	74a2                	ld	s1,40(sp)
    80000748:	7902                	ld	s2,32(sp)
    8000074a:	69e2                	ld	s3,24(sp)
    8000074c:	6121                	addi	sp,sp,64
    8000074e:	41d0c06f          	j	8000d36a <_ZNSt7__cxx1112basic_stringIcSt11char_traitsIcESaIcEE7_S_copyEPcPKcm>
    80000752:	41378933          	sub	s2,a5,s3
    80000756:	864a                	mv	a2,s2
    80000758:	85ce                	mv	a1,s3
    8000075a:	8526                	mv	a0,s1
    8000075c:	4230c0ef          	jal	8000d37e <_ZNSt7__cxx1112basic_stringIcSt11char_traitsIcESaIcEE7_S_moveEPcPKcm>
    80000760:	41240633          	sub	a2,s0,s2
    80000764:	008485b3          	add	a1,s1,s0
    80000768:	01248533          	add	a0,s1,s2
    8000076c:	bfd9                	j	80000742 <_ZNSt7__cxx1112basic_stringIcSt11char_traitsIcESaIcEE15_M_replace_coldEPcmPKcmm+0x70>
    8000076e:	70e2                	ld	ra,56(sp)
    80000770:	7442                	ld	s0,48(sp)
    80000772:	74a2                	ld	s1,40(sp)
    80000774:	7902                	ld	s2,32(sp)
    80000776:	69e2                	ld	s3,24(sp)
    80000778:	6121                	addi	sp,sp,64
    8000077a:	8082                	ret

000000008000077c <_ZSt20__throw_system_errori>:
    8000077c:	7139                	addi	sp,sp,-64
    8000077e:	f04a                	sd	s2,32(sp)
    80000780:	892a                	mv	s2,a0
    80000782:	02000513          	li	a0,32
    80000786:	f822                	sd	s0,48(sp)
    80000788:	f426                	sd	s1,40(sp)
    8000078a:	83018413          	addi	s0,gp,-2000 # 8040e9a8 <_ZN12_GLOBAL__N_1L25generic_category_instanceE>
    8000078e:	fc06                	sd	ra,56(sp)
    80000790:	037040ef          	jal	80004fc6 <__cxa_allocate_exception>
    80000794:	601c                	ld	a5,0(s0)
    80000796:	84aa                	mv	s1,a0
    80000798:	864a                	mv	a2,s2
    8000079a:	739c                	ld	a5,32(a5)
    8000079c:	85a2                	mv	a1,s0
    8000079e:	850a                	mv	a0,sp
    800007a0:	9782                	jalr	a5
    800007a2:	858a                	mv	a1,sp
    800007a4:	8526                	mv	a0,s1
    800007a6:	7700e0ef          	jal	8000ef16 <_ZNSt13runtime_errorC1ERKNSt7__cxx1112basic_stringIcSt11char_traitsIcESaIcEEE>
    800007aa:	850a                	mv	a0,sp
    800007ac:	3450c0ef          	jal	8000d2f0 <_ZNSt7__cxx1112basic_stringIcSt11char_traitsIcESaIcEE10_M_disposeEv>
    800007b0:	00406797          	auipc	a5,0x406
    800007b4:	e2878793          	addi	a5,a5,-472 # 804065d8 <_ZTVSt12system_error+0x10>
    800007b8:	e09c                	sd	a5,0(s1)
    800007ba:	0124a823          	sw	s2,16(s1)
    800007be:	ec80                	sd	s0,24(s1)
    800007c0:	0000e617          	auipc	a2,0xe
    800007c4:	55660613          	addi	a2,a2,1366 # 8000ed16 <_ZNSt12system_errorD1Ev>
    800007c8:	00406597          	auipc	a1,0x406
    800007cc:	c6858593          	addi	a1,a1,-920 # 80406430 <_ZTISt12system_error>
    800007d0:	8526                	mv	a0,s1
    800007d2:	5fc040ef          	jal	80004dce <__cxa_throw>
    800007d6:	842a                	mv	s0,a0
    800007d8:	850a                	mv	a0,sp
    800007da:	3170c0ef          	jal	8000d2f0 <_ZNSt7__cxx1112basic_stringIcSt11char_traitsIcESaIcEE10_M_disposeEv>
    800007de:	8526                	mv	a0,s1
    800007e0:	021040ef          	jal	80005000 <__cxa_free_exception>
    800007e4:	8522                	mv	a0,s0
    800007e6:	0fe110ef          	jal	800118e4 <_Unwind_Resume>
    800007ea:	842a                	mv	s0,a0
    800007ec:	bfcd                	j	800007de <_ZSt20__throw_system_errori+0x62>

00000000800007ee <main>:
    800007ee:	da010113          	addi	sp,sp,-608
    800007f2:	00015517          	auipc	a0,0x15
    800007f6:	3d650513          	addi	a0,a0,982 # 80015bc8 <__tbss_end+0x4>
    800007fa:	24113c23          	sd	ra,600(sp)
    800007fe:	24813823          	sd	s0,592(sp)
    80000802:	24913423          	sd	s1,584(sp)
    80000806:	25213023          	sd	s2,576(sp)
    8000080a:	23313c23          	sd	s3,568(sp)
    8000080e:	23413823          	sd	s4,560(sp)
    80000812:	23513423          	sd	s5,552(sp)
    80000816:	23613023          	sd	s6,544(sp)
    8000081a:	21713c23          	sd	s7,536(sp)
    8000081e:	21813823          	sd	s8,528(sp)
    80000822:	21913423          	sd	s9,520(sp)
    80000826:	21a13023          	sd	s10,512(sp)
    8000082a:	bfa2                	fsd	fs0,504(sp)
    8000082c:	bba6                	fsd	fs1,496(sp)
    8000082e:	b7ca                	fsd	fs2,488(sp)
    80000830:	218130ef          	jal	80013a48 <puts>
    80000834:	00015517          	auipc	a0,0x15
    80000838:	3dc50513          	addi	a0,a0,988 # 80015c10 <__tbss_end+0x4c>
    8000083c:	20c130ef          	jal	80013a48 <puts>
    80000840:	00015517          	auipc	a0,0x15
    80000844:	38850513          	addi	a0,a0,904 # 80015bc8 <__tbss_end+0x4>
    80000848:	200130ef          	jal	80013a48 <puts>
    8000084c:	47a9                	li	a5,10
    8000084e:	04000713          	li	a4,64
    80000852:	08000693          	li	a3,128
    80000856:	10000613          	li	a2,256
    8000085a:	31000593          	li	a1,784
    8000085e:	00015517          	auipc	a0,0x15
    80000862:	3f250513          	addi	a0,a0,1010 # 80015c50 <__tbss_end+0x8c>
    80000866:	09c130ef          	jal	80013902 <iprintf>
    8000086a:	3e800593          	li	a1,1000
    8000086e:	00015517          	auipc	a0,0x15
    80000872:	41250513          	addi	a0,a0,1042 # 80015c80 <__tbss_end+0xbc>
    80000876:	08c130ef          	jal	80013902 <iprintf>
    8000087a:	0003b5b7          	lui	a1,0x3b
    8000087e:	44a58593          	addi	a1,a1,1098 # 3b44a <__heap_size+0x1b44a>
    80000882:	00015517          	auipc	a0,0x15
    80000886:	41650513          	addi	a0,a0,1046 # 80015c98 <__tbss_end+0xd4>
    8000088a:	078130ef          	jal	80013902 <iprintf>
    8000088e:	00015517          	auipc	a0,0x15
    80000892:	42250513          	addi	a0,a0,1058 # 80015cb0 <__tbss_end+0xec>
    80000896:	1b2130ef          	jal	80013a48 <puts>
    8000089a:	00015517          	auipc	a0,0x15
    8000089e:	45e50513          	addi	a0,a0,1118 # 80015cf8 <__tbss_end+0x134>
    800008a2:	48a120ef          	jal	80012d2c <getenv>
    800008a6:	34050663          	beqz	a0,80000bf2 <main+0x404>
    800008aa:	85aa                	mv	a1,a0
    800008ac:	00015517          	auipc	a0,0x15
    800008b0:	46450513          	addi	a0,a0,1124 # 80015d10 <__tbss_end+0x14c>
    800008b4:	04e130ef          	jal	80013902 <iprintf>
    800008b8:	00015517          	auipc	a0,0x15
    800008bc:	49050513          	addi	a0,a0,1168 # 80015d48 <__tbss_end+0x184>
    800008c0:	46c120ef          	jal	80012d2c <getenv>
    800008c4:	c901                	beqz	a0,800008d4 <main+0xe6>
    800008c6:	85aa                	mv	a1,a0
    800008c8:	00015517          	auipc	a0,0x15
    800008cc:	49850513          	addi	a0,a0,1176 # 80015d60 <__tbss_end+0x19c>
    800008d0:	032130ef          	jal	80013902 <iprintf>
    800008d4:	4529                	li	a0,10
    800008d6:	0be130ef          	jal	80013994 <putchar>
    800008da:	05010993          	addi	s3,sp,80
    800008de:	19000613          	li	a2,400
    800008e2:	4581                	li	a1,0
    800008e4:	854e                	mv	a0,s3
    800008e6:	e002                	sd	zero,0(sp)
    800008e8:	e402                	sd	zero,8(sp)
    800008ea:	e802                	sd	zero,16(sp)
    800008ec:	ec02                	sd	zero,24(sp)
    800008ee:	f002                	sd	zero,32(sp)
    800008f0:	f402                	sd	zero,40(sp)
    800008f2:	f802                	sd	zero,48(sp)
    800008f4:	fc02                	sd	zero,56(sp)
    800008f6:	e082                	sd	zero,64(sp)
    800008f8:	e482                	sd	zero,72(sp)
    800008fa:	2d7130ef          	jal	800143d0 <memset>
    800008fe:	3e800593          	li	a1,1000
    80000902:	00015517          	auipc	a0,0x15
    80000906:	47650513          	addi	a0,a0,1142 # 80015d78 <__tbss_end+0x1b4>
    8000090a:	c28f6937          	lui	s2,0xc28f6
    8000090e:	028f64b7          	lui	s1,0x28f6
    80000912:	7f1120ef          	jal	80013902 <iprintf>
    80000916:	1020                	addi	s0,sp,40
    80000918:	0040e797          	auipc	a5,0x40e
    8000091c:	1047a407          	flw	fs0,260(a5) # 8040ea1c <__atexit_dummy+0x54>
    80000920:	8b0a                	mv	s6,sp
    80000922:	c299091b          	addiw	s2,s2,-983 # ffffffffc28f5c29 <__heap_end+0xffffffff424c3c29>
    80000926:	c2848493          	addi	s1,s1,-984 # 28f5c28 <__heap_size+0x28d5c28>
    8000092a:	00019d17          	auipc	s10,0x19
    8000092e:	e46d0d13          	addi	s10,s10,-442 # 80019770 <_ZL12mnist_test_y>
    80000932:	0001ac17          	auipc	s8,0x1a
    80000936:	ddec0c13          	addi	s8,s8,-546 # 8001a710 <_ZL12mnist_test_x>
    8000093a:	4b81                	li	s7,0
    8000093c:	4a81                	li	s5,0
    8000093e:	3e800a13          	li	s4,1000
    80000942:	a0a9                	j	8000098c <main+0x19e>
    80000944:	000d2c83          	lw	s9,0(s10)
    80000948:	8562                	mv	a0,s8
    8000094a:	0d11                	addi	s10,s10,4
    8000094c:	002c9793          	slli	a5,s9,0x2
    80000950:	97a2                	add	a5,a5,s0
    80000952:	4398                	lw	a4,0(a5)
    80000954:	7ffc0c13          	addi	s8,s8,2047
    80000958:	2705                	addiw	a4,a4,1
    8000095a:	c398                	sw	a4,0(a5)
    8000095c:	768000ef          	jal	800010c4 <_Z14forward_samplePKf>
    80000960:	00251693          	slli	a3,a0,0x2
    80000964:	00a687b3          	add	a5,a3,a0
    80000968:	0786                	slli	a5,a5,0x1
    8000096a:	97e6                	add	a5,a5,s9
    8000096c:	078a                	slli	a5,a5,0x2
    8000096e:	97ce                	add	a5,a5,s3
    80000970:	4398                	lw	a4,0(a5)
    80000972:	2705                	addiw	a4,a4,1
    80000974:	c398                	sw	a4,0(a5)
    80000976:	00ac9763          	bne	s9,a0,80000984 <main+0x196>
    8000097a:	96da                	add	a3,a3,s6
    8000097c:	429c                	lw	a5,0(a3)
    8000097e:	2a85                	addiw	s5,s5,1
    80000980:	2785                	addiw	a5,a5,1
    80000982:	c29c                	sw	a5,0(a3)
    80000984:	441c0c13          	addi	s8,s8,1089
    80000988:	054b8263          	beq	s7,s4,800009cc <main+0x1de>
    8000098c:	c19b8713          	addi	a4,s7,-999
    80000990:	2b85                	addiw	s7,s7,1
    80000992:	037907bb          	mulw	a5,s2,s7
    80000996:	d00bf7d3          	fcvt.s.w	fa5,s7
    8000099a:	3e800613          	li	a2,1000
    8000099e:	85de                	mv	a1,s7
    800009a0:	1087f7d3          	fmul.s	fa5,fa5,fs0
    800009a4:	00015517          	auipc	a0,0x15
    800009a8:	3fc50513          	addi	a0,a0,1020 # 80015da0 <__tbss_end+0x1dc>
    800009ac:	420787d3          	fcvt.d.s	fa5,fa5
    800009b0:	0027d81b          	srliw	a6,a5,0x2
    800009b4:	01e7979b          	slliw	a5,a5,0x1e
    800009b8:	010787bb          	addw	a5,a5,a6
    800009bc:	e20786d3          	fmv.x.d	a3,fa5
    800009c0:	00f4f363          	bgeu	s1,a5,800009c6 <main+0x1d8>
    800009c4:	f341                	bnez	a4,80000944 <main+0x156>
    800009c6:	73d120ef          	jal	80013902 <iprintf>
    800009ca:	bfad                	j	80000944 <main+0x156>
    800009cc:	d00af4d3          	fcvt.s.w	fs1,s5
    800009d0:	00015517          	auipc	a0,0x15
    800009d4:	3f050513          	addi	a0,a0,1008 # 80015dc0 <__tbss_end+0x1fc>
    800009d8:	070130ef          	jal	80013a48 <puts>
    800009dc:	1084f453          	fmul.s	fs0,fs1,fs0
    800009e0:	865e                	mv	a2,s7
    800009e2:	85d6                	mv	a1,s5
    800009e4:	00015517          	auipc	a0,0x15
    800009e8:	3f450513          	addi	a0,a0,1012 # 80015dd8 <__tbss_end+0x214>
    800009ec:	4481                	li	s1,0
    800009ee:	42040453          	fcvt.d.s	fs0,fs0
    800009f2:	4929                	li	s2,10
    800009f4:	e20406d3          	fmv.x.d	a3,fs0
    800009f8:	70b120ef          	jal	80013902 <iprintf>
    800009fc:	00015517          	auipc	a0,0x15
    80000a00:	40450513          	addi	a0,a0,1028 # 80015e00 <__tbss_end+0x23c>
    80000a04:	044130ef          	jal	80013a48 <puts>
    80000a08:	0040e797          	auipc	a5,0x40e
    80000a0c:	0187a907          	flw	fs2,24(a5) # 8040ea20 <__atexit_dummy+0x58>
    80000a10:	4014                	lw	a3,0(s0)
    80000a12:	000b2603          	lw	a2,0(s6)
    80000a16:	f20007d3          	fmv.d.x	fa5,zero
    80000a1a:	d006f753          	fcvt.s.w	fa4,a3
    80000a1e:	85a6                	mv	a1,s1
    80000a20:	00015517          	auipc	a0,0x15
    80000a24:	3f850513          	addi	a0,a0,1016 # 80015e18 <__tbss_end+0x254>
    80000a28:	00d05a63          	blez	a3,80000a3c <main+0x24e>
    80000a2c:	d00677d3          	fcvt.s.w	fa5,a2
    80000a30:	1127f7d3          	fmul.s	fa5,fa5,fs2
    80000a34:	18e7f7d3          	fdiv.s	fa5,fa5,fa4
    80000a38:	420787d3          	fcvt.d.s	fa5,fa5
    80000a3c:	e2078753          	fmv.x.d	a4,fa5
    80000a40:	2485                	addiw	s1,s1,1
    80000a42:	0411                	addi	s0,s0,4
    80000a44:	6bf120ef          	jal	80013902 <iprintf>
    80000a48:	0b11                	addi	s6,s6,4
    80000a4a:	fd2493e3          	bne	s1,s2,80000a10 <main+0x222>
    80000a4e:	00015517          	auipc	a0,0x15
    80000a52:	3f250513          	addi	a0,a0,1010 # 80015e40 <__tbss_end+0x27c>
    80000a56:	7f3120ef          	jal	80013a48 <puts>
    80000a5a:	00015517          	auipc	a0,0x15
    80000a5e:	41e50513          	addi	a0,a0,1054 # 80015e78 <__tbss_end+0x2b4>
    80000a62:	6a1120ef          	jal	80013902 <iprintf>
    80000a66:	4901                	li	s2,0
    80000a68:	44a9                	li	s1,10
    80000a6a:	85ca                	mv	a1,s2
    80000a6c:	00015517          	auipc	a0,0x15
    80000a70:	41450513          	addi	a0,a0,1044 # 80015e80 <__tbss_end+0x2bc>
    80000a74:	2905                	addiw	s2,s2,1
    80000a76:	68d120ef          	jal	80013902 <iprintf>
    80000a7a:	fe9918e3          	bne	s2,s1,80000a6a <main+0x27c>
    80000a7e:	854a                	mv	a0,s2
    80000a80:	715120ef          	jal	80013994 <putchar>
    80000a84:	18a4                	addi	s1,sp,120
    80000a86:	4981                	li	s3,0
    80000a88:	85ce                	mv	a1,s3
    80000a8a:	00015517          	auipc	a0,0x15
    80000a8e:	3fe50513          	addi	a0,a0,1022 # 80015e88 <__tbss_end+0x2c4>
    80000a92:	671120ef          	jal	80013902 <iprintf>
    80000a96:	fd848413          	addi	s0,s1,-40
    80000a9a:	400c                	lw	a1,0(s0)
    80000a9c:	00015517          	auipc	a0,0x15
    80000aa0:	3e450513          	addi	a0,a0,996 # 80015e80 <__tbss_end+0x2bc>
    80000aa4:	0411                	addi	s0,s0,4
    80000aa6:	65d120ef          	jal	80013902 <iprintf>
    80000aaa:	fe9418e3          	bne	s0,s1,80000a9a <main+0x2ac>
    80000aae:	4529                	li	a0,10
    80000ab0:	2985                	addiw	s3,s3,1
    80000ab2:	6e3120ef          	jal	80013994 <putchar>
    80000ab6:	02840493          	addi	s1,s0,40
    80000aba:	fd2997e3          	bne	s3,s2,80000a88 <main+0x29a>
    80000abe:	0040e797          	auipc	a5,0x40e
    80000ac2:	f667a687          	flw	fa3,-154(a5) # 8040ea24 <__atexit_dummy+0x5c>
    80000ac6:	0040e797          	auipc	a5,0x40e
    80000aca:	f627a707          	flw	fa4,-158(a5) # 8040ea28 <__atexit_dummy+0x60>
    80000ace:	0040e797          	auipc	a5,0x40e
    80000ad2:	f5e7a607          	flw	fa2,-162(a5) # 8040ea2c <__atexit_dummy+0x64>
    80000ad6:	10d4f7d3          	fmul.s	fa5,fs1,fa3
    80000ada:	e20405d3          	fmv.x.d	a1,fs0
    80000ade:	00015517          	auipc	a0,0x15
    80000ae2:	3b250513          	addi	a0,a0,946 # 80015e90 <__tbss_end+0x2cc>
    80000ae6:	10d7f6d3          	fmul.s	fa3,fa5,fa3
    80000aea:	08f77753          	fsub.s	fa4,fa4,fa5
    80000aee:	10d77753          	fmul.s	fa4,fa4,fa3
    80000af2:	58077753          	fsqrt.s	fa4,fa4
    80000af6:	10c77753          	fmul.s	fa4,fa4,fa2
    80000afa:	08e7f6d3          	fsub.s	fa3,fa5,fa4
    80000afe:	00e7f7d3          	fadd.s	fa5,fa5,fa4
    80000b02:	11277753          	fmul.s	fa4,fa4,fs2
    80000b06:	1126f6d3          	fmul.s	fa3,fa3,fs2
    80000b0a:	1127f7d3          	fmul.s	fa5,fa5,fs2
    80000b0e:	42070753          	fcvt.d.s	fa4,fa4
    80000b12:	42068953          	fcvt.d.s	fs2,fa3
    80000b16:	420784d3          	fcvt.d.s	fs1,fa5
    80000b1a:	e2070653          	fmv.x.d	a2,fa4
    80000b1e:	e20906d3          	fmv.x.d	a3,fs2
    80000b22:	e2048753          	fmv.x.d	a4,fs1
    80000b26:	5dd120ef          	jal	80013902 <iprintf>
    80000b2a:	e20487d3          	fmv.x.d	a5,fs1
    80000b2e:	e2090753          	fmv.x.d	a4,fs2
    80000b32:	e20405d3          	fmv.x.d	a1,fs0
    80000b36:	8656                	mv	a2,s5
    80000b38:	3e800693          	li	a3,1000
    80000b3c:	00015517          	auipc	a0,0x15
    80000b40:	39450513          	addi	a0,a0,916 # 80015ed0 <__tbss_end+0x30c>
    80000b44:	5bf120ef          	jal	80013902 <iprintf>
    80000b48:	00015517          	auipc	a0,0x15
    80000b4c:	3c050513          	addi	a0,a0,960 # 80015f08 <__tbss_end+0x344>
    80000b50:	6f9120ef          	jal	80013a48 <puts>
    80000b54:	3e800593          	li	a1,1000
    80000b58:	00015517          	auipc	a0,0x15
    80000b5c:	3d050513          	addi	a0,a0,976 # 80015f28 <__tbss_end+0x364>
    80000b60:	5a3120ef          	jal	80013902 <iprintf>
    80000b64:	0e7145b7          	lui	a1,0xe714
    80000b68:	40058593          	addi	a1,a1,1024 # e714400 <__heap_size+0xe6f4400>
    80000b6c:	00015517          	auipc	a0,0x15
    80000b70:	3d450513          	addi	a0,a0,980 # 80015f40 <__tbss_end+0x37c>
    80000b74:	58f120ef          	jal	80013902 <iprintf>
    80000b78:	0003b5b7          	lui	a1,0x3b
    80000b7c:	28058593          	addi	a1,a1,640 # 3b280 <__heap_size+0x1b280>
    80000b80:	00015517          	auipc	a0,0x15
    80000b84:	3e050513          	addi	a0,a0,992 # 80015f60 <__tbss_end+0x39c>
    80000b88:	57b120ef          	jal	80013902 <iprintf>
    80000b8c:	00015517          	auipc	a0,0x15
    80000b90:	3ec50513          	addi	a0,a0,1004 # 80015f78 <__tbss_end+0x3b4>
    80000b94:	6b5120ef          	jal	80013a48 <puts>
    80000b98:	00015517          	auipc	a0,0x15
    80000b9c:	42850513          	addi	a0,a0,1064 # 80015fc0 <__tbss_end+0x3fc>
    80000ba0:	6a9120ef          	jal	80013a48 <puts>
    80000ba4:	00015517          	auipc	a0,0x15
    80000ba8:	02450513          	addi	a0,a0,36 # 80015bc8 <__tbss_end+0x4>
    80000bac:	69d120ef          	jal	80013a48 <puts>
    80000bb0:	1e00000b          	.insn	4, 0x1e00000b
    80000bb4:	25813083          	ld	ra,600(sp)
    80000bb8:	25013403          	ld	s0,592(sp)
    80000bbc:	24813483          	ld	s1,584(sp)
    80000bc0:	24013903          	ld	s2,576(sp)
    80000bc4:	23813983          	ld	s3,568(sp)
    80000bc8:	23013a03          	ld	s4,560(sp)
    80000bcc:	22813a83          	ld	s5,552(sp)
    80000bd0:	22013b03          	ld	s6,544(sp)
    80000bd4:	21813b83          	ld	s7,536(sp)
    80000bd8:	21013c03          	ld	s8,528(sp)
    80000bdc:	20813c83          	ld	s9,520(sp)
    80000be0:	20013d03          	ld	s10,512(sp)
    80000be4:	347e                	fld	fs0,504(sp)
    80000be6:	34de                	fld	fs1,496(sp)
    80000be8:	393e                	fld	fs2,488(sp)
    80000bea:	4501                	li	a0,0
    80000bec:	26010113          	addi	sp,sp,608
    80000bf0:	8082                	ret
    80000bf2:	00015517          	auipc	a0,0x15
    80000bf6:	13650513          	addi	a0,a0,310 # 80015d28 <__tbss_end+0x164>
    80000bfa:	64f120ef          	jal	80013a48 <puts>
    80000bfe:	b96d                	j	800008b8 <main+0xca>

0000000080000c00 <_GLOBAL__sub_I__ZN9__gnu_cxx9__freeresEv>:
    80000c00:	7175                	addi	sp,sp,-144
    80000c02:	00017517          	auipc	a0,0x17
    80000c06:	b8650513          	addi	a0,a0,-1146 # 80017788 <__tbss_end+0x1bc4>
    80000c0a:	e122                	sd	s0,128(sp)
    80000c0c:	f8ca                	sd	s2,112(sp)
    80000c0e:	f4ce                	sd	s3,104(sp)
    80000c10:	00411797          	auipc	a5,0x411
    80000c14:	fc07b423          	sd	zero,-56(a5) # 80411bd8 <_ZN12_GLOBAL__N_1L14emergency_poolE+0x8>
    80000c18:	00411797          	auipc	a5,0x411
    80000c1c:	fc07b423          	sd	zero,-56(a5) # 80411be0 <_ZN12_GLOBAL__N_1L14emergency_poolE+0x10>
    80000c20:	00411797          	auipc	a5,0x411
    80000c24:	fc07b423          	sd	zero,-56(a5) # 80411be8 <_ZN12_GLOBAL__N_1L14emergency_poolE+0x18>
    80000c28:	e506                	sd	ra,136(sp)
    80000c2a:	fca6                	sd	s1,120(sp)
    80000c2c:	100120ef          	jal	80012d2c <getenv>
    80000c30:	47bd                	li	a5,15
    80000c32:	f03e                	sd	a5,32(sp)
    80000c34:	00017797          	auipc	a5,0x17
    80000c38:	b6c78793          	addi	a5,a5,-1172 # 800177a0 <__tbss_end+0x1bdc>
    80000c3c:	f43e                	sd	a5,40(sp)
    80000c3e:	47a1                	li	a5,8
    80000c40:	f83e                	sd	a5,48(sp)
    80000c42:	00017797          	auipc	a5,0x17
    80000c46:	b6e78793          	addi	a5,a5,-1170 # 800177b0 <__tbss_end+0x1bec>
    80000c4a:	fc3e                	sd	a5,56(sp)
    80000c4c:	47a5                	li	a5,9
    80000c4e:	e4be                	sd	a5,72(sp)
    80000c50:	00017797          	auipc	a5,0x17
    80000c54:	b7078793          	addi	a5,a5,-1168 # 800177c0 <__tbss_end+0x1bfc>
    80000c58:	e8be                	sd	a5,80(sp)
    80000c5a:	4791                	li	a5,4
    80000c5c:	842a                	mv	s0,a0
    80000c5e:	e082                	sd	zero,64(sp)
    80000c60:	ccbe                	sw	a5,88(sp)
    80000c62:	03a00913          	li	s2,58
    80000c66:	02e00993          	li	s3,46
    80000c6a:	e829                	bnez	s0,80000cbc <_GLOBAL__sub_I__ZN9__gnu_cxx9__freeresEv+0xbc>
    80000c6c:	46e6                	lw	a3,88(sp)
    80000c6e:	04000713          	li	a4,64
    80000c72:	0006879b          	sext.w	a5,a3
    80000c76:	00d75463          	bge	a4,a3,80000c7e <_GLOBAL__sub_I__ZN9__gnu_cxx9__freeresEv+0x7e>
    80000c7a:	0007079b          	sext.w	a5,a4
    80000c7e:	4406                	lw	s0,64(sp)
    80000c80:	e011                	bnez	s0,80000c84 <_GLOBAL__sub_I__ZN9__gnu_cxx9__freeresEv+0x84>
    80000c82:	4419                	li	s0,6
    80000c84:	0479                	addi	s0,s0,30
    80000c86:	02f40433          	mul	s0,s0,a5
    80000c8a:	040e                	slli	s0,s0,0x3
    80000c8c:	00411797          	auipc	a5,0x411
    80000c90:	f487be23          	sd	s0,-164(a5) # 80411be8 <_ZN12_GLOBAL__N_1L14emergency_poolE+0x18>
    80000c94:	cc09                	beqz	s0,80000cae <_GLOBAL__sub_I__ZN9__gnu_cxx9__freeresEv+0xae>
    80000c96:	8522                	mv	a0,s0
    80000c98:	150120ef          	jal	80012de8 <malloc>
    80000c9c:	00411797          	auipc	a5,0x411
    80000ca0:	f4a7b223          	sd	a0,-188(a5) # 80411be0 <_ZN12_GLOBAL__N_1L14emergency_poolE+0x10>
    80000ca4:	e545                	bnez	a0,80000d4c <_GLOBAL__sub_I__ZN9__gnu_cxx9__freeresEv+0x14c>
    80000ca6:	00411797          	auipc	a5,0x411
    80000caa:	f407b123          	sd	zero,-190(a5) # 80411be8 <_ZN12_GLOBAL__N_1L14emergency_poolE+0x18>
    80000cae:	60aa                	ld	ra,136(sp)
    80000cb0:	640a                	ld	s0,128(sp)
    80000cb2:	74e6                	ld	s1,120(sp)
    80000cb4:	7946                	ld	s2,112(sp)
    80000cb6:	79a6                	ld	s3,104(sp)
    80000cb8:	6149                	addi	sp,sp,144
    80000cba:	8082                	ret
    80000cbc:	00044783          	lbu	a5,0(s0)
    80000cc0:	01279363          	bne	a5,s2,80000cc6 <_GLOBAL__sub_I__ZN9__gnu_cxx9__freeresEv+0xc6>
    80000cc4:	0405                	addi	s0,s0,1
    80000cc6:	473d                	li	a4,15
    80000cc8:	86a2                	mv	a3,s0
    80000cca:	863a                	mv	a2,a4
    80000ccc:	4581                	li	a1,0
    80000cce:	1008                	addi	a0,sp,32
    80000cd0:	3a6040ef          	jal	80005076 <_ZNKSt17basic_string_viewIcSt11char_traitsIcEE7compareEmmPKcm>
    80000cd4:	ed0d                	bnez	a0,80000d0e <_GLOBAL__sub_I__ZN9__gnu_cxx9__freeresEv+0x10e>
    80000cd6:	00f44783          	lbu	a5,15(s0)
    80000cda:	03379a63          	bne	a5,s3,80000d0e <_GLOBAL__sub_I__ZN9__gnu_cxx9__freeresEv+0x10e>
    80000cde:	0441                	addi	s0,s0,16
    80000ce0:	1804                	addi	s1,sp,48
    80000ce2:	6098                	ld	a4,0(s1)
    80000ce4:	86a2                	mv	a3,s0
    80000ce6:	4581                	li	a1,0
    80000ce8:	863a                	mv	a2,a4
    80000cea:	8526                	mv	a0,s1
    80000cec:	e43a                	sd	a4,8(sp)
    80000cee:	388040ef          	jal	80005076 <_ZNKSt17basic_string_viewIcSt11char_traitsIcEE7compareEmmPKcm>
    80000cf2:	e911                	bnez	a0,80000d06 <_GLOBAL__sub_I__ZN9__gnu_cxx9__freeresEv+0x106>
    80000cf4:	6722                	ld	a4,8(sp)
    80000cf6:	00e407b3          	add	a5,s0,a4
    80000cfa:	0007c683          	lbu	a3,0(a5)
    80000cfe:	03d00793          	li	a5,61
    80000d02:	00f68d63          	beq	a3,a5,80000d1c <_GLOBAL__sub_I__ZN9__gnu_cxx9__freeresEv+0x11c>
    80000d06:	04e1                	addi	s1,s1,24
    80000d08:	109c                	addi	a5,sp,96
    80000d0a:	fcf49ce3          	bne	s1,a5,80000ce2 <_GLOBAL__sub_I__ZN9__gnu_cxx9__freeresEv+0xe2>
    80000d0e:	8522                	mv	a0,s0
    80000d10:	03a00593          	li	a1,58
    80000d14:	280130ef          	jal	80013f94 <strchr>
    80000d18:	842a                	mv	s0,a0
    80000d1a:	bf81                	j	80000c6a <_GLOBAL__sub_I__ZN9__gnu_cxx9__freeresEv+0x6a>
    80000d1c:	0705                	addi	a4,a4,1
    80000d1e:	00e40533          	add	a0,s0,a4
    80000d22:	4601                	li	a2,0
    80000d24:	082c                	addi	a1,sp,24
    80000d26:	3f4120ef          	jal	8001311a <strtoul>
    80000d2a:	6462                	ld	s0,24(sp)
    80000d2c:	00044703          	lbu	a4,0(s0)
    80000d30:	fc670793          	addi	a5,a4,-58
    80000d34:	0017b793          	seqz	a5,a5
    80000d38:	00173713          	seqz	a4,a4
    80000d3c:	8fd9                	or	a5,a5,a4
    80000d3e:	dbe1                	beqz	a5,80000d0e <_GLOBAL__sub_I__ZN9__gnu_cxx9__freeresEv+0x10e>
    80000d40:	4785                	li	a5,1
    80000d42:	07fe                	slli	a5,a5,0x1f
    80000d44:	fcf575e3          	bgeu	a0,a5,80000d0e <_GLOBAL__sub_I__ZN9__gnu_cxx9__freeresEv+0x10e>
    80000d48:	c888                	sw	a0,16(s1)
    80000d4a:	b7d1                	j	80000d0e <_GLOBAL__sub_I__ZN9__gnu_cxx9__freeresEv+0x10e>
    80000d4c:	00411797          	auipc	a5,0x411
    80000d50:	e8a7b623          	sd	a0,-372(a5) # 80411bd8 <_ZN12_GLOBAL__N_1L14emergency_poolE+0x8>
    80000d54:	e100                	sd	s0,0(a0)
    80000d56:	00053423          	sd	zero,8(a0)
    80000d5a:	bf91                	j	80000cae <_GLOBAL__sub_I__ZN9__gnu_cxx9__freeresEv+0xae>

0000000080000d5c <_GLOBAL__sub_I__ZSt20__throw_system_errori>:
    80000d5c:	8082                	ret

0000000080000d5e <_Z17photonic_mvm_tilePfPKfS1_ii>:
    80000d5e:	8832                	mv	a6,a2
    80000d60:	8f2a                	mv	t5,a0
    80000d62:	a3018613          	addi	a2,gp,-1488 # 8040eba8 <_ZL8temp_vec>
    80000d66:	4781                	li	a5,0
    80000d68:	02000513          	li	a0,32
    80000d6c:	f00007d3          	fmv.w.x	fa5,zero
    80000d70:	00e7d463          	bge	a5,a4,80000d78 <_Z17photonic_mvm_tilePfPKfS1_ii+0x1a>
    80000d74:	00082787          	flw	fa5,0(a6)
    80000d78:	00f62027          	fsw	fa5,0(a2)
    80000d7c:	2785                	addiw	a5,a5,1
    80000d7e:	0811                	addi	a6,a6,4
    80000d80:	0611                	addi	a2,a2,4
    80000d82:	fea795e3          	bne	a5,a0,80000d6c <_Z17photonic_mvm_tilePfPKfS1_ii+0xe>
    80000d86:	0040fe97          	auipc	t4,0x40f
    80000d8a:	d4ae8e93          	addi	t4,t4,-694 # 8040fad0 <_ZL8temp_mat>
    80000d8e:	4881                	li	a7,0
    80000d90:	4501                	li	a0,0
    80000d92:	02000313          	li	t1,32
    80000d96:	00d52e33          	slt	t3,a0,a3
    80000d9a:	8876                	mv	a6,t4
    80000d9c:	4601                	li	a2,0
    80000d9e:	011607bb          	addw	a5,a2,a7
    80000da2:	078a                	slli	a5,a5,0x2
    80000da4:	f00007d3          	fmv.w.x	fa5,zero
    80000da8:	97ae                	add	a5,a5,a1
    80000daa:	00e65663          	bge	a2,a4,80000db6 <_Z17photonic_mvm_tilePfPKfS1_ii+0x58>
    80000dae:	000e0463          	beqz	t3,80000db6 <_Z17photonic_mvm_tilePfPKfS1_ii+0x58>
    80000db2:	0007a787          	flw	fa5,0(a5)
    80000db6:	00f82027          	fsw	fa5,0(a6)
    80000dba:	2605                	addiw	a2,a2,1
    80000dbc:	0811                	addi	a6,a6,4
    80000dbe:	fe6610e3          	bne	a2,t1,80000d9e <_Z17photonic_mvm_tilePfPKfS1_ii+0x40>
    80000dc2:	2505                	addiw	a0,a0,1
    80000dc4:	011708bb          	addw	a7,a4,a7
    80000dc8:	080e8e93          	addi	t4,t4,128
    80000dcc:	fcc515e3          	bne	a0,a2,80000d96 <_Z17photonic_mvm_tilePfPKfS1_ii+0x38>
    80000dd0:	2605200b          	.insn	4, 0x2605200b
    80000dd4:	a3018513          	addi	a0,gp,-1488 # 8040eba8 <_ZL8temp_vec>
    80000dd8:	2005208b          	.insn	4, 0x2005208b
    80000ddc:	0040f517          	auipc	a0,0x40f
    80000de0:	cf450513          	addi	a0,a0,-780 # 8040fad0 <_ZL8temp_mat>
    80000de4:	2605210b          	.insn	4, 0x2605210b
    80000de8:	2400800b          	.insn	4, 0x2400800b
    80000dec:	ab018513          	addi	a0,gp,-1360 # 8040ec28 <_ZL8temp_out>
    80000df0:	2205200b          	.insn	4, 0x2205200b
    80000df4:	00269713          	slli	a4,a3,0x2
    80000df8:	87fa                	mv	a5,t5
    80000dfa:	977a                	add	a4,a4,t5
    80000dfc:	00d05a63          	blez	a3,80000e10 <_Z17photonic_mvm_tilePfPKfS1_ii+0xb2>
    80000e00:	00052787          	flw	fa5,0(a0)
    80000e04:	0791                	addi	a5,a5,4
    80000e06:	0511                	addi	a0,a0,4
    80000e08:	fef7ae27          	fsw	fa5,-4(a5)
    80000e0c:	fee79ae3          	bne	a5,a4,80000e00 <_Z17photonic_mvm_tilePfPKfS1_ii+0xa2>
    80000e10:	8082                	ret

0000000080000e12 <_Z18photonic_mvm_tiledPfPKfS1_ii>:
    80000e12:	1cd05c63          	blez	a3,80000fea <_Z18photonic_mvm_tiledPfPKfS1_ii+0x1d8>
    80000e16:	7121                	addi	sp,sp,-448
    80000e18:	ff06                	sd	ra,440(sp)
    80000e1a:	fb22                	sd	s0,432(sp)
    80000e1c:	f726                	sd	s1,424(sp)
    80000e1e:	f34a                	sd	s2,416(sp)
    80000e20:	ef4e                	sd	s3,408(sp)
    80000e22:	eb52                	sd	s4,400(sp)
    80000e24:	e756                	sd	s5,392(sp)
    80000e26:	e35a                	sd	s6,384(sp)
    80000e28:	fede                	sd	s7,376(sp)
    80000e2a:	fae2                	sd	s8,368(sp)
    80000e2c:	f6e6                	sd	s9,360(sp)
    80000e2e:	f2ea                	sd	s10,352(sp)
    80000e30:	eeee                	sd	s11,344(sp)
    80000e32:	00269813          	slli	a6,a3,0x2
    80000e36:	80010113          	addi	sp,sp,-2048
    80000e3a:	80010113          	addi	sp,sp,-2048
    80000e3e:	982a                	add	a6,a6,a0
    80000e40:	87aa                	mv	a5,a0
    80000e42:	0007a023          	sw	zero,0(a5)
    80000e46:	0791                	addi	a5,a5,4
    80000e48:	ff079de3          	bne	a5,a6,80000e42 <_Z18photonic_mvm_tiledPfPKfS1_ii+0x30>
    80000e4c:	fff7091b          	addiw	s2,a4,-1
    80000e50:	8e2e                	mv	t3,a1
    80000e52:	0059591b          	srliw	s2,s2,0x5
    80000e56:	fff6859b          	addiw	a1,a3,-1
    80000e5a:	0055d59b          	srliw	a1,a1,0x5
    80000e5e:	0916                	slli	s2,s2,0x5
    80000e60:	0596                	slli	a1,a1,0x5
    80000e62:	02090913          	addi	s2,s2,32
    80000e66:	e432                	sd	a2,8(sp)
    80000e68:	02058593          	addi	a1,a1,32
    80000e6c:	8636                	mv	a2,a3
    80000e6e:	0057131b          	slliw	t1,a4,0x5
    80000e72:	00271c93          	slli	s9,a4,0x2
    80000e76:	4801                	li	a6,0
    80000e78:	8bba                	mv	s7,a4
    80000e7a:	8aca                	mv	s5,s2
    80000e7c:	4b01                	li	s6,0
    80000e7e:	01fb071b          	addiw	a4,s6,31
    80000e82:	000b089b          	sext.w	a7,s6
    80000e86:	02000693          	li	a3,32
    80000e8a:	12c75663          	bge	a4,a2,80000fb6 <_Z18photonic_mvm_tiledPfPKfS1_ii+0x1a4>
    80000e8e:	13705863          	blez	s7,80000fbe <_Z18photonic_mvm_tiledPfPKfS1_ii+0x1ac>
    80000e92:	8c5e                	mv	s8,s7
    80000e94:	87b6                	mv	a5,a3
    80000e96:	8bda                	mv	s7,s6
    80000e98:	8d56                	mv	s10,s5
    80000e9a:	15010b13          	addi	s6,sp,336
    80000e9e:	01778db3          	add	s11,a5,s7
    80000ea2:	0008041b          	sext.w	s0,a6
    80000ea6:	0d8a                	slli	s11,s11,0x2
    80000ea8:	002b9993          	slli	s3,s7,0x2
    80000eac:	040a                	slli	s0,s0,0x2
    80000eae:	ec5e                	sd	s7,24(sp)
    80000eb0:	01b50ab3          	add	s5,a0,s11
    80000eb4:	9472                	add	s0,s0,t3
    80000eb6:	99aa                	add	s3,s3,a0
    80000eb8:	f00b0a13          	addi	s4,s6,-256
    80000ebc:	e83e                	sd	a5,16(sp)
    80000ebe:	f042                	sd	a6,32(sp)
    80000ec0:	00579b9b          	slliw	s7,a5,0x5
    80000ec4:	f42e                	sd	a1,40(sp)
    80000ec6:	f81a                	sd	t1,48(sp)
    80000ec8:	fc32                	sd	a2,56(sp)
    80000eca:	e0aa                	sd	a0,64(sp)
    80000ecc:	e4f2                	sd	t3,72(sp)
    80000ece:	4d81                	li	s11,0
    80000ed0:	01fd879b          	addiw	a5,s11,31
    80000ed4:	02000913          	li	s2,32
    80000ed8:	0187c463          	blt	a5,s8,80000ee0 <_Z18photonic_mvm_tiledPfPKfS1_ii+0xce>
    80000edc:	41bc093b          	subw	s2,s8,s11
    80000ee0:	08000613          	li	a2,128
    80000ee4:	4581                	li	a1,0
    80000ee6:	8552                	mv	a0,s4
    80000ee8:	4e8130ef          	jal	800143d0 <memset>
    80000eec:	6605                	lui	a2,0x1
    80000eee:	4581                	li	a1,0
    80000ef0:	855a                	mv	a0,s6
    80000ef2:	4de130ef          	jal	800143d0 <memset>
    80000ef6:	08000613          	li	a2,128
    80000efa:	f80b0513          	addi	a0,s6,-128
    80000efe:	4581                	li	a1,0
    80000f00:	4d0130ef          	jal	800143d0 <memset>
    80000f04:	6722                	ld	a4,8(sp)
    80000f06:	002d9693          	slli	a3,s11,0x2
    80000f0a:	089c                	addi	a5,sp,80
    80000f0c:	00291e93          	slli	t4,s2,0x2
    80000f10:	96ba                	add	a3,a3,a4
    80000f12:	01d78633          	add	a2,a5,t4
    80000f16:	0006a787          	flw	fa5,0(a3)
    80000f1a:	0791                	addi	a5,a5,4
    80000f1c:	0691                	addi	a3,a3,4
    80000f1e:	fef7ae27          	fsw	fa5,-4(a5)
    80000f22:	fec79ae3          	bne	a5,a2,80000f16 <_Z18photonic_mvm_tiledPfPKfS1_ii+0x104>
    80000f26:	01db0633          	add	a2,s6,t4
    80000f2a:	8522                	mv	a0,s0
    80000f2c:	4581                	li	a1,0
    80000f2e:	41d607b3          	sub	a5,a2,t4
    80000f32:	872a                	mv	a4,a0
    80000f34:	00072787          	flw	fa5,0(a4)
    80000f38:	0791                	addi	a5,a5,4
    80000f3a:	0711                	addi	a4,a4,4
    80000f3c:	fef7ae27          	fsw	fa5,-4(a5)
    80000f40:	fec79ae3          	bne	a5,a2,80000f34 <_Z18photonic_mvm_tiledPfPKfS1_ii+0x122>
    80000f44:	0205859b          	addiw	a1,a1,32
    80000f48:	9566                	add	a0,a0,s9
    80000f4a:	08078613          	addi	a2,a5,128
    80000f4e:	ff7590e3          	bne	a1,s7,80000f2e <_Z18photonic_mvm_tiledPfPKfS1_ii+0x11c>
    80000f52:	66c2                	ld	a3,16(sp)
    80000f54:	874a                	mv	a4,s2
    80000f56:	0890                	addi	a2,sp,80
    80000f58:	85da                	mv	a1,s6
    80000f5a:	0988                	addi	a0,sp,208
    80000f5c:	e03ff0ef          	jal	80000d5e <_Z17photonic_mvm_tilePfPKfS1_ii>
    80000f60:	0998                	addi	a4,sp,208
    80000f62:	87ce                	mv	a5,s3
    80000f64:	0007a787          	flw	fa5,0(a5)
    80000f68:	00072707          	flw	fa4,0(a4)
    80000f6c:	0791                	addi	a5,a5,4
    80000f6e:	0711                	addi	a4,a4,4
    80000f70:	00e7f7d3          	fadd.s	fa5,fa5,fa4
    80000f74:	fef7ae27          	fsw	fa5,-4(a5)
    80000f78:	fefa96e3          	bne	s5,a5,80000f64 <_Z18photonic_mvm_tiledPfPKfS1_ii+0x152>
    80000f7c:	020d8d93          	addi	s11,s11,32
    80000f80:	08040413          	addi	s0,s0,128
    80000f84:	f5ad96e3          	bne	s11,s10,80000ed0 <_Z18photonic_mvm_tiledPfPKfS1_ii+0xbe>
    80000f88:	6be2                	ld	s7,24(sp)
    80000f8a:	75a2                	ld	a1,40(sp)
    80000f8c:	7802                	ld	a6,32(sp)
    80000f8e:	020b8b93          	addi	s7,s7,32
    80000f92:	7342                	ld	t1,48(sp)
    80000f94:	7662                	ld	a2,56(sp)
    80000f96:	6506                	ld	a0,64(sp)
    80000f98:	6e26                	ld	t3,72(sp)
    80000f9a:	03758763          	beq	a1,s7,80000fc8 <_Z18photonic_mvm_tiledPfPKfS1_ii+0x1b6>
    80000f9e:	01fb8e9b          	addiw	t4,s7,31
    80000fa2:	981a                	add	a6,a6,t1
    80000fa4:	000b889b          	sext.w	a7,s7
    80000fa8:	02000793          	li	a5,32
    80000fac:	eecec9e3          	blt	t4,a2,80000e9e <_Z18photonic_mvm_tiledPfPKfS1_ii+0x8c>
    80000fb0:	8b5e                	mv	s6,s7
    80000fb2:	8aea                	mv	s5,s10
    80000fb4:	8be2                	mv	s7,s8
    80000fb6:	411606bb          	subw	a3,a2,a7
    80000fba:	ed704ce3          	bgtz	s7,80000e92 <_Z18photonic_mvm_tiledPfPKfS1_ii+0x80>
    80000fbe:	020b0b13          	addi	s6,s6,32
    80000fc2:	981a                	add	a6,a6,t1
    80000fc4:	eabb1de3          	bne	s6,a1,80000e7e <_Z18photonic_mvm_tiledPfPKfS1_ii+0x6c>
    80000fc8:	6285                	lui	t0,0x1
    80000fca:	9116                	add	sp,sp,t0
    80000fcc:	70fa                	ld	ra,440(sp)
    80000fce:	745a                	ld	s0,432(sp)
    80000fd0:	74ba                	ld	s1,424(sp)
    80000fd2:	791a                	ld	s2,416(sp)
    80000fd4:	69fa                	ld	s3,408(sp)
    80000fd6:	6a5a                	ld	s4,400(sp)
    80000fd8:	6aba                	ld	s5,392(sp)
    80000fda:	6b1a                	ld	s6,384(sp)
    80000fdc:	7bf6                	ld	s7,376(sp)
    80000fde:	7c56                	ld	s8,368(sp)
    80000fe0:	7cb6                	ld	s9,360(sp)
    80000fe2:	7d16                	ld	s10,352(sp)
    80000fe4:	6df6                	ld	s11,344(sp)
    80000fe6:	6139                	addi	sp,sp,448
    80000fe8:	8082                	ret
    80000fea:	8082                	ret

0000000080000fec <_Z15photonic_linearPfPKfS1_S1_ii>:
    80000fec:	1101                	addi	sp,sp,-32
    80000fee:	e426                	sd	s1,8(sp)
    80000ff0:	84ba                	mv	s1,a4
    80000ff2:	e822                	sd	s0,16(sp)
    80000ff4:	873e                	mv	a4,a5
    80000ff6:	8436                	mv	s0,a3
    80000ff8:	86a6                	mv	a3,s1
    80000ffa:	e04a                	sd	s2,0(sp)
    80000ffc:	ec06                	sd	ra,24(sp)
    80000ffe:	892a                	mv	s2,a0
    80001000:	e13ff0ef          	jal	80000e12 <_Z18photonic_mvm_tiledPfPKfS1_ii>
    80001004:	c405                	beqz	s0,8000102c <_Z15photonic_linearPfPKfS1_S1_ii+0x40>
    80001006:	02905363          	blez	s1,8000102c <_Z15photonic_linearPfPKfS1_S1_ii+0x40>
    8000100a:	00249793          	slli	a5,s1,0x2
    8000100e:	854a                	mv	a0,s2
    80001010:	97ca                	add	a5,a5,s2
    80001012:	86a2                	mv	a3,s0
    80001014:	00052787          	flw	fa5,0(a0)
    80001018:	0006a707          	flw	fa4,0(a3)
    8000101c:	0511                	addi	a0,a0,4
    8000101e:	0691                	addi	a3,a3,4
    80001020:	00e7f7d3          	fadd.s	fa5,fa5,fa4
    80001024:	fef52e27          	fsw	fa5,-4(a0)
    80001028:	fef516e3          	bne	a0,a5,80001014 <_Z15photonic_linearPfPKfS1_S1_ii+0x28>
    8000102c:	60e2                	ld	ra,24(sp)
    8000102e:	6442                	ld	s0,16(sp)
    80001030:	64a2                	ld	s1,8(sp)
    80001032:	6902                	ld	s2,0(sp)
    80001034:	6105                	addi	sp,sp,32
    80001036:	8082                	ret

0000000080001038 <_Z9relu_fp32PfPKfi>:
    80001038:	02c05063          	blez	a2,80001058 <_Z9relu_fp32PfPKfi+0x20>
    8000103c:	f0000753          	fmv.w.x	fa4,zero
    80001040:	060a                	slli	a2,a2,0x2
    80001042:	962e                	add	a2,a2,a1
    80001044:	0005a787          	flw	fa5,0(a1)
    80001048:	0591                	addi	a1,a1,4
    8000104a:	0511                	addi	a0,a0,4
    8000104c:	28e797d3          	fmax.s	fa5,fa5,fa4
    80001050:	fef52e27          	fsw	fa5,-4(a0)
    80001054:	fec598e3          	bne	a1,a2,80001044 <_Z9relu_fp32PfPKfi+0xc>
    80001058:	8082                	ret

000000008000105a <_Z11argmax_fp32PKfi>:
    8000105a:	4785                	li	a5,1
    8000105c:	02b7d463          	bge	a5,a1,80001084 <_Z11argmax_fp32PKfi+0x2a>
    80001060:	00052707          	flw	fa4,0(a0)
    80001064:	00450713          	addi	a4,a0,4
    80001068:	4501                	li	a0,0
    8000106a:	00072787          	flw	fa5,0(a4)
    8000106e:	0711                	addi	a4,a4,4
    80001070:	a0e786d3          	fle.s	a3,fa5,fa4
    80001074:	e681                	bnez	a3,8000107c <_Z11argmax_fp32PKfi+0x22>
    80001076:	20f78753          	fmv.s	fa4,fa5
    8000107a:	853e                	mv	a0,a5
    8000107c:	2785                	addiw	a5,a5,1
    8000107e:	fef596e3          	bne	a1,a5,8000106a <_Z11argmax_fp32PKfi+0x10>
    80001082:	8082                	ret
    80001084:	4501                	li	a0,0
    80001086:	8082                	ret

0000000080001088 <_Z18compute_confidencePKfi>:
    80001088:	02b05b63          	blez	a1,800010be <_Z18compute_confidencePKfi+0x36>
    8000108c:	0040e797          	auipc	a5,0x40e
    80001090:	98c7a707          	flw	fa4,-1652(a5) # 8040ea18 <__atexit_dummy+0x50>
    80001094:	058a                	slli	a1,a1,0x2
    80001096:	95aa                	add	a1,a1,a0
    80001098:	20e70553          	fmv.s	fa0,fa4
    8000109c:	00052787          	flw	fa5,0(a0)
    800010a0:	a0f517d3          	flt.s	a5,fa0,fa5
    800010a4:	28f71753          	fmax.s	fa4,fa4,fa5
    800010a8:	c789                	beqz	a5,800010b2 <_Z18compute_confidencePKfi+0x2a>
    800010aa:	20a50753          	fmv.s	fa4,fa0
    800010ae:	20f78553          	fmv.s	fa0,fa5
    800010b2:	0511                	addi	a0,a0,4
    800010b4:	fea594e3          	bne	a1,a0,8000109c <_Z18compute_confidencePKfi+0x14>
    800010b8:	08e57553          	fsub.s	fa0,fa0,fa4
    800010bc:	8082                	ret
    800010be:	f0000553          	fmv.w.x	fa0,zero
    800010c2:	8082                	ret

00000000800010c4 <_Z14forward_samplePKf>:
    800010c4:	862a                	mv	a2,a0
    800010c6:	1141                	addi	sp,sp,-16
    800010c8:	31000713          	li	a4,784
    800010cc:	10000693          	li	a3,256
    800010d0:	00340597          	auipc	a1,0x340
    800010d4:	a4058593          	addi	a1,a1,-1472 # 80340b10 <_ZL8mnist_w1>
    800010d8:	b3018513          	addi	a0,gp,-1232 # 8040eca8 <_ZL7act_fc1>
    800010dc:	e406                	sd	ra,8(sp)
    800010de:	d35ff0ef          	jal	80000e12 <_Z18photonic_mvm_tiledPfPKfS1_ii>
    800010e2:	b3018713          	addi	a4,gp,-1232 # 8040eca8 <_ZL7act_fc1>
    800010e6:	87ba                	mv	a5,a4
    800010e8:	00018697          	auipc	a3,0x18
    800010ec:	f6068693          	addi	a3,a3,-160 # 80019048 <_ZL8mnist_b1>
    800010f0:	f3018613          	addi	a2,gp,-208 # 8040f0a8 <_ZL9act_relu1>
    800010f4:	0007a787          	flw	fa5,0(a5)
    800010f8:	0006a707          	flw	fa4,0(a3)
    800010fc:	0791                	addi	a5,a5,4
    800010fe:	0691                	addi	a3,a3,4
    80001100:	00e7f7d3          	fadd.s	fa5,fa5,fa4
    80001104:	fef7ae27          	fsw	fa5,-4(a5)
    80001108:	fec796e3          	bne	a5,a2,800010f4 <_Z14forward_samplePKf+0x30>
    8000110c:	f0000753          	fmv.w.x	fa4,zero
    80001110:	f3018793          	addi	a5,gp,-208 # 8040f0a8 <_ZL9act_relu1>
    80001114:	00072787          	flw	fa5,0(a4)
    80001118:	0711                	addi	a4,a4,4
    8000111a:	0791                	addi	a5,a5,4
    8000111c:	28e797d3          	fmax.s	fa5,fa5,fa4
    80001120:	fef7ae27          	fsw	fa5,-4(a5)
    80001124:	fec718e3          	bne	a4,a2,80001114 <_Z14forward_samplePKf+0x50>
    80001128:	10000713          	li	a4,256
    8000112c:	08000693          	li	a3,128
    80001130:	f3018613          	addi	a2,gp,-208 # 8040f0a8 <_ZL9act_relu1>
    80001134:	00320597          	auipc	a1,0x320
    80001138:	9dc58593          	addi	a1,a1,-1572 # 80320b10 <_ZL8mnist_w2>
    8000113c:	33018513          	addi	a0,gp,816 # 8040f4a8 <_ZL7act_fc2>
    80001140:	cd3ff0ef          	jal	80000e12 <_Z18photonic_mvm_tiledPfPKfS1_ii>
    80001144:	33018713          	addi	a4,gp,816 # 8040f4a8 <_ZL7act_fc2>
    80001148:	87ba                	mv	a5,a4
    8000114a:	00018697          	auipc	a3,0x18
    8000114e:	2fe68693          	addi	a3,a3,766 # 80019448 <_ZL8mnist_b2>
    80001152:	53018613          	addi	a2,gp,1328 # 8040f6a8 <_ZL9act_relu2>
    80001156:	0007a787          	flw	fa5,0(a5)
    8000115a:	0006a707          	flw	fa4,0(a3)
    8000115e:	0791                	addi	a5,a5,4
    80001160:	0691                	addi	a3,a3,4
    80001162:	00e7f7d3          	fadd.s	fa5,fa5,fa4
    80001166:	fef7ae27          	fsw	fa5,-4(a5)
    8000116a:	fec796e3          	bne	a5,a2,80001156 <_Z14forward_samplePKf+0x92>
    8000116e:	f0000753          	fmv.w.x	fa4,zero
    80001172:	53018793          	addi	a5,gp,1328 # 8040f6a8 <_ZL9act_relu2>
    80001176:	00072787          	flw	fa5,0(a4)
    8000117a:	0711                	addi	a4,a4,4
    8000117c:	0791                	addi	a5,a5,4
    8000117e:	28e797d3          	fmax.s	fa5,fa5,fa4
    80001182:	fef7ae27          	fsw	fa5,-4(a5)
    80001186:	fec718e3          	bne	a4,a2,80001176 <_Z14forward_samplePKf+0xb2>
    8000118a:	08000713          	li	a4,128
    8000118e:	04000693          	li	a3,64
    80001192:	53018613          	addi	a2,gp,1328 # 8040f6a8 <_ZL9act_relu2>
    80001196:	00318597          	auipc	a1,0x318
    8000119a:	97a58593          	addi	a1,a1,-1670 # 80318b10 <_ZL8mnist_w3>
    8000119e:	73018513          	addi	a0,gp,1840 # 8040f8a8 <_ZL7act_fc3>
    800011a2:	c71ff0ef          	jal	80000e12 <_Z18photonic_mvm_tiledPfPKfS1_ii>
    800011a6:	73018713          	addi	a4,gp,1840 # 8040f8a8 <_ZL7act_fc3>
    800011aa:	87ba                	mv	a5,a4
    800011ac:	00018697          	auipc	a3,0x18
    800011b0:	49c68693          	addi	a3,a3,1180 # 80019648 <_ZL8mnist_b3>
    800011b4:	0040e617          	auipc	a2,0x40e
    800011b8:	7f460613          	addi	a2,a2,2036 # 8040f9a8 <_ZL9act_relu3>
    800011bc:	0007a787          	flw	fa5,0(a5)
    800011c0:	0006a707          	flw	fa4,0(a3)
    800011c4:	0791                	addi	a5,a5,4
    800011c6:	0691                	addi	a3,a3,4
    800011c8:	00e7f7d3          	fadd.s	fa5,fa5,fa4
    800011cc:	fef7ae27          	fsw	fa5,-4(a5)
    800011d0:	fef616e3          	bne	a2,a5,800011bc <_Z14forward_samplePKf+0xf8>
    800011d4:	f0000753          	fmv.w.x	fa4,zero
    800011d8:	0040e797          	auipc	a5,0x40e
    800011dc:	7d078793          	addi	a5,a5,2000 # 8040f9a8 <_ZL9act_relu3>
    800011e0:	00072787          	flw	fa5,0(a4)
    800011e4:	0711                	addi	a4,a4,4
    800011e6:	0791                	addi	a5,a5,4
    800011e8:	28e797d3          	fmax.s	fa5,fa5,fa4
    800011ec:	fef7ae27          	fsw	fa5,-4(a5)
    800011f0:	fec718e3          	bne	a4,a2,800011e0 <_Z14forward_samplePKf+0x11c>
    800011f4:	04000713          	li	a4,64
    800011f8:	46a9                	li	a3,10
    800011fa:	0040e617          	auipc	a2,0x40e
    800011fe:	7ae60613          	addi	a2,a2,1966 # 8040f9a8 <_ZL9act_relu3>
    80001202:	00317597          	auipc	a1,0x317
    80001206:	f0e58593          	addi	a1,a1,-242 # 80318110 <_ZL8mnist_w4>
    8000120a:	0040f517          	auipc	a0,0x40f
    8000120e:	89e50513          	addi	a0,a0,-1890 # 8040faa8 <_ZL7act_fc4>
    80001212:	c01ff0ef          	jal	80000e12 <_Z18photonic_mvm_tiledPfPKfS1_ii>
    80001216:	0040f717          	auipc	a4,0x40f
    8000121a:	89270713          	addi	a4,a4,-1902 # 8040faa8 <_ZL7act_fc4>
    8000121e:	87ba                	mv	a5,a4
    80001220:	00018697          	auipc	a3,0x18
    80001224:	52868693          	addi	a3,a3,1320 # 80019748 <_ZL8mnist_b4>
    80001228:	0040f617          	auipc	a2,0x40f
    8000122c:	8a860613          	addi	a2,a2,-1880 # 8040fad0 <_ZL8temp_mat>
    80001230:	0007a787          	flw	fa5,0(a5)
    80001234:	0006a707          	flw	fa4,0(a3)
    80001238:	0791                	addi	a5,a5,4
    8000123a:	0691                	addi	a3,a3,4
    8000123c:	00e7f7d3          	fadd.s	fa5,fa5,fa4
    80001240:	fef7ae27          	fsw	fa5,-4(a5)
    80001244:	fec796e3          	bne	a5,a2,80001230 <_Z14forward_samplePKf+0x16c>
    80001248:	0040f797          	auipc	a5,0x40f
    8000124c:	8607a707          	flw	fa4,-1952(a5) # 8040faa8 <_ZL7act_fc4>
    80001250:	4501                	li	a0,0
    80001252:	4785                	li	a5,1
    80001254:	46a9                	li	a3,10
    80001256:	00472787          	flw	fa5,4(a4)
    8000125a:	0711                	addi	a4,a4,4
    8000125c:	a0e78653          	fle.s	a2,fa5,fa4
    80001260:	e601                	bnez	a2,80001268 <_Z14forward_samplePKf+0x1a4>
    80001262:	20f78753          	fmv.s	fa4,fa5
    80001266:	853e                	mv	a0,a5
    80001268:	2785                	addiw	a5,a5,1
    8000126a:	fed796e3          	bne	a5,a3,80001256 <_Z14forward_samplePKf+0x192>
    8000126e:	60a2                	ld	ra,8(sp)
    80001270:	0141                	addi	sp,sp,16
    80001272:	8082                	ret

0000000080001274 <_Z10matrix_sumPsPKsmm.part.0>:
    80001274:	1141                	addi	sp,sp,-16
    80001276:	00015517          	auipc	a0,0x15
    8000127a:	d7a50513          	addi	a0,a0,-646 # 80015ff0 <__tbss_end+0x42c>
    8000127e:	e406                	sd	ra,8(sp)
    80001280:	7c8120ef          	jal	80013a48 <puts>
    80001284:	00015517          	auipc	a0,0x15
    80001288:	dbc50513          	addi	a0,a0,-580 # 80016040 <__tbss_end+0x47c>
    8000128c:	7bc120ef          	jal	80013a48 <puts>
    80001290:	557d                	li	a0,-1
    80001292:	26b110ef          	jal	80012cfc <exit>

0000000080001296 <_Z12vector_equalPsPKsS1_m>:
    80001296:	c505                	beqz	a0,800012be <_Z12vector_equalPsPKsS1_m+0x28>
    80001298:	c295                	beqz	a3,800012bc <_Z12vector_equalPsPKsS1_m+0x26>
    8000129a:	0686                	slli	a3,a3,0x1
    8000129c:	96ae                	add	a3,a3,a1
    8000129e:	00059783          	lh	a5,0(a1)
    800012a2:	00061703          	lh	a4,0(a2)
    800012a6:	0589                	addi	a1,a1,2
    800012a8:	0609                	addi	a2,a2,2
    800012aa:	8f99                	sub	a5,a5,a4
    800012ac:	0017b793          	seqz	a5,a5
    800012b0:	00f51023          	sh	a5,0(a0)
    800012b4:	0509                	addi	a0,a0,2
    800012b6:	fed594e3          	bne	a1,a3,8000129e <_Z12vector_equalPsPKsS1_m+0x8>
    800012ba:	8082                	ret
    800012bc:	8082                	ret
    800012be:	1101                	addi	sp,sp,-32
    800012c0:	00015517          	auipc	a0,0x15
    800012c4:	d9850513          	addi	a0,a0,-616 # 80016058 <__tbss_end+0x494>
    800012c8:	ec06                	sd	ra,24(sp)
    800012ca:	e436                	sd	a3,8(sp)
    800012cc:	77c120ef          	jal	80013a48 <puts>
    800012d0:	65a2                	ld	a1,8(sp)
    800012d2:	00015517          	auipc	a0,0x15
    800012d6:	dd650513          	addi	a0,a0,-554 # 800160a8 <__tbss_end+0x4e4>
    800012da:	628120ef          	jal	80013902 <iprintf>
    800012de:	557d                	li	a0,-1
    800012e0:	21d110ef          	jal	80012cfc <exit>

00000000800012e4 <_Z10vector_sumPsPKsm>:
    800012e4:	c11d                	beqz	a0,8000130a <_Z10vector_sumPsPKsm+0x26>
    800012e6:	4781                	li	a5,0
    800012e8:	ce11                	beqz	a2,80001304 <_Z10vector_sumPsPKsm+0x20>
    800012ea:	0606                	slli	a2,a2,0x1
    800012ec:	962e                	add	a2,a2,a1
    800012ee:	4781                	li	a5,0
    800012f0:	0005d703          	lhu	a4,0(a1)
    800012f4:	0589                	addi	a1,a1,2
    800012f6:	9fb9                	addw	a5,a5,a4
    800012f8:	0107979b          	slliw	a5,a5,0x10
    800012fc:	4107d79b          	sraiw	a5,a5,0x10
    80001300:	feb618e3          	bne	a2,a1,800012f0 <_Z10vector_sumPsPKsm+0xc>
    80001304:	00f51023          	sh	a5,0(a0)
    80001308:	8082                	ret
    8000130a:	1141                	addi	sp,sp,-16
    8000130c:	00015517          	auipc	a0,0x15
    80001310:	dc450513          	addi	a0,a0,-572 # 800160d0 <__tbss_end+0x50c>
    80001314:	e406                	sd	ra,8(sp)
    80001316:	732120ef          	jal	80013a48 <puts>
    8000131a:	00015517          	auipc	a0,0x15
    8000131e:	d2650513          	addi	a0,a0,-730 # 80016040 <__tbss_end+0x47c>
    80001322:	726120ef          	jal	80013a48 <puts>
    80001326:	557d                	li	a0,-1
    80001328:	1d5110ef          	jal	80012cfc <exit>

000000008000132c <_Z11vector_meanPsPKsm>:
    8000132c:	c515                	beqz	a0,80001358 <_Z11vector_meanPsPKsm+0x2c>
    8000132e:	4781                	li	a5,0
    80001330:	c20d                	beqz	a2,80001352 <_Z11vector_meanPsPKsm+0x26>
    80001332:	00161693          	slli	a3,a2,0x1
    80001336:	96ae                	add	a3,a3,a1
    80001338:	4781                	li	a5,0
    8000133a:	0005d703          	lhu	a4,0(a1)
    8000133e:	0589                	addi	a1,a1,2
    80001340:	9fb9                	addw	a5,a5,a4
    80001342:	0107979b          	slliw	a5,a5,0x10
    80001346:	4107d79b          	sraiw	a5,a5,0x10
    8000134a:	feb698e3          	bne	a3,a1,8000133a <_Z11vector_meanPsPKsm+0xe>
    8000134e:	02c7d7b3          	divu	a5,a5,a2
    80001352:	00f51023          	sh	a5,0(a0)
    80001356:	8082                	ret
    80001358:	1141                	addi	sp,sp,-16
    8000135a:	00015517          	auipc	a0,0x15
    8000135e:	dc650513          	addi	a0,a0,-570 # 80016120 <__tbss_end+0x55c>
    80001362:	e406                	sd	ra,8(sp)
    80001364:	6e4120ef          	jal	80013a48 <puts>
    80001368:	00015517          	auipc	a0,0x15
    8000136c:	cd850513          	addi	a0,a0,-808 # 80016040 <__tbss_end+0x47c>
    80001370:	6d8120ef          	jal	80013a48 <puts>
    80001374:	557d                	li	a0,-1
    80001376:	187110ef          	jal	80012cfc <exit>

000000008000137a <_Z10vector_varPsPKsm>:
    8000137a:	7179                	addi	sp,sp,-48
    8000137c:	f406                	sd	ra,40(sp)
    8000137e:	f022                	sd	s0,32(sp)
    80001380:	ec26                	sd	s1,24(sp)
    80001382:	e84a                	sd	s2,16(sp)
    80001384:	c525                	beqz	a0,800013ec <_Z10vector_varPsPKsm+0x72>
    80001386:	57cd                	li	a5,-13
    80001388:	8389                	srli	a5,a5,0x2
    8000138a:	84b2                	mv	s1,a2
    8000138c:	06c7ef63          	bltu	a5,a2,8000140a <_Z10vector_varPsPKsm+0x90>
    80001390:	00161413          	slli	s0,a2,0x1
    80001394:	892a                	mv	s2,a0
    80001396:	8522                	mv	a0,s0
    80001398:	e42e                	sd	a1,8(sp)
    8000139a:	2c3030ef          	jal	80004e5c <_Znam>
    8000139e:	65a2                	ld	a1,8(sp)
    800013a0:	c4a1                	beqz	s1,800013e8 <_Z10vector_varPsPKsm+0x6e>
    800013a2:	00858833          	add	a6,a1,s0
    800013a6:	87ae                	mv	a5,a1
    800013a8:	4601                	li	a2,0
    800013aa:	0007d703          	lhu	a4,0(a5)
    800013ae:	0789                	addi	a5,a5,2
    800013b0:	9e39                	addw	a2,a2,a4
    800013b2:	0106161b          	slliw	a2,a2,0x10
    800013b6:	4106561b          	sraiw	a2,a2,0x10
    800013ba:	fef818e3          	bne	a6,a5,800013aa <_Z10vector_varPsPKsm+0x30>
    800013be:	02965633          	divu	a2,a2,s1
    800013c2:	0106161b          	slliw	a2,a2,0x10
    800013c6:	4106561b          	sraiw	a2,a2,0x10
    800013ca:	86a6                	mv	a3,s1
    800013cc:	e42a                	sd	a0,8(sp)
    800013ce:	7a0000ef          	jal	80001b6e <_Z23tiled_vector_sub_scalarPsPKssm>
    800013d2:	6622                	ld	a2,8(sp)
    800013d4:	7402                	ld	s0,32(sp)
    800013d6:	70a2                	ld	ra,40(sp)
    800013d8:	86a6                	mv	a3,s1
    800013da:	854a                	mv	a0,s2
    800013dc:	64e2                	ld	s1,24(sp)
    800013de:	6942                	ld	s2,16(sp)
    800013e0:	85b2                	mv	a1,a2
    800013e2:	6145                	addi	sp,sp,48
    800013e4:	4e80106f          	j	800028cc <_Z13tiled_dotprodPsPKsS1_m>
    800013e8:	4601                	li	a2,0
    800013ea:	b7c5                	j	800013ca <_Z10vector_varPsPKsm+0x50>
    800013ec:	00015517          	auipc	a0,0x15
    800013f0:	d8450513          	addi	a0,a0,-636 # 80016170 <__tbss_end+0x5ac>
    800013f4:	654120ef          	jal	80013a48 <puts>
    800013f8:	00015517          	auipc	a0,0x15
    800013fc:	c4850513          	addi	a0,a0,-952 # 80016040 <__tbss_end+0x47c>
    80001400:	648120ef          	jal	80013a48 <puts>
    80001404:	557d                	li	a0,-1
    80001406:	0f7110ef          	jal	80012cfc <exit>
    8000140a:	e7ffe0ef          	jal	80000288 <__cxa_throw_bad_array_new_length>

000000008000140e <_Z14vector_softmaxPsPKsms>:
    8000140e:	715d                	addi	sp,sp,-80
    80001410:	e486                	sd	ra,72(sp)
    80001412:	e0a2                	sd	s0,64(sp)
    80001414:	fc26                	sd	s1,56(sp)
    80001416:	f84a                	sd	s2,48(sp)
    80001418:	f44e                	sd	s3,40(sp)
    8000141a:	c141                	beqz	a0,8000149a <_Z14vector_softmaxPsPKsms+0x8c>
    8000141c:	842a                	mv	s0,a0
    8000141e:	00e10513          	addi	a0,sp,14
    80001422:	8932                	mv	s2,a2
    80001424:	89b6                	mv	s3,a3
    80001426:	84ae                	mv	s1,a1
    80001428:	391000ef          	jal	80001fb8 <_Z16tiled_vector_maxPsPKsm>
    8000142c:	00e11603          	lh	a2,14(sp)
    80001430:	86ca                	mv	a3,s2
    80001432:	85a6                	mv	a1,s1
    80001434:	8522                	mv	a0,s0
    80001436:	738000ef          	jal	80001b6e <_Z23tiled_vector_sub_scalarPsPKssm>
    8000143a:	04090963          	beqz	s2,8000148c <_Z14vector_softmaxPsPKsms+0x7e>
    8000143e:	ac22                	fsd	fs0,24(sp)
    80001440:	f2000453          	fmv.d.x	fs0,zero
    80001444:	0906                	slli	s2,s2,0x1
    80001446:	9922                	add	s2,s2,s0
    80001448:	84a2                	mv	s1,s0
    8000144a:	00049783          	lh	a5,0(s1)
    8000144e:	0489                	addi	s1,s1,2
    80001450:	d2078553          	fcvt.d.w	fa0,a5
    80001454:	42d0d0ef          	jal	8000f080 <exp>
    80001458:	02a47453          	fadd.d	fs0,fs0,fa0
    8000145c:	fe9917e3          	bne	s2,s1,8000144a <_Z14vector_softmaxPsPKsms+0x3c>
    80001460:	0040d797          	auipc	a5,0x40d
    80001464:	5707b707          	fld	fa4,1392(a5) # 8040e9d0 <__atexit_dummy+0x8>
    80001468:	1a877753          	fdiv.d	fa4,fa4,fs0
    8000146c:	00041783          	lh	a5,0(s0)
    80001470:	0409                	addi	s0,s0,2
    80001472:	033787bb          	mulw	a5,a5,s3
    80001476:	d20787d3          	fcvt.d.w	fa5,a5
    8000147a:	12e7f7d3          	fmul.d	fa5,fa5,fa4
    8000147e:	c20797d3          	fcvt.w.d	a5,fa5,rtz
    80001482:	fef41f23          	sh	a5,-2(s0)
    80001486:	fe8913e3          	bne	s2,s0,8000146c <_Z14vector_softmaxPsPKsms+0x5e>
    8000148a:	2462                	fld	fs0,24(sp)
    8000148c:	6406                	ld	s0,64(sp)
    8000148e:	60a6                	ld	ra,72(sp)
    80001490:	74e2                	ld	s1,56(sp)
    80001492:	7942                	ld	s2,48(sp)
    80001494:	79a2                	ld	s3,40(sp)
    80001496:	6161                	addi	sp,sp,80
    80001498:	8082                	ret
    8000149a:	00015517          	auipc	a0,0x15
    8000149e:	d2650513          	addi	a0,a0,-730 # 800161c0 <__tbss_end+0x5fc>
    800014a2:	ac22                	fsd	fs0,24(sp)
    800014a4:	5a4120ef          	jal	80013a48 <puts>
    800014a8:	00015517          	auipc	a0,0x15
    800014ac:	b9850513          	addi	a0,a0,-1128 # 80016040 <__tbss_end+0x47c>
    800014b0:	598120ef          	jal	80013a48 <puts>
    800014b4:	557d                	li	a0,-1
    800014b6:	047110ef          	jal	80012cfc <exit>

00000000800014ba <_Z10matrix_sumPsPKsmm>:
    800014ba:	cd31                	beqz	a0,80001516 <_Z10matrix_sumPsPKsmm+0x5c>
    800014bc:	ca19                	beqz	a2,800014d2 <_Z10matrix_sumPsPKsmm+0x18>
    800014be:	00169313          	slli	t1,a3,0x1
    800014c2:	959a                	add	a1,a1,t1
    800014c4:	00161e13          	slli	t3,a2,0x1
    800014c8:	4881                	li	a7,0
    800014ca:	ea81                	bnez	a3,800014da <_Z10matrix_sumPsPKsmm+0x20>
    800014cc:	0885                	addi	a7,a7,1
    800014ce:	ff161fe3          	bne	a2,a7,800014cc <_Z10matrix_sumPsPKsmm+0x12>
    800014d2:	4801                	li	a6,0
    800014d4:	01051023          	sh	a6,0(a0)
    800014d8:	8082                	ret
    800014da:	4801                	li	a6,0
    800014dc:	40658733          	sub	a4,a1,t1
    800014e0:	4781                	li	a5,0
    800014e2:	00075683          	lhu	a3,0(a4)
    800014e6:	0709                	addi	a4,a4,2
    800014e8:	9fb5                	addw	a5,a5,a3
    800014ea:	03079693          	slli	a3,a5,0x30
    800014ee:	0107979b          	slliw	a5,a5,0x10
    800014f2:	92c1                	srli	a3,a3,0x30
    800014f4:	4107d79b          	sraiw	a5,a5,0x10
    800014f8:	fee595e3          	bne	a1,a4,800014e2 <_Z10matrix_sumPsPKsmm+0x28>
    800014fc:	00d8083b          	addw	a6,a6,a3
    80001500:	0108181b          	slliw	a6,a6,0x10
    80001504:	0885                	addi	a7,a7,1
    80001506:	4108581b          	sraiw	a6,a6,0x10
    8000150a:	95f2                	add	a1,a1,t3
    8000150c:	fcc898e3          	bne	a7,a2,800014dc <_Z10matrix_sumPsPKsmm+0x22>
    80001510:	01051023          	sh	a6,0(a0)
    80001514:	8082                	ret
    80001516:	1141                	addi	sp,sp,-16
    80001518:	e406                	sd	ra,8(sp)
    8000151a:	d5bff0ef          	jal	80001274 <_Z10matrix_sumPsPKsmm.part.0>

000000008000151e <_Z10matrix_sumPsPKsmmm>:
    8000151e:	1141                	addi	sp,sp,-16
    80001520:	e406                	sd	ra,8(sp)
    80001522:	e022                	sd	s0,0(sp)
    80001524:	cd49                	beqz	a0,800015be <_Z10matrix_sumPsPKsmmm+0xa0>
    80001526:	842a                	mv	s0,a0
    80001528:	c741                	beqz	a4,800015b0 <_Z10matrix_sumPsPKsmmm+0x92>
    8000152a:	c259                	beqz	a2,800015b0 <_Z10matrix_sumPsPKsmmm+0x92>
    8000152c:	00169e93          	slli	t4,a3,0x1
    80001530:	01d582b3          	add	t0,a1,t4
    80001534:	00171513          	slli	a0,a4,0x1
    80001538:	00161f13          	slli	t5,a2,0x1
    8000153c:	4f81                	li	t6,0
    8000153e:	4381                	li	t2,0
    80001540:	8896                	mv	a7,t0
    80001542:	4e01                	li	t3,0
    80001544:	e68d                	bnez	a3,8000156e <_Z10matrix_sumPsPKsmmm+0x50>
    80001546:	0e05                	addi	t3,t3,1
    80001548:	ffc61fe3          	bne	a2,t3,80001546 <_Z10matrix_sumPsPKsmmm+0x28>
    8000154c:	4581                	li	a1,0
    8000154e:	00bf8fbb          	addw	t6,t6,a1
    80001552:	010f9f9b          	slliw	t6,t6,0x10
    80001556:	0385                	addi	t2,t2,1
    80001558:	410fdf9b          	sraiw	t6,t6,0x10
    8000155c:	92aa                	add	t0,t0,a0
    8000155e:	fee391e3          	bne	t2,a4,80001540 <_Z10matrix_sumPsPKsmmm+0x22>
    80001562:	60a2                	ld	ra,8(sp)
    80001564:	01f41023          	sh	t6,0(s0)
    80001568:	6402                	ld	s0,0(sp)
    8000156a:	0141                	addi	sp,sp,16
    8000156c:	8082                	ret
    8000156e:	4301                	li	t1,0
    80001570:	41d885b3          	sub	a1,a7,t4
    80001574:	4781                	li	a5,0
    80001576:	0005d803          	lhu	a6,0(a1)
    8000157a:	0589                	addi	a1,a1,2
    8000157c:	00f807bb          	addw	a5,a6,a5
    80001580:	03079813          	slli	a6,a5,0x30
    80001584:	0107979b          	slliw	a5,a5,0x10
    80001588:	03085813          	srli	a6,a6,0x30
    8000158c:	4107d79b          	sraiw	a5,a5,0x10
    80001590:	ff1593e3          	bne	a1,a7,80001576 <_Z10matrix_sumPsPKsmmm+0x58>
    80001594:	010307bb          	addw	a5,t1,a6
    80001598:	03079593          	slli	a1,a5,0x30
    8000159c:	0107931b          	slliw	t1,a5,0x10
    800015a0:	0e05                	addi	t3,t3,1
    800015a2:	98fa                	add	a7,a7,t5
    800015a4:	91c1                	srli	a1,a1,0x30
    800015a6:	4103531b          	sraiw	t1,t1,0x10
    800015aa:	fdc613e3          	bne	a2,t3,80001570 <_Z10matrix_sumPsPKsmmm+0x52>
    800015ae:	b745                	j	8000154e <_Z10matrix_sumPsPKsmmm+0x30>
    800015b0:	4f81                	li	t6,0
    800015b2:	60a2                	ld	ra,8(sp)
    800015b4:	01f41023          	sh	t6,0(s0)
    800015b8:	6402                	ld	s0,0(sp)
    800015ba:	0141                	addi	sp,sp,16
    800015bc:	8082                	ret
    800015be:	cb7ff0ef          	jal	80001274 <_Z10matrix_sumPsPKsmm.part.0>

00000000800015c2 <_Z11matrix_meanPsPKsmm>:
    800015c2:	c12d                	beqz	a0,80001624 <_Z11matrix_meanPsPKsmm+0x62>
    800015c4:	4801                	li	a6,0
    800015c6:	c205                	beqz	a2,800015e6 <_Z11matrix_meanPsPKsmm+0x24>
    800015c8:	00169313          	slli	t1,a3,0x1
    800015cc:	02d60eb3          	mul	t4,a2,a3
    800015d0:	959a                	add	a1,a1,t1
    800015d2:	00161e13          	slli	t3,a2,0x1
    800015d6:	4881                	li	a7,0
    800015d8:	ea91                	bnez	a3,800015ec <_Z11matrix_meanPsPKsmm+0x2a>
    800015da:	0885                	addi	a7,a7,1
    800015dc:	ff161fe3          	bne	a2,a7,800015da <_Z11matrix_meanPsPKsmm+0x18>
    800015e0:	4801                	li	a6,0
    800015e2:	03d85833          	divu	a6,a6,t4
    800015e6:	01051023          	sh	a6,0(a0)
    800015ea:	8082                	ret
    800015ec:	4801                	li	a6,0
    800015ee:	40658733          	sub	a4,a1,t1
    800015f2:	4781                	li	a5,0
    800015f4:	00075683          	lhu	a3,0(a4)
    800015f8:	0709                	addi	a4,a4,2
    800015fa:	9fb5                	addw	a5,a5,a3
    800015fc:	03079693          	slli	a3,a5,0x30
    80001600:	0107979b          	slliw	a5,a5,0x10
    80001604:	92c1                	srli	a3,a3,0x30
    80001606:	4107d79b          	sraiw	a5,a5,0x10
    8000160a:	fee595e3          	bne	a1,a4,800015f4 <_Z11matrix_meanPsPKsmm+0x32>
    8000160e:	00d8083b          	addw	a6,a6,a3
    80001612:	0108181b          	slliw	a6,a6,0x10
    80001616:	0885                	addi	a7,a7,1
    80001618:	4108581b          	sraiw	a6,a6,0x10
    8000161c:	95f2                	add	a1,a1,t3
    8000161e:	fd1618e3          	bne	a2,a7,800015ee <_Z11matrix_meanPsPKsmm+0x2c>
    80001622:	b7c1                	j	800015e2 <_Z11matrix_meanPsPKsmm+0x20>
    80001624:	1141                	addi	sp,sp,-16
    80001626:	00015517          	auipc	a0,0x15
    8000162a:	bea50513          	addi	a0,a0,-1046 # 80016210 <__tbss_end+0x64c>
    8000162e:	e406                	sd	ra,8(sp)
    80001630:	418120ef          	jal	80013a48 <puts>
    80001634:	00015517          	auipc	a0,0x15
    80001638:	a0c50513          	addi	a0,a0,-1524 # 80016040 <__tbss_end+0x47c>
    8000163c:	40c120ef          	jal	80013a48 <puts>
    80001640:	557d                	li	a0,-1
    80001642:	6ba110ef          	jal	80012cfc <exit>

0000000080001646 <_Z11matrix_meanPsPKsmmm>:
    80001646:	7139                	addi	sp,sp,-64
    80001648:	fc06                	sd	ra,56(sp)
    8000164a:	f822                	sd	s0,48(sp)
    8000164c:	f426                	sd	s1,40(sp)
    8000164e:	f04a                	sd	s2,32(sp)
    80001650:	ec4e                	sd	s3,24(sp)
    80001652:	cd05                	beqz	a0,8000168a <_Z11matrix_meanPsPKsmmm+0x44>
    80001654:	842a                	mv	s0,a0
    80001656:	00e10513          	addi	a0,sp,14
    8000165a:	84b2                	mv	s1,a2
    8000165c:	8936                	mv	s2,a3
    8000165e:	89ba                	mv	s3,a4
    80001660:	00011723          	sh	zero,14(sp)
    80001664:	ebbff0ef          	jal	8000151e <_Z10matrix_sumPsPKsmmm>
    80001668:	03390633          	mul	a2,s2,s3
    8000166c:	00e11783          	lh	a5,14(sp)
    80001670:	70e2                	ld	ra,56(sp)
    80001672:	7902                	ld	s2,32(sp)
    80001674:	69e2                	ld	s3,24(sp)
    80001676:	02960633          	mul	a2,a2,s1
    8000167a:	74a2                	ld	s1,40(sp)
    8000167c:	02c7d7b3          	divu	a5,a5,a2
    80001680:	00f41023          	sh	a5,0(s0)
    80001684:	7442                	ld	s0,48(sp)
    80001686:	6121                	addi	sp,sp,64
    80001688:	8082                	ret
    8000168a:	00015517          	auipc	a0,0x15
    8000168e:	b8650513          	addi	a0,a0,-1146 # 80016210 <__tbss_end+0x64c>
    80001692:	3b6120ef          	jal	80013a48 <puts>
    80001696:	00015517          	auipc	a0,0x15
    8000169a:	9aa50513          	addi	a0,a0,-1622 # 80016040 <__tbss_end+0x47c>
    8000169e:	3aa120ef          	jal	80013a48 <puts>
    800016a2:	557d                	li	a0,-1
    800016a4:	658110ef          	jal	80012cfc <exit>

00000000800016a8 <_Z14fit_vector_addPsPKsS1_m>:
    800016a8:	02000793          	li	a5,32
    800016ac:	02d7e263          	bltu	a5,a3,800016d0 <_Z14fit_vector_addPsPKsS1_m+0x28>
    800016b0:	872a                	mv	a4,a0
    800016b2:	8536                	mv	a0,a3
    800016b4:	1805200b          	.insn	4, 0x1805200b
    800016b8:	852e                	mv	a0,a1
    800016ba:	1005208b          	.insn	4, 0x1005208b
    800016be:	8532                	mv	a0,a2
    800016c0:	1005210b          	.insn	4, 0x1005210b
    800016c4:	0220818b          	.insn	4, 0x0220818b
    800016c8:	853a                	mv	a0,a4
    800016ca:	1235200b          	.insn	4, 0x1235200b
    800016ce:	8082                	ret
    800016d0:	1141                	addi	sp,sp,-16
    800016d2:	00015697          	auipc	a3,0x15
    800016d6:	b8e68693          	addi	a3,a3,-1138 # 80016260 <__tbss_end+0x69c>
    800016da:	00015617          	auipc	a2,0x15
    800016de:	b9e60613          	addi	a2,a2,-1122 # 80016278 <__tbss_end+0x6b4>
    800016e2:	4599                	li	a1,6
    800016e4:	00015517          	auipc	a0,0x15
    800016e8:	bdc50513          	addi	a0,a0,-1060 # 800162c0 <__tbss_end+0x6fc>
    800016ec:	e406                	sd	ra,8(sp)
    800016ee:	5c8110ef          	jal	80012cb6 <__assert_func>

00000000800016f2 <_Z16tiled_vector_addPsPKsS1_m>:
    800016f2:	cd49                	beqz	a0,8000178c <_Z16tiled_vector_addPsPKsS1_m+0x9a>
    800016f4:	02000793          	li	a5,32
    800016f8:	8e2a                	mv	t3,a0
    800016fa:	06d7fa63          	bgeu	a5,a3,8000176e <_Z16tiled_vector_addPsPKsS1_m+0x7c>
    800016fe:	01f6fe93          	andi	t4,a3,31
    80001702:	0056d313          	srli	t1,a3,0x5
    80001706:	88ae                	mv	a7,a1
    80001708:	8832                	mv	a6,a2
    8000170a:	872a                	mv	a4,a0
    8000170c:	4781                	li	a5,0
    8000170e:	02000513          	li	a0,32
    80001712:	1805200b          	.insn	4, 0x1805200b
    80001716:	8546                	mv	a0,a7
    80001718:	1005208b          	.insn	4, 0x1005208b
    8000171c:	8542                	mv	a0,a6
    8000171e:	1005210b          	.insn	4, 0x1005210b
    80001722:	0220818b          	.insn	4, 0x0220818b
    80001726:	853a                	mv	a0,a4
    80001728:	1235200b          	.insn	4, 0x1235200b
    8000172c:	0785                	addi	a5,a5,1
    8000172e:	04088893          	addi	a7,a7,64
    80001732:	04080813          	addi	a6,a6,64
    80001736:	04070713          	addi	a4,a4,64
    8000173a:	fcf31ae3          	bne	t1,a5,8000170e <_Z16tiled_vector_addPsPKsS1_m+0x1c>
    8000173e:	000e9363          	bnez	t4,80001744 <_Z16tiled_vector_addPsPKsS1_m+0x52>
    80001742:	8082                	ret
    80001744:	41d686b3          	sub	a3,a3,t4
    80001748:	0686                	slli	a3,a3,0x1
    8000174a:	8576                	mv	a0,t4
    8000174c:	1805200b          	.insn	4, 0x1805200b
    80001750:	00d58533          	add	a0,a1,a3
    80001754:	1005208b          	.insn	4, 0x1005208b
    80001758:	00d60533          	add	a0,a2,a3
    8000175c:	1005210b          	.insn	4, 0x1005210b
    80001760:	0220818b          	.insn	4, 0x0220818b
    80001764:	00de0533          	add	a0,t3,a3
    80001768:	1235200b          	.insn	4, 0x1235200b
    8000176c:	8082                	ret
    8000176e:	8536                	mv	a0,a3
    80001770:	1805200b          	.insn	4, 0x1805200b
    80001774:	852e                	mv	a0,a1
    80001776:	1005208b          	.insn	4, 0x1005208b
    8000177a:	8532                	mv	a0,a2
    8000177c:	1005210b          	.insn	4, 0x1005210b
    80001780:	0220818b          	.insn	4, 0x0220818b
    80001784:	8572                	mv	a0,t3
    80001786:	1235200b          	.insn	4, 0x1235200b
    8000178a:	8082                	ret
    8000178c:	1101                	addi	sp,sp,-32
    8000178e:	00015517          	auipc	a0,0x15
    80001792:	b4a50513          	addi	a0,a0,-1206 # 800162d8 <__tbss_end+0x714>
    80001796:	ec06                	sd	ra,24(sp)
    80001798:	e436                	sd	a3,8(sp)
    8000179a:	2ae120ef          	jal	80013a48 <puts>
    8000179e:	65a2                	ld	a1,8(sp)
    800017a0:	00015517          	auipc	a0,0x15
    800017a4:	b8850513          	addi	a0,a0,-1144 # 80016328 <__tbss_end+0x764>
    800017a8:	15a120ef          	jal	80013902 <iprintf>
    800017ac:	557d                	li	a0,-1
    800017ae:	54e110ef          	jal	80012cfc <exit>

00000000800017b2 <_Z23tiled_matrix_vector_addPsPKsS1_mm>:
    800017b2:	7139                	addi	sp,sp,-64
    800017b4:	e852                	sd	s4,16(sp)
    800017b6:	e456                	sd	s5,8(sp)
    800017b8:	fc06                	sd	ra,56(sp)
    800017ba:	8a36                	mv	s4,a3
    800017bc:	8aba                	mv	s5,a4
    800017be:	c131                	beqz	a0,80001802 <_Z23tiled_matrix_vector_addPsPKsS1_mm+0x50>
    800017c0:	ce85                	beqz	a3,800017f8 <_Z23tiled_matrix_vector_addPsPKsS1_mm+0x46>
    800017c2:	f822                	sd	s0,48(sp)
    800017c4:	f426                	sd	s1,40(sp)
    800017c6:	f04a                	sd	s2,32(sp)
    800017c8:	ec4e                	sd	s3,24(sp)
    800017ca:	e05a                	sd	s6,0(sp)
    800017cc:	842a                	mv	s0,a0
    800017ce:	8b32                	mv	s6,a2
    800017d0:	84ae                	mv	s1,a1
    800017d2:	00171993          	slli	s3,a4,0x1
    800017d6:	4901                	li	s2,0
    800017d8:	85a6                	mv	a1,s1
    800017da:	8522                	mv	a0,s0
    800017dc:	86d6                	mv	a3,s5
    800017de:	865a                	mv	a2,s6
    800017e0:	0905                	addi	s2,s2,1
    800017e2:	f11ff0ef          	jal	800016f2 <_Z16tiled_vector_addPsPKsS1_m>
    800017e6:	944e                	add	s0,s0,s3
    800017e8:	94ce                	add	s1,s1,s3
    800017ea:	ff2a17e3          	bne	s4,s2,800017d8 <_Z23tiled_matrix_vector_addPsPKsS1_mm+0x26>
    800017ee:	7442                	ld	s0,48(sp)
    800017f0:	74a2                	ld	s1,40(sp)
    800017f2:	7902                	ld	s2,32(sp)
    800017f4:	69e2                	ld	s3,24(sp)
    800017f6:	6b02                	ld	s6,0(sp)
    800017f8:	70e2                	ld	ra,56(sp)
    800017fa:	6a42                	ld	s4,16(sp)
    800017fc:	6aa2                	ld	s5,8(sp)
    800017fe:	6121                	addi	sp,sp,64
    80001800:	8082                	ret
    80001802:	00015517          	auipc	a0,0x15
    80001806:	b4650513          	addi	a0,a0,-1210 # 80016348 <__tbss_end+0x784>
    8000180a:	f822                	sd	s0,48(sp)
    8000180c:	f426                	sd	s1,40(sp)
    8000180e:	f04a                	sd	s2,32(sp)
    80001810:	ec4e                	sd	s3,24(sp)
    80001812:	e05a                	sd	s6,0(sp)
    80001814:	234120ef          	jal	80013a48 <puts>
    80001818:	8656                	mv	a2,s5
    8000181a:	85d2                	mv	a1,s4
    8000181c:	00015517          	auipc	a0,0x15
    80001820:	b8450513          	addi	a0,a0,-1148 # 800163a0 <__tbss_end+0x7dc>
    80001824:	0de120ef          	jal	80013902 <iprintf>
    80001828:	557d                	li	a0,-1
    8000182a:	4d2110ef          	jal	80012cfc <exit>

000000008000182e <_Z14fit_vector_subPsPKsS1_m>:
    8000182e:	02000793          	li	a5,32
    80001832:	02d7e263          	bltu	a5,a3,80001856 <_Z14fit_vector_subPsPKsS1_m+0x28>
    80001836:	872a                	mv	a4,a0
    80001838:	8536                	mv	a0,a3
    8000183a:	1805200b          	.insn	4, 0x1805200b
    8000183e:	852e                	mv	a0,a1
    80001840:	1005208b          	.insn	4, 0x1005208b
    80001844:	8532                	mv	a0,a2
    80001846:	1005210b          	.insn	4, 0x1005210b
    8000184a:	0420818b          	.insn	4, 0x0420818b
    8000184e:	853a                	mv	a0,a4
    80001850:	1235200b          	.insn	4, 0x1235200b
    80001854:	8082                	ret
    80001856:	1141                	addi	sp,sp,-16
    80001858:	00015697          	auipc	a3,0x15
    8000185c:	a0868693          	addi	a3,a3,-1528 # 80016260 <__tbss_end+0x69c>
    80001860:	00015617          	auipc	a2,0x15
    80001864:	b7060613          	addi	a2,a2,-1168 # 800163d0 <__tbss_end+0x80c>
    80001868:	03600593          	li	a1,54
    8000186c:	00015517          	auipc	a0,0x15
    80001870:	a5450513          	addi	a0,a0,-1452 # 800162c0 <__tbss_end+0x6fc>
    80001874:	e406                	sd	ra,8(sp)
    80001876:	440110ef          	jal	80012cb6 <__assert_func>

000000008000187a <_Z16tiled_vector_subPsPKsS1_m>:
    8000187a:	cd49                	beqz	a0,80001914 <_Z16tiled_vector_subPsPKsS1_m+0x9a>
    8000187c:	02000793          	li	a5,32
    80001880:	8e2a                	mv	t3,a0
    80001882:	06d7fa63          	bgeu	a5,a3,800018f6 <_Z16tiled_vector_subPsPKsS1_m+0x7c>
    80001886:	01f6fe93          	andi	t4,a3,31
    8000188a:	0056d313          	srli	t1,a3,0x5
    8000188e:	88ae                	mv	a7,a1
    80001890:	8832                	mv	a6,a2
    80001892:	872a                	mv	a4,a0
    80001894:	4781                	li	a5,0
    80001896:	02000513          	li	a0,32
    8000189a:	1805200b          	.insn	4, 0x1805200b
    8000189e:	8546                	mv	a0,a7
    800018a0:	1005208b          	.insn	4, 0x1005208b
    800018a4:	8542                	mv	a0,a6
    800018a6:	1005210b          	.insn	4, 0x1005210b
    800018aa:	0420818b          	.insn	4, 0x0420818b
    800018ae:	853a                	mv	a0,a4
    800018b0:	1235200b          	.insn	4, 0x1235200b
    800018b4:	0785                	addi	a5,a5,1
    800018b6:	04088893          	addi	a7,a7,64
    800018ba:	04080813          	addi	a6,a6,64
    800018be:	04070713          	addi	a4,a4,64
    800018c2:	fcf31ae3          	bne	t1,a5,80001896 <_Z16tiled_vector_subPsPKsS1_m+0x1c>
    800018c6:	000e9363          	bnez	t4,800018cc <_Z16tiled_vector_subPsPKsS1_m+0x52>
    800018ca:	8082                	ret
    800018cc:	41d686b3          	sub	a3,a3,t4
    800018d0:	0686                	slli	a3,a3,0x1
    800018d2:	8576                	mv	a0,t4
    800018d4:	1805200b          	.insn	4, 0x1805200b
    800018d8:	00d58533          	add	a0,a1,a3
    800018dc:	1005208b          	.insn	4, 0x1005208b
    800018e0:	00d60533          	add	a0,a2,a3
    800018e4:	1005210b          	.insn	4, 0x1005210b
    800018e8:	0420818b          	.insn	4, 0x0420818b
    800018ec:	00de0533          	add	a0,t3,a3
    800018f0:	1235200b          	.insn	4, 0x1235200b
    800018f4:	8082                	ret
    800018f6:	8536                	mv	a0,a3
    800018f8:	1805200b          	.insn	4, 0x1805200b
    800018fc:	852e                	mv	a0,a1
    800018fe:	1005208b          	.insn	4, 0x1005208b
    80001902:	8532                	mv	a0,a2
    80001904:	1005210b          	.insn	4, 0x1005210b
    80001908:	0420818b          	.insn	4, 0x0420818b
    8000190c:	8572                	mv	a0,t3
    8000190e:	1235200b          	.insn	4, 0x1235200b
    80001912:	8082                	ret
    80001914:	1101                	addi	sp,sp,-32
    80001916:	00015517          	auipc	a0,0x15
    8000191a:	b0250513          	addi	a0,a0,-1278 # 80016418 <__tbss_end+0x854>
    8000191e:	ec06                	sd	ra,24(sp)
    80001920:	e436                	sd	a3,8(sp)
    80001922:	126120ef          	jal	80013a48 <puts>
    80001926:	65a2                	ld	a1,8(sp)
    80001928:	00015517          	auipc	a0,0x15
    8000192c:	a0050513          	addi	a0,a0,-1536 # 80016328 <__tbss_end+0x764>
    80001930:	7d3110ef          	jal	80013902 <iprintf>
    80001934:	557d                	li	a0,-1
    80001936:	3c6110ef          	jal	80012cfc <exit>

000000008000193a <_Z23tiled_matrix_vector_subPsPKsS1_mm>:
    8000193a:	7139                	addi	sp,sp,-64
    8000193c:	e852                	sd	s4,16(sp)
    8000193e:	e456                	sd	s5,8(sp)
    80001940:	fc06                	sd	ra,56(sp)
    80001942:	8a36                	mv	s4,a3
    80001944:	8aba                	mv	s5,a4
    80001946:	c131                	beqz	a0,8000198a <_Z23tiled_matrix_vector_subPsPKsS1_mm+0x50>
    80001948:	ce85                	beqz	a3,80001980 <_Z23tiled_matrix_vector_subPsPKsS1_mm+0x46>
    8000194a:	f822                	sd	s0,48(sp)
    8000194c:	f426                	sd	s1,40(sp)
    8000194e:	f04a                	sd	s2,32(sp)
    80001950:	ec4e                	sd	s3,24(sp)
    80001952:	e05a                	sd	s6,0(sp)
    80001954:	842a                	mv	s0,a0
    80001956:	8b32                	mv	s6,a2
    80001958:	84ae                	mv	s1,a1
    8000195a:	00171993          	slli	s3,a4,0x1
    8000195e:	4901                	li	s2,0
    80001960:	85a6                	mv	a1,s1
    80001962:	8522                	mv	a0,s0
    80001964:	86d6                	mv	a3,s5
    80001966:	865a                	mv	a2,s6
    80001968:	0905                	addi	s2,s2,1
    8000196a:	f11ff0ef          	jal	8000187a <_Z16tiled_vector_subPsPKsS1_m>
    8000196e:	944e                	add	s0,s0,s3
    80001970:	94ce                	add	s1,s1,s3
    80001972:	ff2a17e3          	bne	s4,s2,80001960 <_Z23tiled_matrix_vector_subPsPKsS1_mm+0x26>
    80001976:	7442                	ld	s0,48(sp)
    80001978:	74a2                	ld	s1,40(sp)
    8000197a:	7902                	ld	s2,32(sp)
    8000197c:	69e2                	ld	s3,24(sp)
    8000197e:	6b02                	ld	s6,0(sp)
    80001980:	70e2                	ld	ra,56(sp)
    80001982:	6a42                	ld	s4,16(sp)
    80001984:	6aa2                	ld	s5,8(sp)
    80001986:	6121                	addi	sp,sp,64
    80001988:	8082                	ret
    8000198a:	00015517          	auipc	a0,0x15
    8000198e:	ade50513          	addi	a0,a0,-1314 # 80016468 <__tbss_end+0x8a4>
    80001992:	f822                	sd	s0,48(sp)
    80001994:	f426                	sd	s1,40(sp)
    80001996:	f04a                	sd	s2,32(sp)
    80001998:	ec4e                	sd	s3,24(sp)
    8000199a:	e05a                	sd	s6,0(sp)
    8000199c:	0ac120ef          	jal	80013a48 <puts>
    800019a0:	8656                	mv	a2,s5
    800019a2:	85d2                	mv	a1,s4
    800019a4:	00015517          	auipc	a0,0x15
    800019a8:	9fc50513          	addi	a0,a0,-1540 # 800163a0 <__tbss_end+0x7dc>
    800019ac:	757110ef          	jal	80013902 <iprintf>
    800019b0:	557d                	li	a0,-1
    800019b2:	34a110ef          	jal	80012cfc <exit>

00000000800019b6 <_Z21fit_vector_add_scalarPsPKssm>:
    800019b6:	02000793          	li	a5,32
    800019ba:	02d7e063          	bltu	a5,a3,800019da <_Z21fit_vector_add_scalarPsPKssm+0x24>
    800019be:	872a                	mv	a4,a0
    800019c0:	8536                	mv	a0,a3
    800019c2:	1805200b          	.insn	4, 0x1805200b
    800019c6:	852e                	mv	a0,a1
    800019c8:	1005208b          	.insn	4, 0x1005208b
    800019cc:	8532                	mv	a0,a2
    800019ce:	0615210b          	.insn	4, 0x0615210b
    800019d2:	853a                	mv	a0,a4
    800019d4:	1235200b          	.insn	4, 0x1235200b
    800019d8:	8082                	ret
    800019da:	1141                	addi	sp,sp,-16
    800019dc:	00015697          	auipc	a3,0x15
    800019e0:	88468693          	addi	a3,a3,-1916 # 80016260 <__tbss_end+0x69c>
    800019e4:	00015617          	auipc	a2,0x15
    800019e8:	adc60613          	addi	a2,a2,-1316 # 800164c0 <__tbss_end+0x8fc>
    800019ec:	06600593          	li	a1,102
    800019f0:	00015517          	auipc	a0,0x15
    800019f4:	8d050513          	addi	a0,a0,-1840 # 800162c0 <__tbss_end+0x6fc>
    800019f8:	e406                	sd	ra,8(sp)
    800019fa:	2bc110ef          	jal	80012cb6 <__assert_func>

00000000800019fe <_Z23tiled_vector_add_scalarPsPKssm>:
    800019fe:	c159                	beqz	a0,80001a84 <_Z23tiled_vector_add_scalarPsPKssm+0x86>
    80001a00:	02000793          	li	a5,32
    80001a04:	832a                	mv	t1,a0
    80001a06:	06d7f263          	bgeu	a5,a3,80001a6a <_Z23tiled_vector_add_scalarPsPKssm+0x6c>
    80001a0a:	01f6fe13          	andi	t3,a3,31
    80001a0e:	0056d893          	srli	a7,a3,0x5
    80001a12:	882e                	mv	a6,a1
    80001a14:	872a                	mv	a4,a0
    80001a16:	4781                	li	a5,0
    80001a18:	02000513          	li	a0,32
    80001a1c:	1805200b          	.insn	4, 0x1805200b
    80001a20:	8542                	mv	a0,a6
    80001a22:	1005208b          	.insn	4, 0x1005208b
    80001a26:	8532                	mv	a0,a2
    80001a28:	0615210b          	.insn	4, 0x0615210b
    80001a2c:	853a                	mv	a0,a4
    80001a2e:	1235200b          	.insn	4, 0x1235200b
    80001a32:	0785                	addi	a5,a5,1
    80001a34:	04080813          	addi	a6,a6,64
    80001a38:	04070713          	addi	a4,a4,64
    80001a3c:	fcf89ee3          	bne	a7,a5,80001a18 <_Z23tiled_vector_add_scalarPsPKssm+0x1a>
    80001a40:	000e1363          	bnez	t3,80001a46 <_Z23tiled_vector_add_scalarPsPKssm+0x48>
    80001a44:	8082                	ret
    80001a46:	41c686b3          	sub	a3,a3,t3
    80001a4a:	0686                	slli	a3,a3,0x1
    80001a4c:	8572                	mv	a0,t3
    80001a4e:	1805200b          	.insn	4, 0x1805200b
    80001a52:	00d58533          	add	a0,a1,a3
    80001a56:	1005208b          	.insn	4, 0x1005208b
    80001a5a:	8532                	mv	a0,a2
    80001a5c:	0615210b          	.insn	4, 0x0615210b
    80001a60:	00d30533          	add	a0,t1,a3
    80001a64:	1235200b          	.insn	4, 0x1235200b
    80001a68:	8082                	ret
    80001a6a:	8536                	mv	a0,a3
    80001a6c:	1805200b          	.insn	4, 0x1805200b
    80001a70:	852e                	mv	a0,a1
    80001a72:	1005208b          	.insn	4, 0x1005208b
    80001a76:	8532                	mv	a0,a2
    80001a78:	0615210b          	.insn	4, 0x0615210b
    80001a7c:	851a                	mv	a0,t1
    80001a7e:	1235200b          	.insn	4, 0x1235200b
    80001a82:	8082                	ret
    80001a84:	1101                	addi	sp,sp,-32
    80001a86:	00015517          	auipc	a0,0x15
    80001a8a:	a8250513          	addi	a0,a0,-1406 # 80016508 <__tbss_end+0x944>
    80001a8e:	ec06                	sd	ra,24(sp)
    80001a90:	e436                	sd	a3,8(sp)
    80001a92:	7b7110ef          	jal	80013a48 <puts>
    80001a96:	65a2                	ld	a1,8(sp)
    80001a98:	00015517          	auipc	a0,0x15
    80001a9c:	89050513          	addi	a0,a0,-1904 # 80016328 <__tbss_end+0x764>
    80001aa0:	663110ef          	jal	80013902 <iprintf>
    80001aa4:	557d                	li	a0,-1
    80001aa6:	256110ef          	jal	80012cfc <exit>

0000000080001aaa <_Z23tiled_matrix_add_scalarPsPKssmm>:
    80001aaa:	7139                	addi	sp,sp,-64
    80001aac:	e852                	sd	s4,16(sp)
    80001aae:	e456                	sd	s5,8(sp)
    80001ab0:	fc06                	sd	ra,56(sp)
    80001ab2:	8a36                	mv	s4,a3
    80001ab4:	8aba                	mv	s5,a4
    80001ab6:	c131                	beqz	a0,80001afa <_Z23tiled_matrix_add_scalarPsPKssmm+0x50>
    80001ab8:	ce85                	beqz	a3,80001af0 <_Z23tiled_matrix_add_scalarPsPKssmm+0x46>
    80001aba:	f822                	sd	s0,48(sp)
    80001abc:	f426                	sd	s1,40(sp)
    80001abe:	f04a                	sd	s2,32(sp)
    80001ac0:	ec4e                	sd	s3,24(sp)
    80001ac2:	e05a                	sd	s6,0(sp)
    80001ac4:	842a                	mv	s0,a0
    80001ac6:	8b32                	mv	s6,a2
    80001ac8:	84ae                	mv	s1,a1
    80001aca:	00171993          	slli	s3,a4,0x1
    80001ace:	4901                	li	s2,0
    80001ad0:	85a6                	mv	a1,s1
    80001ad2:	8522                	mv	a0,s0
    80001ad4:	86d6                	mv	a3,s5
    80001ad6:	865a                	mv	a2,s6
    80001ad8:	0905                	addi	s2,s2,1
    80001ada:	f25ff0ef          	jal	800019fe <_Z23tiled_vector_add_scalarPsPKssm>
    80001ade:	944e                	add	s0,s0,s3
    80001ae0:	94ce                	add	s1,s1,s3
    80001ae2:	ff2a17e3          	bne	s4,s2,80001ad0 <_Z23tiled_matrix_add_scalarPsPKssmm+0x26>
    80001ae6:	7442                	ld	s0,48(sp)
    80001ae8:	74a2                	ld	s1,40(sp)
    80001aea:	7902                	ld	s2,32(sp)
    80001aec:	69e2                	ld	s3,24(sp)
    80001aee:	6b02                	ld	s6,0(sp)
    80001af0:	70e2                	ld	ra,56(sp)
    80001af2:	6a42                	ld	s4,16(sp)
    80001af4:	6aa2                	ld	s5,8(sp)
    80001af6:	6121                	addi	sp,sp,64
    80001af8:	8082                	ret
    80001afa:	00015517          	auipc	a0,0x15
    80001afe:	a6650513          	addi	a0,a0,-1434 # 80016560 <__tbss_end+0x99c>
    80001b02:	f822                	sd	s0,48(sp)
    80001b04:	f426                	sd	s1,40(sp)
    80001b06:	f04a                	sd	s2,32(sp)
    80001b08:	ec4e                	sd	s3,24(sp)
    80001b0a:	e05a                	sd	s6,0(sp)
    80001b0c:	73d110ef          	jal	80013a48 <puts>
    80001b10:	8656                	mv	a2,s5
    80001b12:	85d2                	mv	a1,s4
    80001b14:	00015517          	auipc	a0,0x15
    80001b18:	88c50513          	addi	a0,a0,-1908 # 800163a0 <__tbss_end+0x7dc>
    80001b1c:	5e7110ef          	jal	80013902 <iprintf>
    80001b20:	557d                	li	a0,-1
    80001b22:	1da110ef          	jal	80012cfc <exit>

0000000080001b26 <_Z21fit_vector_sub_scalarPsPKssm>:
    80001b26:	02000793          	li	a5,32
    80001b2a:	02d7e063          	bltu	a5,a3,80001b4a <_Z21fit_vector_sub_scalarPsPKssm+0x24>
    80001b2e:	872a                	mv	a4,a0
    80001b30:	8536                	mv	a0,a3
    80001b32:	1805200b          	.insn	4, 0x1805200b
    80001b36:	852e                	mv	a0,a1
    80001b38:	1005208b          	.insn	4, 0x1005208b
    80001b3c:	8532                	mv	a0,a2
    80001b3e:	0815210b          	.insn	4, 0x0815210b
    80001b42:	853a                	mv	a0,a4
    80001b44:	1235200b          	.insn	4, 0x1235200b
    80001b48:	8082                	ret
    80001b4a:	1141                	addi	sp,sp,-16
    80001b4c:	00014697          	auipc	a3,0x14
    80001b50:	71468693          	addi	a3,a3,1812 # 80016260 <__tbss_end+0x69c>
    80001b54:	00015617          	auipc	a2,0x15
    80001b58:	a6460613          	addi	a2,a2,-1436 # 800165b8 <__tbss_end+0x9f4>
    80001b5c:	09500593          	li	a1,149
    80001b60:	00014517          	auipc	a0,0x14
    80001b64:	76050513          	addi	a0,a0,1888 # 800162c0 <__tbss_end+0x6fc>
    80001b68:	e406                	sd	ra,8(sp)
    80001b6a:	14c110ef          	jal	80012cb6 <__assert_func>

0000000080001b6e <_Z23tiled_vector_sub_scalarPsPKssm>:
    80001b6e:	c159                	beqz	a0,80001bf4 <_Z23tiled_vector_sub_scalarPsPKssm+0x86>
    80001b70:	02000793          	li	a5,32
    80001b74:	832a                	mv	t1,a0
    80001b76:	06d7f263          	bgeu	a5,a3,80001bda <_Z23tiled_vector_sub_scalarPsPKssm+0x6c>
    80001b7a:	01f6fe13          	andi	t3,a3,31
    80001b7e:	0056d893          	srli	a7,a3,0x5
    80001b82:	882e                	mv	a6,a1
    80001b84:	872a                	mv	a4,a0
    80001b86:	4781                	li	a5,0
    80001b88:	02000513          	li	a0,32
    80001b8c:	1805200b          	.insn	4, 0x1805200b
    80001b90:	8542                	mv	a0,a6
    80001b92:	1005208b          	.insn	4, 0x1005208b
    80001b96:	8532                	mv	a0,a2
    80001b98:	0815210b          	.insn	4, 0x0815210b
    80001b9c:	853a                	mv	a0,a4
    80001b9e:	1235200b          	.insn	4, 0x1235200b
    80001ba2:	0785                	addi	a5,a5,1
    80001ba4:	04080813          	addi	a6,a6,64
    80001ba8:	04070713          	addi	a4,a4,64
    80001bac:	fcf89ee3          	bne	a7,a5,80001b88 <_Z23tiled_vector_sub_scalarPsPKssm+0x1a>
    80001bb0:	000e1363          	bnez	t3,80001bb6 <_Z23tiled_vector_sub_scalarPsPKssm+0x48>
    80001bb4:	8082                	ret
    80001bb6:	41c686b3          	sub	a3,a3,t3
    80001bba:	0686                	slli	a3,a3,0x1
    80001bbc:	8572                	mv	a0,t3
    80001bbe:	1805200b          	.insn	4, 0x1805200b
    80001bc2:	00d58533          	add	a0,a1,a3
    80001bc6:	1005208b          	.insn	4, 0x1005208b
    80001bca:	8532                	mv	a0,a2
    80001bcc:	0815210b          	.insn	4, 0x0815210b
    80001bd0:	00d30533          	add	a0,t1,a3
    80001bd4:	1235200b          	.insn	4, 0x1235200b
    80001bd8:	8082                	ret
    80001bda:	8536                	mv	a0,a3
    80001bdc:	1805200b          	.insn	4, 0x1805200b
    80001be0:	852e                	mv	a0,a1
    80001be2:	1005208b          	.insn	4, 0x1005208b
    80001be6:	8532                	mv	a0,a2
    80001be8:	0815210b          	.insn	4, 0x0815210b
    80001bec:	851a                	mv	a0,t1
    80001bee:	1235200b          	.insn	4, 0x1235200b
    80001bf2:	8082                	ret
    80001bf4:	1101                	addi	sp,sp,-32
    80001bf6:	00015517          	auipc	a0,0x15
    80001bfa:	a0a50513          	addi	a0,a0,-1526 # 80016600 <__tbss_end+0xa3c>
    80001bfe:	ec06                	sd	ra,24(sp)
    80001c00:	e436                	sd	a3,8(sp)
    80001c02:	647110ef          	jal	80013a48 <puts>
    80001c06:	65a2                	ld	a1,8(sp)
    80001c08:	00014517          	auipc	a0,0x14
    80001c0c:	72050513          	addi	a0,a0,1824 # 80016328 <__tbss_end+0x764>
    80001c10:	4f3110ef          	jal	80013902 <iprintf>
    80001c14:	557d                	li	a0,-1
    80001c16:	0e6110ef          	jal	80012cfc <exit>

0000000080001c1a <_Z23tiled_matrix_sub_scalarPsPKssmm>:
    80001c1a:	7139                	addi	sp,sp,-64
    80001c1c:	e852                	sd	s4,16(sp)
    80001c1e:	e456                	sd	s5,8(sp)
    80001c20:	fc06                	sd	ra,56(sp)
    80001c22:	8a36                	mv	s4,a3
    80001c24:	8aba                	mv	s5,a4
    80001c26:	c131                	beqz	a0,80001c6a <_Z23tiled_matrix_sub_scalarPsPKssmm+0x50>
    80001c28:	ce85                	beqz	a3,80001c60 <_Z23tiled_matrix_sub_scalarPsPKssmm+0x46>
    80001c2a:	f822                	sd	s0,48(sp)
    80001c2c:	f426                	sd	s1,40(sp)
    80001c2e:	f04a                	sd	s2,32(sp)
    80001c30:	ec4e                	sd	s3,24(sp)
    80001c32:	e05a                	sd	s6,0(sp)
    80001c34:	842a                	mv	s0,a0
    80001c36:	8b32                	mv	s6,a2
    80001c38:	84ae                	mv	s1,a1
    80001c3a:	00171993          	slli	s3,a4,0x1
    80001c3e:	4901                	li	s2,0
    80001c40:	85a6                	mv	a1,s1
    80001c42:	8522                	mv	a0,s0
    80001c44:	86d6                	mv	a3,s5
    80001c46:	865a                	mv	a2,s6
    80001c48:	0905                	addi	s2,s2,1
    80001c4a:	f25ff0ef          	jal	80001b6e <_Z23tiled_vector_sub_scalarPsPKssm>
    80001c4e:	944e                	add	s0,s0,s3
    80001c50:	94ce                	add	s1,s1,s3
    80001c52:	ff2a17e3          	bne	s4,s2,80001c40 <_Z23tiled_matrix_sub_scalarPsPKssmm+0x26>
    80001c56:	7442                	ld	s0,48(sp)
    80001c58:	74a2                	ld	s1,40(sp)
    80001c5a:	7902                	ld	s2,32(sp)
    80001c5c:	69e2                	ld	s3,24(sp)
    80001c5e:	6b02                	ld	s6,0(sp)
    80001c60:	70e2                	ld	ra,56(sp)
    80001c62:	6a42                	ld	s4,16(sp)
    80001c64:	6aa2                	ld	s5,8(sp)
    80001c66:	6121                	addi	sp,sp,64
    80001c68:	8082                	ret
    80001c6a:	00015517          	auipc	a0,0x15
    80001c6e:	9ee50513          	addi	a0,a0,-1554 # 80016658 <__tbss_end+0xa94>
    80001c72:	f822                	sd	s0,48(sp)
    80001c74:	f426                	sd	s1,40(sp)
    80001c76:	f04a                	sd	s2,32(sp)
    80001c78:	ec4e                	sd	s3,24(sp)
    80001c7a:	e05a                	sd	s6,0(sp)
    80001c7c:	5cd110ef          	jal	80013a48 <puts>
    80001c80:	8656                	mv	a2,s5
    80001c82:	85d2                	mv	a1,s4
    80001c84:	00014517          	auipc	a0,0x14
    80001c88:	71c50513          	addi	a0,a0,1820 # 800163a0 <__tbss_end+0x7dc>
    80001c8c:	477110ef          	jal	80013902 <iprintf>
    80001c90:	557d                	li	a0,-1
    80001c92:	06a110ef          	jal	80012cfc <exit>

0000000080001c96 <_Z21fit_vector_mul_scalarPsPKssm>:
    80001c96:	02000793          	li	a5,32
    80001c9a:	02d7e063          	bltu	a5,a3,80001cba <_Z21fit_vector_mul_scalarPsPKssm+0x24>
    80001c9e:	872a                	mv	a4,a0
    80001ca0:	8536                	mv	a0,a3
    80001ca2:	1805200b          	.insn	4, 0x1805200b
    80001ca6:	852e                	mv	a0,a1
    80001ca8:	1005208b          	.insn	4, 0x1005208b
    80001cac:	8532                	mv	a0,a2
    80001cae:	0a15210b          	.insn	4, 0x0a15210b
    80001cb2:	853a                	mv	a0,a4
    80001cb4:	1235200b          	.insn	4, 0x1235200b
    80001cb8:	8082                	ret
    80001cba:	1141                	addi	sp,sp,-16
    80001cbc:	00014697          	auipc	a3,0x14
    80001cc0:	5a468693          	addi	a3,a3,1444 # 80016260 <__tbss_end+0x69c>
    80001cc4:	00015617          	auipc	a2,0x15
    80001cc8:	9ec60613          	addi	a2,a2,-1556 # 800166b0 <__tbss_end+0xaec>
    80001ccc:	0c400593          	li	a1,196
    80001cd0:	00014517          	auipc	a0,0x14
    80001cd4:	5f050513          	addi	a0,a0,1520 # 800162c0 <__tbss_end+0x6fc>
    80001cd8:	e406                	sd	ra,8(sp)
    80001cda:	7dd100ef          	jal	80012cb6 <__assert_func>

0000000080001cde <_Z23tiled_vector_mul_scalarPsPKssm>:
    80001cde:	c159                	beqz	a0,80001d64 <_Z23tiled_vector_mul_scalarPsPKssm+0x86>
    80001ce0:	02000793          	li	a5,32
    80001ce4:	832a                	mv	t1,a0
    80001ce6:	06d7f263          	bgeu	a5,a3,80001d4a <_Z23tiled_vector_mul_scalarPsPKssm+0x6c>
    80001cea:	01f6fe13          	andi	t3,a3,31
    80001cee:	0056d893          	srli	a7,a3,0x5
    80001cf2:	882e                	mv	a6,a1
    80001cf4:	872a                	mv	a4,a0
    80001cf6:	4781                	li	a5,0
    80001cf8:	02000513          	li	a0,32
    80001cfc:	1805200b          	.insn	4, 0x1805200b
    80001d00:	8542                	mv	a0,a6
    80001d02:	1005208b          	.insn	4, 0x1005208b
    80001d06:	8532                	mv	a0,a2
    80001d08:	0a15210b          	.insn	4, 0x0a15210b
    80001d0c:	853a                	mv	a0,a4
    80001d0e:	1235200b          	.insn	4, 0x1235200b
    80001d12:	0785                	addi	a5,a5,1
    80001d14:	04080813          	addi	a6,a6,64
    80001d18:	04070713          	addi	a4,a4,64
    80001d1c:	fcf89ee3          	bne	a7,a5,80001cf8 <_Z23tiled_vector_mul_scalarPsPKssm+0x1a>
    80001d20:	000e1363          	bnez	t3,80001d26 <_Z23tiled_vector_mul_scalarPsPKssm+0x48>
    80001d24:	8082                	ret
    80001d26:	41c686b3          	sub	a3,a3,t3
    80001d2a:	0686                	slli	a3,a3,0x1
    80001d2c:	8572                	mv	a0,t3
    80001d2e:	1805200b          	.insn	4, 0x1805200b
    80001d32:	00d58533          	add	a0,a1,a3
    80001d36:	1005208b          	.insn	4, 0x1005208b
    80001d3a:	8532                	mv	a0,a2
    80001d3c:	0a15210b          	.insn	4, 0x0a15210b
    80001d40:	00d30533          	add	a0,t1,a3
    80001d44:	1235200b          	.insn	4, 0x1235200b
    80001d48:	8082                	ret
    80001d4a:	8536                	mv	a0,a3
    80001d4c:	1805200b          	.insn	4, 0x1805200b
    80001d50:	852e                	mv	a0,a1
    80001d52:	1005208b          	.insn	4, 0x1005208b
    80001d56:	8532                	mv	a0,a2
    80001d58:	0a15210b          	.insn	4, 0x0a15210b
    80001d5c:	851a                	mv	a0,t1
    80001d5e:	1235200b          	.insn	4, 0x1235200b
    80001d62:	8082                	ret
    80001d64:	1101                	addi	sp,sp,-32
    80001d66:	00015517          	auipc	a0,0x15
    80001d6a:	99250513          	addi	a0,a0,-1646 # 800166f8 <__tbss_end+0xb34>
    80001d6e:	ec06                	sd	ra,24(sp)
    80001d70:	e436                	sd	a3,8(sp)
    80001d72:	4d7110ef          	jal	80013a48 <puts>
    80001d76:	65a2                	ld	a1,8(sp)
    80001d78:	00014517          	auipc	a0,0x14
    80001d7c:	5b050513          	addi	a0,a0,1456 # 80016328 <__tbss_end+0x764>
    80001d80:	383110ef          	jal	80013902 <iprintf>
    80001d84:	557d                	li	a0,-1
    80001d86:	777100ef          	jal	80012cfc <exit>

0000000080001d8a <_Z23tiled_matrix_mul_scalarPsPKssmm>:
    80001d8a:	7139                	addi	sp,sp,-64
    80001d8c:	e852                	sd	s4,16(sp)
    80001d8e:	e456                	sd	s5,8(sp)
    80001d90:	fc06                	sd	ra,56(sp)
    80001d92:	8a36                	mv	s4,a3
    80001d94:	8aba                	mv	s5,a4
    80001d96:	c131                	beqz	a0,80001dda <_Z23tiled_matrix_mul_scalarPsPKssmm+0x50>
    80001d98:	ce85                	beqz	a3,80001dd0 <_Z23tiled_matrix_mul_scalarPsPKssmm+0x46>
    80001d9a:	f822                	sd	s0,48(sp)
    80001d9c:	f426                	sd	s1,40(sp)
    80001d9e:	f04a                	sd	s2,32(sp)
    80001da0:	ec4e                	sd	s3,24(sp)
    80001da2:	e05a                	sd	s6,0(sp)
    80001da4:	842a                	mv	s0,a0
    80001da6:	8b32                	mv	s6,a2
    80001da8:	84ae                	mv	s1,a1
    80001daa:	00171993          	slli	s3,a4,0x1
    80001dae:	4901                	li	s2,0
    80001db0:	85a6                	mv	a1,s1
    80001db2:	8522                	mv	a0,s0
    80001db4:	86d6                	mv	a3,s5
    80001db6:	865a                	mv	a2,s6
    80001db8:	0905                	addi	s2,s2,1
    80001dba:	f25ff0ef          	jal	80001cde <_Z23tiled_vector_mul_scalarPsPKssm>
    80001dbe:	944e                	add	s0,s0,s3
    80001dc0:	94ce                	add	s1,s1,s3
    80001dc2:	ff2a17e3          	bne	s4,s2,80001db0 <_Z23tiled_matrix_mul_scalarPsPKssmm+0x26>
    80001dc6:	7442                	ld	s0,48(sp)
    80001dc8:	74a2                	ld	s1,40(sp)
    80001dca:	7902                	ld	s2,32(sp)
    80001dcc:	69e2                	ld	s3,24(sp)
    80001dce:	6b02                	ld	s6,0(sp)
    80001dd0:	70e2                	ld	ra,56(sp)
    80001dd2:	6a42                	ld	s4,16(sp)
    80001dd4:	6aa2                	ld	s5,8(sp)
    80001dd6:	6121                	addi	sp,sp,64
    80001dd8:	8082                	ret
    80001dda:	00015517          	auipc	a0,0x15
    80001dde:	97650513          	addi	a0,a0,-1674 # 80016750 <__tbss_end+0xb8c>
    80001de2:	f822                	sd	s0,48(sp)
    80001de4:	f426                	sd	s1,40(sp)
    80001de6:	f04a                	sd	s2,32(sp)
    80001de8:	ec4e                	sd	s3,24(sp)
    80001dea:	e05a                	sd	s6,0(sp)
    80001dec:	45d110ef          	jal	80013a48 <puts>
    80001df0:	8656                	mv	a2,s5
    80001df2:	85d2                	mv	a1,s4
    80001df4:	00014517          	auipc	a0,0x14
    80001df8:	5ac50513          	addi	a0,a0,1452 # 800163a0 <__tbss_end+0x7dc>
    80001dfc:	307110ef          	jal	80013902 <iprintf>
    80001e00:	557d                	li	a0,-1
    80001e02:	6fb100ef          	jal	80012cfc <exit>

0000000080001e06 <_Z21fit_vector_div_scalarPsPKssm>:
    80001e06:	02000793          	li	a5,32
    80001e0a:	02d7e063          	bltu	a5,a3,80001e2a <_Z21fit_vector_div_scalarPsPKssm+0x24>
    80001e0e:	872a                	mv	a4,a0
    80001e10:	8536                	mv	a0,a3
    80001e12:	1805200b          	.insn	4, 0x1805200b
    80001e16:	852e                	mv	a0,a1
    80001e18:	1005208b          	.insn	4, 0x1005208b
    80001e1c:	8532                	mv	a0,a2
    80001e1e:	0c15210b          	.insn	4, 0x0c15210b
    80001e22:	853a                	mv	a0,a4
    80001e24:	1235200b          	.insn	4, 0x1235200b
    80001e28:	8082                	ret
    80001e2a:	1141                	addi	sp,sp,-16
    80001e2c:	00014697          	auipc	a3,0x14
    80001e30:	43468693          	addi	a3,a3,1076 # 80016260 <__tbss_end+0x69c>
    80001e34:	00015617          	auipc	a2,0x15
    80001e38:	97460613          	addi	a2,a2,-1676 # 800167a8 <__tbss_end+0xbe4>
    80001e3c:	0f300593          	li	a1,243
    80001e40:	00014517          	auipc	a0,0x14
    80001e44:	48050513          	addi	a0,a0,1152 # 800162c0 <__tbss_end+0x6fc>
    80001e48:	e406                	sd	ra,8(sp)
    80001e4a:	66d100ef          	jal	80012cb6 <__assert_func>

0000000080001e4e <_Z23tiled_vector_div_scalarPsPKssm>:
    80001e4e:	c159                	beqz	a0,80001ed4 <_Z23tiled_vector_div_scalarPsPKssm+0x86>
    80001e50:	02000793          	li	a5,32
    80001e54:	832a                	mv	t1,a0
    80001e56:	06d7f263          	bgeu	a5,a3,80001eba <_Z23tiled_vector_div_scalarPsPKssm+0x6c>
    80001e5a:	01f6fe13          	andi	t3,a3,31
    80001e5e:	0056d893          	srli	a7,a3,0x5
    80001e62:	882e                	mv	a6,a1
    80001e64:	872a                	mv	a4,a0
    80001e66:	4781                	li	a5,0
    80001e68:	02000513          	li	a0,32
    80001e6c:	1805200b          	.insn	4, 0x1805200b
    80001e70:	8542                	mv	a0,a6
    80001e72:	1005208b          	.insn	4, 0x1005208b
    80001e76:	8532                	mv	a0,a2
    80001e78:	0c15210b          	.insn	4, 0x0c15210b
    80001e7c:	853a                	mv	a0,a4
    80001e7e:	1235200b          	.insn	4, 0x1235200b
    80001e82:	0785                	addi	a5,a5,1
    80001e84:	04080813          	addi	a6,a6,64
    80001e88:	04070713          	addi	a4,a4,64
    80001e8c:	fcf89ee3          	bne	a7,a5,80001e68 <_Z23tiled_vector_div_scalarPsPKssm+0x1a>
    80001e90:	000e1363          	bnez	t3,80001e96 <_Z23tiled_vector_div_scalarPsPKssm+0x48>
    80001e94:	8082                	ret
    80001e96:	41c686b3          	sub	a3,a3,t3
    80001e9a:	0686                	slli	a3,a3,0x1
    80001e9c:	8572                	mv	a0,t3
    80001e9e:	1805200b          	.insn	4, 0x1805200b
    80001ea2:	00d58533          	add	a0,a1,a3
    80001ea6:	1005208b          	.insn	4, 0x1005208b
    80001eaa:	8532                	mv	a0,a2
    80001eac:	0c15210b          	.insn	4, 0x0c15210b
    80001eb0:	00d30533          	add	a0,t1,a3
    80001eb4:	1235200b          	.insn	4, 0x1235200b
    80001eb8:	8082                	ret
    80001eba:	8536                	mv	a0,a3
    80001ebc:	1805200b          	.insn	4, 0x1805200b
    80001ec0:	852e                	mv	a0,a1
    80001ec2:	1005208b          	.insn	4, 0x1005208b
    80001ec6:	8532                	mv	a0,a2
    80001ec8:	0c15210b          	.insn	4, 0x0c15210b
    80001ecc:	851a                	mv	a0,t1
    80001ece:	1235200b          	.insn	4, 0x1235200b
    80001ed2:	8082                	ret
    80001ed4:	1101                	addi	sp,sp,-32
    80001ed6:	00015517          	auipc	a0,0x15
    80001eda:	91a50513          	addi	a0,a0,-1766 # 800167f0 <__tbss_end+0xc2c>
    80001ede:	ec06                	sd	ra,24(sp)
    80001ee0:	e436                	sd	a3,8(sp)
    80001ee2:	367110ef          	jal	80013a48 <puts>
    80001ee6:	65a2                	ld	a1,8(sp)
    80001ee8:	00014517          	auipc	a0,0x14
    80001eec:	44050513          	addi	a0,a0,1088 # 80016328 <__tbss_end+0x764>
    80001ef0:	213110ef          	jal	80013902 <iprintf>
    80001ef4:	557d                	li	a0,-1
    80001ef6:	607100ef          	jal	80012cfc <exit>

0000000080001efa <_Z23tiled_matrix_div_scalarPsPKssmm>:
    80001efa:	7139                	addi	sp,sp,-64
    80001efc:	e852                	sd	s4,16(sp)
    80001efe:	e456                	sd	s5,8(sp)
    80001f00:	fc06                	sd	ra,56(sp)
    80001f02:	8a36                	mv	s4,a3
    80001f04:	8aba                	mv	s5,a4
    80001f06:	c131                	beqz	a0,80001f4a <_Z23tiled_matrix_div_scalarPsPKssmm+0x50>
    80001f08:	ce85                	beqz	a3,80001f40 <_Z23tiled_matrix_div_scalarPsPKssmm+0x46>
    80001f0a:	f822                	sd	s0,48(sp)
    80001f0c:	f426                	sd	s1,40(sp)
    80001f0e:	f04a                	sd	s2,32(sp)
    80001f10:	ec4e                	sd	s3,24(sp)
    80001f12:	e05a                	sd	s6,0(sp)
    80001f14:	842a                	mv	s0,a0
    80001f16:	8b32                	mv	s6,a2
    80001f18:	84ae                	mv	s1,a1
    80001f1a:	00171993          	slli	s3,a4,0x1
    80001f1e:	4901                	li	s2,0
    80001f20:	85a6                	mv	a1,s1
    80001f22:	8522                	mv	a0,s0
    80001f24:	86d6                	mv	a3,s5
    80001f26:	865a                	mv	a2,s6
    80001f28:	0905                	addi	s2,s2,1
    80001f2a:	f25ff0ef          	jal	80001e4e <_Z23tiled_vector_div_scalarPsPKssm>
    80001f2e:	944e                	add	s0,s0,s3
    80001f30:	94ce                	add	s1,s1,s3
    80001f32:	ff2a17e3          	bne	s4,s2,80001f20 <_Z23tiled_matrix_div_scalarPsPKssmm+0x26>
    80001f36:	7442                	ld	s0,48(sp)
    80001f38:	74a2                	ld	s1,40(sp)
    80001f3a:	7902                	ld	s2,32(sp)
    80001f3c:	69e2                	ld	s3,24(sp)
    80001f3e:	6b02                	ld	s6,0(sp)
    80001f40:	70e2                	ld	ra,56(sp)
    80001f42:	6a42                	ld	s4,16(sp)
    80001f44:	6aa2                	ld	s5,8(sp)
    80001f46:	6121                	addi	sp,sp,64
    80001f48:	8082                	ret
    80001f4a:	00015517          	auipc	a0,0x15
    80001f4e:	8fe50513          	addi	a0,a0,-1794 # 80016848 <__tbss_end+0xc84>
    80001f52:	f822                	sd	s0,48(sp)
    80001f54:	f426                	sd	s1,40(sp)
    80001f56:	f04a                	sd	s2,32(sp)
    80001f58:	ec4e                	sd	s3,24(sp)
    80001f5a:	e05a                	sd	s6,0(sp)
    80001f5c:	2ed110ef          	jal	80013a48 <puts>
    80001f60:	8656                	mv	a2,s5
    80001f62:	85d2                	mv	a1,s4
    80001f64:	00014517          	auipc	a0,0x14
    80001f68:	43c50513          	addi	a0,a0,1084 # 800163a0 <__tbss_end+0x7dc>
    80001f6c:	197110ef          	jal	80013902 <iprintf>
    80001f70:	557d                	li	a0,-1
    80001f72:	58b100ef          	jal	80012cfc <exit>

0000000080001f76 <_Z14fit_vector_maxPsPKsm>:
    80001f76:	02000793          	li	a5,32
    80001f7a:	00c7ee63          	bltu	a5,a2,80001f96 <_Z14fit_vector_maxPsPKsm+0x20>
    80001f7e:	872a                	mv	a4,a0
    80001f80:	8532                	mv	a0,a2
    80001f82:	1805200b          	.insn	4, 0x1805200b
    80001f86:	852e                	mv	a0,a1
    80001f88:	1005208b          	.insn	4, 0x1005208b
    80001f8c:	1600c50b          	.insn	4, 0x1600c50b
    80001f90:	00a71023          	sh	a0,0(a4)
    80001f94:	8082                	ret
    80001f96:	1141                	addi	sp,sp,-16
    80001f98:	00014697          	auipc	a3,0x14
    80001f9c:	2c868693          	addi	a3,a3,712 # 80016260 <__tbss_end+0x69c>
    80001fa0:	00015617          	auipc	a2,0x15
    80001fa4:	90060613          	addi	a2,a2,-1792 # 800168a0 <__tbss_end+0xcdc>
    80001fa8:	4599                	li	a1,6
    80001faa:	00015517          	auipc	a0,0x15
    80001fae:	92e50513          	addi	a0,a0,-1746 # 800168d8 <__tbss_end+0xd14>
    80001fb2:	e406                	sd	ra,8(sp)
    80001fb4:	503100ef          	jal	80012cb6 <__assert_func>

0000000080001fb8 <_Z16tiled_vector_maxPsPKsm>:
    80001fb8:	c14d                	beqz	a0,8000205a <_Z16tiled_vector_maxPsPKsm+0xa2>
    80001fba:	02000793          	li	a5,32
    80001fbe:	8e2a                	mv	t3,a0
    80001fc0:	06c7fe63          	bgeu	a5,a2,8000203c <_Z16tiled_vector_maxPsPKsm+0x84>
    80001fc4:	01f67e93          	andi	t4,a2,31
    80001fc8:	00565313          	srli	t1,a2,0x5
    80001fcc:	882e                	mv	a6,a1
    80001fce:	7761                	lui	a4,0xffff8
    80001fd0:	4681                	li	a3,0
    80001fd2:	02000513          	li	a0,32
    80001fd6:	1805200b          	.insn	4, 0x1805200b
    80001fda:	8542                	mv	a0,a6
    80001fdc:	1005208b          	.insn	4, 0x1005208b
    80001fe0:	1600c50b          	.insn	4, 0x1600c50b
    80001fe4:	0105189b          	slliw	a7,a0,0x10
    80001fe8:	4108d89b          	sraiw	a7,a7,0x10
    80001fec:	87aa                	mv	a5,a0
    80001fee:	00e8d363          	bge	a7,a4,80001ff4 <_Z16tiled_vector_maxPsPKsm+0x3c>
    80001ff2:	87ba                	mv	a5,a4
    80001ff4:	0107971b          	slliw	a4,a5,0x10
    80001ff8:	0685                	addi	a3,a3,1
    80001ffa:	04080813          	addi	a6,a6,64
    80001ffe:	4107571b          	sraiw	a4,a4,0x10
    80002002:	fcd318e3          	bne	t1,a3,80001fd2 <_Z16tiled_vector_maxPsPKsm+0x1a>
    80002006:	000e9563          	bnez	t4,80002010 <_Z16tiled_vector_maxPsPKsm+0x58>
    8000200a:	00ee1023          	sh	a4,0(t3)
    8000200e:	8082                	ret
    80002010:	41d60633          	sub	a2,a2,t4
    80002014:	0606                	slli	a2,a2,0x1
    80002016:	8576                	mv	a0,t4
    80002018:	1805200b          	.insn	4, 0x1805200b
    8000201c:	00c58533          	add	a0,a1,a2
    80002020:	1005208b          	.insn	4, 0x1005208b
    80002024:	1600c50b          	.insn	4, 0x1600c50b
    80002028:	0105169b          	slliw	a3,a0,0x10
    8000202c:	4106d69b          	sraiw	a3,a3,0x10
    80002030:	02e6c263          	blt	a3,a4,80002054 <_Z16tiled_vector_maxPsPKsm+0x9c>
    80002034:	872a                	mv	a4,a0
    80002036:	00ee1023          	sh	a4,0(t3)
    8000203a:	8082                	ret
    8000203c:	8532                	mv	a0,a2
    8000203e:	1805200b          	.insn	4, 0x1805200b
    80002042:	852e                	mv	a0,a1
    80002044:	1005208b          	.insn	4, 0x1005208b
    80002048:	1600c50b          	.insn	4, 0x1600c50b
    8000204c:	872a                	mv	a4,a0
    8000204e:	00ee1023          	sh	a4,0(t3)
    80002052:	8082                	ret
    80002054:	853e                	mv	a0,a5
    80002056:	872a                	mv	a4,a0
    80002058:	bff9                	j	80002036 <_Z16tiled_vector_maxPsPKsm+0x7e>
    8000205a:	1141                	addi	sp,sp,-16
    8000205c:	00015517          	auipc	a0,0x15
    80002060:	89450513          	addi	a0,a0,-1900 # 800168f0 <__tbss_end+0xd2c>
    80002064:	e406                	sd	ra,8(sp)
    80002066:	1e3110ef          	jal	80013a48 <puts>
    8000206a:	00014517          	auipc	a0,0x14
    8000206e:	fd650513          	addi	a0,a0,-42 # 80016040 <__tbss_end+0x47c>
    80002072:	1d7110ef          	jal	80013a48 <puts>
    80002076:	557d                	li	a0,-1
    80002078:	485100ef          	jal	80012cfc <exit>

000000008000207c <_Z23tiled_matrix_vector_maxPsPKsmm>:
    8000207c:	7139                	addi	sp,sp,-64
    8000207e:	ec4e                	sd	s3,24(sp)
    80002080:	fc06                	sd	ra,56(sp)
    80002082:	89b2                	mv	s3,a2
    80002084:	c121                	beqz	a0,800020c4 <_Z23tiled_matrix_vector_maxPsPKsmm+0x48>
    80002086:	ca1d                	beqz	a2,800020bc <_Z23tiled_matrix_vector_maxPsPKsmm+0x40>
    80002088:	f822                	sd	s0,48(sp)
    8000208a:	f426                	sd	s1,40(sp)
    8000208c:	f04a                	sd	s2,32(sp)
    8000208e:	e852                	sd	s4,16(sp)
    80002090:	e456                	sd	s5,8(sp)
    80002092:	8a36                	mv	s4,a3
    80002094:	842a                	mv	s0,a0
    80002096:	84ae                	mv	s1,a1
    80002098:	00169a93          	slli	s5,a3,0x1
    8000209c:	4901                	li	s2,0
    8000209e:	85a6                	mv	a1,s1
    800020a0:	8522                	mv	a0,s0
    800020a2:	8652                	mv	a2,s4
    800020a4:	0905                	addi	s2,s2,1
    800020a6:	f13ff0ef          	jal	80001fb8 <_Z16tiled_vector_maxPsPKsm>
    800020aa:	0409                	addi	s0,s0,2
    800020ac:	94d6                	add	s1,s1,s5
    800020ae:	ff2998e3          	bne	s3,s2,8000209e <_Z23tiled_matrix_vector_maxPsPKsmm+0x22>
    800020b2:	7442                	ld	s0,48(sp)
    800020b4:	74a2                	ld	s1,40(sp)
    800020b6:	7902                	ld	s2,32(sp)
    800020b8:	6a42                	ld	s4,16(sp)
    800020ba:	6aa2                	ld	s5,8(sp)
    800020bc:	70e2                	ld	ra,56(sp)
    800020be:	69e2                	ld	s3,24(sp)
    800020c0:	6121                	addi	sp,sp,64
    800020c2:	8082                	ret
    800020c4:	00015517          	auipc	a0,0x15
    800020c8:	87c50513          	addi	a0,a0,-1924 # 80016940 <__tbss_end+0xd7c>
    800020cc:	f822                	sd	s0,48(sp)
    800020ce:	f426                	sd	s1,40(sp)
    800020d0:	f04a                	sd	s2,32(sp)
    800020d2:	e852                	sd	s4,16(sp)
    800020d4:	e456                	sd	s5,8(sp)
    800020d6:	173110ef          	jal	80013a48 <puts>
    800020da:	85ce                	mv	a1,s3
    800020dc:	00015517          	auipc	a0,0x15
    800020e0:	8bc50513          	addi	a0,a0,-1860 # 80016998 <__tbss_end+0xdd4>
    800020e4:	01f110ef          	jal	80013902 <iprintf>
    800020e8:	557d                	li	a0,-1
    800020ea:	413100ef          	jal	80012cfc <exit>

00000000800020ee <_Z14fit_vector_minPsPKsm>:
    800020ee:	02000793          	li	a5,32
    800020f2:	00c7ee63          	bltu	a5,a2,8000210e <_Z14fit_vector_minPsPKsm+0x20>
    800020f6:	872a                	mv	a4,a0
    800020f8:	8532                	mv	a0,a2
    800020fa:	1805200b          	.insn	4, 0x1805200b
    800020fe:	852e                	mv	a0,a1
    80002100:	1005208b          	.insn	4, 0x1005208b
    80002104:	1610c50b          	.insn	4, 0x1610c50b
    80002108:	00a71023          	sh	a0,0(a4) # ffffffffffff8000 <__heap_end+0xffffffff7fbc6000>
    8000210c:	8082                	ret
    8000210e:	1141                	addi	sp,sp,-16
    80002110:	00014697          	auipc	a3,0x14
    80002114:	15068693          	addi	a3,a3,336 # 80016260 <__tbss_end+0x69c>
    80002118:	00015617          	auipc	a2,0x15
    8000211c:	8a060613          	addi	a2,a2,-1888 # 800169b8 <__tbss_end+0xdf4>
    80002120:	03400593          	li	a1,52
    80002124:	00014517          	auipc	a0,0x14
    80002128:	7b450513          	addi	a0,a0,1972 # 800168d8 <__tbss_end+0xd14>
    8000212c:	e406                	sd	ra,8(sp)
    8000212e:	389100ef          	jal	80012cb6 <__assert_func>

0000000080002132 <_Z16tiled_vector_minPsPKsm>:
    80002132:	c155                	beqz	a0,800021d6 <_Z16tiled_vector_minPsPKsm+0xa4>
    80002134:	02000793          	li	a5,32
    80002138:	8e2a                	mv	t3,a0
    8000213a:	06c7ff63          	bgeu	a5,a2,800021b8 <_Z16tiled_vector_minPsPKsm+0x86>
    8000213e:	6721                	lui	a4,0x8
    80002140:	177d                	addi	a4,a4,-1 # 7fff <__stack_size_min+0x1fff>
    80002142:	01f67e93          	andi	t4,a2,31
    80002146:	00565313          	srli	t1,a2,0x5
    8000214a:	882e                	mv	a6,a1
    8000214c:	4681                	li	a3,0
    8000214e:	02000513          	li	a0,32
    80002152:	1805200b          	.insn	4, 0x1805200b
    80002156:	8542                	mv	a0,a6
    80002158:	1005208b          	.insn	4, 0x1005208b
    8000215c:	1610c50b          	.insn	4, 0x1610c50b
    80002160:	0105189b          	slliw	a7,a0,0x10
    80002164:	4108d89b          	sraiw	a7,a7,0x10
    80002168:	87aa                	mv	a5,a0
    8000216a:	01175363          	bge	a4,a7,80002170 <_Z16tiled_vector_minPsPKsm+0x3e>
    8000216e:	87ba                	mv	a5,a4
    80002170:	0107971b          	slliw	a4,a5,0x10
    80002174:	0685                	addi	a3,a3,1
    80002176:	04080813          	addi	a6,a6,64
    8000217a:	4107571b          	sraiw	a4,a4,0x10
    8000217e:	fcd318e3          	bne	t1,a3,8000214e <_Z16tiled_vector_minPsPKsm+0x1c>
    80002182:	000e9563          	bnez	t4,8000218c <_Z16tiled_vector_minPsPKsm+0x5a>
    80002186:	00ee1023          	sh	a4,0(t3)
    8000218a:	8082                	ret
    8000218c:	41d60633          	sub	a2,a2,t4
    80002190:	0606                	slli	a2,a2,0x1
    80002192:	8576                	mv	a0,t4
    80002194:	1805200b          	.insn	4, 0x1805200b
    80002198:	00c58533          	add	a0,a1,a2
    8000219c:	1005208b          	.insn	4, 0x1005208b
    800021a0:	1610c50b          	.insn	4, 0x1610c50b
    800021a4:	0105169b          	slliw	a3,a0,0x10
    800021a8:	4106d69b          	sraiw	a3,a3,0x10
    800021ac:	02d74263          	blt	a4,a3,800021d0 <_Z16tiled_vector_minPsPKsm+0x9e>
    800021b0:	872a                	mv	a4,a0
    800021b2:	00ee1023          	sh	a4,0(t3)
    800021b6:	8082                	ret
    800021b8:	8532                	mv	a0,a2
    800021ba:	1805200b          	.insn	4, 0x1805200b
    800021be:	852e                	mv	a0,a1
    800021c0:	1005208b          	.insn	4, 0x1005208b
    800021c4:	1610c50b          	.insn	4, 0x1610c50b
    800021c8:	872a                	mv	a4,a0
    800021ca:	00ee1023          	sh	a4,0(t3)
    800021ce:	8082                	ret
    800021d0:	853e                	mv	a0,a5
    800021d2:	872a                	mv	a4,a0
    800021d4:	bff9                	j	800021b2 <_Z16tiled_vector_minPsPKsm+0x80>
    800021d6:	1141                	addi	sp,sp,-16
    800021d8:	00015517          	auipc	a0,0x15
    800021dc:	81850513          	addi	a0,a0,-2024 # 800169f0 <__tbss_end+0xe2c>
    800021e0:	e406                	sd	ra,8(sp)
    800021e2:	067110ef          	jal	80013a48 <puts>
    800021e6:	00014517          	auipc	a0,0x14
    800021ea:	e5a50513          	addi	a0,a0,-422 # 80016040 <__tbss_end+0x47c>
    800021ee:	05b110ef          	jal	80013a48 <puts>
    800021f2:	557d                	li	a0,-1
    800021f4:	309100ef          	jal	80012cfc <exit>

00000000800021f8 <_Z23tiled_matrix_vector_minPsPKsmm>:
    800021f8:	7139                	addi	sp,sp,-64
    800021fa:	ec4e                	sd	s3,24(sp)
    800021fc:	fc06                	sd	ra,56(sp)
    800021fe:	89b2                	mv	s3,a2
    80002200:	c121                	beqz	a0,80002240 <_Z23tiled_matrix_vector_minPsPKsmm+0x48>
    80002202:	ca1d                	beqz	a2,80002238 <_Z23tiled_matrix_vector_minPsPKsmm+0x40>
    80002204:	f822                	sd	s0,48(sp)
    80002206:	f426                	sd	s1,40(sp)
    80002208:	f04a                	sd	s2,32(sp)
    8000220a:	e852                	sd	s4,16(sp)
    8000220c:	e456                	sd	s5,8(sp)
    8000220e:	8a36                	mv	s4,a3
    80002210:	842a                	mv	s0,a0
    80002212:	84ae                	mv	s1,a1
    80002214:	00169a93          	slli	s5,a3,0x1
    80002218:	4901                	li	s2,0
    8000221a:	85a6                	mv	a1,s1
    8000221c:	8522                	mv	a0,s0
    8000221e:	8652                	mv	a2,s4
    80002220:	0905                	addi	s2,s2,1
    80002222:	f11ff0ef          	jal	80002132 <_Z16tiled_vector_minPsPKsm>
    80002226:	0409                	addi	s0,s0,2
    80002228:	94d6                	add	s1,s1,s5
    8000222a:	ff2998e3          	bne	s3,s2,8000221a <_Z23tiled_matrix_vector_minPsPKsmm+0x22>
    8000222e:	7442                	ld	s0,48(sp)
    80002230:	74a2                	ld	s1,40(sp)
    80002232:	7902                	ld	s2,32(sp)
    80002234:	6a42                	ld	s4,16(sp)
    80002236:	6aa2                	ld	s5,8(sp)
    80002238:	70e2                	ld	ra,56(sp)
    8000223a:	69e2                	ld	s3,24(sp)
    8000223c:	6121                	addi	sp,sp,64
    8000223e:	8082                	ret
    80002240:	00015517          	auipc	a0,0x15
    80002244:	80050513          	addi	a0,a0,-2048 # 80016a40 <__tbss_end+0xe7c>
    80002248:	f822                	sd	s0,48(sp)
    8000224a:	f426                	sd	s1,40(sp)
    8000224c:	f04a                	sd	s2,32(sp)
    8000224e:	e852                	sd	s4,16(sp)
    80002250:	e456                	sd	s5,8(sp)
    80002252:	7f6110ef          	jal	80013a48 <puts>
    80002256:	85ce                	mv	a1,s3
    80002258:	00014517          	auipc	a0,0x14
    8000225c:	74050513          	addi	a0,a0,1856 # 80016998 <__tbss_end+0xdd4>
    80002260:	6a2110ef          	jal	80013902 <iprintf>
    80002264:	557d                	li	a0,-1
    80002266:	297100ef          	jal	80012cfc <exit>

000000008000226a <_Z18fit_vector_dropoutPsPKssm>:
    8000226a:	02000793          	li	a5,32
    8000226e:	02d7e163          	bltu	a5,a3,80002290 <_Z18fit_vector_dropoutPsPKssm+0x26>
    80002272:	852e                	mv	a0,a1
    80002274:	1005258b          	.insn	4, 0x1005258b
    80002278:	8536                	mv	a0,a3
    8000227a:	1805200b          	.insn	4, 0x1805200b
    8000227e:	45ad                	li	a1,11
    80002280:	18c5b08b          	.insn	4, 0x18c5b08b
    80002284:	0205858b          	.insn	4, 0x0205858b
    80002288:	567d                	li	a2,-1
    8000228a:	18c5b08b          	.insn	4, 0x18c5b08b
    8000228e:	8082                	ret
    80002290:	1141                	addi	sp,sp,-16
    80002292:	00014697          	auipc	a3,0x14
    80002296:	fce68693          	addi	a3,a3,-50 # 80016260 <__tbss_end+0x69c>
    8000229a:	00014617          	auipc	a2,0x14
    8000229e:	7fe60613          	addi	a2,a2,2046 # 80016a98 <__tbss_end+0xed4>
    800022a2:	06200593          	li	a1,98
    800022a6:	00014517          	auipc	a0,0x14
    800022aa:	63250513          	addi	a0,a0,1586 # 800168d8 <__tbss_end+0xd14>
    800022ae:	e406                	sd	ra,8(sp)
    800022b0:	207100ef          	jal	80012cb6 <__assert_func>

00000000800022b4 <_Z13vector_argmaxPsPKsm>:
    800022b4:	7139                	addi	sp,sp,-64
    800022b6:	f426                	sd	s1,40(sp)
    800022b8:	84aa                	mv	s1,a0
    800022ba:	01e10513          	addi	a0,sp,30
    800022be:	f822                	sd	s0,48(sp)
    800022c0:	e432                	sd	a2,8(sp)
    800022c2:	fc06                	sd	ra,56(sp)
    800022c4:	842e                	mv	s0,a1
    800022c6:	cf3ff0ef          	jal	80001fb8 <_Z16tiled_vector_maxPsPKsm>
    800022ca:	6622                	ld	a2,8(sp)
    800022cc:	c60d                	beqz	a2,800022f6 <_Z13vector_argmaxPsPKsm+0x42>
    800022ce:	01e11683          	lh	a3,30(sp)
    800022d2:	85a2                	mv	a1,s0
    800022d4:	4781                	li	a5,0
    800022d6:	a021                	j	800022de <_Z13vector_argmaxPsPKsm+0x2a>
    800022d8:	0785                	addi	a5,a5,1
    800022da:	00f60763          	beq	a2,a5,800022e8 <_Z13vector_argmaxPsPKsm+0x34>
    800022de:	00059703          	lh	a4,0(a1)
    800022e2:	0589                	addi	a1,a1,2
    800022e4:	fed71ae3          	bne	a4,a3,800022d8 <_Z13vector_argmaxPsPKsm+0x24>
    800022e8:	70e2                	ld	ra,56(sp)
    800022ea:	7442                	ld	s0,48(sp)
    800022ec:	00f49023          	sh	a5,0(s1)
    800022f0:	74a2                	ld	s1,40(sp)
    800022f2:	6121                	addi	sp,sp,64
    800022f4:	8082                	ret
    800022f6:	4781                	li	a5,0
    800022f8:	bfc5                	j	800022e8 <_Z13vector_argmaxPsPKsm+0x34>

00000000800022fa <_Z20matrix_vector_argmaxPsPKsmm>:
    800022fa:	715d                	addi	sp,sp,-80
    800022fc:	f052                	sd	s4,32(sp)
    800022fe:	e486                	sd	ra,72(sp)
    80002300:	8a32                	mv	s4,a2
    80002302:	c935                	beqz	a0,80002376 <_Z20matrix_vector_argmaxPsPKsmm+0x7c>
    80002304:	ce21                	beqz	a2,8000235c <_Z20matrix_vector_argmaxPsPKsmm+0x62>
    80002306:	e0a2                	sd	s0,64(sp)
    80002308:	fc26                	sd	s1,56(sp)
    8000230a:	f84a                	sd	s2,48(sp)
    8000230c:	f44e                	sd	s3,40(sp)
    8000230e:	ec56                	sd	s5,24(sp)
    80002310:	8436                	mv	s0,a3
    80002312:	84ae                	mv	s1,a1
    80002314:	892a                	mv	s2,a0
    80002316:	00169a93          	slli	s5,a3,0x1
    8000231a:	4981                	li	s3,0
    8000231c:	8622                	mv	a2,s0
    8000231e:	85a6                	mv	a1,s1
    80002320:	00e10513          	addi	a0,sp,14
    80002324:	c95ff0ef          	jal	80001fb8 <_Z16tiled_vector_maxPsPKsm>
    80002328:	cc15                	beqz	s0,80002364 <_Z20matrix_vector_argmaxPsPKsmm+0x6a>
    8000232a:	00e11683          	lh	a3,14(sp)
    8000232e:	8726                	mv	a4,s1
    80002330:	4781                	li	a5,0
    80002332:	a029                	j	8000233c <_Z20matrix_vector_argmaxPsPKsmm+0x42>
    80002334:	0785                	addi	a5,a5,1
    80002336:	0709                	addi	a4,a4,2
    80002338:	00f40663          	beq	s0,a5,80002344 <_Z20matrix_vector_argmaxPsPKsmm+0x4a>
    8000233c:	00071803          	lh	a6,0(a4)
    80002340:	fed81ae3          	bne	a6,a3,80002334 <_Z20matrix_vector_argmaxPsPKsmm+0x3a>
    80002344:	00f91023          	sh	a5,0(s2)
    80002348:	0985                	addi	s3,s3,1
    8000234a:	94d6                	add	s1,s1,s5
    8000234c:	0909                	addi	s2,s2,2
    8000234e:	fd3a17e3          	bne	s4,s3,8000231c <_Z20matrix_vector_argmaxPsPKsmm+0x22>
    80002352:	6406                	ld	s0,64(sp)
    80002354:	74e2                	ld	s1,56(sp)
    80002356:	7942                	ld	s2,48(sp)
    80002358:	79a2                	ld	s3,40(sp)
    8000235a:	6ae2                	ld	s5,24(sp)
    8000235c:	60a6                	ld	ra,72(sp)
    8000235e:	7a02                	ld	s4,32(sp)
    80002360:	6161                	addi	sp,sp,80
    80002362:	8082                	ret
    80002364:	4781                	li	a5,0
    80002366:	00f91023          	sh	a5,0(s2)
    8000236a:	0985                	addi	s3,s3,1
    8000236c:	94d6                	add	s1,s1,s5
    8000236e:	0909                	addi	s2,s2,2
    80002370:	fb3a16e3          	bne	s4,s3,8000231c <_Z20matrix_vector_argmaxPsPKsmm+0x22>
    80002374:	bff9                	j	80002352 <_Z20matrix_vector_argmaxPsPKsmm+0x58>
    80002376:	00014517          	auipc	a0,0x14
    8000237a:	76250513          	addi	a0,a0,1890 # 80016ad8 <__tbss_end+0xf14>
    8000237e:	e0a2                	sd	s0,64(sp)
    80002380:	fc26                	sd	s1,56(sp)
    80002382:	f84a                	sd	s2,48(sp)
    80002384:	f44e                	sd	s3,40(sp)
    80002386:	ec56                	sd	s5,24(sp)
    80002388:	6c0110ef          	jal	80013a48 <puts>
    8000238c:	85d2                	mv	a1,s4
    8000238e:	00014517          	auipc	a0,0x14
    80002392:	60a50513          	addi	a0,a0,1546 # 80016998 <__tbss_end+0xdd4>
    80002396:	56c110ef          	jal	80013902 <iprintf>
    8000239a:	557d                	li	a0,-1
    8000239c:	161100ef          	jal	80012cfc <exit>

00000000800023a0 <_Z12vector_shiftPsmm11direction_t>:
    800023a0:	c215                	beqz	a2,800023c4 <_Z12vector_shiftPsmm11direction_t+0x24>
    800023a2:	c121                	beqz	a0,800023e2 <_Z12vector_shiftPsmm11direction_t+0x42>
    800023a4:	4785                	li	a5,1
    800023a6:	02f68063          	beq	a3,a5,800023c6 <_Z12vector_shiftPsmm11direction_t+0x26>
    800023aa:	00159713          	slli	a4,a1,0x1
    800023ae:	972a                	add	a4,a4,a0
    800023b0:	c985                	beqz	a1,800023e0 <_Z12vector_shiftPsmm11direction_t+0x40>
    800023b2:	00051783          	lh	a5,0(a0)
    800023b6:	0509                	addi	a0,a0,2
    800023b8:	00c797bb          	sllw	a5,a5,a2
    800023bc:	fef51f23          	sh	a5,-2(a0)
    800023c0:	fea719e3          	bne	a4,a0,800023b2 <_Z12vector_shiftPsmm11direction_t+0x12>
    800023c4:	8082                	ret
    800023c6:	ddfd                	beqz	a1,800023c4 <_Z12vector_shiftPsmm11direction_t+0x24>
    800023c8:	0586                	slli	a1,a1,0x1
    800023ca:	95aa                	add	a1,a1,a0
    800023cc:	00051783          	lh	a5,0(a0)
    800023d0:	0509                	addi	a0,a0,2
    800023d2:	40c7d7bb          	sraw	a5,a5,a2
    800023d6:	fef51f23          	sh	a5,-2(a0)
    800023da:	fea599e3          	bne	a1,a0,800023cc <_Z12vector_shiftPsmm11direction_t+0x2c>
    800023de:	8082                	ret
    800023e0:	8082                	ret
    800023e2:	1101                	addi	sp,sp,-32
    800023e4:	00014517          	auipc	a0,0x14
    800023e8:	74c50513          	addi	a0,a0,1868 # 80016b30 <__tbss_end+0xf6c>
    800023ec:	ec06                	sd	ra,24(sp)
    800023ee:	e42e                	sd	a1,8(sp)
    800023f0:	658110ef          	jal	80013a48 <puts>
    800023f4:	65a2                	ld	a1,8(sp)
    800023f6:	00014517          	auipc	a0,0x14
    800023fa:	78a50513          	addi	a0,a0,1930 # 80016b80 <__tbss_end+0xfbc>
    800023fe:	504110ef          	jal	80013902 <iprintf>
    80002402:	557d                	li	a0,-1
    80002404:	0f9100ef          	jal	80012cfc <exit>

0000000080002408 <_Z13mat_transposePsPKsmm>:
    80002408:	cd15                	beqz	a0,80002444 <_Z13mat_transposePsPKsmm+0x3c>
    8000240a:	c611                	beqz	a2,80002416 <_Z13mat_transposePsPKsmm+0xe>
    8000240c:	4881                	li	a7,0
    8000240e:	e689                	bnez	a3,80002418 <_Z13mat_transposePsPKsmm+0x10>
    80002410:	0885                	addi	a7,a7,1
    80002412:	ff161fe3          	bne	a2,a7,80002410 <_Z13mat_transposePsPKsmm+0x8>
    80002416:	8082                	ret
    80002418:	00169313          	slli	t1,a3,0x1
    8000241c:	959a                	add	a1,a1,t1
    8000241e:	00161813          	slli	a6,a2,0x1
    80002422:	406587b3          	sub	a5,a1,t1
    80002426:	872a                	mv	a4,a0
    80002428:	00079683          	lh	a3,0(a5)
    8000242c:	0789                	addi	a5,a5,2
    8000242e:	00d71023          	sh	a3,0(a4)
    80002432:	9742                	add	a4,a4,a6
    80002434:	fef59ae3          	bne	a1,a5,80002428 <_Z13mat_transposePsPKsmm+0x20>
    80002438:	0885                	addi	a7,a7,1
    8000243a:	0509                	addi	a0,a0,2
    8000243c:	959a                	add	a1,a1,t1
    8000243e:	ff1612e3          	bne	a2,a7,80002422 <_Z13mat_transposePsPKsmm+0x1a>
    80002442:	8082                	ret
    80002444:	1101                	addi	sp,sp,-32
    80002446:	00014517          	auipc	a0,0x14
    8000244a:	75a50513          	addi	a0,a0,1882 # 80016ba0 <__tbss_end+0xfdc>
    8000244e:	ec06                	sd	ra,24(sp)
    80002450:	e436                	sd	a3,8(sp)
    80002452:	e032                	sd	a2,0(sp)
    80002454:	5f4110ef          	jal	80013a48 <puts>
    80002458:	6602                	ld	a2,0(sp)
    8000245a:	65a2                	ld	a1,8(sp)
    8000245c:	00014517          	auipc	a0,0x14
    80002460:	79450513          	addi	a0,a0,1940 # 80016bf0 <__tbss_end+0x102c>
    80002464:	49e110ef          	jal	80013902 <iprintf>
    80002468:	557d                	li	a0,-1
    8000246a:	093100ef          	jal	80012cfc <exit>

000000008000246e <_Z15fit_vector_reluPsPKsm>:
    8000246e:	02000793          	li	a5,32
    80002472:	00c7ef63          	bltu	a5,a2,80002490 <_Z15fit_vector_reluPsPKsm+0x22>
    80002476:	872a                	mv	a4,a0
    80002478:	8532                	mv	a0,a2
    8000247a:	1805200b          	.insn	4, 0x1805200b
    8000247e:	852e                	mv	a0,a1
    80002480:	1005208b          	.insn	4, 0x1005208b
    80002484:	0e00810b          	.insn	4, 0x0e00810b
    80002488:	853a                	mv	a0,a4
    8000248a:	1225200b          	.insn	4, 0x1225200b
    8000248e:	8082                	ret
    80002490:	1141                	addi	sp,sp,-16
    80002492:	00014697          	auipc	a3,0x14
    80002496:	dce68693          	addi	a3,a3,-562 # 80016260 <__tbss_end+0x69c>
    8000249a:	00014617          	auipc	a2,0x14
    8000249e:	77e60613          	addi	a2,a2,1918 # 80016c18 <__tbss_end+0x1054>
    800024a2:	4599                	li	a1,6
    800024a4:	00014517          	auipc	a0,0x14
    800024a8:	7ac50513          	addi	a0,a0,1964 # 80016c50 <__tbss_end+0x108c>
    800024ac:	e406                	sd	ra,8(sp)
    800024ae:	009100ef          	jal	80012cb6 <__assert_func>

00000000800024b2 <_Z17tiled_vector_reluPsPKsm>:
    800024b2:	c141                	beqz	a0,80002532 <_Z17tiled_vector_reluPsPKsm+0x80>
    800024b4:	02000793          	li	a5,32
    800024b8:	88aa                	mv	a7,a0
    800024ba:	06c7f063          	bgeu	a5,a2,8000251a <_Z17tiled_vector_reluPsPKsm+0x68>
    800024be:	01f67313          	andi	t1,a2,31
    800024c2:	00565813          	srli	a6,a2,0x5
    800024c6:	86ae                	mv	a3,a1
    800024c8:	872a                	mv	a4,a0
    800024ca:	4781                	li	a5,0
    800024cc:	02000513          	li	a0,32
    800024d0:	1805200b          	.insn	4, 0x1805200b
    800024d4:	8536                	mv	a0,a3
    800024d6:	1005208b          	.insn	4, 0x1005208b
    800024da:	0e00810b          	.insn	4, 0x0e00810b
    800024de:	853a                	mv	a0,a4
    800024e0:	1225200b          	.insn	4, 0x1225200b
    800024e4:	0785                	addi	a5,a5,1
    800024e6:	04068693          	addi	a3,a3,64
    800024ea:	04070713          	addi	a4,a4,64
    800024ee:	fcf81fe3          	bne	a6,a5,800024cc <_Z17tiled_vector_reluPsPKsm+0x1a>
    800024f2:	00031363          	bnez	t1,800024f8 <_Z17tiled_vector_reluPsPKsm+0x46>
    800024f6:	8082                	ret
    800024f8:	40660633          	sub	a2,a2,t1
    800024fc:	0606                	slli	a2,a2,0x1
    800024fe:	851a                	mv	a0,t1
    80002500:	1805200b          	.insn	4, 0x1805200b
    80002504:	00c58533          	add	a0,a1,a2
    80002508:	1005208b          	.insn	4, 0x1005208b
    8000250c:	0e00810b          	.insn	4, 0x0e00810b
    80002510:	00c88533          	add	a0,a7,a2
    80002514:	1225200b          	.insn	4, 0x1225200b
    80002518:	8082                	ret
    8000251a:	8532                	mv	a0,a2
    8000251c:	1805200b          	.insn	4, 0x1805200b
    80002520:	852e                	mv	a0,a1
    80002522:	1005208b          	.insn	4, 0x1005208b
    80002526:	0e00810b          	.insn	4, 0x0e00810b
    8000252a:	8546                	mv	a0,a7
    8000252c:	1225200b          	.insn	4, 0x1225200b
    80002530:	8082                	ret
    80002532:	1101                	addi	sp,sp,-32
    80002534:	00014517          	auipc	a0,0x14
    80002538:	73450513          	addi	a0,a0,1844 # 80016c68 <__tbss_end+0x10a4>
    8000253c:	ec06                	sd	ra,24(sp)
    8000253e:	e432                	sd	a2,8(sp)
    80002540:	508110ef          	jal	80013a48 <puts>
    80002544:	65a2                	ld	a1,8(sp)
    80002546:	00014517          	auipc	a0,0x14
    8000254a:	de250513          	addi	a0,a0,-542 # 80016328 <__tbss_end+0x764>
    8000254e:	3b4110ef          	jal	80013902 <iprintf>
    80002552:	557d                	li	a0,-1
    80002554:	7a8100ef          	jal	80012cfc <exit>

0000000080002558 <_Z17tiled_matrix_reluPsPKsmm>:
    80002558:	7139                	addi	sp,sp,-64
    8000255a:	e852                	sd	s4,16(sp)
    8000255c:	e456                	sd	s5,8(sp)
    8000255e:	fc06                	sd	ra,56(sp)
    80002560:	8a32                	mv	s4,a2
    80002562:	8ab6                	mv	s5,a3
    80002564:	cd15                	beqz	a0,800025a0 <_Z17tiled_matrix_reluPsPKsmm+0x48>
    80002566:	ca05                	beqz	a2,80002596 <_Z17tiled_matrix_reluPsPKsmm+0x3e>
    80002568:	f822                	sd	s0,48(sp)
    8000256a:	f426                	sd	s1,40(sp)
    8000256c:	f04a                	sd	s2,32(sp)
    8000256e:	ec4e                	sd	s3,24(sp)
    80002570:	842a                	mv	s0,a0
    80002572:	84ae                	mv	s1,a1
    80002574:	00169993          	slli	s3,a3,0x1
    80002578:	4901                	li	s2,0
    8000257a:	85a6                	mv	a1,s1
    8000257c:	8522                	mv	a0,s0
    8000257e:	8656                	mv	a2,s5
    80002580:	0905                	addi	s2,s2,1
    80002582:	f31ff0ef          	jal	800024b2 <_Z17tiled_vector_reluPsPKsm>
    80002586:	944e                	add	s0,s0,s3
    80002588:	94ce                	add	s1,s1,s3
    8000258a:	ff2a18e3          	bne	s4,s2,8000257a <_Z17tiled_matrix_reluPsPKsmm+0x22>
    8000258e:	7442                	ld	s0,48(sp)
    80002590:	74a2                	ld	s1,40(sp)
    80002592:	7902                	ld	s2,32(sp)
    80002594:	69e2                	ld	s3,24(sp)
    80002596:	70e2                	ld	ra,56(sp)
    80002598:	6a42                	ld	s4,16(sp)
    8000259a:	6aa2                	ld	s5,8(sp)
    8000259c:	6121                	addi	sp,sp,64
    8000259e:	8082                	ret
    800025a0:	00014517          	auipc	a0,0x14
    800025a4:	72050513          	addi	a0,a0,1824 # 80016cc0 <__tbss_end+0x10fc>
    800025a8:	f822                	sd	s0,48(sp)
    800025aa:	f426                	sd	s1,40(sp)
    800025ac:	f04a                	sd	s2,32(sp)
    800025ae:	ec4e                	sd	s3,24(sp)
    800025b0:	498110ef          	jal	80013a48 <puts>
    800025b4:	8656                	mv	a2,s5
    800025b6:	85d2                	mv	a1,s4
    800025b8:	00014517          	auipc	a0,0x14
    800025bc:	76050513          	addi	a0,a0,1888 # 80016d18 <__tbss_end+0x1154>
    800025c0:	342110ef          	jal	80013902 <iprintf>
    800025c4:	557d                	li	a0,-1
    800025c6:	736100ef          	jal	80012cfc <exit>

00000000800025ca <_Z15fit_vector_tanhPsPKsm>:
    800025ca:	02000793          	li	a5,32
    800025ce:	00c7ef63          	bltu	a5,a2,800025ec <_Z15fit_vector_tanhPsPKsm+0x22>
    800025d2:	872a                	mv	a4,a0
    800025d4:	8532                	mv	a0,a2
    800025d6:	1805200b          	.insn	4, 0x1805200b
    800025da:	852e                	mv	a0,a1
    800025dc:	1005208b          	.insn	4, 0x1005208b
    800025e0:	0e10810b          	.insn	4, 0x0e10810b
    800025e4:	853a                	mv	a0,a4
    800025e6:	1225200b          	.insn	4, 0x1225200b
    800025ea:	8082                	ret
    800025ec:	1141                	addi	sp,sp,-16
    800025ee:	00014697          	auipc	a3,0x14
    800025f2:	c7268693          	addi	a3,a3,-910 # 80016260 <__tbss_end+0x69c>
    800025f6:	00014617          	auipc	a2,0x14
    800025fa:	75260613          	addi	a2,a2,1874 # 80016d48 <__tbss_end+0x1184>
    800025fe:	03100593          	li	a1,49
    80002602:	00014517          	auipc	a0,0x14
    80002606:	64e50513          	addi	a0,a0,1614 # 80016c50 <__tbss_end+0x108c>
    8000260a:	e406                	sd	ra,8(sp)
    8000260c:	6aa100ef          	jal	80012cb6 <__assert_func>

0000000080002610 <_Z17tiled_vector_tanhPsPKsm>:
    80002610:	c141                	beqz	a0,80002690 <_Z17tiled_vector_tanhPsPKsm+0x80>
    80002612:	02000793          	li	a5,32
    80002616:	88aa                	mv	a7,a0
    80002618:	06c7f063          	bgeu	a5,a2,80002678 <_Z17tiled_vector_tanhPsPKsm+0x68>
    8000261c:	01f67313          	andi	t1,a2,31
    80002620:	00565813          	srli	a6,a2,0x5
    80002624:	86ae                	mv	a3,a1
    80002626:	872a                	mv	a4,a0
    80002628:	4781                	li	a5,0
    8000262a:	02000513          	li	a0,32
    8000262e:	1805200b          	.insn	4, 0x1805200b
    80002632:	8536                	mv	a0,a3
    80002634:	1005208b          	.insn	4, 0x1005208b
    80002638:	0e10810b          	.insn	4, 0x0e10810b
    8000263c:	853a                	mv	a0,a4
    8000263e:	1225200b          	.insn	4, 0x1225200b
    80002642:	0785                	addi	a5,a5,1
    80002644:	04068693          	addi	a3,a3,64
    80002648:	04070713          	addi	a4,a4,64
    8000264c:	fcf81fe3          	bne	a6,a5,8000262a <_Z17tiled_vector_tanhPsPKsm+0x1a>
    80002650:	00031363          	bnez	t1,80002656 <_Z17tiled_vector_tanhPsPKsm+0x46>
    80002654:	8082                	ret
    80002656:	40660633          	sub	a2,a2,t1
    8000265a:	0606                	slli	a2,a2,0x1
    8000265c:	851a                	mv	a0,t1
    8000265e:	1805200b          	.insn	4, 0x1805200b
    80002662:	00c58533          	add	a0,a1,a2
    80002666:	1005208b          	.insn	4, 0x1005208b
    8000266a:	0e10810b          	.insn	4, 0x0e10810b
    8000266e:	00c88533          	add	a0,a7,a2
    80002672:	1225200b          	.insn	4, 0x1225200b
    80002676:	8082                	ret
    80002678:	8532                	mv	a0,a2
    8000267a:	1805200b          	.insn	4, 0x1805200b
    8000267e:	852e                	mv	a0,a1
    80002680:	1005208b          	.insn	4, 0x1005208b
    80002684:	0e10810b          	.insn	4, 0x0e10810b
    80002688:	8546                	mv	a0,a7
    8000268a:	1225200b          	.insn	4, 0x1225200b
    8000268e:	8082                	ret
    80002690:	1101                	addi	sp,sp,-32
    80002692:	00014517          	auipc	a0,0x14
    80002696:	6ee50513          	addi	a0,a0,1774 # 80016d80 <__tbss_end+0x11bc>
    8000269a:	ec06                	sd	ra,24(sp)
    8000269c:	e432                	sd	a2,8(sp)
    8000269e:	3aa110ef          	jal	80013a48 <puts>
    800026a2:	65a2                	ld	a1,8(sp)
    800026a4:	00014517          	auipc	a0,0x14
    800026a8:	c8450513          	addi	a0,a0,-892 # 80016328 <__tbss_end+0x764>
    800026ac:	256110ef          	jal	80013902 <iprintf>
    800026b0:	557d                	li	a0,-1
    800026b2:	64a100ef          	jal	80012cfc <exit>

00000000800026b6 <_Z17tiled_matrix_tanhPsPKsmm>:
    800026b6:	7139                	addi	sp,sp,-64
    800026b8:	e852                	sd	s4,16(sp)
    800026ba:	e456                	sd	s5,8(sp)
    800026bc:	fc06                	sd	ra,56(sp)
    800026be:	8a32                	mv	s4,a2
    800026c0:	8ab6                	mv	s5,a3
    800026c2:	cd15                	beqz	a0,800026fe <_Z17tiled_matrix_tanhPsPKsmm+0x48>
    800026c4:	ca05                	beqz	a2,800026f4 <_Z17tiled_matrix_tanhPsPKsmm+0x3e>
    800026c6:	f822                	sd	s0,48(sp)
    800026c8:	f426                	sd	s1,40(sp)
    800026ca:	f04a                	sd	s2,32(sp)
    800026cc:	ec4e                	sd	s3,24(sp)
    800026ce:	842a                	mv	s0,a0
    800026d0:	84ae                	mv	s1,a1
    800026d2:	00169993          	slli	s3,a3,0x1
    800026d6:	4901                	li	s2,0
    800026d8:	85a6                	mv	a1,s1
    800026da:	8522                	mv	a0,s0
    800026dc:	8656                	mv	a2,s5
    800026de:	0905                	addi	s2,s2,1
    800026e0:	f31ff0ef          	jal	80002610 <_Z17tiled_vector_tanhPsPKsm>
    800026e4:	944e                	add	s0,s0,s3
    800026e6:	94ce                	add	s1,s1,s3
    800026e8:	ff2a18e3          	bne	s4,s2,800026d8 <_Z17tiled_matrix_tanhPsPKsmm+0x22>
    800026ec:	7442                	ld	s0,48(sp)
    800026ee:	74a2                	ld	s1,40(sp)
    800026f0:	7902                	ld	s2,32(sp)
    800026f2:	69e2                	ld	s3,24(sp)
    800026f4:	70e2                	ld	ra,56(sp)
    800026f6:	6a42                	ld	s4,16(sp)
    800026f8:	6aa2                	ld	s5,8(sp)
    800026fa:	6121                	addi	sp,sp,64
    800026fc:	8082                	ret
    800026fe:	00014517          	auipc	a0,0x14
    80002702:	6da50513          	addi	a0,a0,1754 # 80016dd8 <__tbss_end+0x1214>
    80002706:	f822                	sd	s0,48(sp)
    80002708:	f426                	sd	s1,40(sp)
    8000270a:	f04a                	sd	s2,32(sp)
    8000270c:	ec4e                	sd	s3,24(sp)
    8000270e:	33a110ef          	jal	80013a48 <puts>
    80002712:	8656                	mv	a2,s5
    80002714:	85d2                	mv	a1,s4
    80002716:	00014517          	auipc	a0,0x14
    8000271a:	60250513          	addi	a0,a0,1538 # 80016d18 <__tbss_end+0x1154>
    8000271e:	1e4110ef          	jal	80013902 <iprintf>
    80002722:	557d                	li	a0,-1
    80002724:	5d8100ef          	jal	80012cfc <exit>

0000000080002728 <_Z18fit_vector_sigmoidPsPKsm>:
    80002728:	02000793          	li	a5,32
    8000272c:	00c7ef63          	bltu	a5,a2,8000274a <_Z18fit_vector_sigmoidPsPKsm+0x22>
    80002730:	872a                	mv	a4,a0
    80002732:	8532                	mv	a0,a2
    80002734:	1805200b          	.insn	4, 0x1805200b
    80002738:	852e                	mv	a0,a1
    8000273a:	1005208b          	.insn	4, 0x1005208b
    8000273e:	0e20810b          	.insn	4, 0x0e20810b
    80002742:	853a                	mv	a0,a4
    80002744:	1225200b          	.insn	4, 0x1225200b
    80002748:	8082                	ret
    8000274a:	1141                	addi	sp,sp,-16
    8000274c:	00014697          	auipc	a3,0x14
    80002750:	b1468693          	addi	a3,a3,-1260 # 80016260 <__tbss_end+0x69c>
    80002754:	00014617          	auipc	a2,0x14
    80002758:	6dc60613          	addi	a2,a2,1756 # 80016e30 <__tbss_end+0x126c>
    8000275c:	05c00593          	li	a1,92
    80002760:	00014517          	auipc	a0,0x14
    80002764:	4f050513          	addi	a0,a0,1264 # 80016c50 <__tbss_end+0x108c>
    80002768:	e406                	sd	ra,8(sp)
    8000276a:	54c100ef          	jal	80012cb6 <__assert_func>

000000008000276e <_Z20tiled_vector_sigmoidPsPKsm>:
    8000276e:	c141                	beqz	a0,800027ee <_Z20tiled_vector_sigmoidPsPKsm+0x80>
    80002770:	02000793          	li	a5,32
    80002774:	88aa                	mv	a7,a0
    80002776:	06c7f063          	bgeu	a5,a2,800027d6 <_Z20tiled_vector_sigmoidPsPKsm+0x68>
    8000277a:	01f67313          	andi	t1,a2,31
    8000277e:	00565813          	srli	a6,a2,0x5
    80002782:	86ae                	mv	a3,a1
    80002784:	872a                	mv	a4,a0
    80002786:	4781                	li	a5,0
    80002788:	02000513          	li	a0,32
    8000278c:	1805200b          	.insn	4, 0x1805200b
    80002790:	8536                	mv	a0,a3
    80002792:	1005208b          	.insn	4, 0x1005208b
    80002796:	0e20810b          	.insn	4, 0x0e20810b
    8000279a:	853a                	mv	a0,a4
    8000279c:	1225200b          	.insn	4, 0x1225200b
    800027a0:	0785                	addi	a5,a5,1
    800027a2:	04068693          	addi	a3,a3,64
    800027a6:	04070713          	addi	a4,a4,64
    800027aa:	fcf81fe3          	bne	a6,a5,80002788 <_Z20tiled_vector_sigmoidPsPKsm+0x1a>
    800027ae:	00031363          	bnez	t1,800027b4 <_Z20tiled_vector_sigmoidPsPKsm+0x46>
    800027b2:	8082                	ret
    800027b4:	40660633          	sub	a2,a2,t1
    800027b8:	0606                	slli	a2,a2,0x1
    800027ba:	851a                	mv	a0,t1
    800027bc:	1805200b          	.insn	4, 0x1805200b
    800027c0:	00c58533          	add	a0,a1,a2
    800027c4:	1005208b          	.insn	4, 0x1005208b
    800027c8:	0e20810b          	.insn	4, 0x0e20810b
    800027cc:	00c88533          	add	a0,a7,a2
    800027d0:	1225200b          	.insn	4, 0x1225200b
    800027d4:	8082                	ret
    800027d6:	8532                	mv	a0,a2
    800027d8:	1805200b          	.insn	4, 0x1805200b
    800027dc:	852e                	mv	a0,a1
    800027de:	1005208b          	.insn	4, 0x1005208b
    800027e2:	0e20810b          	.insn	4, 0x0e20810b
    800027e6:	8546                	mv	a0,a7
    800027e8:	1225200b          	.insn	4, 0x1225200b
    800027ec:	8082                	ret
    800027ee:	1101                	addi	sp,sp,-32
    800027f0:	00014517          	auipc	a0,0x14
    800027f4:	67850513          	addi	a0,a0,1656 # 80016e68 <__tbss_end+0x12a4>
    800027f8:	ec06                	sd	ra,24(sp)
    800027fa:	e432                	sd	a2,8(sp)
    800027fc:	24c110ef          	jal	80013a48 <puts>
    80002800:	65a2                	ld	a1,8(sp)
    80002802:	00014517          	auipc	a0,0x14
    80002806:	b2650513          	addi	a0,a0,-1242 # 80016328 <__tbss_end+0x764>
    8000280a:	0f8110ef          	jal	80013902 <iprintf>
    8000280e:	557d                	li	a0,-1
    80002810:	4ec100ef          	jal	80012cfc <exit>

0000000080002814 <_Z20tiled_matrix_sigmoidPsPKsmm>:
    80002814:	7139                	addi	sp,sp,-64
    80002816:	e852                	sd	s4,16(sp)
    80002818:	e456                	sd	s5,8(sp)
    8000281a:	fc06                	sd	ra,56(sp)
    8000281c:	8a32                	mv	s4,a2
    8000281e:	8ab6                	mv	s5,a3
    80002820:	cd15                	beqz	a0,8000285c <_Z20tiled_matrix_sigmoidPsPKsmm+0x48>
    80002822:	ca05                	beqz	a2,80002852 <_Z20tiled_matrix_sigmoidPsPKsmm+0x3e>
    80002824:	f822                	sd	s0,48(sp)
    80002826:	f426                	sd	s1,40(sp)
    80002828:	f04a                	sd	s2,32(sp)
    8000282a:	ec4e                	sd	s3,24(sp)
    8000282c:	842a                	mv	s0,a0
    8000282e:	84ae                	mv	s1,a1
    80002830:	00169993          	slli	s3,a3,0x1
    80002834:	4901                	li	s2,0
    80002836:	85a6                	mv	a1,s1
    80002838:	8522                	mv	a0,s0
    8000283a:	8656                	mv	a2,s5
    8000283c:	0905                	addi	s2,s2,1
    8000283e:	f31ff0ef          	jal	8000276e <_Z20tiled_vector_sigmoidPsPKsm>
    80002842:	944e                	add	s0,s0,s3
    80002844:	94ce                	add	s1,s1,s3
    80002846:	ff2a18e3          	bne	s4,s2,80002836 <_Z20tiled_matrix_sigmoidPsPKsmm+0x22>
    8000284a:	7442                	ld	s0,48(sp)
    8000284c:	74a2                	ld	s1,40(sp)
    8000284e:	7902                	ld	s2,32(sp)
    80002850:	69e2                	ld	s3,24(sp)
    80002852:	70e2                	ld	ra,56(sp)
    80002854:	6a42                	ld	s4,16(sp)
    80002856:	6aa2                	ld	s5,8(sp)
    80002858:	6121                	addi	sp,sp,64
    8000285a:	8082                	ret
    8000285c:	00014517          	auipc	a0,0x14
    80002860:	66450513          	addi	a0,a0,1636 # 80016ec0 <__tbss_end+0x12fc>
    80002864:	f822                	sd	s0,48(sp)
    80002866:	f426                	sd	s1,40(sp)
    80002868:	f04a                	sd	s2,32(sp)
    8000286a:	ec4e                	sd	s3,24(sp)
    8000286c:	1dc110ef          	jal	80013a48 <puts>
    80002870:	8656                	mv	a2,s5
    80002872:	85d2                	mv	a1,s4
    80002874:	00014517          	auipc	a0,0x14
    80002878:	4a450513          	addi	a0,a0,1188 # 80016d18 <__tbss_end+0x1154>
    8000287c:	086110ef          	jal	80013902 <iprintf>
    80002880:	557d                	li	a0,-1
    80002882:	47a100ef          	jal	80012cfc <exit>

0000000080002886 <_Z11fit_dotprodPsPKsS1_m>:
    80002886:	47a1                	li	a5,8
    80002888:	02d7e163          	bltu	a5,a3,800028aa <_Z11fit_dotprodPsPKsS1_m+0x24>
    8000288c:	872a                	mv	a4,a0
    8000288e:	8536                	mv	a0,a3
    80002890:	1805200b          	.insn	4, 0x1805200b
    80002894:	852e                	mv	a0,a1
    80002896:	1005208b          	.insn	4, 0x1005208b
    8000289a:	8532                	mv	a0,a2
    8000289c:	1005210b          	.insn	4, 0x1005210b
    800028a0:	1a20c50b          	.insn	4, 0x1a20c50b
    800028a4:	00a71023          	sh	a0,0(a4)
    800028a8:	8082                	ret
    800028aa:	1141                	addi	sp,sp,-16
    800028ac:	00014697          	auipc	a3,0x14
    800028b0:	66c68693          	addi	a3,a3,1644 # 80016f18 <__tbss_end+0x1354>
    800028b4:	00014617          	auipc	a2,0x14
    800028b8:	67c60613          	addi	a2,a2,1660 # 80016f30 <__tbss_end+0x136c>
    800028bc:	4591                	li	a1,4
    800028be:	00014517          	auipc	a0,0x14
    800028c2:	6b250513          	addi	a0,a0,1714 # 80016f70 <__tbss_end+0x13ac>
    800028c6:	e406                	sd	ra,8(sp)
    800028c8:	3ee100ef          	jal	80012cb6 <__assert_func>

00000000800028cc <_Z13tiled_dotprodPsPKsS1_m>:
    800028cc:	47a1                	li	a5,8
    800028ce:	8eaa                	mv	t4,a0
    800028d0:	06d7fa63          	bgeu	a5,a3,80002944 <_Z13tiled_dotprodPsPKsS1_m+0x78>
    800028d4:	0076ff13          	andi	t5,a3,7
    800028d8:	0036de13          	srli	t3,a3,0x3
    800028dc:	88ae                	mv	a7,a1
    800028de:	8832                	mv	a6,a2
    800028e0:	4301                	li	t1,0
    800028e2:	4701                	li	a4,0
    800028e4:	4521                	li	a0,8
    800028e6:	1805200b          	.insn	4, 0x1805200b
    800028ea:	8546                	mv	a0,a7
    800028ec:	1005208b          	.insn	4, 0x1005208b
    800028f0:	8542                	mv	a0,a6
    800028f2:	1005210b          	.insn	4, 0x1005210b
    800028f6:	1a20c50b          	.insn	4, 0x1a20c50b
    800028fa:	00a307bb          	addw	a5,t1,a0
    800028fe:	0107931b          	slliw	t1,a5,0x10
    80002902:	0705                	addi	a4,a4,1
    80002904:	08c1                	addi	a7,a7,16
    80002906:	0841                	addi	a6,a6,16
    80002908:	4103531b          	sraiw	t1,t1,0x10
    8000290c:	fcee1ce3          	bne	t3,a4,800028e4 <_Z13tiled_dotprodPsPKsS1_m+0x18>
    80002910:	000f1563          	bnez	t5,8000291a <_Z13tiled_dotprodPsPKsS1_m+0x4e>
    80002914:	006e9023          	sh	t1,0(t4)
    80002918:	8082                	ret
    8000291a:	41e686b3          	sub	a3,a3,t5
    8000291e:	0686                	slli	a3,a3,0x1
    80002920:	857a                	mv	a0,t5
    80002922:	1805200b          	.insn	4, 0x1805200b
    80002926:	00d58533          	add	a0,a1,a3
    8000292a:	1005208b          	.insn	4, 0x1005208b
    8000292e:	00d60533          	add	a0,a2,a3
    80002932:	1005210b          	.insn	4, 0x1005210b
    80002936:	1a20c50b          	.insn	4, 0x1a20c50b
    8000293a:	00f5033b          	addw	t1,a0,a5
    8000293e:	006e9023          	sh	t1,0(t4)
    80002942:	8082                	ret
    80002944:	8536                	mv	a0,a3
    80002946:	1805200b          	.insn	4, 0x1805200b
    8000294a:	852e                	mv	a0,a1
    8000294c:	1005208b          	.insn	4, 0x1005208b
    80002950:	8532                	mv	a0,a2
    80002952:	1005210b          	.insn	4, 0x1005210b
    80002956:	1a20c50b          	.insn	4, 0x1a20c50b
    8000295a:	832a                	mv	t1,a0
    8000295c:	006e9023          	sh	t1,0(t4)
    80002960:	8082                	ret

0000000080002962 <_Z9tiled_mvmPsPKsS1_mm>:
    80002962:	7139                	addi	sp,sp,-64
    80002964:	ec4e                	sd	s3,24(sp)
    80002966:	fc06                	sd	ra,56(sp)
    80002968:	89b6                	mv	s3,a3
    8000296a:	c521                	beqz	a0,800029b2 <_Z9tiled_mvmPsPKsS1_mm+0x50>
    8000296c:	ce9d                	beqz	a3,800029aa <_Z9tiled_mvmPsPKsS1_mm+0x48>
    8000296e:	f822                	sd	s0,48(sp)
    80002970:	f426                	sd	s1,40(sp)
    80002972:	f04a                	sd	s2,32(sp)
    80002974:	e852                	sd	s4,16(sp)
    80002976:	e456                	sd	s5,8(sp)
    80002978:	e05a                	sd	s6,0(sp)
    8000297a:	8ab2                	mv	s5,a2
    8000297c:	8a3a                	mv	s4,a4
    8000297e:	842a                	mv	s0,a0
    80002980:	84ae                	mv	s1,a1
    80002982:	00171b13          	slli	s6,a4,0x1
    80002986:	4901                	li	s2,0
    80002988:	85a6                	mv	a1,s1
    8000298a:	8522                	mv	a0,s0
    8000298c:	86d2                	mv	a3,s4
    8000298e:	8656                	mv	a2,s5
    80002990:	0905                	addi	s2,s2,1
    80002992:	f3bff0ef          	jal	800028cc <_Z13tiled_dotprodPsPKsS1_m>
    80002996:	0409                	addi	s0,s0,2
    80002998:	94da                	add	s1,s1,s6
    8000299a:	ff2997e3          	bne	s3,s2,80002988 <_Z9tiled_mvmPsPKsS1_mm+0x26>
    8000299e:	7442                	ld	s0,48(sp)
    800029a0:	74a2                	ld	s1,40(sp)
    800029a2:	7902                	ld	s2,32(sp)
    800029a4:	6a42                	ld	s4,16(sp)
    800029a6:	6aa2                	ld	s5,8(sp)
    800029a8:	6b02                	ld	s6,0(sp)
    800029aa:	70e2                	ld	ra,56(sp)
    800029ac:	69e2                	ld	s3,24(sp)
    800029ae:	6121                	addi	sp,sp,64
    800029b0:	8082                	ret
    800029b2:	00014517          	auipc	a0,0x14
    800029b6:	5d650513          	addi	a0,a0,1494 # 80016f88 <__tbss_end+0x13c4>
    800029ba:	f822                	sd	s0,48(sp)
    800029bc:	f426                	sd	s1,40(sp)
    800029be:	f04a                	sd	s2,32(sp)
    800029c0:	e852                	sd	s4,16(sp)
    800029c2:	e456                	sd	s5,8(sp)
    800029c4:	e05a                	sd	s6,0(sp)
    800029c6:	082110ef          	jal	80013a48 <puts>
    800029ca:	85ce                	mv	a1,s3
    800029cc:	00014517          	auipc	a0,0x14
    800029d0:	fcc50513          	addi	a0,a0,-52 # 80016998 <__tbss_end+0xdd4>
    800029d4:	72f100ef          	jal	80013902 <iprintf>
    800029d8:	557d                	li	a0,-1
    800029da:	322100ef          	jal	80012cfc <exit>

00000000800029de <_Z22tiled_matmul_transposePsPKsS1_mmm>:
    800029de:	7159                	addi	sp,sp,-112
    800029e0:	e4ce                	sd	s3,72(sp)
    800029e2:	f062                	sd	s8,32(sp)
    800029e4:	f486                	sd	ra,104(sp)
    800029e6:	89b6                	mv	s3,a3
    800029e8:	8c3e                	mv	s8,a5
    800029ea:	c92d                	beqz	a0,80002a5c <_Z22tiled_matmul_transposePsPKsS1_mmm+0x7e>
    800029ec:	c3bd                	beqz	a5,80002a52 <_Z22tiled_matmul_transposePsPKsS1_mmm+0x74>
    800029ee:	c2b5                	beqz	a3,80002a52 <_Z22tiled_matmul_transposePsPKsS1_mmm+0x74>
    800029f0:	e8ca                	sd	s2,80(sp)
    800029f2:	e0d2                	sd	s4,64(sp)
    800029f4:	fc56                	sd	s5,56(sp)
    800029f6:	f85a                	sd	s6,48(sp)
    800029f8:	f45e                	sd	s7,40(sp)
    800029fa:	ec66                	sd	s9,24(sp)
    800029fc:	e86a                	sd	s10,16(sp)
    800029fe:	f0a2                	sd	s0,96(sp)
    80002a00:	eca6                	sd	s1,88(sp)
    80002a02:	e46e                	sd	s11,8(sp)
    80002a04:	8caa                	mv	s9,a0
    80002a06:	8d2e                	mv	s10,a1
    80002a08:	8aba                	mv	s5,a4
    80002a0a:	8932                	mv	s2,a2
    80002a0c:	00171a13          	slli	s4,a4,0x1
    80002a10:	4b81                	li	s7,0
    80002a12:	4b01                	li	s6,0
    80002a14:	001b9413          	slli	s0,s7,0x1
    80002a18:	9466                	add	s0,s0,s9
    80002a1a:	8dea                	mv	s11,s10
    80002a1c:	4481                	li	s1,0
    80002a1e:	85ee                	mv	a1,s11
    80002a20:	8522                	mv	a0,s0
    80002a22:	86d6                	mv	a3,s5
    80002a24:	864a                	mv	a2,s2
    80002a26:	0485                	addi	s1,s1,1
    80002a28:	ea5ff0ef          	jal	800028cc <_Z13tiled_dotprodPsPKsS1_m>
    80002a2c:	0409                	addi	s0,s0,2
    80002a2e:	9dd2                	add	s11,s11,s4
    80002a30:	fe9997e3          	bne	s3,s1,80002a1e <_Z22tiled_matmul_transposePsPKsS1_mmm+0x40>
    80002a34:	0b05                	addi	s6,s6,1
    80002a36:	9bce                	add	s7,s7,s3
    80002a38:	9952                	add	s2,s2,s4
    80002a3a:	fd8b1de3          	bne	s6,s8,80002a14 <_Z22tiled_matmul_transposePsPKsS1_mmm+0x36>
    80002a3e:	7406                	ld	s0,96(sp)
    80002a40:	64e6                	ld	s1,88(sp)
    80002a42:	6946                	ld	s2,80(sp)
    80002a44:	6a06                	ld	s4,64(sp)
    80002a46:	7ae2                	ld	s5,56(sp)
    80002a48:	7b42                	ld	s6,48(sp)
    80002a4a:	7ba2                	ld	s7,40(sp)
    80002a4c:	6ce2                	ld	s9,24(sp)
    80002a4e:	6d42                	ld	s10,16(sp)
    80002a50:	6da2                	ld	s11,8(sp)
    80002a52:	70a6                	ld	ra,104(sp)
    80002a54:	69a6                	ld	s3,72(sp)
    80002a56:	7c02                	ld	s8,32(sp)
    80002a58:	6165                	addi	sp,sp,112
    80002a5a:	8082                	ret
    80002a5c:	00014517          	auipc	a0,0x14
    80002a60:	57c50513          	addi	a0,a0,1404 # 80016fd8 <__tbss_end+0x1414>
    80002a64:	f0a2                	sd	s0,96(sp)
    80002a66:	eca6                	sd	s1,88(sp)
    80002a68:	e8ca                	sd	s2,80(sp)
    80002a6a:	e0d2                	sd	s4,64(sp)
    80002a6c:	fc56                	sd	s5,56(sp)
    80002a6e:	f85a                	sd	s6,48(sp)
    80002a70:	f45e                	sd	s7,40(sp)
    80002a72:	ec66                	sd	s9,24(sp)
    80002a74:	e86a                	sd	s10,16(sp)
    80002a76:	e46e                	sd	s11,8(sp)
    80002a78:	7d1100ef          	jal	80013a48 <puts>
    80002a7c:	864e                	mv	a2,s3
    80002a7e:	85e2                	mv	a1,s8
    80002a80:	00014517          	auipc	a0,0x14
    80002a84:	5b050513          	addi	a0,a0,1456 # 80017030 <__tbss_end+0x146c>
    80002a88:	67b100ef          	jal	80013902 <iprintf>
    80002a8c:	557d                	li	a0,-1
    80002a8e:	26e100ef          	jal	80012cfc <exit>

0000000080002a92 <_Z10array_initPsms>:
    80002a92:	c981                	beqz	a1,80002aa2 <_Z10array_initPsms+0x10>
    80002a94:	0586                	slli	a1,a1,0x1
    80002a96:	95aa                	add	a1,a1,a0
    80002a98:	00c51023          	sh	a2,0(a0)
    80002a9c:	0509                	addi	a0,a0,2
    80002a9e:	feb51de3          	bne	a0,a1,80002a98 <_Z10array_initPsms+0x6>
    80002aa2:	8082                	ret

0000000080002aa4 <_Z12conv2d_shapePmS_S_mmmmmmmm>:
    80002aa4:	6e02                	ld	t3,0(sp)
    80002aa6:	6842                	ld	a6,16(sp)
    80002aa8:	6322                	ld	t1,8(sp)
    80002aaa:	41c70733          	sub	a4,a4,t3
    80002aae:	0806                	slli	a6,a6,0x1
    80002ab0:	9742                	add	a4,a4,a6
    80002ab2:	02675733          	divu	a4,a4,t1
    80002ab6:	41c787b3          	sub	a5,a5,t3
    80002aba:	97c2                	add	a5,a5,a6
    80002abc:	0267d7b3          	divu	a5,a5,t1
    80002ac0:	0705                	addi	a4,a4,1
    80002ac2:	031686b3          	mul	a3,a3,a7
    80002ac6:	0785                	addi	a5,a5,1
    80002ac8:	02e686b3          	mul	a3,a3,a4
    80002acc:	02f686b3          	mul	a3,a3,a5
    80002ad0:	e114                	sd	a3,0(a0)
    80002ad2:	e198                	sd	a4,0(a1)
    80002ad4:	e21c                	sd	a5,0(a2)
    80002ad6:	8082                	ret

0000000080002ad8 <_Z15padding2d_shapePmS_S_mmmmm>:
    80002ad8:	03180833          	mul	a6,a6,a7
    80002adc:	0686                	slli	a3,a3,0x1
    80002ade:	9736                	add	a4,a4,a3
    80002ae0:	e198                	sd	a4,0(a1)
    80002ae2:	96be                	add	a3,a3,a5
    80002ae4:	e214                	sd	a3,0(a2)
    80002ae6:	619c                	ld	a5,0(a1)
    80002ae8:	02f80833          	mul	a6,a6,a5
    80002aec:	02d80833          	mul	a6,a6,a3
    80002af0:	01053023          	sd	a6,0(a0)
    80002af4:	8082                	ret

0000000080002af6 <_Z9padding2dPsPKsmsmm>:
    80002af6:	7159                	addi	sp,sp,-112
    80002af8:	e4ce                	sd	s3,72(sp)
    80002afa:	00161993          	slli	s3,a2,0x1
    80002afe:	f062                	sd	s8,32(sp)
    80002b00:	00f98c33          	add	s8,s3,a5
    80002b04:	eca6                	sd	s1,88(sp)
    80002b06:	02cc04b3          	mul	s1,s8,a2
    80002b0a:	f0a2                	sd	s0,96(sp)
    80002b0c:	e8ca                	sd	s2,80(sp)
    80002b0e:	fc56                	sd	s5,56(sp)
    80002b10:	f45e                	sd	s7,40(sp)
    80002b12:	f486                	sd	ra,104(sp)
    80002b14:	8bb2                	mv	s7,a2
    80002b16:	8aaa                	mv	s5,a0
    80002b18:	8436                	mv	s0,a3
    80002b1a:	893a                	mv	s2,a4
    80002b1c:	cce9                	beqz	s1,80002bf6 <_Z9padding2dPsPKsmsmm+0x100>
    80002b1e:	00149693          	slli	a3,s1,0x1
    80002b22:	96aa                	add	a3,a3,a0
    80002b24:	872a                	mv	a4,a0
    80002b26:	00871023          	sh	s0,0(a4)
    80002b2a:	0709                	addi	a4,a4,2
    80002b2c:	fed71de3          	bne	a4,a3,80002b26 <_Z9padding2dPsPKsmsmm+0x30>
    80002b30:	8726                	mv	a4,s1
    80002b32:	08090263          	beqz	s2,80002bb6 <_Z9padding2dPsPKsmsmm+0xc0>
    80002b36:	f85a                	sd	s6,48(sp)
    80002b38:	417c0b33          	sub	s6,s8,s7
    80002b3c:	e0d2                	sd	s4,64(sp)
    80002b3e:	ec66                	sd	s9,24(sp)
    80002b40:	e86a                	sd	s10,16(sp)
    80002b42:	e46e                	sd	s11,8(sp)
    80002b44:	00179a13          	slli	s4,a5,0x1
    80002b48:	8d2e                	mv	s10,a1
    80002b4a:	99d6                	add	s3,s3,s5
    80002b4c:	9b26                	add	s6,s6,s1
    80002b4e:	8ca6                	mv	s9,s1
    80002b50:	4d81                	li	s11,0
    80002b52:	001c9793          	slli	a5,s9,0x1
    80002b56:	00f98533          	add	a0,s3,a5
    80002b5a:	080b8363          	beqz	s7,80002be0 <_Z9padding2dPsPKsmsmm+0xea>
    80002b5e:	019b8733          	add	a4,s7,s9
    80002b62:	0706                	slli	a4,a4,0x1
    80002b64:	97d6                	add	a5,a5,s5
    80002b66:	9756                	add	a4,a4,s5
    80002b68:	00879023          	sh	s0,0(a5)
    80002b6c:	0789                	addi	a5,a5,2
    80002b6e:	fee79de3          	bne	a5,a4,80002b68 <_Z9padding2dPsPKsmsmm+0x72>
    80002b72:	8652                	mv	a2,s4
    80002b74:	85ea                	mv	a1,s10
    80002b76:	06b110ef          	jal	800143e0 <memcpy>
    80002b7a:	016b8733          	add	a4,s7,s6
    80002b7e:	0706                	slli	a4,a4,0x1
    80002b80:	001b1793          	slli	a5,s6,0x1
    80002b84:	9756                	add	a4,a4,s5
    80002b86:	97d6                	add	a5,a5,s5
    80002b88:	00879023          	sh	s0,0(a5)
    80002b8c:	0789                	addi	a5,a5,2
    80002b8e:	fee79de3          	bne	a5,a4,80002b88 <_Z9padding2dPsPKsmsmm+0x92>
    80002b92:	0d85                	addi	s11,s11,1
    80002b94:	9ce2                	add	s9,s9,s8
    80002b96:	9d52                	add	s10,s10,s4
    80002b98:	9b62                	add	s6,s6,s8
    80002b9a:	fb2dece3          	bltu	s11,s2,80002b52 <_Z9padding2dPsPKsmsmm+0x5c>
    80002b9e:	ccb1                	beqz	s1,80002bfa <_Z9padding2dPsPKsmsmm+0x104>
    80002ba0:	fff90713          	addi	a4,s2,-1
    80002ba4:	03870733          	mul	a4,a4,s8
    80002ba8:	6a06                	ld	s4,64(sp)
    80002baa:	7b42                	ld	s6,48(sp)
    80002bac:	6ce2                	ld	s9,24(sp)
    80002bae:	6d42                	ld	s10,16(sp)
    80002bb0:	6da2                	ld	s11,8(sp)
    80002bb2:	9c26                	add	s8,s8,s1
    80002bb4:	9762                	add	a4,a4,s8
    80002bb6:	00e487b3          	add	a5,s1,a4
    80002bba:	0786                	slli	a5,a5,0x1
    80002bbc:	0706                	slli	a4,a4,0x1
    80002bbe:	97d6                	add	a5,a5,s5
    80002bc0:	9aba                	add	s5,s5,a4
    80002bc2:	008a9023          	sh	s0,0(s5)
    80002bc6:	0a89                	addi	s5,s5,2
    80002bc8:	ff579de3          	bne	a5,s5,80002bc2 <_Z9padding2dPsPKsmsmm+0xcc>
    80002bcc:	70a6                	ld	ra,104(sp)
    80002bce:	7406                	ld	s0,96(sp)
    80002bd0:	64e6                	ld	s1,88(sp)
    80002bd2:	6946                	ld	s2,80(sp)
    80002bd4:	69a6                	ld	s3,72(sp)
    80002bd6:	7ae2                	ld	s5,56(sp)
    80002bd8:	7ba2                	ld	s7,40(sp)
    80002bda:	7c02                	ld	s8,32(sp)
    80002bdc:	6165                	addi	sp,sp,112
    80002bde:	8082                	ret
    80002be0:	85ea                	mv	a1,s10
    80002be2:	8652                	mv	a2,s4
    80002be4:	0d85                	addi	s11,s11,1
    80002be6:	7fa110ef          	jal	800143e0 <memcpy>
    80002bea:	9ce2                	add	s9,s9,s8
    80002bec:	9d52                	add	s10,s10,s4
    80002bee:	9b62                	add	s6,s6,s8
    80002bf0:	f72de1e3          	bltu	s11,s2,80002b52 <_Z9padding2dPsPKsmsmm+0x5c>
    80002bf4:	b76d                	j	80002b9e <_Z9padding2dPsPKsmsmm+0xa8>
    80002bf6:	f321                	bnez	a4,80002b36 <_Z9padding2dPsPKsmsmm+0x40>
    80002bf8:	bfd1                	j	80002bcc <_Z9padding2dPsPKsmsmm+0xd6>
    80002bfa:	6a06                	ld	s4,64(sp)
    80002bfc:	7b42                	ld	s6,48(sp)
    80002bfe:	6ce2                	ld	s9,24(sp)
    80002c00:	6d42                	ld	s10,16(sp)
    80002c02:	6da2                	ld	s11,8(sp)
    80002c04:	b7e1                	j	80002bcc <_Z9padding2dPsPKsmsmm+0xd6>

0000000080002c06 <_Z9padding2dPsPKsmsmmm>:
    80002c06:	06080b63          	beqz	a6,80002c7c <_Z9padding2dPsPKsmsmmm+0x76>
    80002c0a:	711d                	addi	sp,sp,-96
    80002c0c:	fc4e                	sd	s3,56(sp)
    80002c0e:	89be                	mv	s3,a5
    80002c10:	00161793          	slli	a5,a2,0x1
    80002c14:	f456                	sd	s5,40(sp)
    80002c16:	00e78ab3          	add	s5,a5,a4
    80002c1a:	97ce                	add	a5,a5,s3
    80002c1c:	02fa8ab3          	mul	s5,s5,a5
    80002c20:	e466                	sd	s9,8(sp)
    80002c22:	e8a2                	sd	s0,80(sp)
    80002c24:	e4a6                	sd	s1,72(sp)
    80002c26:	e0ca                	sd	s2,64(sp)
    80002c28:	f852                	sd	s4,48(sp)
    80002c2a:	f05a                	sd	s6,32(sp)
    80002c2c:	ec5e                	sd	s7,24(sp)
    80002c2e:	e862                	sd	s8,16(sp)
    80002c30:	ec86                	sd	ra,88(sp)
    80002c32:	03370cb3          	mul	s9,a4,s3
    80002c36:	8a3a                	mv	s4,a4
    80002c38:	8bb6                	mv	s7,a3
    80002c3a:	8b32                	mv	s6,a2
    80002c3c:	8c42                	mv	s8,a6
    80002c3e:	84aa                	mv	s1,a0
    80002c40:	842e                	mv	s0,a1
    80002c42:	4901                	li	s2,0
    80002c44:	0a86                	slli	s5,s5,0x1
    80002c46:	0c86                	slli	s9,s9,0x1
    80002c48:	85a2                	mv	a1,s0
    80002c4a:	8526                	mv	a0,s1
    80002c4c:	87ce                	mv	a5,s3
    80002c4e:	8752                	mv	a4,s4
    80002c50:	86de                	mv	a3,s7
    80002c52:	865a                	mv	a2,s6
    80002c54:	0905                	addi	s2,s2,1
    80002c56:	ea1ff0ef          	jal	80002af6 <_Z9padding2dPsPKsmsmm>
    80002c5a:	94d6                	add	s1,s1,s5
    80002c5c:	9466                	add	s0,s0,s9
    80002c5e:	ff2c15e3          	bne	s8,s2,80002c48 <_Z9padding2dPsPKsmsmmm+0x42>
    80002c62:	60e6                	ld	ra,88(sp)
    80002c64:	6446                	ld	s0,80(sp)
    80002c66:	64a6                	ld	s1,72(sp)
    80002c68:	6906                	ld	s2,64(sp)
    80002c6a:	79e2                	ld	s3,56(sp)
    80002c6c:	7a42                	ld	s4,48(sp)
    80002c6e:	7aa2                	ld	s5,40(sp)
    80002c70:	7b02                	ld	s6,32(sp)
    80002c72:	6be2                	ld	s7,24(sp)
    80002c74:	6c42                	ld	s8,16(sp)
    80002c76:	6ca2                	ld	s9,8(sp)
    80002c78:	6125                	addi	sp,sp,96
    80002c7a:	8082                	ret
    80002c7c:	8082                	ret

0000000080002c7e <_Z9padding2dPsPKsmsmmmm>:
    80002c7e:	0c088163          	beqz	a7,80002d40 <_Z9padding2dPsPKsmsmmmm+0xc2>
    80002c82:	0a080f63          	beqz	a6,80002d40 <_Z9padding2dPsPKsmsmmmm+0xc2>
    80002c86:	7135                	addi	sp,sp,-160
    80002c88:	e526                	sd	s1,136(sp)
    80002c8a:	e14a                	sd	s2,128(sp)
    80002c8c:	84be                	mv	s1,a5
    80002c8e:	893a                	mv	s2,a4
    80002c90:	00161713          	slli	a4,a2,0x1
    80002c94:	012707b3          	add	a5,a4,s2
    80002c98:	9726                	add	a4,a4,s1
    80002c9a:	02e787b3          	mul	a5,a5,a4
    80002c9e:	f0da                	sd	s6,96(sp)
    80002ca0:	e922                	sd	s0,144(sp)
    80002ca2:	fcce                	sd	s3,120(sp)
    80002ca4:	f8d2                	sd	s4,112(sp)
    80002ca6:	f4d6                	sd	s5,104(sp)
    80002ca8:	e8e2                	sd	s8,80(sp)
    80002caa:	e4e6                	sd	s9,72(sp)
    80002cac:	ed06                	sd	ra,152(sp)
    80002cae:	ecde                	sd	s7,88(sp)
    80002cb0:	02990733          	mul	a4,s2,s1
    80002cb4:	00179b13          	slli	s6,a5,0x1
    80002cb8:	e0ea                	sd	s10,64(sp)
    80002cba:	fc6e                	sd	s11,56(sp)
    80002cbc:	8442                	mv	s0,a6
    80002cbe:	8a36                	mv	s4,a3
    80002cc0:	89b2                	mv	s3,a2
    80002cc2:	f42e                	sd	a1,40(sp)
    80002cc4:	f02a                	sd	a0,32(sp)
    80002cc6:	ec46                	sd	a7,24(sp)
    80002cc8:	030787b3          	mul	a5,a5,a6
    80002ccc:	4c81                	li	s9,0
    80002cce:	4c01                	li	s8,0
    80002cd0:	e002                	sd	zero,0(sp)
    80002cd2:	00171a93          	slli	s5,a4,0x1
    80002cd6:	e43e                	sd	a5,8(sp)
    80002cd8:	030707b3          	mul	a5,a4,a6
    80002cdc:	e83e                	sd	a5,16(sp)
    80002cde:	7782                	ld	a5,32(sp)
    80002ce0:	001c1513          	slli	a0,s8,0x1
    80002ce4:	001c9593          	slli	a1,s9,0x1
    80002ce8:	00a78bb3          	add	s7,a5,a0
    80002cec:	77a2                	ld	a5,40(sp)
    80002cee:	4d01                	li	s10,0
    80002cf0:	00b78db3          	add	s11,a5,a1
    80002cf4:	85ee                	mv	a1,s11
    80002cf6:	855e                	mv	a0,s7
    80002cf8:	87a6                	mv	a5,s1
    80002cfa:	874a                	mv	a4,s2
    80002cfc:	86d2                	mv	a3,s4
    80002cfe:	864e                	mv	a2,s3
    80002d00:	0d05                	addi	s10,s10,1
    80002d02:	df5ff0ef          	jal	80002af6 <_Z9padding2dPsPKsmsmm>
    80002d06:	9bda                	add	s7,s7,s6
    80002d08:	9dd6                	add	s11,s11,s5
    80002d0a:	ffa415e3          	bne	s0,s10,80002cf4 <_Z9padding2dPsPKsmsmmmm+0x76>
    80002d0e:	6722                	ld	a4,8(sp)
    80002d10:	6782                	ld	a5,0(sp)
    80002d12:	9c3a                	add	s8,s8,a4
    80002d14:	6742                	ld	a4,16(sp)
    80002d16:	0785                	addi	a5,a5,1
    80002d18:	e03e                	sd	a5,0(sp)
    80002d1a:	9cba                	add	s9,s9,a4
    80002d1c:	6762                	ld	a4,24(sp)
    80002d1e:	fce790e3          	bne	a5,a4,80002cde <_Z9padding2dPsPKsmsmmmm+0x60>
    80002d22:	60ea                	ld	ra,152(sp)
    80002d24:	644a                	ld	s0,144(sp)
    80002d26:	64aa                	ld	s1,136(sp)
    80002d28:	690a                	ld	s2,128(sp)
    80002d2a:	79e6                	ld	s3,120(sp)
    80002d2c:	7a46                	ld	s4,112(sp)
    80002d2e:	7aa6                	ld	s5,104(sp)
    80002d30:	7b06                	ld	s6,96(sp)
    80002d32:	6be6                	ld	s7,88(sp)
    80002d34:	6c46                	ld	s8,80(sp)
    80002d36:	6ca6                	ld	s9,72(sp)
    80002d38:	6d06                	ld	s10,64(sp)
    80002d3a:	7de2                	ld	s11,56(sp)
    80002d3c:	610d                	addi	sp,sp,160
    80002d3e:	8082                	ret
    80002d40:	8082                	ret

0000000080002d42 <_Z15pooling2d_shapePmS_S_mmmmmmm>:
    80002d42:	6e22                	ld	t3,8(sp)
    80002d44:	6302                	ld	t1,0(sp)
    80002d46:	000e1363          	bnez	t3,80002d4c <_Z15pooling2d_shapePmS_S_mmmmmmm+0xa>
    80002d4a:	8e46                	mv	t3,a7
    80002d4c:	0306                	slli	t1,t1,0x1
    80002d4e:	969a                	add	a3,a3,t1
    80002d50:	411686b3          	sub	a3,a3,a7
    80002d54:	971a                	add	a4,a4,t1
    80002d56:	03c6d6b3          	divu	a3,a3,t3
    80002d5a:	41170733          	sub	a4,a4,a7
    80002d5e:	03c75733          	divu	a4,a4,t3
    80002d62:	0685                	addi	a3,a3,1
    80002d64:	e194                	sd	a3,0(a1)
    80002d66:	0705                	addi	a4,a4,1
    80002d68:	e218                	sd	a4,0(a2)
    80002d6a:	6194                	ld	a3,0(a1)
    80002d6c:	02d80833          	mul	a6,a6,a3
    80002d70:	02f80833          	mul	a6,a6,a5
    80002d74:	02e80833          	mul	a6,a6,a4
    80002d78:	01053023          	sd	a6,0(a0)
    80002d7c:	8082                	ret

0000000080002d7e <_Z9nn_conv2dPsPKsS1_mmmmmmmm>:
    80002d7e:	7109                	addi	sp,sp,-384
    80002d80:	faa2                	sd	s0,368(sp)
    80002d82:	f6a6                	sd	s1,360(sp)
    80002d84:	0300                	addi	s0,sp,384
    80002d86:	e6d6                	sd	s5,328(sp)
    80002d88:	fa62                	sd	s8,304(sp)
    80002d8a:	fe86                	sd	ra,376(sp)
    80002d8c:	f2ca                	sd	s2,352(sp)
    80002d8e:	eece                	sd	s3,344(sp)
    80002d90:	ead2                	sd	s4,336(sp)
    80002d92:	e2da                	sd	s6,320(sp)
    80002d94:	fe5e                	sd	s7,312(sp)
    80002d96:	f666                	sd	s9,296(sp)
    80002d98:	f26a                	sd	s10,288(sp)
    80002d9a:	ee6e                	sd	s11,280(sp)
    80002d9c:	00843c03          	ld	s8,8(s0)
    80002da0:	f2a43c23          	sd	a0,-200(s0)
    80002da4:	eab43423          	sd	a1,-344(s0)
    80002da8:	f0d43c23          	sd	a3,-232(s0)
    80002dac:	f1143823          	sd	a7,-240(s0)
    80002db0:	f3043023          	sd	a6,-224(s0)
    80002db4:	00043a83          	ld	s5,0(s0)
    80002db8:	6804                	ld	s1,16(s0)
    80002dba:	2a0c0c63          	beqz	s8,80003072 <_Z9nn_conv2dPsPKsS1_mmmmmmmm+0x2f4>
    80002dbe:	f3843683          	ld	a3,-200(s0)
    80002dc2:	2c068763          	beqz	a3,80003090 <_Z9nn_conv2dPsPKsS1_mmmmmmmm+0x312>
    80002dc6:	f1843b03          	ld	s6,-232(s0)
    80002dca:	8a32                	mv	s4,a2
    80002dcc:	86a6                	mv	a3,s1
    80002dce:	88da                	mv	a7,s6
    80002dd0:	f8840613          	addi	a2,s0,-120
    80002dd4:	f8040593          	addi	a1,s0,-128
    80002dd8:	f7840513          	addi	a0,s0,-136
    80002ddc:	89be                	mv	s3,a5
    80002dde:	893a                	mv	s2,a4
    80002de0:	cf9ff0ef          	jal	80002ad8 <_Z15padding2d_shapePmS_S_mmmmm>
    80002de4:	f7843783          	ld	a5,-136(s0)
    80002de8:	f2043c83          	ld	s9,-224(s0)
    80002dec:	85d2                	mv	a1,s4
    80002dee:	0786                	slli	a5,a5,0x1
    80002df0:	07bd                	addi	a5,a5,15
    80002df2:	9bc1                	andi	a5,a5,-16
    80002df4:	40f10133          	sub	sp,sp,a5
    80002df8:	88da                	mv	a7,s6
    80002dfa:	850a                	mv	a0,sp
    80002dfc:	8866                	mv	a6,s9
    80002dfe:	87ce                	mv	a5,s3
    80002e00:	874a                	mv	a4,s2
    80002e02:	8626                	mv	a2,s1
    80002e04:	4681                	li	a3,0
    80002e06:	f6243023          	sd	sp,-160(s0)
    80002e0a:	e75ff0ef          	jal	80002c7e <_Z9padding2dPsPKsmsmmmm>
    80002e0e:	100b0363          	beqz	s6,80002f14 <_Z9nn_conv2dPsPKsS1_mmmmmmmm+0x196>
    80002e12:	f1043703          	ld	a4,-240(s0)
    80002e16:	cf7d                	beqz	a4,80002f14 <_Z9nn_conv2dPsPKsS1_mmmmmmmm+0x196>
    80002e18:	00149793          	slli	a5,s1,0x1
    80002e1c:	41598633          	sub	a2,s3,s5
    80002e20:	415904b3          	sub	s1,s2,s5
    80002e24:	94be                	add	s1,s1,a5
    80002e26:	963e                	add	a2,a2,a5
    80002e28:	0384d4b3          	divu	s1,s1,s8
    80002e2c:	85e2                	mv	a1,s8
    80002e2e:	00199b93          	slli	s7,s3,0x1
    80002e32:	001a9b13          	slli	s6,s5,0x1
    80002e36:	4d81                	li	s11,0
    80002e38:	03865633          	divu	a2,a2,s8
    80002e3c:	00148e13          	addi	t3,s1,1
    80002e40:	00160513          	addi	a0,a2,1
    80002e44:	02ae06b3          	mul	a3,t3,a0
    80002e48:	8a32                	mv	s4,a2
    80002e4a:	033c0833          	mul	a6,s8,s3
    80002e4e:	4c01                	li	s8,0
    80002e50:	033908b3          	mul	a7,s2,s3
    80002e54:	f3043423          	sd	a6,-216(s0)
    80002e58:	8826                	mv	a6,s1
    80002e5a:	84b6                	mv	s1,a3
    80002e5c:	035a8333          	mul	t1,s5,s5
    80002e60:	02e68933          	mul	s2,a3,a4
    80002e64:	03930eb3          	mul	t4,t1,s9
    80002e68:	031c8d33          	mul	s10,s9,a7
    80002e6c:	4c81                	li	s9,0
    80002e6e:	f2043603          	ld	a2,-224(s0)
    80002e72:	876e                	mv	a4,s11
    80002e74:	ca49                	beqz	a2,80002f06 <_Z9nn_conv2dPsPKsS1_mmmmmmmm+0x188>
    80002e76:	e9a43c23          	sd	s10,-360(s0)
    80002e7a:	eb843023          	sd	s8,-352(s0)
    80002e7e:	8d52                	mv	s10,s4
    80002e80:	4981                	li	s3,0
    80002e82:	4a01                	li	s4,0
    80002e84:	879a                	mv	a5,t1
    80002e86:	e9243823          	sd	s2,-368(s0)
    80002e8a:	e9b43423          	sd	s11,-376(s0)
    80002e8e:	f1343423          	sd	s3,-248(s0)
    80002e92:	8c56                	mv	s8,s5
    80002e94:	8de6                	mv	s11,s9
    80002e96:	f1443023          	sd	s4,-256(s0)
    80002e9a:	efd43c23          	sd	t4,-264(s0)
    80002e9e:	ee943823          	sd	s1,-272(s0)
    80002ea2:	ef943423          	sd	s9,-280(s0)
    80002ea6:	4981                	li	s3,0
    80002ea8:	8652                	mv	a2,s4
    80002eaa:	8aae                	mv	s5,a1
    80002eac:	180e0063          	beqz	t3,8000302c <_Z9nn_conv2dPsPKsS1_mmmmmmmm+0x2ae>
    80002eb0:	4481                	li	s1,0
    80002eb2:	e151                	bnez	a0,80002f36 <_Z9nn_conv2dPsPKsS1_mmmmmmmm+0x1b8>
    80002eb4:	00980563          	beq	a6,s1,80002ebe <_Z9nn_conv2dPsPKsS1_mmmmmmmm+0x140>
    80002eb8:	0485                	addi	s1,s1,1
    80002eba:	fe981fe3          	bne	a6,s1,80002eb8 <_Z9nn_conv2dPsPKsS1_mmmmmmmm+0x13a>
    80002ebe:	f2043683          	ld	a3,-224(s0)
    80002ec2:	0985                	addi	s3,s3,1
    80002ec4:	9dc6                	add	s11,s11,a7
    80002ec6:	963e                	add	a2,a2,a5
    80002ec8:	ff3694e3          	bne	a3,s3,80002eb0 <_Z9nn_conv2dPsPKsS1_mmmmmmmm+0x132>
    80002ecc:	f0843983          	ld	s3,-248(s0)
    80002ed0:	f0043a03          	ld	s4,-256(s0)
    80002ed4:	ef843e83          	ld	t4,-264(s0)
    80002ed8:	ef043483          	ld	s1,-272(s0)
    80002edc:	f1043683          	ld	a3,-240(s0)
    80002ee0:	0985                	addi	s3,s3,1
    80002ee2:	85d6                	mv	a1,s5
    80002ee4:	ee843c83          	ld	s9,-280(s0)
    80002ee8:	8ae2                	mv	s5,s8
    80002eea:	9726                	add	a4,a4,s1
    80002eec:	9a76                	add	s4,s4,t4
    80002eee:	fb3690e3          	bne	a3,s3,80002e8e <_Z9nn_conv2dPsPKsS1_mmmmmmmm+0x110>
    80002ef2:	8a6a                	mv	s4,s10
    80002ef4:	ea043c03          	ld	s8,-352(s0)
    80002ef8:	e9843d03          	ld	s10,-360(s0)
    80002efc:	e9043903          	ld	s2,-368(s0)
    80002f00:	e8843d83          	ld	s11,-376(s0)
    80002f04:	833e                	mv	t1,a5
    80002f06:	f1843783          	ld	a5,-232(s0)
    80002f0a:	0c05                	addi	s8,s8,1
    80002f0c:	9cea                	add	s9,s9,s10
    80002f0e:	9dca                	add	s11,s11,s2
    80002f10:	f5879fe3          	bne	a5,s8,80002e6e <_Z9nn_conv2dPsPKsS1_mmmmmmmm+0xf0>
    80002f14:	e8040113          	addi	sp,s0,-384
    80002f18:	70f6                	ld	ra,376(sp)
    80002f1a:	7456                	ld	s0,368(sp)
    80002f1c:	74b6                	ld	s1,360(sp)
    80002f1e:	7916                	ld	s2,352(sp)
    80002f20:	69f6                	ld	s3,344(sp)
    80002f22:	6a56                	ld	s4,336(sp)
    80002f24:	6ab6                	ld	s5,328(sp)
    80002f26:	6b16                	ld	s6,320(sp)
    80002f28:	7bf2                	ld	s7,312(sp)
    80002f2a:	7c52                	ld	s8,304(sp)
    80002f2c:	7cb2                	ld	s9,296(sp)
    80002f2e:	7d12                	ld	s10,288(sp)
    80002f30:	6df2                	ld	s11,280(sp)
    80002f32:	6119                	addi	sp,sp,384
    80002f34:	8082                	ret
    80002f36:	ea843683          	ld	a3,-344(s0)
    80002f3a:	00161c93          	slli	s9,a2,0x1
    80002f3e:	eee43023          	sd	a4,-288(s0)
    80002f42:	96e6                	add	a3,a3,s9
    80002f44:	f6d43423          	sd	a3,-152(s0)
    80002f48:	ecf43c23          	sd	a5,-296(s0)
    80002f4c:	86a6                	mv	a3,s1
    80002f4e:	f5043023          	sd	a6,-192(s0)
    80002f52:	edc43823          	sd	t3,-304(s0)
    80002f56:	f2a43823          	sd	a0,-208(s0)
    80002f5a:	ed143423          	sd	a7,-312(s0)
    80002f5e:	ed343023          	sd	s3,-320(s0)
    80002f62:	ebb43c23          	sd	s11,-328(s0)
    80002f66:	eac43823          	sd	a2,-336(s0)
    80002f6a:	84e2                	mv	s1,s8
    80002f6c:	87ba                	mv	a5,a4
    80002f6e:	876e                	mv	a4,s11
    80002f70:	c4c9                	beqz	s1,80002ffa <_Z9nn_conv2dPsPKsS1_mmmmmmmm+0x27c>
    80002f72:	f3843603          	ld	a2,-200(s0)
    80002f76:	00179813          	slli	a6,a5,0x1
    80002f7a:	8ca6                	mv	s9,s1
    80002f7c:	01060933          	add	s2,a2,a6
    80002f80:	8a3a                	mv	s4,a4
    80002f82:	f4f43c23          	sd	a5,-168(s0)
    80002f86:	f4d43823          	sd	a3,-176(s0)
    80002f8a:	f4e43423          	sd	a4,-184(s0)
    80002f8e:	4481                	li	s1,0
    80002f90:	f6043783          	ld	a5,-160(s0)
    80002f94:	f6843983          	ld	s3,-152(s0)
    80002f98:	001a1613          	slli	a2,s4,0x1
    80002f9c:	00c78c33          	add	s8,a5,a2
    80002fa0:	4d81                	li	s11,0
    80002fa2:	8662                	mv	a2,s8
    80002fa4:	85ce                	mv	a1,s3
    80002fa6:	86e6                	mv	a3,s9
    80002fa8:	f7640513          	addi	a0,s0,-138
    80002fac:	921ff0ef          	jal	800028cc <_Z13tiled_dotprodPsPKsS1_m>
    80002fb0:	00095783          	lhu	a5,0(s2)
    80002fb4:	f7645703          	lhu	a4,-138(s0)
    80002fb8:	0d85                	addi	s11,s11,1
    80002fba:	99da                	add	s3,s3,s6
    80002fbc:	9fb9                	addw	a5,a5,a4
    80002fbe:	00f91023          	sh	a5,0(s2)
    80002fc2:	9c5e                	add	s8,s8,s7
    80002fc4:	fdbc9fe3          	bne	s9,s11,80002fa2 <_Z9nn_conv2dPsPKsS1_mmmmmmmm+0x224>
    80002fc8:	9a56                	add	s4,s4,s5
    80002fca:	0909                	addi	s2,s2,2
    80002fcc:	009d0463          	beq	s10,s1,80002fd4 <_Z9nn_conv2dPsPKsS1_mmmmmmmm+0x256>
    80002fd0:	0485                	addi	s1,s1,1
    80002fd2:	bf7d                	j	80002f90 <_Z9nn_conv2dPsPKsS1_mmmmmmmm+0x212>
    80002fd4:	f5043683          	ld	a3,-176(s0)
    80002fd8:	f4043603          	ld	a2,-192(s0)
    80002fdc:	f5843783          	ld	a5,-168(s0)
    80002fe0:	f4843703          	ld	a4,-184(s0)
    80002fe4:	84e6                	mv	s1,s9
    80002fe6:	04d60b63          	beq	a2,a3,8000303c <_Z9nn_conv2dPsPKsS1_mmmmmmmm+0x2be>
    80002fea:	f3043603          	ld	a2,-208(s0)
    80002fee:	0685                	addi	a3,a3,1
    80002ff0:	97b2                	add	a5,a5,a2
    80002ff2:	f2843603          	ld	a2,-216(s0)
    80002ff6:	9732                	add	a4,a4,a2
    80002ff8:	fcad                	bnez	s1,80002f72 <_Z9nn_conv2dPsPKsS1_mmmmmmmm+0x1f4>
    80002ffa:	f4043803          	ld	a6,-192(s0)
    80002ffe:	8c26                	mv	s8,s1
    80003000:	84b6                	mv	s1,a3
    80003002:	ee043703          	ld	a4,-288(s0)
    80003006:	ed843783          	ld	a5,-296(s0)
    8000300a:	ed043e03          	ld	t3,-304(s0)
    8000300e:	f3043503          	ld	a0,-208(s0)
    80003012:	ec843883          	ld	a7,-312(s0)
    80003016:	ec043983          	ld	s3,-320(s0)
    8000301a:	eb843d83          	ld	s11,-328(s0)
    8000301e:	eb043603          	ld	a2,-336(s0)
    80003022:	00980563          	beq	a6,s1,8000302c <_Z9nn_conv2dPsPKsS1_mmmmmmmm+0x2ae>
    80003026:	0485                	addi	s1,s1,1
    80003028:	fe981fe3          	bne	a6,s1,80003026 <_Z9nn_conv2dPsPKsS1_mmmmmmmm+0x2a8>
    8000302c:	f2043683          	ld	a3,-224(s0)
    80003030:	0985                	addi	s3,s3,1
    80003032:	9dc6                	add	s11,s11,a7
    80003034:	963e                	add	a2,a2,a5
    80003036:	e7369be3          	bne	a3,s3,80002eac <_Z9nn_conv2dPsPKsS1_mmmmmmmm+0x12e>
    8000303a:	bd49                	j	80002ecc <_Z9nn_conv2dPsPKsS1_mmmmmmmm+0x14e>
    8000303c:	ec043983          	ld	s3,-320(s0)
    80003040:	ed843783          	ld	a5,-296(s0)
    80003044:	ec843883          	ld	a7,-312(s0)
    80003048:	eb843d83          	ld	s11,-328(s0)
    8000304c:	eb043603          	ld	a2,-336(s0)
    80003050:	f2043683          	ld	a3,-224(s0)
    80003054:	0985                	addi	s3,s3,1
    80003056:	f4043803          	ld	a6,-192(s0)
    8000305a:	ee043703          	ld	a4,-288(s0)
    8000305e:	ed043e03          	ld	t3,-304(s0)
    80003062:	f3043503          	ld	a0,-208(s0)
    80003066:	8c66                	mv	s8,s9
    80003068:	9dc6                	add	s11,s11,a7
    8000306a:	963e                	add	a2,a2,a5
    8000306c:	e53690e3          	bne	a3,s3,80002eac <_Z9nn_conv2dPsPKsS1_mmmmmmmm+0x12e>
    80003070:	bdb1                	j	80002ecc <_Z9nn_conv2dPsPKsS1_mmmmmmmm+0x14e>
    80003072:	00014697          	auipc	a3,0x14
    80003076:	fe668693          	addi	a3,a3,-26 # 80017058 <__tbss_end+0x1494>
    8000307a:	00014617          	auipc	a2,0x14
    8000307e:	fee60613          	addi	a2,a2,-18 # 80017068 <__tbss_end+0x14a4>
    80003082:	45a9                	li	a1,10
    80003084:	00014517          	auipc	a0,0x14
    80003088:	05c50513          	addi	a0,a0,92 # 800170e0 <__tbss_end+0x151c>
    8000308c:	42b0f0ef          	jal	80012cb6 <__assert_func>
    80003090:	00014517          	auipc	a0,0x14
    80003094:	06850513          	addi	a0,a0,104 # 800170f8 <__tbss_end+0x1534>
    80003098:	1b1100ef          	jal	80013a48 <puts>
    8000309c:	00014517          	auipc	a0,0x14
    800030a0:	0ac50513          	addi	a0,a0,172 # 80017148 <__tbss_end+0x1584>
    800030a4:	1a5100ef          	jal	80013a48 <puts>
    800030a8:	00014517          	auipc	a0,0x14
    800030ac:	0e050513          	addi	a0,a0,224 # 80017188 <__tbss_end+0x15c4>
    800030b0:	199100ef          	jal	80013a48 <puts>
    800030b4:	557d                	li	a0,-1
    800030b6:	4470f0ef          	jal	80012cfc <exit>

00000000800030ba <_Z9nn_linearPsPKsS1_mmm>:
    800030ba:	883a                	mv	a6,a4
    800030bc:	c509                	beqz	a0,800030c6 <_Z9nn_linearPsPKsS1_mmm+0xc>
    800030be:	8736                	mv	a4,a3
    800030c0:	86c2                	mv	a3,a6
    800030c2:	91dff06f          	j	800029de <_Z22tiled_matmul_transposePsPKsS1_mmm>
    800030c6:	1101                	addi	sp,sp,-32
    800030c8:	00014517          	auipc	a0,0x14
    800030cc:	10050513          	addi	a0,a0,256 # 800171c8 <__tbss_end+0x1604>
    800030d0:	ec06                	sd	ra,24(sp)
    800030d2:	e43e                	sd	a5,8(sp)
    800030d4:	e03a                	sd	a4,0(sp)
    800030d6:	173100ef          	jal	80013a48 <puts>
    800030da:	6602                	ld	a2,0(sp)
    800030dc:	65a2                	ld	a1,8(sp)
    800030de:	00014517          	auipc	a0,0x14
    800030e2:	13a50513          	addi	a0,a0,314 # 80017218 <__tbss_end+0x1654>
    800030e6:	01d100ef          	jal	80013902 <iprintf>
    800030ea:	557d                	li	a0,-1
    800030ec:	4110f0ef          	jal	80012cfc <exit>

00000000800030f0 <_Z9nn_linearPsPKsS1_S1_mmm>:
    800030f0:	7179                	addi	sp,sp,-48
    800030f2:	ec26                	sd	s1,24(sp)
    800030f4:	f406                	sd	ra,40(sp)
    800030f6:	f022                	sd	s0,32(sp)
    800030f8:	84b6                	mv	s1,a3
    800030fa:	86be                	mv	a3,a5
    800030fc:	c115                	beqz	a0,80003120 <_Z9nn_linearPsPKsS1_S1_mmm+0x30>
    800030fe:	87c2                	mv	a5,a6
    80003100:	842a                	mv	s0,a0
    80003102:	e036                	sd	a3,0(sp)
    80003104:	e442                	sd	a6,8(sp)
    80003106:	8d9ff0ef          	jal	800029de <_Z22tiled_matmul_transposePsPKsS1_mmm>
    8000310a:	85a2                	mv	a1,s0
    8000310c:	8522                	mv	a0,s0
    8000310e:	7402                	ld	s0,32(sp)
    80003110:	6702                	ld	a4,0(sp)
    80003112:	66a2                	ld	a3,8(sp)
    80003114:	70a2                	ld	ra,40(sp)
    80003116:	8626                	mv	a2,s1
    80003118:	64e2                	ld	s1,24(sp)
    8000311a:	6145                	addi	sp,sp,48
    8000311c:	e96fe06f          	j	800017b2 <_Z23tiled_matrix_vector_addPsPKsS1_mm>
    80003120:	00014517          	auipc	a0,0x14
    80003124:	0a850513          	addi	a0,a0,168 # 800171c8 <__tbss_end+0x1604>
    80003128:	e442                	sd	a6,8(sp)
    8000312a:	e03e                	sd	a5,0(sp)
    8000312c:	11d100ef          	jal	80013a48 <puts>
    80003130:	6602                	ld	a2,0(sp)
    80003132:	65a2                	ld	a1,8(sp)
    80003134:	00014517          	auipc	a0,0x14
    80003138:	0e450513          	addi	a0,a0,228 # 80017218 <__tbss_end+0x1654>
    8000313c:	7c6100ef          	jal	80013902 <iprintf>
    80003140:	557d                	li	a0,-1
    80003142:	3bb0f0ef          	jal	80012cfc <exit>

0000000080003146 <_Z14nn_batchnorm2dPsPKsmmmmR14BatchNormParam7stage_t>:
    80003146:	7135                	addi	sp,sp,-160
    80003148:	fcce                	sd	s3,120(sp)
    8000314a:	f8d2                	sd	s4,112(sp)
    8000314c:	f4d6                	sd	s5,104(sp)
    8000314e:	ed06                	sd	ra,152(sp)
    80003150:	e82e                	sd	a1,16(sp)
    80003152:	e432                	sd	a2,8(sp)
    80003154:	8ab6                	mv	s5,a3
    80003156:	8a3a                	mv	s4,a4
    80003158:	89be                	mv	s3,a5
    8000315a:	12050363          	beqz	a0,80003280 <_Z14nn_batchnorm2dPsPKsmmmmR14BatchNormParam7stage_t+0x13a>
    8000315e:	0e089563          	bnez	a7,80003248 <_Z14nn_batchnorm2dPsPKsmmmmR14BatchNormParam7stage_t+0x102>
    80003162:	67a2                	ld	a5,8(sp)
    80003164:	c7ed                	beqz	a5,8000324e <_Z14nn_batchnorm2dPsPKsmmmmR14BatchNormParam7stage_t+0x108>
    80003166:	c6e5                	beqz	a3,8000324e <_Z14nn_batchnorm2dPsPKsmmmmR14BatchNormParam7stage_t+0x108>
    80003168:	033708b3          	mul	a7,a4,s3
    8000316c:	e526                	sd	s1,136(sp)
    8000316e:	f0da                	sd	s6,96(sp)
    80003170:	ecde                	sd	s7,88(sp)
    80003172:	e8e2                	sd	s8,80(sp)
    80003174:	fc6e                	sd	s11,56(sp)
    80003176:	e922                	sd	s0,144(sp)
    80003178:	e14a                	sd	s2,128(sp)
    8000317a:	e4e6                	sd	s9,72(sp)
    8000317c:	e0ea                	sd	s10,64(sp)
    8000317e:	02d887b3          	mul	a5,a7,a3
    80003182:	b422                	fsd	fs0,40(sp)
    80003184:	8c2a                	mv	s8,a0
    80003186:	84c2                	mv	s1,a6
    80003188:	4b81                	li	s7,0
    8000318a:	4b01                	li	s6,0
    8000318c:	00189d93          	slli	s11,a7,0x1
    80003190:	ec3e                	sd	a5,24(sp)
    80003192:	67c2                	ld	a5,16(sp)
    80003194:	001b1813          	slli	a6,s6,0x1
    80003198:	010c0433          	add	s0,s8,a6
    8000319c:	01078cb3          	add	s9,a5,a6
    800031a0:	4d01                	li	s10,0
    800031a2:	6c98                	ld	a4,24(s1)
    800031a4:	001d1913          	slli	s2,s10,0x1
    800031a8:	0204a787          	flw	fa5,32(s1)
    800031ac:	974a                	add	a4,a4,s2
    800031ae:	00071603          	lh	a2,0(a4)
    800031b2:	6894                	ld	a3,16(s1)
    800031b4:	85e6                	mv	a1,s9
    800031b6:	d0067453          	fcvt.s.w	fs0,a2
    800031ba:	96ca                	add	a3,a3,s2
    800031bc:	00069603          	lh	a2,0(a3)
    800031c0:	00f47453          	fadd.s	fs0,fs0,fa5
    800031c4:	8522                	mv	a0,s0
    800031c6:	874e                	mv	a4,s3
    800031c8:	86d2                	mv	a3,s4
    800031ca:	a51fe0ef          	jal	80001c1a <_Z23tiled_matrix_sub_scalarPsPKssmm>
    800031ce:	58047453          	fsqrt.s	fs0,fs0
    800031d2:	85a2                	mv	a1,s0
    800031d4:	8522                	mv	a0,s0
    800031d6:	874e                	mv	a4,s3
    800031d8:	86d2                	mv	a3,s4
    800031da:	0d05                	addi	s10,s10,1
    800031dc:	9cee                	add	s9,s9,s11
    800031de:	c0041653          	fcvt.w.s	a2,fs0,rtz
    800031e2:	0106161b          	slliw	a2,a2,0x10
    800031e6:	4106561b          	sraiw	a2,a2,0x10
    800031ea:	d11fe0ef          	jal	80001efa <_Z23tiled_matrix_div_scalarPsPKssmm>
    800031ee:	6090                	ld	a2,0(s1)
    800031f0:	85a2                	mv	a1,s0
    800031f2:	8522                	mv	a0,s0
    800031f4:	964a                	add	a2,a2,s2
    800031f6:	00061603          	lh	a2,0(a2)
    800031fa:	874e                	mv	a4,s3
    800031fc:	86d2                	mv	a3,s4
    800031fe:	b8dfe0ef          	jal	80001d8a <_Z23tiled_matrix_mul_scalarPsPKssmm>
    80003202:	6490                	ld	a2,8(s1)
    80003204:	85a2                	mv	a1,s0
    80003206:	8522                	mv	a0,s0
    80003208:	964a                	add	a2,a2,s2
    8000320a:	00061603          	lh	a2,0(a2)
    8000320e:	874e                	mv	a4,s3
    80003210:	86d2                	mv	a3,s4
    80003212:	899fe0ef          	jal	80001aaa <_Z23tiled_matrix_add_scalarPsPKssmm>
    80003216:	946e                	add	s0,s0,s11
    80003218:	f9aa95e3          	bne	s5,s10,800031a2 <_Z14nn_batchnorm2dPsPKsmmmmR14BatchNormParam7stage_t+0x5c>
    8000321c:	67e2                	ld	a5,24(sp)
    8000321e:	0b85                	addi	s7,s7,1
    80003220:	9b3e                	add	s6,s6,a5
    80003222:	67a2                	ld	a5,8(sp)
    80003224:	f77797e3          	bne	a5,s7,80003192 <_Z14nn_batchnorm2dPsPKsmmmmR14BatchNormParam7stage_t+0x4c>
    80003228:	644a                	ld	s0,144(sp)
    8000322a:	60ea                	ld	ra,152(sp)
    8000322c:	64aa                	ld	s1,136(sp)
    8000322e:	690a                	ld	s2,128(sp)
    80003230:	7b06                	ld	s6,96(sp)
    80003232:	6be6                	ld	s7,88(sp)
    80003234:	6c46                	ld	s8,80(sp)
    80003236:	6ca6                	ld	s9,72(sp)
    80003238:	6d06                	ld	s10,64(sp)
    8000323a:	7de2                	ld	s11,56(sp)
    8000323c:	3422                	fld	fs0,40(sp)
    8000323e:	79e6                	ld	s3,120(sp)
    80003240:	7a46                	ld	s4,112(sp)
    80003242:	7aa6                	ld	s5,104(sp)
    80003244:	610d                	addi	sp,sp,160
    80003246:	8082                	ret
    80003248:	4785                	li	a5,1
    8000324a:	00f88863          	beq	a7,a5,8000325a <_Z14nn_batchnorm2dPsPKsmmmmR14BatchNormParam7stage_t+0x114>
    8000324e:	60ea                	ld	ra,152(sp)
    80003250:	79e6                	ld	s3,120(sp)
    80003252:	7a46                	ld	s4,112(sp)
    80003254:	7aa6                	ld	s5,104(sp)
    80003256:	610d                	addi	sp,sp,160
    80003258:	8082                	ret
    8000325a:	00014517          	auipc	a0,0x14
    8000325e:	08e50513          	addi	a0,a0,142 # 800172e8 <__tbss_end+0x1724>
    80003262:	e922                	sd	s0,144(sp)
    80003264:	e526                	sd	s1,136(sp)
    80003266:	e14a                	sd	s2,128(sp)
    80003268:	f0da                	sd	s6,96(sp)
    8000326a:	ecde                	sd	s7,88(sp)
    8000326c:	e8e2                	sd	s8,80(sp)
    8000326e:	e4e6                	sd	s9,72(sp)
    80003270:	e0ea                	sd	s10,64(sp)
    80003272:	fc6e                	sd	s11,56(sp)
    80003274:	b422                	fsd	fs0,40(sp)
    80003276:	68c100ef          	jal	80013902 <iprintf>
    8000327a:	557d                	li	a0,-1
    8000327c:	2810f0ef          	jal	80012cfc <exit>
    80003280:	00014517          	auipc	a0,0x14
    80003284:	fd050513          	addi	a0,a0,-48 # 80017250 <__tbss_end+0x168c>
    80003288:	e922                	sd	s0,144(sp)
    8000328a:	e526                	sd	s1,136(sp)
    8000328c:	e14a                	sd	s2,128(sp)
    8000328e:	f0da                	sd	s6,96(sp)
    80003290:	ecde                	sd	s7,88(sp)
    80003292:	e8e2                	sd	s8,80(sp)
    80003294:	e4e6                	sd	s9,72(sp)
    80003296:	e0ea                	sd	s10,64(sp)
    80003298:	fc6e                	sd	s11,56(sp)
    8000329a:	b422                	fsd	fs0,40(sp)
    8000329c:	7ac100ef          	jal	80013a48 <puts>
    800032a0:	65a2                	ld	a1,8(sp)
    800032a2:	874e                	mv	a4,s3
    800032a4:	86d2                	mv	a3,s4
    800032a6:	8656                	mv	a2,s5
    800032a8:	00014517          	auipc	a0,0x14
    800032ac:	ff850513          	addi	a0,a0,-8 # 800172a0 <__tbss_end+0x16dc>
    800032b0:	652100ef          	jal	80013902 <iprintf>
    800032b4:	557d                	li	a0,-1
    800032b6:	2470f0ef          	jal	80012cfc <exit>

00000000800032ba <_Z14nn_layernorm2dPsPKsmmmmR14LayerNormParam7stage_t>:
    800032ba:	7135                	addi	sp,sp,-160
    800032bc:	e526                	sd	s1,136(sp)
    800032be:	e14a                	sd	s2,128(sp)
    800032c0:	ecde                	sd	s7,88(sp)
    800032c2:	ed06                	sd	ra,152(sp)
    800032c4:	ec2a                	sd	a0,24(sp)
    800032c6:	e82e                	sd	a1,16(sp)
    800032c8:	e432                	sd	a2,8(sp)
    800032ca:	8bb6                	mv	s7,a3
    800032cc:	893a                	mv	s2,a4
    800032ce:	84be                	mv	s1,a5
    800032d0:	12050c63          	beqz	a0,80003408 <_Z14nn_layernorm2dPsPKsmmmmR14LayerNormParam7stage_t+0x14e>
    800032d4:	0e089f63          	bnez	a7,800033d2 <_Z14nn_layernorm2dPsPKsmmmmR14LayerNormParam7stage_t+0x118>
    800032d8:	67a2                	ld	a5,8(sp)
    800032da:	0e078f63          	beqz	a5,800033d8 <_Z14nn_layernorm2dPsPKsmmmmR14LayerNormParam7stage_t+0x11e>
    800032de:	f4d6                	sd	s5,104(sp)
    800032e0:	02970ab3          	mul	s5,a4,s1
    800032e4:	fcce                	sd	s3,120(sp)
    800032e6:	e8e2                	sd	s8,80(sp)
    800032e8:	e4e6                	sd	s9,72(sp)
    800032ea:	e922                	sd	s0,144(sp)
    800032ec:	f8d2                	sd	s4,112(sp)
    800032ee:	f0da                	sd	s6,96(sp)
    800032f0:	e0ea                	sd	s10,64(sp)
    800032f2:	fc6e                	sd	s11,56(sp)
    800032f4:	89c2                	mv	s3,a6
    800032f6:	02da87b3          	mul	a5,s5,a3
    800032fa:	4c81                	li	s9,0
    800032fc:	4c01                	li	s8,0
    800032fe:	0a86                	slli	s5,s5,0x1
    80003300:	e03e                	sd	a5,0(sp)
    80003302:	67c2                	ld	a5,16(sp)
    80003304:	001c9413          	slli	s0,s9,0x1
    80003308:	864a                	mv	a2,s2
    8000330a:	00878d33          	add	s10,a5,s0
    8000330e:	85ea                	mv	a1,s10
    80003310:	1068                	addi	a0,sp,44
    80003312:	875e                	mv	a4,s7
    80003314:	86a6                	mv	a3,s1
    80003316:	b30fe0ef          	jal	80001646 <_Z11matrix_meanPsPKsmmm>
    8000331a:	6602                	ld	a2,0(sp)
    8000331c:	85ea                	mv	a1,s10
    8000331e:	02e10513          	addi	a0,sp,46
    80003322:	858fe0ef          	jal	8000137a <_Z10vector_varPsPKsm>
    80003326:	080b8163          	beqz	s7,800033a8 <_Z14nn_layernorm2dPsPKsmmmmR14LayerNormParam7stage_t+0xee>
    8000332a:	02e11783          	lh	a5,46(sp)
    8000332e:	0109a707          	flw	fa4,16(s3)
    80003332:	6762                	ld	a4,24(sp)
    80003334:	d007f7d3          	fcvt.s.w	fa5,a5
    80003338:	001c1a13          	slli	s4,s8,0x1
    8000333c:	943a                	add	s0,s0,a4
    8000333e:	00e7f7d3          	fadd.s	fa5,fa5,fa4
    80003342:	4d81                	li	s11,0
    80003344:	5807f7d3          	fsqrt.s	fa5,fa5
    80003348:	c0079b53          	fcvt.w.s	s6,fa5,rtz
    8000334c:	010b1b1b          	slliw	s6,s6,0x10
    80003350:	410b5b1b          	sraiw	s6,s6,0x10
    80003354:	02c11603          	lh	a2,44(sp)
    80003358:	85ea                	mv	a1,s10
    8000335a:	8522                	mv	a0,s0
    8000335c:	8726                	mv	a4,s1
    8000335e:	86ca                	mv	a3,s2
    80003360:	8bbfe0ef          	jal	80001c1a <_Z23tiled_matrix_sub_scalarPsPKssmm>
    80003364:	85a2                	mv	a1,s0
    80003366:	8522                	mv	a0,s0
    80003368:	8726                	mv	a4,s1
    8000336a:	86ca                	mv	a3,s2
    8000336c:	865a                	mv	a2,s6
    8000336e:	b8dfe0ef          	jal	80001efa <_Z23tiled_matrix_div_scalarPsPKssmm>
    80003372:	0009b783          	ld	a5,0(s3)
    80003376:	85a2                	mv	a1,s0
    80003378:	8522                	mv	a0,s0
    8000337a:	97d2                	add	a5,a5,s4
    8000337c:	00079603          	lh	a2,0(a5)
    80003380:	8726                	mv	a4,s1
    80003382:	86ca                	mv	a3,s2
    80003384:	a07fe0ef          	jal	80001d8a <_Z23tiled_matrix_mul_scalarPsPKssmm>
    80003388:	0089b783          	ld	a5,8(s3)
    8000338c:	85a2                	mv	a1,s0
    8000338e:	8522                	mv	a0,s0
    80003390:	97d2                	add	a5,a5,s4
    80003392:	00079603          	lh	a2,0(a5)
    80003396:	8726                	mv	a4,s1
    80003398:	86ca                	mv	a3,s2
    8000339a:	0d85                	addi	s11,s11,1
    8000339c:	f0efe0ef          	jal	80001aaa <_Z23tiled_matrix_add_scalarPsPKssmm>
    800033a0:	9456                	add	s0,s0,s5
    800033a2:	9d56                	add	s10,s10,s5
    800033a4:	fbbb98e3          	bne	s7,s11,80003354 <_Z14nn_layernorm2dPsPKsmmmmR14LayerNormParam7stage_t+0x9a>
    800033a8:	6782                	ld	a5,0(sp)
    800033aa:	0c05                	addi	s8,s8,1
    800033ac:	9cbe                	add	s9,s9,a5
    800033ae:	67a2                	ld	a5,8(sp)
    800033b0:	f58799e3          	bne	a5,s8,80003302 <_Z14nn_layernorm2dPsPKsmmmmR14LayerNormParam7stage_t+0x48>
    800033b4:	644a                	ld	s0,144(sp)
    800033b6:	60ea                	ld	ra,152(sp)
    800033b8:	79e6                	ld	s3,120(sp)
    800033ba:	7a46                	ld	s4,112(sp)
    800033bc:	7aa6                	ld	s5,104(sp)
    800033be:	7b06                	ld	s6,96(sp)
    800033c0:	6c46                	ld	s8,80(sp)
    800033c2:	6ca6                	ld	s9,72(sp)
    800033c4:	6d06                	ld	s10,64(sp)
    800033c6:	7de2                	ld	s11,56(sp)
    800033c8:	64aa                	ld	s1,136(sp)
    800033ca:	690a                	ld	s2,128(sp)
    800033cc:	6be6                	ld	s7,88(sp)
    800033ce:	610d                	addi	sp,sp,160
    800033d0:	8082                	ret
    800033d2:	4785                	li	a5,1
    800033d4:	00f88863          	beq	a7,a5,800033e4 <_Z14nn_layernorm2dPsPKsmmmmR14LayerNormParam7stage_t+0x12a>
    800033d8:	60ea                	ld	ra,152(sp)
    800033da:	64aa                	ld	s1,136(sp)
    800033dc:	690a                	ld	s2,128(sp)
    800033de:	6be6                	ld	s7,88(sp)
    800033e0:	610d                	addi	sp,sp,160
    800033e2:	8082                	ret
    800033e4:	00014517          	auipc	a0,0x14
    800033e8:	f8450513          	addi	a0,a0,-124 # 80017368 <__tbss_end+0x17a4>
    800033ec:	e922                	sd	s0,144(sp)
    800033ee:	fcce                	sd	s3,120(sp)
    800033f0:	f8d2                	sd	s4,112(sp)
    800033f2:	f4d6                	sd	s5,104(sp)
    800033f4:	f0da                	sd	s6,96(sp)
    800033f6:	e8e2                	sd	s8,80(sp)
    800033f8:	e4e6                	sd	s9,72(sp)
    800033fa:	e0ea                	sd	s10,64(sp)
    800033fc:	fc6e                	sd	s11,56(sp)
    800033fe:	504100ef          	jal	80013902 <iprintf>
    80003402:	557d                	li	a0,-1
    80003404:	0f90f0ef          	jal	80012cfc <exit>
    80003408:	00014517          	auipc	a0,0x14
    8000340c:	f1050513          	addi	a0,a0,-240 # 80017318 <__tbss_end+0x1754>
    80003410:	e922                	sd	s0,144(sp)
    80003412:	fcce                	sd	s3,120(sp)
    80003414:	f8d2                	sd	s4,112(sp)
    80003416:	f4d6                	sd	s5,104(sp)
    80003418:	f0da                	sd	s6,96(sp)
    8000341a:	e8e2                	sd	s8,80(sp)
    8000341c:	e4e6                	sd	s9,72(sp)
    8000341e:	e0ea                	sd	s10,64(sp)
    80003420:	fc6e                	sd	s11,56(sp)
    80003422:	626100ef          	jal	80013a48 <puts>
    80003426:	65a2                	ld	a1,8(sp)
    80003428:	8726                	mv	a4,s1
    8000342a:	86ca                	mv	a3,s2
