
build-baremetal/test_transformer_int16.elf:     file format elf64-littleriscv


Disassembly of section .text:

0000000080000000 <_start>:
    80000000:	4081                	li	ra,0
    80000002:	4101                	li	sp,0
    80000004:	4181                	li	gp,0
    80000006:	4201                	li	tp,0
    80000008:	4281                	li	t0,0
    8000000a:	4301                	li	t1,0
    8000000c:	4381                	li	t2,0
    8000000e:	4401                	li	s0,0
    80000010:	4481                	li	s1,0
    80000012:	4501                	li	a0,0
    80000014:	4581                	li	a1,0
    80000016:	4601                	li	a2,0
    80000018:	4681                	li	a3,0
    8000001a:	4701                	li	a4,0
    8000001c:	4781                	li	a5,0
    8000001e:	4801                	li	a6,0
    80000020:	4881                	li	a7,0
    80000022:	4901                	li	s2,0
    80000024:	4981                	li	s3,0
    80000026:	4a01                	li	s4,0
    80000028:	4a81                	li	s5,0
    8000002a:	4b01                	li	s6,0
    8000002c:	4b81                	li	s7,0
    8000002e:	4c01                	li	s8,0
    80000030:	4c81                	li	s9,0
    80000032:	4d01                	li	s10,0
    80000034:	4d81                	li	s11,0
    80000036:	4e01                	li	t3,0
    80000038:	4e81                	li	t4,0
    8000003a:	4f01                	li	t5,0
    8000003c:	4f81                	li	t6,0
    8000003e:	62f9                	lui	t0,0x1e
    80000040:	3002a073          	csrs	mstatus,t0
    80000044:	00000297          	auipc	t0,0x0
    80000048:	09028293          	addi	t0,t0,144 # 800000d4 <_start+0xd4>
    8000004c:	30529073          	csrw	mtvec,t0
    80000050:	00301073          	fscsr	zero
    80000054:	f0000053          	fmv.w.x	ft0,zero
    80000058:	f00000d3          	fmv.w.x	ft1,zero
    8000005c:	f0000153          	fmv.w.x	ft2,zero
    80000060:	f00001d3          	fmv.w.x	ft3,zero
    80000064:	f0000253          	fmv.w.x	ft4,zero
    80000068:	f00002d3          	fmv.w.x	ft5,zero
    8000006c:	f0000353          	fmv.w.x	ft6,zero
    80000070:	f00003d3          	fmv.w.x	ft7,zero
    80000074:	f0000453          	fmv.w.x	fs0,zero
    80000078:	f00004d3          	fmv.w.x	fs1,zero
    8000007c:	f0000553          	fmv.w.x	fa0,zero
    80000080:	f00005d3          	fmv.w.x	fa1,zero
    80000084:	f0000653          	fmv.w.x	fa2,zero
    80000088:	f00006d3          	fmv.w.x	fa3,zero
    8000008c:	f0000753          	fmv.w.x	fa4,zero
    80000090:	f00007d3          	fmv.w.x	fa5,zero
    80000094:	f0000853          	fmv.w.x	fa6,zero
    80000098:	f00008d3          	fmv.w.x	fa7,zero
    8000009c:	f0000953          	fmv.w.x	fs2,zero
    800000a0:	f00009d3          	fmv.w.x	fs3,zero
    800000a4:	f0000a53          	fmv.w.x	fs4,zero
    800000a8:	f0000ad3          	fmv.w.x	fs5,zero
    800000ac:	f0000b53          	fmv.w.x	fs6,zero
    800000b0:	f0000bd3          	fmv.w.x	fs7,zero
    800000b4:	f0000c53          	fmv.w.x	fs8,zero
    800000b8:	f0000cd3          	fmv.w.x	fs9,zero
    800000bc:	f0000d53          	fmv.w.x	fs10,zero
    800000c0:	f0000dd3          	fmv.w.x	fs11,zero
    800000c4:	f0000e53          	fmv.w.x	ft8,zero
    800000c8:	f0000ed3          	fmv.w.x	ft9,zero
    800000cc:	f0000f53          	fmv.w.x	ft10,zero
    800000d0:	f0000fd3          	fmv.w.x	ft11,zero
    800000d4:	00025197          	auipc	gp,0x25
    800000d8:	36418193          	addi	gp,gp,868 # 80025438 <__global_pointer$>
    800000dc:	f1402473          	csrr	s0,mhartid
    800000e0:	00f00293          	li	t0,15
    800000e4:	00050217          	auipc	tp,0x50
    800000e8:	f1c20213          	addi	tp,tp,-228 # 80050000 <__heap_end>
    800000ec:	005412b3          	sll	t0,s0,t0
    800000f0:	9216                	add	tp,tp,t0
    800000f2:	62a1                	lui	t0,0x8
    800000f4:	00028293          	mv	t0,t0
    800000f8:	00520133          	add	sp,tp,t0
    800000fc:	00000297          	auipc	t0,0x0
    80000100:	04828293          	addi	t0,t0,72 # 80000144 <trap_entry>
    80000104:	30529073          	csrw	mtvec,t0
    80000108:	263160ef          	jal	80016b6a <__init_tls>
    8000010c:	00000293          	li	t0,0
    80000110:	00540463          	beq	s0,t0,80000118 <_start+0x118>
    80000114:	0fe0006f          	j	80000212 <_start_secondary>
    80000118:	a0818293          	addi	t0,gp,-1528 # 80024e40 <_ZL10pass_count>
    8000011c:	00030317          	auipc	t1,0x30
    80000120:	bac30313          	addi	t1,t1,-1108 # 8002fcc8 <_end>
    80000124:	0062f763          	bgeu	t0,t1,80000132 <_start+0x132>
    80000128:	0002b023          	sd	zero,0(t0)
    8000012c:	02a1                	addi	t0,t0,8
    8000012e:	fe62ede3          	bltu	t0,t1,80000128 <_start+0x128>
    80000132:	00017517          	auipc	a0,0x17
    80000136:	b2050513          	addi	a0,a0,-1248 # 80016c52 <__libc_fini_array>
    8000013a:	2b1160ef          	jal	80016bea <atexit>
    8000013e:	2b7160ef          	jal	80016bf4 <__libc_init_array>
    80000142:	a075                	j	800001ee <_start_main>

0000000080000144 <trap_entry>:
    80000144:	34011073          	csrw	mscratch,sp
    80000148:	7111                	addi	sp,sp,-256
    8000014a:	e406                	sd	ra,8(sp)
    8000014c:	340020f3          	csrr	ra,mscratch
    80000150:	e806                	sd	ra,16(sp)
    80000152:	ec0e                	sd	gp,24(sp)
    80000154:	f012                	sd	tp,32(sp)
    80000156:	f416                	sd	t0,40(sp)
    80000158:	f81a                	sd	t1,48(sp)
    8000015a:	fc1e                	sd	t2,56(sp)
    8000015c:	e0a2                	sd	s0,64(sp)
    8000015e:	e4a6                	sd	s1,72(sp)
    80000160:	e8aa                	sd	a0,80(sp)
    80000162:	ecae                	sd	a1,88(sp)
    80000164:	f0b2                	sd	a2,96(sp)
    80000166:	f4b6                	sd	a3,104(sp)
    80000168:	f8ba                	sd	a4,112(sp)
    8000016a:	fcbe                	sd	a5,120(sp)
    8000016c:	e142                	sd	a6,128(sp)
    8000016e:	e546                	sd	a7,136(sp)
    80000170:	e94a                	sd	s2,144(sp)
    80000172:	ed4e                	sd	s3,152(sp)
    80000174:	f152                	sd	s4,160(sp)
    80000176:	f556                	sd	s5,168(sp)
    80000178:	f95a                	sd	s6,176(sp)
    8000017a:	fd5e                	sd	s7,184(sp)
    8000017c:	e1e2                	sd	s8,192(sp)
    8000017e:	e5e6                	sd	s9,200(sp)
    80000180:	e9ea                	sd	s10,208(sp)
    80000182:	edee                	sd	s11,216(sp)
    80000184:	f1f2                	sd	t3,224(sp)
    80000186:	f5f6                	sd	t4,232(sp)
    80000188:	f9fa                	sd	t5,240(sp)
    8000018a:	fdfe                	sd	t6,248(sp)
    8000018c:	34102573          	csrr	a0,mepc
    80000190:	342025f3          	csrr	a1,mcause
    80000194:	34302673          	csrr	a2,mtval
    80000198:	868a                	mv	a3,sp
    8000019a:	1bb160ef          	jal	80016b54 <handle_trap>
    8000019e:	34151073          	csrw	mepc,a0
    800001a2:	6289                	lui	t0,0x2
    800001a4:	8002829b          	addiw	t0,t0,-2048 # 1800 <__stack_align+0x17f0>
    800001a8:	3002a073          	csrs	mstatus,t0
    800001ac:	60a2                	ld	ra,8(sp)
    800001ae:	61e2                	ld	gp,24(sp)
    800001b0:	7202                	ld	tp,32(sp)
    800001b2:	72a2                	ld	t0,40(sp)
    800001b4:	7342                	ld	t1,48(sp)
    800001b6:	73e2                	ld	t2,56(sp)
    800001b8:	6406                	ld	s0,64(sp)
    800001ba:	64a6                	ld	s1,72(sp)
    800001bc:	6546                	ld	a0,80(sp)
    800001be:	65e6                	ld	a1,88(sp)
    800001c0:	7606                	ld	a2,96(sp)
    800001c2:	76a6                	ld	a3,104(sp)
    800001c4:	7746                	ld	a4,112(sp)
    800001c6:	77e6                	ld	a5,120(sp)
    800001c8:	680a                	ld	a6,128(sp)
    800001ca:	68aa                	ld	a7,136(sp)
    800001cc:	694a                	ld	s2,144(sp)
    800001ce:	69ea                	ld	s3,152(sp)
    800001d0:	7a0a                	ld	s4,160(sp)
    800001d2:	7aaa                	ld	s5,168(sp)
    800001d4:	7b4a                	ld	s6,176(sp)
    800001d6:	7bea                	ld	s7,184(sp)
    800001d8:	6c0e                	ld	s8,192(sp)
    800001da:	6cae                	ld	s9,200(sp)
    800001dc:	6d4e                	ld	s10,208(sp)
    800001de:	6dee                	ld	s11,216(sp)
    800001e0:	7e0e                	ld	t3,224(sp)
    800001e2:	7eae                	ld	t4,232(sp)
    800001e4:	7f4e                	ld	t5,240(sp)
    800001e6:	7fee                	ld	t6,248(sp)
    800001e8:	6142                	ld	sp,16(sp)
    800001ea:	30200073          	mret

00000000800001ee <_start_main>:
    800001ee:	52fd                	li	t0,-1
    800001f0:	0110000f          	fence	w,w
    800001f4:	00030317          	auipc	t1,0x30
    800001f8:	9a532a23          	sw	t0,-1612(t1) # 8002fba8 <__boot_sync>
    800001fc:	4505                	li	a0,1
    800001fe:	0001d597          	auipc	a1,0x1d
    80000202:	faa58593          	addi	a1,a1,-86 # 8001d1a8 <argv>
    80000206:	8481b603          	ld	a2,-1976(gp) # 80024c80 <environ>
    8000020a:	5e4000ef          	jal	800007ee <main>
    8000020e:	4f11306f          	j	80013efe <exit>

0000000080000212 <_start_secondary>:
    80000212:	00030317          	auipc	t1,0x30
    80000216:	99632283          	lw	t0,-1642(t1) # 8002fba8 <__boot_sync>
    8000021a:	fe028ee3          	beqz	t0,80000216 <_start_secondary+0x4>
    8000021e:	0220000f          	fence	r,r
    80000222:	4505                	li	a0,1
    80000224:	0001d597          	auipc	a1,0x1d
    80000228:	f8458593          	addi	a1,a1,-124 # 8001d1a8 <argv>
    8000022c:	8481b603          	ld	a2,-1976(gp) # 80024c80 <environ>
    80000230:	16b160ef          	jal	80016b9a <__main>
    80000234:	4cb1306f          	j	80013efe <exit>

0000000080000238 <__cxa_bad_cast>:
    80000238:	1141                	addi	sp,sp,-16
    8000023a:	4521                	li	a0,8
    8000023c:	e406                	sd	ra,8(sp)
    8000023e:	793050ef          	jal	800061d0 <__cxa_allocate_exception>
    80000242:	0001a797          	auipc	a5,0x1a
    80000246:	52678793          	addi	a5,a5,1318 # 8001a768 <_ZTVSt8bad_cast+0x10>
    8000024a:	e11c                	sd	a5,0(a0)
    8000024c:	00006617          	auipc	a2,0x6
    80000250:	e5460613          	addi	a2,a2,-428 # 800060a0 <_ZNSt8bad_castD1Ev>
    80000254:	0001a597          	auipc	a1,0x1a
    80000258:	4ec58593          	addi	a1,a1,1260 # 8001a740 <_ZTISt8bad_cast>
    8000025c:	57d050ef          	jal	80005fd8 <__cxa_throw>

0000000080000260 <__cxa_bad_typeid>:
    80000260:	1141                	addi	sp,sp,-16
    80000262:	4521                	li	a0,8
    80000264:	e406                	sd	ra,8(sp)
    80000266:	76b050ef          	jal	800061d0 <__cxa_allocate_exception>
    8000026a:	0001a797          	auipc	a5,0x1a
    8000026e:	54e78793          	addi	a5,a5,1358 # 8001a7b8 <_ZTVSt10bad_typeid+0x10>
    80000272:	e11c                	sd	a5,0(a0)
    80000274:	00006617          	auipc	a2,0x6
    80000278:	e5660613          	addi	a2,a2,-426 # 800060ca <_ZNSt10bad_typeidD1Ev>
    8000027c:	0001a597          	auipc	a1,0x1a
    80000280:	51458593          	addi	a1,a1,1300 # 8001a790 <_ZTISt10bad_typeid>
    80000284:	555050ef          	jal	80005fd8 <__cxa_throw>

0000000080000288 <__cxa_throw_bad_array_new_length>:
    80000288:	1141                	addi	sp,sp,-16
    8000028a:	4521                	li	a0,8
    8000028c:	e406                	sd	ra,8(sp)
    8000028e:	743050ef          	jal	800061d0 <__cxa_allocate_exception>
    80000292:	0001a797          	auipc	a5,0x1a
    80000296:	48678793          	addi	a5,a5,1158 # 8001a718 <_ZTVSt20bad_array_new_length+0x10>
    8000029a:	e11c                	sd	a5,0(a0)
    8000029c:	00006617          	auipc	a2,0x6
    800002a0:	dd860613          	addi	a2,a2,-552 # 80006074 <_ZNSt20bad_array_new_lengthD1Ev>
    800002a4:	0001a597          	auipc	a1,0x1a
    800002a8:	44c58593          	addi	a1,a1,1100 # 8001a6f0 <_ZTISt20bad_array_new_length>
    800002ac:	52d050ef          	jal	80005fd8 <__cxa_throw>

00000000800002b0 <_ZN9__gnu_cxx9__freeresEv>:
    800002b0:	0002f517          	auipc	a0,0x2f
    800002b4:	62053503          	ld	a0,1568(a0) # 8002f8d0 <_ZN12_GLOBAL__N_1L14emergency_poolE+0x10>
    800002b8:	cd01                	beqz	a0,800002d0 <_ZN9__gnu_cxx9__freeresEv+0x20>
    800002ba:	1141                	addi	sp,sp,-16
    800002bc:	e406                	sd	ra,8(sp)
    800002be:	535130ef          	jal	80013ff2 <free>
    800002c2:	60a2                	ld	ra,8(sp)
    800002c4:	0002f797          	auipc	a5,0x2f
    800002c8:	6007b623          	sd	zero,1548(a5) # 8002f8d0 <_ZN12_GLOBAL__N_1L14emergency_poolE+0x10>
    800002cc:	0141                	addi	sp,sp,16
    800002ce:	8082                	ret
    800002d0:	8082                	ret

00000000800002d2 <_ZSt9terminatev>:
    800002d2:	1141                	addi	sp,sp,-16
    800002d4:	e406                	sd	ra,8(sp)
    800002d6:	053060ef          	jal	80006b28 <_ZSt13get_terminatev>
    800002da:	029060ef          	jal	80006b02 <_ZN10__cxxabiv111__terminateEPFvvE>

00000000800002de <_ZSt10unexpectedv>:
    800002de:	1141                	addi	sp,sp,-16
    800002e0:	e406                	sd	ra,8(sp)
    800002e2:	071060ef          	jal	80006b52 <_ZSt14get_unexpectedv>
    800002e6:	04f060ef          	jal	80006b34 <_ZN10__cxxabiv112__unexpectedEPFvvE>

00000000800002ea <_ZSt21__throw_bad_exceptionv>:
    800002ea:	1141                	addi	sp,sp,-16
    800002ec:	4521                	li	a0,8
    800002ee:	e406                	sd	ra,8(sp)
    800002f0:	6e1050ef          	jal	800061d0 <__cxa_allocate_exception>
    800002f4:	0001a797          	auipc	a5,0x1a
    800002f8:	5cc78793          	addi	a5,a5,1484 # 8001a8c0 <_ZTVSt13bad_exception+0x10>
    800002fc:	e11c                	sd	a5,0(a0)
    800002fe:	00006617          	auipc	a2,0x6
    80000302:	0f060613          	addi	a2,a2,240 # 800063ee <_ZNSt13bad_exceptionD1Ev>
    80000306:	0001a597          	auipc	a1,0x1a
    8000030a:	50258593          	addi	a1,a1,1282 # 8001a808 <_ZTISt13bad_exception>
    8000030e:	4cb050ef          	jal	80005fd8 <__cxa_throw>

0000000080000312 <_ZSt17__throw_bad_allocv>:
    80000312:	1141                	addi	sp,sp,-16
    80000314:	4521                	li	a0,8
    80000316:	e406                	sd	ra,8(sp)
    80000318:	6b9050ef          	jal	800061d0 <__cxa_allocate_exception>
    8000031c:	0001a797          	auipc	a5,0x1a
    80000320:	77478793          	addi	a5,a5,1908 # 8001aa90 <_ZTVSt9bad_alloc+0x10>
    80000324:	e11c                	sd	a5,0(a0)
    80000326:	00007617          	auipc	a2,0x7
    8000032a:	c5c60613          	addi	a2,a2,-932 # 80006f82 <_ZNSt9bad_allocD1Ev>
    8000032e:	0001a597          	auipc	a1,0x1a
    80000332:	73a58593          	addi	a1,a1,1850 # 8001aa68 <_ZTISt9bad_alloc>
    80000336:	4a3050ef          	jal	80005fd8 <__cxa_throw>

000000008000033a <_ZSt28__throw_bad_array_new_lengthv>:
    8000033a:	1141                	addi	sp,sp,-16
    8000033c:	4521                	li	a0,8
    8000033e:	e406                	sd	ra,8(sp)
    80000340:	691050ef          	jal	800061d0 <__cxa_allocate_exception>
    80000344:	0001a797          	auipc	a5,0x1a
    80000348:	3d478793          	addi	a5,a5,980 # 8001a718 <_ZTVSt20bad_array_new_length+0x10>
    8000034c:	e11c                	sd	a5,0(a0)
    8000034e:	00006617          	auipc	a2,0x6
    80000352:	d2660613          	addi	a2,a2,-730 # 80006074 <_ZNSt20bad_array_new_lengthD1Ev>
    80000356:	0001a597          	auipc	a1,0x1a
    8000035a:	39a58593          	addi	a1,a1,922 # 8001a6f0 <_ZTISt20bad_array_new_length>
    8000035e:	47b050ef          	jal	80005fd8 <__cxa_throw>

0000000080000362 <_ZSt16__throw_bad_castv>:
    80000362:	1141                	addi	sp,sp,-16
    80000364:	4521                	li	a0,8
    80000366:	e406                	sd	ra,8(sp)
    80000368:	669050ef          	jal	800061d0 <__cxa_allocate_exception>
    8000036c:	0001a797          	auipc	a5,0x1a
    80000370:	3fc78793          	addi	a5,a5,1020 # 8001a768 <_ZTVSt8bad_cast+0x10>
    80000374:	e11c                	sd	a5,0(a0)
    80000376:	00006617          	auipc	a2,0x6
    8000037a:	d2a60613          	addi	a2,a2,-726 # 800060a0 <_ZNSt8bad_castD1Ev>
    8000037e:	0001a597          	auipc	a1,0x1a
    80000382:	3c258593          	addi	a1,a1,962 # 8001a740 <_ZTISt8bad_cast>
    80000386:	453050ef          	jal	80005fd8 <__cxa_throw>

000000008000038a <_ZSt18__throw_bad_typeidv>:
    8000038a:	1141                	addi	sp,sp,-16
    8000038c:	4521                	li	a0,8
    8000038e:	e406                	sd	ra,8(sp)
    80000390:	641050ef          	jal	800061d0 <__cxa_allocate_exception>
    80000394:	0001a797          	auipc	a5,0x1a
    80000398:	42478793          	addi	a5,a5,1060 # 8001a7b8 <_ZTVSt10bad_typeid+0x10>
    8000039c:	e11c                	sd	a5,0(a0)
    8000039e:	00006617          	auipc	a2,0x6
    800003a2:	d2c60613          	addi	a2,a2,-724 # 800060ca <_ZNSt10bad_typeidD1Ev>
    800003a6:	0001a597          	auipc	a1,0x1a
    800003aa:	3ea58593          	addi	a1,a1,1002 # 8001a790 <_ZTISt10bad_typeid>
    800003ae:	42b050ef          	jal	80005fd8 <__cxa_throw>

00000000800003b2 <_ZSt19__throw_logic_errorPKc>:
    800003b2:	7179                	addi	sp,sp,-48
    800003b4:	e42a                	sd	a0,8(sp)
    800003b6:	4541                	li	a0,16
    800003b8:	f022                	sd	s0,32(sp)
    800003ba:	f406                	sd	ra,40(sp)
    800003bc:	ec26                	sd	s1,24(sp)
    800003be:	613050ef          	jal	800061d0 <__cxa_allocate_exception>
    800003c2:	65a2                	ld	a1,8(sp)
    800003c4:	842a                	mv	s0,a0
    800003c6:	6c80b0ef          	jal	8000ba8e <_ZNSt11logic_errorC1EPKc>
    800003ca:	0000b617          	auipc	a2,0xb
    800003ce:	39860613          	addi	a2,a2,920 # 8000b762 <_ZNSt11logic_errorD1Ev>
    800003d2:	0001c597          	auipc	a1,0x1c
    800003d6:	8de58593          	addi	a1,a1,-1826 # 8001bcb0 <_ZTISt11logic_error>
    800003da:	8522                	mv	a0,s0
    800003dc:	3fd050ef          	jal	80005fd8 <__cxa_throw>
    800003e0:	84aa                	mv	s1,a0
    800003e2:	8522                	mv	a0,s0
    800003e4:	627050ef          	jal	8000620a <__cxa_free_exception>
    800003e8:	8526                	mv	a0,s1
    800003ea:	6fc120ef          	jal	80012ae6 <_Unwind_Resume>

00000000800003ee <_ZSt20__throw_domain_errorPKc>:
    800003ee:	7179                	addi	sp,sp,-48
    800003f0:	e42a                	sd	a0,8(sp)
    800003f2:	4541                	li	a0,16
    800003f4:	f022                	sd	s0,32(sp)
    800003f6:	f406                	sd	ra,40(sp)
    800003f8:	ec26                	sd	s1,24(sp)
    800003fa:	5d7050ef          	jal	800061d0 <__cxa_allocate_exception>
    800003fe:	65a2                	ld	a1,8(sp)
    80000400:	842a                	mv	s0,a0
    80000402:	6c20b0ef          	jal	8000bac4 <_ZNSt12domain_errorC1EPKc>
    80000406:	0000b617          	auipc	a2,0xb
    8000040a:	39860613          	addi	a2,a2,920 # 8000b79e <_ZNSt12domain_errorD1Ev>
    8000040e:	0001c597          	auipc	a1,0x1c
    80000412:	8d258593          	addi	a1,a1,-1838 # 8001bce0 <_ZTISt12domain_error>
    80000416:	8522                	mv	a0,s0
    80000418:	3c1050ef          	jal	80005fd8 <__cxa_throw>
    8000041c:	84aa                	mv	s1,a0
    8000041e:	8522                	mv	a0,s0
    80000420:	5eb050ef          	jal	8000620a <__cxa_free_exception>
    80000424:	8526                	mv	a0,s1
    80000426:	6c0120ef          	jal	80012ae6 <_Unwind_Resume>

000000008000042a <_ZSt24__throw_invalid_argumentPKc>:
    8000042a:	7179                	addi	sp,sp,-48
    8000042c:	e42a                	sd	a0,8(sp)
    8000042e:	4541                	li	a0,16
    80000430:	f022                	sd	s0,32(sp)
    80000432:	f406                	sd	ra,40(sp)
    80000434:	ec26                	sd	s1,24(sp)
    80000436:	59b050ef          	jal	800061d0 <__cxa_allocate_exception>
    8000043a:	65a2                	ld	a1,8(sp)
    8000043c:	842a                	mv	s0,a0
    8000043e:	6a20b0ef          	jal	8000bae0 <_ZNSt16invalid_argumentC1EPKc>
    80000442:	0000b617          	auipc	a2,0xb
    80000446:	37e60613          	addi	a2,a2,894 # 8000b7c0 <_ZNSt16invalid_argumentD1Ev>
    8000044a:	0001c597          	auipc	a1,0x1c
    8000044e:	8c658593          	addi	a1,a1,-1850 # 8001bd10 <_ZTISt16invalid_argument>
    80000452:	8522                	mv	a0,s0
    80000454:	385050ef          	jal	80005fd8 <__cxa_throw>
    80000458:	84aa                	mv	s1,a0
    8000045a:	8522                	mv	a0,s0
    8000045c:	5af050ef          	jal	8000620a <__cxa_free_exception>
    80000460:	8526                	mv	a0,s1
    80000462:	684120ef          	jal	80012ae6 <_Unwind_Resume>

0000000080000466 <_ZSt20__throw_length_errorPKc>:
    80000466:	7179                	addi	sp,sp,-48
    80000468:	e42a                	sd	a0,8(sp)
    8000046a:	4541                	li	a0,16
    8000046c:	f022                	sd	s0,32(sp)
    8000046e:	f406                	sd	ra,40(sp)
    80000470:	ec26                	sd	s1,24(sp)
    80000472:	55f050ef          	jal	800061d0 <__cxa_allocate_exception>
    80000476:	65a2                	ld	a1,8(sp)
    80000478:	842a                	mv	s0,a0
    8000047a:	6820b0ef          	jal	8000bafc <_ZNSt12length_errorC1EPKc>
    8000047e:	0000b617          	auipc	a2,0xb
    80000482:	36460613          	addi	a2,a2,868 # 8000b7e2 <_ZNSt12length_errorD1Ev>
    80000486:	0001c597          	auipc	a1,0x1c
    8000048a:	8ba58593          	addi	a1,a1,-1862 # 8001bd40 <_ZTISt12length_error>
    8000048e:	8522                	mv	a0,s0
    80000490:	349050ef          	jal	80005fd8 <__cxa_throw>
    80000494:	84aa                	mv	s1,a0
    80000496:	8522                	mv	a0,s0
    80000498:	573050ef          	jal	8000620a <__cxa_free_exception>
    8000049c:	8526                	mv	a0,s1
    8000049e:	648120ef          	jal	80012ae6 <_Unwind_Resume>

00000000800004a2 <_ZSt20__throw_out_of_rangePKc>:
    800004a2:	7179                	addi	sp,sp,-48
    800004a4:	e42a                	sd	a0,8(sp)
    800004a6:	4541                	li	a0,16
    800004a8:	f022                	sd	s0,32(sp)
    800004aa:	f406                	sd	ra,40(sp)
    800004ac:	ec26                	sd	s1,24(sp)
    800004ae:	523050ef          	jal	800061d0 <__cxa_allocate_exception>
    800004b2:	65a2                	ld	a1,8(sp)
    800004b4:	842a                	mv	s0,a0
    800004b6:	6620b0ef          	jal	8000bb18 <_ZNSt12out_of_rangeC1EPKc>
    800004ba:	0000b617          	auipc	a2,0xb
    800004be:	34a60613          	addi	a2,a2,842 # 8000b804 <_ZNSt12out_of_rangeD1Ev>
    800004c2:	0001c597          	auipc	a1,0x1c
    800004c6:	8ae58593          	addi	a1,a1,-1874 # 8001bd70 <_ZTISt12out_of_range>
    800004ca:	8522                	mv	a0,s0
    800004cc:	30d050ef          	jal	80005fd8 <__cxa_throw>
    800004d0:	84aa                	mv	s1,a0
    800004d2:	8522                	mv	a0,s0
    800004d4:	537050ef          	jal	8000620a <__cxa_free_exception>
    800004d8:	8526                	mv	a0,s1
    800004da:	60c120ef          	jal	80012ae6 <_Unwind_Resume>

00000000800004de <_ZSt24__throw_out_of_range_fmtPKcz>:
    800004de:	7159                	addi	sp,sp,-112
    800004e0:	f406                	sd	ra,40(sp)
    800004e2:	f022                	sd	s0,32(sp)
    800004e4:	ec26                	sd	s1,24(sp)
    800004e6:	1800                	addi	s0,sp,48
    800004e8:	e84a                	sd	s2,16(sp)
    800004ea:	84aa                	mv	s1,a0
    800004ec:	f018                	sd	a4,32(s0)
    800004ee:	03043823          	sd	a6,48(s0)
    800004f2:	03143c23          	sd	a7,56(s0)
    800004f6:	e40c                	sd	a1,8(s0)
    800004f8:	e810                	sd	a2,16(s0)
    800004fa:	ec14                	sd	a3,24(s0)
    800004fc:	f41c                	sd	a5,40(s0)
    800004fe:	0fa150ef          	jal	800155f8 <strlen>
    80000502:	20f50793          	addi	a5,a0,527
    80000506:	9bc1                	andi	a5,a5,-16
    80000508:	40f10133          	sub	sp,sp,a5
    8000050c:	20050593          	addi	a1,a0,512
    80000510:	00840693          	addi	a3,s0,8
    80000514:	8626                	mv	a2,s1
    80000516:	850a                	mv	a0,sp
    80000518:	fcd43c23          	sd	a3,-40(s0)
    8000051c:	1a1060ef          	jal	80006ebc <_ZN9__gnu_cxx15__snprintf_liteEPcmPKcPv>
    80000520:	4541                	li	a0,16
    80000522:	4af050ef          	jal	800061d0 <__cxa_allocate_exception>
    80000526:	858a                	mv	a1,sp
    80000528:	84aa                	mv	s1,a0
    8000052a:	5ee0b0ef          	jal	8000bb18 <_ZNSt12out_of_rangeC1EPKc>
    8000052e:	0000b617          	auipc	a2,0xb
    80000532:	2d660613          	addi	a2,a2,726 # 8000b804 <_ZNSt12out_of_rangeD1Ev>
    80000536:	0001c597          	auipc	a1,0x1c
    8000053a:	83a58593          	addi	a1,a1,-1990 # 8001bd70 <_ZTISt12out_of_range>
    8000053e:	8526                	mv	a0,s1
    80000540:	299050ef          	jal	80005fd8 <__cxa_throw>
    80000544:	892a                	mv	s2,a0
    80000546:	8526                	mv	a0,s1
    80000548:	4c3050ef          	jal	8000620a <__cxa_free_exception>
    8000054c:	854a                	mv	a0,s2
    8000054e:	598120ef          	jal	80012ae6 <_Unwind_Resume>

0000000080000552 <_ZSt21__throw_runtime_errorPKc>:
    80000552:	7179                	addi	sp,sp,-48
    80000554:	e42a                	sd	a0,8(sp)
    80000556:	4541                	li	a0,16
    80000558:	f022                	sd	s0,32(sp)
    8000055a:	f406                	sd	ra,40(sp)
    8000055c:	ec26                	sd	s1,24(sp)
    8000055e:	473050ef          	jal	800061d0 <__cxa_allocate_exception>
    80000562:	65a2                	ld	a1,8(sp)
    80000564:	842a                	mv	s0,a0
    80000566:	5ce0b0ef          	jal	8000bb34 <_ZNSt13runtime_errorC1EPKc>
    8000056a:	0000b617          	auipc	a2,0xb
    8000056e:	15660613          	addi	a2,a2,342 # 8000b6c0 <_ZNSt13runtime_errorD1Ev>
    80000572:	0001c597          	auipc	a1,0x1c
    80000576:	82e58593          	addi	a1,a1,-2002 # 8001bda0 <_ZTISt13runtime_error>
    8000057a:	8522                	mv	a0,s0
    8000057c:	25d050ef          	jal	80005fd8 <__cxa_throw>
    80000580:	84aa                	mv	s1,a0
    80000582:	8522                	mv	a0,s0
    80000584:	487050ef          	jal	8000620a <__cxa_free_exception>
    80000588:	8526                	mv	a0,s1
    8000058a:	55c120ef          	jal	80012ae6 <_Unwind_Resume>

000000008000058e <_ZSt19__throw_range_errorPKc>:
    8000058e:	7179                	addi	sp,sp,-48
    80000590:	e42a                	sd	a0,8(sp)
    80000592:	4541                	li	a0,16
    80000594:	f022                	sd	s0,32(sp)
    80000596:	f406                	sd	ra,40(sp)
    80000598:	ec26                	sd	s1,24(sp)
    8000059a:	437050ef          	jal	800061d0 <__cxa_allocate_exception>
    8000059e:	65a2                	ld	a1,8(sp)
    800005a0:	842a                	mv	s0,a0
    800005a2:	5c80b0ef          	jal	8000bb6a <_ZNSt11range_errorC1EPKc>
    800005a6:	0000b617          	auipc	a2,0xb
    800005aa:	15660613          	addi	a2,a2,342 # 8000b6fc <_ZNSt11range_errorD1Ev>
    800005ae:	0001c597          	auipc	a1,0x1c
    800005b2:	81a58593          	addi	a1,a1,-2022 # 8001bdc8 <_ZTISt11range_error>
    800005b6:	8522                	mv	a0,s0
    800005b8:	221050ef          	jal	80005fd8 <__cxa_throw>
    800005bc:	84aa                	mv	s1,a0
    800005be:	8522                	mv	a0,s0
    800005c0:	44b050ef          	jal	8000620a <__cxa_free_exception>
    800005c4:	8526                	mv	a0,s1
    800005c6:	520120ef          	jal	80012ae6 <_Unwind_Resume>

00000000800005ca <_ZSt22__throw_overflow_errorPKc>:
    800005ca:	7179                	addi	sp,sp,-48
    800005cc:	e42a                	sd	a0,8(sp)
    800005ce:	4541                	li	a0,16
    800005d0:	f022                	sd	s0,32(sp)
    800005d2:	f406                	sd	ra,40(sp)
    800005d4:	ec26                	sd	s1,24(sp)
    800005d6:	3fb050ef          	jal	800061d0 <__cxa_allocate_exception>
    800005da:	65a2                	ld	a1,8(sp)
    800005dc:	842a                	mv	s0,a0
    800005de:	5a80b0ef          	jal	8000bb86 <_ZNSt14overflow_errorC1EPKc>
    800005e2:	0000b617          	auipc	a2,0xb
    800005e6:	13c60613          	addi	a2,a2,316 # 8000b71e <_ZNSt14overflow_errorD1Ev>
    800005ea:	0001c597          	auipc	a1,0x1c
    800005ee:	80e58593          	addi	a1,a1,-2034 # 8001bdf8 <_ZTISt14overflow_error>
    800005f2:	8522                	mv	a0,s0
    800005f4:	1e5050ef          	jal	80005fd8 <__cxa_throw>
    800005f8:	84aa                	mv	s1,a0
    800005fa:	8522                	mv	a0,s0
    800005fc:	40f050ef          	jal	8000620a <__cxa_free_exception>
    80000600:	8526                	mv	a0,s1
    80000602:	4e4120ef          	jal	80012ae6 <_Unwind_Resume>

0000000080000606 <_ZSt23__throw_underflow_errorPKc>:
    80000606:	7179                	addi	sp,sp,-48
    80000608:	e42a                	sd	a0,8(sp)
    8000060a:	4541                	li	a0,16
    8000060c:	f022                	sd	s0,32(sp)
    8000060e:	f406                	sd	ra,40(sp)
    80000610:	ec26                	sd	s1,24(sp)
    80000612:	3bf050ef          	jal	800061d0 <__cxa_allocate_exception>
    80000616:	65a2                	ld	a1,8(sp)
    80000618:	842a                	mv	s0,a0
    8000061a:	5880b0ef          	jal	8000bba2 <_ZNSt15underflow_errorC1EPKc>
    8000061e:	0000b617          	auipc	a2,0xb
    80000622:	12260613          	addi	a2,a2,290 # 8000b740 <_ZNSt15underflow_errorD1Ev>
    80000626:	0001c597          	auipc	a1,0x1c
    8000062a:	80258593          	addi	a1,a1,-2046 # 8001be28 <_ZTISt15underflow_error>
    8000062e:	8522                	mv	a0,s0
    80000630:	1a9050ef          	jal	80005fd8 <__cxa_throw>
    80000634:	84aa                	mv	s1,a0
    80000636:	8522                	mv	a0,s0
    80000638:	3d3050ef          	jal	8000620a <__cxa_free_exception>
    8000063c:	8526                	mv	a0,s1
    8000063e:	4a8120ef          	jal	80012ae6 <_Unwind_Resume>

0000000080000642 <_ZN9__gnu_cxx26__throw_insufficient_spaceEPKcS1_>:
    80000642:	7175                	addi	sp,sp,-144
    80000644:	e122                	sd	s0,128(sp)
    80000646:	0900                	addi	s0,sp,144
    80000648:	e506                	sd	ra,136(sp)
    8000064a:	fca6                	sd	s1,120(sp)
    8000064c:	f8ca                	sd	s2,112(sp)
    8000064e:	84ae                	mv	s1,a1
    80000650:	892a                	mv	s2,a0
    80000652:	06900613          	li	a2,105
    80000656:	00019597          	auipc	a1,0x19
    8000065a:	8aa58593          	addi	a1,a1,-1878 # 80018f00 <__tbss_end+0x213a>
    8000065e:	f7040513          	addi	a0,s0,-144
    80000662:	412484b3          	sub	s1,s1,s2
    80000666:	77d140ef          	jal	800155e2 <memcpy>
    8000066a:	07848793          	addi	a5,s1,120
    8000066e:	9bc1                	andi	a5,a5,-16
    80000670:	40f10133          	sub	sp,sp,a5
    80000674:	06800613          	li	a2,104
    80000678:	f7040593          	addi	a1,s0,-144
    8000067c:	850a                	mv	a0,sp
    8000067e:	765140ef          	jal	800155e2 <memcpy>
    80000682:	8626                	mv	a2,s1
    80000684:	85ca                	mv	a1,s2
    80000686:	10a8                	addi	a0,sp,104
    80000688:	75b140ef          	jal	800155e2 <memcpy>
    8000068c:	948a                	add	s1,s1,sp
    8000068e:	06048423          	sb	zero,104(s1)
    80000692:	850a                	mv	a0,sp
    80000694:	d1fff0ef          	jal	800003b2 <_ZSt19__throw_logic_errorPKc>

0000000080000698 <__cxa_call_terminate>:
    80000698:	1141                	addi	sp,sp,-16
    8000069a:	e406                	sd	ra,8(sp)
    8000069c:	e022                	sd	s0,0(sp)
    8000069e:	c905                	beqz	a0,800006ce <__cxa_call_terminate+0x36>
    800006a0:	842a                	mv	s0,a0
    800006a2:	44f050ef          	jal	800062f0 <__cxa_begin_catch>
    800006a6:	b8b1b7b7          	lui	a5,0xb8b1b
    800006aa:	abd78793          	addi	a5,a5,-1347 # ffffffffb8b1aabd <__heap_end+0xffffffff38acaabd>
    800006ae:	07b2                	slli	a5,a5,0xc
    800006b0:	bcd78793          	addi	a5,a5,-1075
    800006b4:	6018                	ld	a4,0(s0)
    800006b6:	07b2                	slli	a5,a5,0xc
    800006b8:	4d578793          	addi	a5,a5,1237
    800006bc:	07a2                	slli	a5,a5,0x8
    800006be:	97ba                	add	a5,a5,a4
    800006c0:	4705                	li	a4,1
    800006c2:	00f76663          	bltu	a4,a5,800006ce <__cxa_call_terminate+0x36>
    800006c6:	fc843503          	ld	a0,-56(s0)
    800006ca:	438060ef          	jal	80006b02 <_ZN10__cxxabiv111__terminateEPFvvE>
    800006ce:	c05ff0ef          	jal	800002d2 <_ZSt9terminatev>

00000000800006d2 <_ZNSt7__cxx1112basic_stringIcSt11char_traitsIcESaIcEE15_M_replace_coldEPcmPKcmm>:
    800006d2:	7139                	addi	sp,sp,-64
    800006d4:	f822                	sd	s0,48(sp)
    800006d6:	f426                	sd	s1,40(sp)
    800006d8:	f04a                	sd	s2,32(sp)
    800006da:	ec4e                	sd	s3,24(sp)
    800006dc:	843a                	mv	s0,a4
    800006de:	fc06                	sd	ra,56(sp)
    800006e0:	177d                	addi	a4,a4,-1
    800006e2:	84ae                	mv	s1,a1
    800006e4:	8932                	mv	s2,a2
    800006e6:	89b6                	mv	s3,a3
    800006e8:	00c77963          	bgeu	a4,a2,800006fa <_ZNSt7__cxx1112basic_stringIcSt11char_traitsIcESaIcEE15_M_replace_coldEPcmPKcmm+0x28>
    800006ec:	8622                	mv	a2,s0
    800006ee:	85b6                	mv	a1,a3
    800006f0:	8526                	mv	a0,s1
    800006f2:	e43e                	sd	a5,8(sp)
    800006f4:	68d0d0ef          	jal	8000e580 <_ZNSt7__cxx1112basic_stringIcSt11char_traitsIcESaIcEE7_S_moveEPcPKcm>
    800006f8:	67a2                	ld	a5,8(sp)
    800006fa:	cb91                	beqz	a5,8000070e <_ZNSt7__cxx1112basic_stringIcSt11char_traitsIcESaIcEE15_M_replace_coldEPcmPKcmm+0x3c>
    800006fc:	07240963          	beq	s0,s2,8000076e <_ZNSt7__cxx1112basic_stringIcSt11char_traitsIcESaIcEE15_M_replace_coldEPcmPKcmm+0x9c>
    80000700:	863e                	mv	a2,a5
    80000702:	012485b3          	add	a1,s1,s2
    80000706:	00848533          	add	a0,s1,s0
    8000070a:	6770d0ef          	jal	8000e580 <_ZNSt7__cxx1112basic_stringIcSt11char_traitsIcESaIcEE7_S_moveEPcPKcm>
    8000070e:	06897063          	bgeu	s2,s0,8000076e <_ZNSt7__cxx1112basic_stringIcSt11char_traitsIcESaIcEE15_M_replace_coldEPcmPKcmm+0x9c>
    80000712:	012487b3          	add	a5,s1,s2
    80000716:	00898733          	add	a4,s3,s0
    8000071a:	00e7ed63          	bltu	a5,a4,80000734 <_ZNSt7__cxx1112basic_stringIcSt11char_traitsIcESaIcEE15_M_replace_coldEPcmPKcmm+0x62>
    8000071e:	8622                	mv	a2,s0
    80000720:	7442                	ld	s0,48(sp)
    80000722:	70e2                	ld	ra,56(sp)
    80000724:	7902                	ld	s2,32(sp)
    80000726:	85ce                	mv	a1,s3
    80000728:	8526                	mv	a0,s1
    8000072a:	69e2                	ld	s3,24(sp)
    8000072c:	74a2                	ld	s1,40(sp)
    8000072e:	6121                	addi	sp,sp,64
    80000730:	6510d06f          	j	8000e580 <_ZNSt7__cxx1112basic_stringIcSt11char_traitsIcESaIcEE7_S_moveEPcPKcm>
    80000734:	00f9ef63          	bltu	s3,a5,80000752 <_ZNSt7__cxx1112basic_stringIcSt11char_traitsIcESaIcEE15_M_replace_coldEPcmPKcmm+0x80>
    80000738:	412405b3          	sub	a1,s0,s2
    8000073c:	8622                	mv	a2,s0
    8000073e:	95ce                	add	a1,a1,s3
    80000740:	8526                	mv	a0,s1
    80000742:	7442                	ld	s0,48(sp)
    80000744:	70e2                	ld	ra,56(sp)
    80000746:	74a2                	ld	s1,40(sp)
    80000748:	7902                	ld	s2,32(sp)
    8000074a:	69e2                	ld	s3,24(sp)
    8000074c:	6121                	addi	sp,sp,64
    8000074e:	61f0d06f          	j	8000e56c <_ZNSt7__cxx1112basic_stringIcSt11char_traitsIcESaIcEE7_S_copyEPcPKcm>
    80000752:	41378933          	sub	s2,a5,s3
    80000756:	864a                	mv	a2,s2
    80000758:	85ce                	mv	a1,s3
    8000075a:	8526                	mv	a0,s1
    8000075c:	6250d0ef          	jal	8000e580 <_ZNSt7__cxx1112basic_stringIcSt11char_traitsIcESaIcEE7_S_moveEPcPKcm>
    80000760:	41240633          	sub	a2,s0,s2
    80000764:	008485b3          	add	a1,s1,s0
    80000768:	01248533          	add	a0,s1,s2
    8000076c:	bfd9                	j	80000742 <_ZNSt7__cxx1112basic_stringIcSt11char_traitsIcESaIcEE15_M_replace_coldEPcmPKcmm+0x70>
    8000076e:	70e2                	ld	ra,56(sp)
    80000770:	7442                	ld	s0,48(sp)
    80000772:	74a2                	ld	s1,40(sp)
    80000774:	7902                	ld	s2,32(sp)
    80000776:	69e2                	ld	s3,24(sp)
    80000778:	6121                	addi	sp,sp,64
    8000077a:	8082                	ret

000000008000077c <_ZSt20__throw_system_errori>:
    8000077c:	7139                	addi	sp,sp,-64
    8000077e:	f04a                	sd	s2,32(sp)
    80000780:	892a                	mv	s2,a0
    80000782:	02000513          	li	a0,32
    80000786:	f822                	sd	s0,48(sp)
    80000788:	f426                	sd	s1,40(sp)
    8000078a:	83818413          	addi	s0,gp,-1992 # 80024c70 <_ZN12_GLOBAL__N_1L25generic_category_instanceE>
    8000078e:	fc06                	sd	ra,56(sp)
    80000790:	241050ef          	jal	800061d0 <__cxa_allocate_exception>
    80000794:	601c                	ld	a5,0(s0)
    80000796:	84aa                	mv	s1,a0
    80000798:	864a                	mv	a2,s2
    8000079a:	739c                	ld	a5,32(a5)
    8000079c:	85a2                	mv	a1,s0
    8000079e:	850a                	mv	a0,sp
    800007a0:	9782                	jalr	a5
    800007a2:	858a                	mv	a1,sp
    800007a4:	8526                	mv	a0,s1
    800007a6:	1730f0ef          	jal	80010118 <_ZNSt13runtime_errorC1ERKNSt7__cxx1112basic_stringIcSt11char_traitsIcESaIcEEE>
    800007aa:	850a                	mv	a0,sp
    800007ac:	5470d0ef          	jal	8000e4f2 <_ZNSt7__cxx1112basic_stringIcSt11char_traitsIcESaIcEE10_M_disposeEv>
    800007b0:	0001c797          	auipc	a5,0x1c
    800007b4:	9e878793          	addi	a5,a5,-1560 # 8001c198 <_ZTVSt12system_error+0x10>
    800007b8:	e09c                	sd	a5,0(s1)
    800007ba:	0124a823          	sw	s2,16(s1)
    800007be:	ec80                	sd	s0,24(s1)
    800007c0:	0000f617          	auipc	a2,0xf
    800007c4:	75860613          	addi	a2,a2,1880 # 8000ff18 <_ZNSt12system_errorD1Ev>
    800007c8:	0001c597          	auipc	a1,0x1c
    800007cc:	82858593          	addi	a1,a1,-2008 # 8001bff0 <_ZTISt12system_error>
    800007d0:	8526                	mv	a0,s1
    800007d2:	007050ef          	jal	80005fd8 <__cxa_throw>
    800007d6:	842a                	mv	s0,a0
    800007d8:	850a                	mv	a0,sp
    800007da:	5190d0ef          	jal	8000e4f2 <_ZNSt7__cxx1112basic_stringIcSt11char_traitsIcESaIcEE10_M_disposeEv>
    800007de:	8526                	mv	a0,s1
    800007e0:	22b050ef          	jal	8000620a <__cxa_free_exception>
    800007e4:	8522                	mv	a0,s0
    800007e6:	300120ef          	jal	80012ae6 <_Unwind_Resume>
    800007ea:	842a                	mv	s0,a0
    800007ec:	bfcd                	j	800007de <_ZSt20__throw_system_errori+0x62>

00000000800007ee <main>:
    800007ee:	1101                	addi	sp,sp,-32
    800007f0:	00017517          	auipc	a0,0x17
    800007f4:	9a850513          	addi	a0,a0,-1624 # 80017198 <__tbss_end+0x3d2>
    800007f8:	ec06                	sd	ra,24(sp)
    800007fa:	e822                	sd	s0,16(sp)
    800007fc:	e426                	sd	s1,8(sp)
    800007fe:	44c140ef          	jal	80014c4a <puts>
    80000802:	00017517          	auipc	a0,0x17
    80000806:	9c650513          	addi	a0,a0,-1594 # 800171c8 <__tbss_end+0x402>
    8000080a:	440140ef          	jal	80014c4a <puts>
    8000080e:	00017517          	auipc	a0,0x17
    80000812:	98a50513          	addi	a0,a0,-1654 # 80017198 <__tbss_end+0x3d2>
    80000816:	434140ef          	jal	80014c4a <puts>
    8000081a:	00017517          	auipc	a0,0x17
    8000081e:	9ce50513          	addi	a0,a0,-1586 # 800171e8 <__tbss_end+0x422>
    80000822:	428140ef          	jal	80014c4a <puts>
    80000826:	00017517          	auipc	a0,0x17
    8000082a:	9e250513          	addi	a0,a0,-1566 # 80017208 <__tbss_end+0x442>
    8000082e:	41c140ef          	jal	80014c4a <puts>
    80000832:	00017517          	auipc	a0,0x17
    80000836:	a0650513          	addi	a0,a0,-1530 # 80017238 <__tbss_end+0x472>
    8000083a:	410140ef          	jal	80014c4a <puts>
    8000083e:	00017517          	auipc	a0,0x17
    80000842:	95a50513          	addi	a0,a0,-1702 # 80017198 <__tbss_end+0x3d2>
    80000846:	404140ef          	jal	80014c4a <puts>
    8000084a:	35a000ef          	jal	80000ba4 <_Z17test_quantizationv>
    8000084e:	85aa                	mv	a1,a0
    80000850:	00017517          	auipc	a0,0x17
    80000854:	a0850513          	addi	a0,a0,-1528 # 80017258 <__tbss_end+0x492>
    80000858:	26c000ef          	jal	80000ac4 <_Z12print_resultPKcb>
    8000085c:	45a000ef          	jal	80000cb6 <_Z15test_relu_int16v>
    80000860:	85aa                	mv	a1,a0
    80000862:	00017517          	auipc	a0,0x17
    80000866:	a0650513          	addi	a0,a0,-1530 # 80017268 <__tbss_end+0x4a2>
    8000086a:	25a000ef          	jal	80000ac4 <_Z12print_resultPKcb>
    8000086e:	4fe000ef          	jal	80000d6c <_Z18test_softmax_int16v>
    80000872:	85aa                	mv	a1,a0
    80000874:	00017517          	auipc	a0,0x17
    80000878:	a0450513          	addi	a0,a0,-1532 # 80017278 <__tbss_end+0x4b2>
    8000087c:	248000ef          	jal	80000ac4 <_Z12print_resultPKcb>
    80000880:	634000ef          	jal	80000eb4 <_Z23test_photonic_mvm_int16v>
    80000884:	85aa                	mv	a1,a0
    80000886:	00017517          	auipc	a0,0x17
    8000088a:	a0250513          	addi	a0,a0,-1534 # 80017288 <__tbss_end+0x4c2>
    8000088e:	236000ef          	jal	80000ac4 <_Z12print_resultPKcb>
    80000892:	724000ef          	jal	80000fb6 <_Z22test_transformer_blockv>
    80000896:	85aa                	mv	a1,a0
    80000898:	00017517          	auipc	a0,0x17
    8000089c:	a0850513          	addi	a0,a0,-1528 # 800172a0 <__tbss_end+0x4da>
    800008a0:	224000ef          	jal	80000ac4 <_Z12print_resultPKcb>
    800008a4:	00017517          	auipc	a0,0x17
    800008a8:	a1450513          	addi	a0,a0,-1516 # 800172b8 <__tbss_end+0x4f2>
    800008ac:	39e140ef          	jal	80014c4a <puts>
    800008b0:	a0c18413          	addi	s0,gp,-1524 # 80024e44 <_ZL10test_count>
    800008b4:	a0818493          	addi	s1,gp,-1528 # 80024e40 <_ZL10pass_count>
    800008b8:	4010                	lw	a2,0(s0)
    800008ba:	408c                	lw	a1,0(s1)
    800008bc:	00017517          	auipc	a0,0x17
    800008c0:	a2c50513          	addi	a0,a0,-1492 # 800172e8 <__tbss_end+0x522>
    800008c4:	240140ef          	jal	80014b04 <iprintf>
    800008c8:	00017517          	auipc	a0,0x17
    800008cc:	8d050513          	addi	a0,a0,-1840 # 80017198 <__tbss_end+0x3d2>
    800008d0:	37a140ef          	jal	80014c4a <puts>
    800008d4:	4088                	lw	a0,0(s1)
    800008d6:	401c                	lw	a5,0(s0)
    800008d8:	60e2                	ld	ra,24(sp)
    800008da:	6442                	ld	s0,16(sp)
    800008dc:	8d1d                	sub	a0,a0,a5
    800008de:	64a2                	ld	s1,8(sp)
    800008e0:	00a03533          	snez	a0,a0
    800008e4:	6105                	addi	sp,sp,32
    800008e6:	8082                	ret

00000000800008e8 <_GLOBAL__sub_I__ZN9__gnu_cxx9__freeresEv>:
    800008e8:	7175                	addi	sp,sp,-144
    800008ea:	00018517          	auipc	a0,0x18
    800008ee:	50650513          	addi	a0,a0,1286 # 80018df0 <__tbss_end+0x202a>
    800008f2:	e122                	sd	s0,128(sp)
    800008f4:	f8ca                	sd	s2,112(sp)
    800008f6:	f4ce                	sd	s3,104(sp)
    800008f8:	0002f797          	auipc	a5,0x2f
    800008fc:	fc07b823          	sd	zero,-48(a5) # 8002f8c8 <_ZN12_GLOBAL__N_1L14emergency_poolE+0x8>
    80000900:	0002f797          	auipc	a5,0x2f
    80000904:	fc07b823          	sd	zero,-48(a5) # 8002f8d0 <_ZN12_GLOBAL__N_1L14emergency_poolE+0x10>
    80000908:	0002f797          	auipc	a5,0x2f
    8000090c:	fc07b823          	sd	zero,-48(a5) # 8002f8d8 <_ZN12_GLOBAL__N_1L14emergency_poolE+0x18>
    80000910:	e506                	sd	ra,136(sp)
    80000912:	fca6                	sd	s1,120(sp)
    80000914:	61a130ef          	jal	80013f2e <getenv>
    80000918:	47bd                	li	a5,15
    8000091a:	f03e                	sd	a5,32(sp)
    8000091c:	00018797          	auipc	a5,0x18
    80000920:	4ec78793          	addi	a5,a5,1260 # 80018e08 <__tbss_end+0x2042>
    80000924:	f43e                	sd	a5,40(sp)
    80000926:	47a1                	li	a5,8
    80000928:	f83e                	sd	a5,48(sp)
    8000092a:	00018797          	auipc	a5,0x18
    8000092e:	4ee78793          	addi	a5,a5,1262 # 80018e18 <__tbss_end+0x2052>
    80000932:	fc3e                	sd	a5,56(sp)
    80000934:	47a5                	li	a5,9
    80000936:	e4be                	sd	a5,72(sp)
    80000938:	00018797          	auipc	a5,0x18
    8000093c:	4f078793          	addi	a5,a5,1264 # 80018e28 <__tbss_end+0x2062>
    80000940:	e8be                	sd	a5,80(sp)
    80000942:	4791                	li	a5,4
    80000944:	842a                	mv	s0,a0
    80000946:	e082                	sd	zero,64(sp)
    80000948:	ccbe                	sw	a5,88(sp)
    8000094a:	03a00913          	li	s2,58
    8000094e:	02e00993          	li	s3,46
    80000952:	e829                	bnez	s0,800009a4 <_GLOBAL__sub_I__ZN9__gnu_cxx9__freeresEv+0xbc>
    80000954:	46e6                	lw	a3,88(sp)
    80000956:	04000713          	li	a4,64
    8000095a:	0006879b          	sext.w	a5,a3
    8000095e:	00d75463          	bge	a4,a3,80000966 <_GLOBAL__sub_I__ZN9__gnu_cxx9__freeresEv+0x7e>
    80000962:	0007079b          	sext.w	a5,a4
    80000966:	4406                	lw	s0,64(sp)
    80000968:	e011                	bnez	s0,8000096c <_GLOBAL__sub_I__ZN9__gnu_cxx9__freeresEv+0x84>
    8000096a:	4419                	li	s0,6
    8000096c:	0479                	addi	s0,s0,30
    8000096e:	02f40433          	mul	s0,s0,a5
    80000972:	040e                	slli	s0,s0,0x3
    80000974:	0002f797          	auipc	a5,0x2f
    80000978:	f687b223          	sd	s0,-156(a5) # 8002f8d8 <_ZN12_GLOBAL__N_1L14emergency_poolE+0x18>
    8000097c:	cc09                	beqz	s0,80000996 <_GLOBAL__sub_I__ZN9__gnu_cxx9__freeresEv+0xae>
    8000097e:	8522                	mv	a0,s0
    80000980:	66a130ef          	jal	80013fea <malloc>
    80000984:	0002f797          	auipc	a5,0x2f
    80000988:	f4a7b623          	sd	a0,-180(a5) # 8002f8d0 <_ZN12_GLOBAL__N_1L14emergency_poolE+0x10>
    8000098c:	e545                	bnez	a0,80000a34 <_GLOBAL__sub_I__ZN9__gnu_cxx9__freeresEv+0x14c>
    8000098e:	0002f797          	auipc	a5,0x2f
    80000992:	f407b523          	sd	zero,-182(a5) # 8002f8d8 <_ZN12_GLOBAL__N_1L14emergency_poolE+0x18>
    80000996:	60aa                	ld	ra,136(sp)
    80000998:	640a                	ld	s0,128(sp)
    8000099a:	74e6                	ld	s1,120(sp)
    8000099c:	7946                	ld	s2,112(sp)
    8000099e:	79a6                	ld	s3,104(sp)
    800009a0:	6149                	addi	sp,sp,144
    800009a2:	8082                	ret
    800009a4:	00044783          	lbu	a5,0(s0)
    800009a8:	01279363          	bne	a5,s2,800009ae <_GLOBAL__sub_I__ZN9__gnu_cxx9__freeresEv+0xc6>
    800009ac:	0405                	addi	s0,s0,1
    800009ae:	473d                	li	a4,15
    800009b0:	86a2                	mv	a3,s0
    800009b2:	863a                	mv	a2,a4
    800009b4:	4581                	li	a1,0
    800009b6:	1008                	addi	a0,sp,32
    800009b8:	0c9050ef          	jal	80006280 <_ZNKSt17basic_string_viewIcSt11char_traitsIcEE7compareEmmPKcm>
    800009bc:	ed0d                	bnez	a0,800009f6 <_GLOBAL__sub_I__ZN9__gnu_cxx9__freeresEv+0x10e>
    800009be:	00f44783          	lbu	a5,15(s0)
    800009c2:	03379a63          	bne	a5,s3,800009f6 <_GLOBAL__sub_I__ZN9__gnu_cxx9__freeresEv+0x10e>
    800009c6:	0441                	addi	s0,s0,16
    800009c8:	1804                	addi	s1,sp,48
    800009ca:	6098                	ld	a4,0(s1)
    800009cc:	86a2                	mv	a3,s0
    800009ce:	4581                	li	a1,0
    800009d0:	863a                	mv	a2,a4
    800009d2:	8526                	mv	a0,s1
    800009d4:	e43a                	sd	a4,8(sp)
    800009d6:	0ab050ef          	jal	80006280 <_ZNKSt17basic_string_viewIcSt11char_traitsIcEE7compareEmmPKcm>
    800009da:	e911                	bnez	a0,800009ee <_GLOBAL__sub_I__ZN9__gnu_cxx9__freeresEv+0x106>
    800009dc:	6722                	ld	a4,8(sp)
    800009de:	00e407b3          	add	a5,s0,a4
    800009e2:	0007c683          	lbu	a3,0(a5)
    800009e6:	03d00793          	li	a5,61
    800009ea:	00f68d63          	beq	a3,a5,80000a04 <_GLOBAL__sub_I__ZN9__gnu_cxx9__freeresEv+0x11c>
    800009ee:	04e1                	addi	s1,s1,24
    800009f0:	109c                	addi	a5,sp,96
    800009f2:	fcf49ce3          	bne	s1,a5,800009ca <_GLOBAL__sub_I__ZN9__gnu_cxx9__freeresEv+0xe2>
    800009f6:	8522                	mv	a0,s0
    800009f8:	03a00593          	li	a1,58
    800009fc:	79a140ef          	jal	80015196 <strchr>
    80000a00:	842a                	mv	s0,a0
    80000a02:	bf81                	j	80000952 <_GLOBAL__sub_I__ZN9__gnu_cxx9__freeresEv+0x6a>
    80000a04:	0705                	addi	a4,a4,1
    80000a06:	00e40533          	add	a0,s0,a4
    80000a0a:	4601                	li	a2,0
    80000a0c:	082c                	addi	a1,sp,24
    80000a0e:	10f130ef          	jal	8001431c <strtoul>
    80000a12:	6462                	ld	s0,24(sp)
    80000a14:	00044703          	lbu	a4,0(s0)
    80000a18:	fc670793          	addi	a5,a4,-58
    80000a1c:	0017b793          	seqz	a5,a5
    80000a20:	00173713          	seqz	a4,a4
    80000a24:	8fd9                	or	a5,a5,a4
    80000a26:	dbe1                	beqz	a5,800009f6 <_GLOBAL__sub_I__ZN9__gnu_cxx9__freeresEv+0x10e>
    80000a28:	4785                	li	a5,1
    80000a2a:	07fe                	slli	a5,a5,0x1f
    80000a2c:	fcf575e3          	bgeu	a0,a5,800009f6 <_GLOBAL__sub_I__ZN9__gnu_cxx9__freeresEv+0x10e>
    80000a30:	c888                	sw	a0,16(s1)
    80000a32:	b7d1                	j	800009f6 <_GLOBAL__sub_I__ZN9__gnu_cxx9__freeresEv+0x10e>
    80000a34:	0002f797          	auipc	a5,0x2f
    80000a38:	e8a7ba23          	sd	a0,-364(a5) # 8002f8c8 <_ZN12_GLOBAL__N_1L14emergency_poolE+0x8>
    80000a3c:	e100                	sd	s0,0(a0)
    80000a3e:	00053423          	sd	zero,8(a0)
    80000a42:	bf91                	j	80000996 <_GLOBAL__sub_I__ZN9__gnu_cxx9__freeresEv+0xae>

0000000080000a44 <_GLOBAL__sub_I__ZSt20__throw_system_errori>:
    80000a44:	8082                	ret

0000000080000a46 <_Z17pseudo_rand_int16v>:
    80000a46:	00024797          	auipc	a5,0x24
    80000a4a:	1f27a783          	lw	a5,498(a5) # 80024c38 <_ZL9rand_seed>
    80000a4e:	41c65737          	lui	a4,0x41c65
    80000a52:	e6d7071b          	addiw	a4,a4,-403 # 41c64e6d <__heap_size+0x41c44e6d>
    80000a56:	02f7073b          	mulw	a4,a4,a5
    80000a5a:	678d                	lui	a5,0x3
    80000a5c:	0397879b          	addiw	a5,a5,57 # 3039 <__stack_align+0x3029>
    80000a60:	9fb9                	addw	a5,a5,a4
    80000a62:	0087d51b          	srliw	a0,a5,0x8
    80000a66:	0ff57513          	zext.b	a0,a0
    80000a6a:	00024717          	auipc	a4,0x24
    80000a6e:	1cf72723          	sw	a5,462(a4) # 80024c38 <_ZL9rand_seed>
    80000a72:	f805051b          	addiw	a0,a0,-128
    80000a76:	8082                	ret

0000000080000a78 <_Z17init_random_int16Psm>:
    80000a78:	c1a1                	beqz	a1,80000ab8 <_Z17init_random_int16Psm+0x40>
    80000a7a:	00024717          	auipc	a4,0x24
    80000a7e:	1be72703          	lw	a4,446(a4) # 80024c38 <_ZL9rand_seed>
    80000a82:	0586                	slli	a1,a1,0x1
    80000a84:	41c65637          	lui	a2,0x41c65
    80000a88:	668d                	lui	a3,0x3
    80000a8a:	95aa                	add	a1,a1,a0
    80000a8c:	e6d6061b          	addiw	a2,a2,-403 # 41c64e6d <__heap_size+0x41c44e6d>
    80000a90:	0396869b          	addiw	a3,a3,57 # 3039 <__stack_align+0x3029>
    80000a94:	02c7073b          	mulw	a4,a4,a2
    80000a98:	0509                	addi	a0,a0,2
    80000a9a:	9f35                	addw	a4,a4,a3
    80000a9c:	0087579b          	srliw	a5,a4,0x8
    80000aa0:	0ff7f793          	zext.b	a5,a5
    80000aa4:	f807879b          	addiw	a5,a5,-128
    80000aa8:	fef51f23          	sh	a5,-2(a0)
    80000aac:	fea594e3          	bne	a1,a0,80000a94 <_Z17init_random_int16Psm+0x1c>
    80000ab0:	00024797          	auipc	a5,0x24
    80000ab4:	18e7a423          	sw	a4,392(a5) # 80024c38 <_ZL9rand_seed>
    80000ab8:	8082                	ret

0000000080000aba <_Z10reset_seedj>:
    80000aba:	00024797          	auipc	a5,0x24
    80000abe:	16a7af23          	sw	a0,382(a5) # 80024c38 <_ZL9rand_seed>
    80000ac2:	8082                	ret

0000000080000ac4 <_Z12print_resultPKcb>:
    80000ac4:	a0c1a783          	lw	a5,-1524(gp) # 80024e44 <_ZL10test_count>
    80000ac8:	2785                	addiw	a5,a5,1
    80000aca:	a0f1a623          	sw	a5,-1524(gp) # 80024e44 <_ZL10test_count>
    80000ace:	cd89                	beqz	a1,80000ae8 <_Z12print_resultPKcb+0x24>
    80000ad0:	a081a783          	lw	a5,-1528(gp) # 80024e40 <_ZL10pass_count>
    80000ad4:	85aa                	mv	a1,a0
    80000ad6:	00016517          	auipc	a0,0x16
    80000ada:	2f250513          	addi	a0,a0,754 # 80016dc8 <__tbss_end+0x2>
    80000ade:	2785                	addiw	a5,a5,1
    80000ae0:	a0f1a423          	sw	a5,-1528(gp) # 80024e40 <_ZL10pass_count>
    80000ae4:	0201406f          	j	80014b04 <iprintf>
    80000ae8:	85aa                	mv	a1,a0
    80000aea:	00016517          	auipc	a0,0x16
    80000aee:	2ee50513          	addi	a0,a0,750 # 80016dd8 <__tbss_end+0x12>
    80000af2:	0121406f          	j	80014b04 <iprintf>

0000000080000af6 <_Z18print_vector_int16PKcPKsm>:
    80000af6:	7179                	addi	sp,sp,-48
    80000af8:	ec26                	sd	s1,24(sp)
    80000afa:	e052                	sd	s4,0(sp)
    80000afc:	84ae                	mv	s1,a1
    80000afe:	8a32                	mv	s4,a2
    80000b00:	85aa                	mv	a1,a0
    80000b02:	00016517          	auipc	a0,0x16
    80000b06:	2e650513          	addi	a0,a0,742 # 80016de8 <__tbss_end+0x22>
    80000b0a:	f406                	sd	ra,40(sp)
    80000b0c:	7f9130ef          	jal	80014b04 <iprintf>
    80000b10:	040a0b63          	beqz	s4,80000b66 <_Z18print_vector_int16PKcPKsm+0x70>
    80000b14:	e84a                	sd	s2,16(sp)
    80000b16:	f022                	sd	s0,32(sp)
    80000b18:	e44e                	sd	s3,8(sp)
    80000b1a:	47a1                	li	a5,8
    80000b1c:	8952                	mv	s2,s4
    80000b1e:	0547ee63          	bltu	a5,s4,80000b7a <_Z18print_vector_int16PKcPKsm+0x84>
    80000b22:	fff90993          	addi	s3,s2,-1
    80000b26:	4401                	li	s0,0
    80000b28:	a029                	j	80000b32 <_Z18print_vector_int16PKcPKsm+0x3c>
    80000b2a:	0405                	addi	s0,s0,1
    80000b2c:	0489                	addi	s1,s1,2
    80000b2e:	03247663          	bgeu	s0,s2,80000b5a <_Z18print_vector_int16PKcPKsm+0x64>
    80000b32:	00049583          	lh	a1,0(s1)
    80000b36:	00016517          	auipc	a0,0x16
    80000b3a:	2ba50513          	addi	a0,a0,698 # 80016df0 <__tbss_end+0x2a>
    80000b3e:	7c7130ef          	jal	80014b04 <iprintf>
    80000b42:	ff3474e3          	bgeu	s0,s3,80000b2a <_Z18print_vector_int16PKcPKsm+0x34>
    80000b46:	00016517          	auipc	a0,0x16
    80000b4a:	2b250513          	addi	a0,a0,690 # 80016df8 <__tbss_end+0x32>
    80000b4e:	0405                	addi	s0,s0,1
    80000b50:	7b5130ef          	jal	80014b04 <iprintf>
    80000b54:	0489                	addi	s1,s1,2
    80000b56:	fd246ee3          	bltu	s0,s2,80000b32 <_Z18print_vector_int16PKcPKsm+0x3c>
    80000b5a:	47a1                	li	a5,8
    80000b5c:	0347e163          	bltu	a5,s4,80000b7e <_Z18print_vector_int16PKcPKsm+0x88>
    80000b60:	7402                	ld	s0,32(sp)
    80000b62:	6942                	ld	s2,16(sp)
    80000b64:	69a2                	ld	s3,8(sp)
    80000b66:	70a2                	ld	ra,40(sp)
    80000b68:	64e2                	ld	s1,24(sp)
    80000b6a:	6a02                	ld	s4,0(sp)
    80000b6c:	00016517          	auipc	a0,0x16
    80000b70:	29c50513          	addi	a0,a0,668 # 80016e08 <__tbss_end+0x42>
    80000b74:	6145                	addi	sp,sp,48
    80000b76:	0d41406f          	j	80014c4a <puts>
    80000b7a:	893e                	mv	s2,a5
    80000b7c:	b75d                	j	80000b22 <_Z18print_vector_int16PKcPKsm+0x2c>
    80000b7e:	00016517          	auipc	a0,0x16
    80000b82:	28250513          	addi	a0,a0,642 # 80016e00 <__tbss_end+0x3a>
    80000b86:	77f130ef          	jal	80014b04 <iprintf>
    80000b8a:	7402                	ld	s0,32(sp)
    80000b8c:	6942                	ld	s2,16(sp)
    80000b8e:	69a2                	ld	s3,8(sp)
    80000b90:	70a2                	ld	ra,40(sp)
    80000b92:	64e2                	ld	s1,24(sp)
    80000b94:	6a02                	ld	s4,0(sp)
    80000b96:	00016517          	auipc	a0,0x16
    80000b9a:	27250513          	addi	a0,a0,626 # 80016e08 <__tbss_end+0x42>
    80000b9e:	6145                	addi	sp,sp,48
    80000ba0:	0aa1406f          	j	80014c4a <puts>

0000000080000ba4 <_Z17test_quantizationv>:
    80000ba4:	711d                	addi	sp,sp,-96
    80000ba6:	00016517          	auipc	a0,0x16
    80000baa:	26a50513          	addi	a0,a0,618 # 80016e10 <__tbss_end+0x4a>
    80000bae:	ec86                	sd	ra,88(sp)
    80000bb0:	a4a2                	fsd	fs0,72(sp)
    80000bb2:	098140ef          	jal	80014c4a <puts>
    80000bb6:	00024797          	auipc	a5,0x24
    80000bba:	1327a407          	flw	fs0,306(a5) # 80024ce8 <__atexit_dummy+0x58>
    80000bbe:	080c                	addi	a1,sp,16
    80000bc0:	0001a797          	auipc	a5,0x1a
    80000bc4:	ae878793          	addi	a5,a5,-1304 # 8001a6a8 <__tbss_end+0x38e2>
    80000bc8:	6394                	ld	a3,0(a5)
    80000bca:	6798                	ld	a4,8(a5)
    80000bcc:	20840553          	fmv.s	fa0,fs0
    80000bd0:	0001a797          	auipc	a5,0x1a
    80000bd4:	ae87a783          	lw	a5,-1304(a5) # 8001a6b8 <__tbss_end+0x38f2>
    80000bd8:	850a                	mv	a0,sp
    80000bda:	4615                	li	a2,5
    80000bdc:	e836                	sd	a3,16(sp)
    80000bde:	ec3a                	sd	a4,24(sp)
    80000be0:	d03e                	sw	a5,32(sp)
    80000be2:	082040ef          	jal	80004c64 <_Z14quantize_arrayPsPKfmf>
    80000be6:	20840553          	fmv.s	fa0,fs0
    80000bea:	858a                	mv	a1,sp
    80000bec:	4615                	li	a2,5
    80000bee:	1028                	addi	a0,sp,40
    80000bf0:	0ca040ef          	jal	80004cba <_Z16dequantize_arrayPfPKsmf>
    80000bf4:	00016517          	auipc	a0,0x16
    80000bf8:	23c50513          	addi	a0,a0,572 # 80016e30 <__tbss_end+0x6a>
    80000bfc:	04e140ef          	jal	80014c4a <puts>
    80000c00:	00811783          	lh	a5,8(sp)
    80000c04:	00611703          	lh	a4,6(sp)
    80000c08:	00411683          	lh	a3,4(sp)
    80000c0c:	00211603          	lh	a2,2(sp)
    80000c10:	00011583          	lh	a1,0(sp)
    80000c14:	00016517          	auipc	a0,0x16
    80000c18:	24c50513          	addi	a0,a0,588 # 80016e60 <__tbss_end+0x9a>
    80000c1c:	f0000453          	fmv.w.x	fs0,zero
    80000c20:	6e5130ef          	jal	80014b04 <iprintf>
    80000c24:	03812587          	flw	fa1,56(sp)
    80000c28:	03412607          	flw	fa2,52(sp)
    80000c2c:	03012687          	flw	fa3,48(sp)
    80000c30:	02c12707          	flw	fa4,44(sp)
    80000c34:	02812787          	flw	fa5,40(sp)
    80000c38:	420585d3          	fcvt.d.s	fa1,fa1
    80000c3c:	42060653          	fcvt.d.s	fa2,fa2
    80000c40:	420686d3          	fcvt.d.s	fa3,fa3
    80000c44:	42070753          	fcvt.d.s	fa4,fa4
    80000c48:	420787d3          	fcvt.d.s	fa5,fa5
    80000c4c:	e20587d3          	fmv.x.d	a5,fa1
    80000c50:	e2060753          	fmv.x.d	a4,fa2
    80000c54:	e20686d3          	fmv.x.d	a3,fa3
    80000c58:	e2070653          	fmv.x.d	a2,fa4
    80000c5c:	e20785d3          	fmv.x.d	a1,fa5
    80000c60:	00016517          	auipc	a0,0x16
    80000c64:	22850513          	addi	a0,a0,552 # 80016e88 <__tbss_end+0xc2>
    80000c68:	69d130ef          	jal	80014b04 <iprintf>
    80000c6c:	081c                	addi	a5,sp,16
    80000c6e:	1038                	addi	a4,sp,40
    80000c70:	1054                	addi	a3,sp,36
    80000c72:	0007a787          	flw	fa5,0(a5)
    80000c76:	00072707          	flw	fa4,0(a4)
    80000c7a:	0791                	addi	a5,a5,4
    80000c7c:	0711                	addi	a4,a4,4
    80000c7e:	08e7f7d3          	fsub.s	fa5,fa5,fa4
    80000c82:	20f7a7d3          	fabs.s	fa5,fa5
    80000c86:	28f41453          	fmax.s	fs0,fs0,fa5
    80000c8a:	fed794e3          	bne	a5,a3,80000c72 <_Z17test_quantizationv+0xce>
    80000c8e:	420407d3          	fcvt.d.s	fa5,fs0
    80000c92:	00016517          	auipc	a0,0x16
    80000c96:	22650513          	addi	a0,a0,550 # 80016eb8 <__tbss_end+0xf2>
    80000c9a:	e20785d3          	fmv.x.d	a1,fa5
    80000c9e:	667130ef          	jal	80014b04 <iprintf>
    80000ca2:	00024797          	auipc	a5,0x24
    80000ca6:	04a7a787          	flw	fa5,74(a5) # 80024cec <__atexit_dummy+0x5c>
    80000caa:	60e6                	ld	ra,88(sp)
    80000cac:	a0f41553          	flt.s	a0,fs0,fa5
    80000cb0:	2426                	fld	fs0,72(sp)
    80000cb2:	6125                	addi	sp,sp,96
    80000cb4:	8082                	ret

0000000080000cb6 <_Z15test_relu_int16v>:
    80000cb6:	7179                	addi	sp,sp,-48
    80000cb8:	00016517          	auipc	a0,0x16
    80000cbc:	22050513          	addi	a0,a0,544 # 80016ed8 <__tbss_end+0x112>
    80000cc0:	f406                	sd	ra,40(sp)
    80000cc2:	789130ef          	jal	80014c4a <puts>
    80000cc6:	0001a717          	auipc	a4,0x1a
    80000cca:	9fa73703          	ld	a4,-1542(a4) # 8001a6c0 <__tbss_end+0x38fa>
    80000cce:	0001a797          	auipc	a5,0x1a
    80000cd2:	9fa7a783          	lw	a5,-1542(a5) # 8001a6c8 <__tbss_end+0x3902>
    80000cd6:	858a                	mv	a1,sp
    80000cd8:	0808                	addi	a0,sp,16
    80000cda:	4619                	li	a2,6
    80000cdc:	e03a                	sd	a4,0(sp)
    80000cde:	c43e                	sw	a5,8(sp)
    80000ce0:	194040ef          	jal	80004e74 <_Z10relu_int16PsPKsm>
    80000ce4:	00a11803          	lh	a6,10(sp)
    80000ce8:	00811783          	lh	a5,8(sp)
    80000cec:	00611703          	lh	a4,6(sp)
    80000cf0:	00411683          	lh	a3,4(sp)
    80000cf4:	00211603          	lh	a2,2(sp)
    80000cf8:	00011583          	lh	a1,0(sp)
    80000cfc:	00016517          	auipc	a0,0x16
    80000d00:	1fc50513          	addi	a0,a0,508 # 80016ef8 <__tbss_end+0x132>
    80000d04:	601130ef          	jal	80014b04 <iprintf>
    80000d08:	01811783          	lh	a5,24(sp)
    80000d0c:	01611703          	lh	a4,22(sp)
    80000d10:	01a11803          	lh	a6,26(sp)
    80000d14:	01411683          	lh	a3,20(sp)
    80000d18:	01211603          	lh	a2,18(sp)
    80000d1c:	01011583          	lh	a1,16(sp)
    80000d20:	00016517          	auipc	a0,0x16
    80000d24:	20050513          	addi	a0,a0,512 # 80016f20 <__tbss_end+0x15a>
    80000d28:	5dd130ef          	jal	80014b04 <iprintf>
    80000d2c:	01011703          	lh	a4,16(sp)
    80000d30:	06400793          	li	a5,100
    80000d34:	4501                	li	a0,0
    80000d36:	00f70563          	beq	a4,a5,80000d40 <_Z15test_relu_int16v+0x8a>
    80000d3a:	70a2                	ld	ra,40(sp)
    80000d3c:	6145                	addi	sp,sp,48
    80000d3e:	8082                	ret
    80000d40:	01611703          	lh	a4,22(sp)
    80000d44:	0c800793          	li	a5,200
    80000d48:	fef719e3          	bne	a4,a5,80000d3a <_Z15test_relu_int16v+0x84>
    80000d4c:	01215783          	lhu	a5,18(sp)
    80000d50:	01415683          	lhu	a3,20(sp)
    80000d54:	01815703          	lhu	a4,24(sp)
    80000d58:	8fd5                	or	a5,a5,a3
    80000d5a:	8fd9                	or	a5,a5,a4
    80000d5c:	fff9                	bnez	a5,80000d3a <_Z15test_relu_int16v+0x84>
    80000d5e:	01a11503          	lh	a0,26(sp)
    80000d62:	fce50513          	addi	a0,a0,-50
    80000d66:	00153513          	seqz	a0,a0
    80000d6a:	bfc1                	j	80000d3a <_Z15test_relu_int16v+0x84>

0000000080000d6c <_Z18test_softmax_int16v>:
    80000d6c:	7179                	addi	sp,sp,-48
    80000d6e:	00016517          	auipc	a0,0x16
    80000d72:	1da50513          	addi	a0,a0,474 # 80016f48 <__tbss_end+0x182>
    80000d76:	f406                	sd	ra,40(sp)
    80000d78:	ac22                	fsd	fs0,24(sp)
    80000d7a:	a826                	fsd	fs1,16(sp)
    80000d7c:	6cf130ef          	jal	80014c4a <puts>
    80000d80:	00024797          	auipc	a5,0x24
    80000d84:	f687a587          	flw	fa1,-152(a5) # 80024ce8 <__atexit_dummy+0x58>
    80000d88:	00024797          	auipc	a5,0x24
    80000d8c:	f107b783          	ld	a5,-240(a5) # 80024c98 <__atexit_dummy+0x8>
    80000d90:	0028                	addi	a0,sp,8
    80000d92:	20b58553          	fmv.s	fa0,fa1
    80000d96:	858a                	mv	a1,sp
    80000d98:	4611                	li	a2,4
    80000d9a:	e03e                	sd	a5,0(sp)
    80000d9c:	74b030ef          	jal	80004ce6 <_Z13softmax_int16PsPKsmff>
    80000da0:	00211783          	lh	a5,2(sp)
    80000da4:	00411703          	lh	a4,4(sp)
    80000da8:	00611683          	lh	a3,6(sp)
    80000dac:	d007f753          	fcvt.s.w	fa4,a5
    80000db0:	00011783          	lh	a5,0(sp)
    80000db4:	d00776d3          	fcvt.s.w	fa3,a4
    80000db8:	d006f653          	fcvt.s.w	fa2,a3
    80000dbc:	00024717          	auipc	a4,0x24
    80000dc0:	f3472487          	flw	fs1,-204(a4) # 80024cf0 <__atexit_dummy+0x60>
    80000dc4:	d007f7d3          	fcvt.s.w	fa5,a5
    80000dc8:	00016517          	auipc	a0,0x16
    80000dcc:	1a050513          	addi	a0,a0,416 # 80016f68 <__tbss_end+0x1a2>
    80000dd0:	10967653          	fmul.s	fa2,fa2,fs1
    80000dd4:	1096f6d3          	fmul.s	fa3,fa3,fs1
    80000dd8:	10977753          	fmul.s	fa4,fa4,fs1
    80000ddc:	1097f7d3          	fmul.s	fa5,fa5,fs1
    80000de0:	f0000453          	fmv.w.x	fs0,zero
    80000de4:	42060653          	fcvt.d.s	fa2,fa2
    80000de8:	420686d3          	fcvt.d.s	fa3,fa3
    80000dec:	42070753          	fcvt.d.s	fa4,fa4
    80000df0:	420787d3          	fcvt.d.s	fa5,fa5
    80000df4:	e2060753          	fmv.x.d	a4,fa2
    80000df8:	e20686d3          	fmv.x.d	a3,fa3
    80000dfc:	e2070653          	fmv.x.d	a2,fa4
    80000e00:	e20785d3          	fmv.x.d	a1,fa5
    80000e04:	501130ef          	jal	80014b04 <iprintf>
    80000e08:	00a11783          	lh	a5,10(sp)
    80000e0c:	00e11683          	lh	a3,14(sp)
    80000e10:	00c11703          	lh	a4,12(sp)
    80000e14:	d007f753          	fcvt.s.w	fa4,a5
    80000e18:	00811783          	lh	a5,8(sp)
    80000e1c:	d006f653          	fcvt.s.w	fa2,a3
    80000e20:	d00776d3          	fcvt.s.w	fa3,a4
    80000e24:	d007f7d3          	fcvt.s.w	fa5,a5
    80000e28:	10967653          	fmul.s	fa2,fa2,fs1
    80000e2c:	1096f6d3          	fmul.s	fa3,fa3,fs1
    80000e30:	10977753          	fmul.s	fa4,fa4,fs1
    80000e34:	1097f7d3          	fmul.s	fa5,fa5,fs1
    80000e38:	00016517          	auipc	a0,0x16
    80000e3c:	16050513          	addi	a0,a0,352 # 80016f98 <__tbss_end+0x1d2>
    80000e40:	42060653          	fcvt.d.s	fa2,fa2
    80000e44:	420686d3          	fcvt.d.s	fa3,fa3
    80000e48:	42070753          	fcvt.d.s	fa4,fa4
    80000e4c:	420787d3          	fcvt.d.s	fa5,fa5
    80000e50:	e2060753          	fmv.x.d	a4,fa2
    80000e54:	e20686d3          	fmv.x.d	a3,fa3
    80000e58:	e2070653          	fmv.x.d	a2,fa4
    80000e5c:	e20785d3          	fmv.x.d	a1,fa5
    80000e60:	4a5130ef          	jal	80014b04 <iprintf>
    80000e64:	003c                	addi	a5,sp,8
    80000e66:	00079703          	lh	a4,0(a5)
    80000e6a:	0789                	addi	a5,a5,2
    80000e6c:	d00777d3          	fcvt.s.w	fa5,a4
    80000e70:	0818                	addi	a4,sp,16
    80000e72:	4097f443          	fmadd.s	fs0,fa5,fs1,fs0
    80000e76:	fee798e3          	bne	a5,a4,80000e66 <_Z18test_softmax_int16v+0xfa>
    80000e7a:	420407d3          	fcvt.d.s	fa5,fs0
    80000e7e:	00016517          	auipc	a0,0x16
    80000e82:	14a50513          	addi	a0,a0,330 # 80016fc8 <__tbss_end+0x202>
    80000e86:	e20785d3          	fmv.x.d	a1,fa5
    80000e8a:	47b130ef          	jal	80014b04 <iprintf>
    80000e8e:	00024797          	auipc	a5,0x24
    80000e92:	e667a707          	flw	fa4,-410(a5) # 80024cf4 <__atexit_dummy+0x64>
    80000e96:	00024797          	auipc	a5,0x24
    80000e9a:	e627a787          	flw	fa5,-414(a5) # 80024cf8 <__atexit_dummy+0x68>
    80000e9e:	70a2                	ld	ra,40(sp)
    80000ea0:	08e47453          	fsub.s	fs0,fs0,fa4
    80000ea4:	24c2                	fld	fs1,16(sp)
    80000ea6:	20842453          	fabs.s	fs0,fs0
    80000eaa:	a0f41553          	flt.s	a0,fs0,fa5
    80000eae:	2462                	fld	fs0,24(sp)
    80000eb0:	6145                	addi	sp,sp,48
    80000eb2:	8082                	ret

0000000080000eb4 <_Z23test_photonic_mvm_int16v>:
    80000eb4:	7179                	addi	sp,sp,-48
    80000eb6:	00016517          	auipc	a0,0x16
    80000eba:	13250513          	addi	a0,a0,306 # 80016fe8 <__tbss_end+0x222>
    80000ebe:	f406                	sd	ra,40(sp)
    80000ec0:	f022                	sd	s0,32(sp)
    80000ec2:	ec26                	sd	s1,24(sp)
    80000ec4:	e84a                	sd	s2,16(sp)
    80000ec6:	e44e                	sd	s3,8(sp)
    80000ec8:	583130ef          	jal	80014c4a <puts>
    80000ecc:	6605                	lui	a2,0x1
    80000ece:	80060613          	addi	a2,a2,-2048 # 800 <__stack_align+0x7f0>
    80000ed2:	4581                	li	a1,0
    80000ed4:	00024517          	auipc	a0,0x24
    80000ed8:	26c50513          	addi	a0,a0,620 # 80025140 <_ZL10mvm_weight>
    80000edc:	6f6140ef          	jal	800155d2 <memset>
    80000ee0:	00024797          	auipc	a5,0x24
    80000ee4:	26078793          	addi	a5,a5,608 # 80025140 <_ZL10mvm_weight>
    80000ee8:	54818693          	addi	a3,gp,1352 # 80025980 <_ZL6W2_buf+0x40>
    80000eec:	04000713          	li	a4,64
    80000ef0:	00e79023          	sh	a4,0(a5)
    80000ef4:	04278793          	addi	a5,a5,66
    80000ef8:	fed79ce3          	bne	a5,a3,80000ef0 <_Z23test_photonic_mvm_int16v+0x3c>
    80000efc:	a8818493          	addi	s1,gp,-1400 # 80024ec0 <_ZL9mvm_input>
    80000f00:	87a6                	mv	a5,s1
    80000f02:	ac818693          	addi	a3,gp,-1336 # 80024f00 <_ZL10mvm_output>
    80000f06:	4729                	li	a4,10
    80000f08:	00e79023          	sh	a4,0(a5)
    80000f0c:	0789                	addi	a5,a5,2
    80000f0e:	2729                	addiw	a4,a4,10
    80000f10:	fed79ce3          	bne	a5,a3,80000f08 <_Z23test_photonic_mvm_int16v+0x54>
    80000f14:	00016517          	auipc	a0,0x16
    80000f18:	10450513          	addi	a0,a0,260 # 80017018 <__tbss_end+0x252>
    80000f1c:	52f130ef          	jal	80014c4a <puts>
    80000f20:	a8e19703          	lh	a4,-1394(gp) # 80024ec6 <_ZL9mvm_input+0x6>
    80000f24:	a8c19683          	lh	a3,-1396(gp) # 80024ec4 <_ZL9mvm_input+0x4>
    80000f28:	a8a19603          	lh	a2,-1398(gp) # 80024ec2 <_ZL9mvm_input+0x2>
    80000f2c:	a8819583          	lh	a1,-1400(gp) # 80024ec0 <_ZL9mvm_input>
    80000f30:	00016517          	auipc	a0,0x16
    80000f34:	11050513          	addi	a0,a0,272 # 80017040 <__tbss_end+0x27a>
    80000f38:	ac818913          	addi	s2,gp,-1336 # 80024f00 <_ZL10mvm_output>
    80000f3c:	3c9130ef          	jal	80014b04 <iprintf>
    80000f40:	02000713          	li	a4,32
    80000f44:	86ba                	mv	a3,a4
    80000f46:	a8818613          	addi	a2,gp,-1400 # 80024ec0 <_ZL9mvm_input>
    80000f4a:	00024597          	auipc	a1,0x24
    80000f4e:	1f658593          	addi	a1,a1,502 # 80025140 <_ZL10mvm_weight>
    80000f52:	ac818513          	addi	a0,gp,-1336 # 80024f00 <_ZL10mvm_output>
    80000f56:	364040ef          	jal	800052ba <_Z18photonic_mvm_int16PsPKsS1_mm>
    80000f5a:	ace19703          	lh	a4,-1330(gp) # 80024f06 <_ZL10mvm_output+0x6>
    80000f5e:	acc19683          	lh	a3,-1332(gp) # 80024f04 <_ZL10mvm_output+0x4>
    80000f62:	aca19603          	lh	a2,-1334(gp) # 80024f02 <_ZL10mvm_output+0x2>
    80000f66:	ac819583          	lh	a1,-1336(gp) # 80024f00 <_ZL10mvm_output>
    80000f6a:	00016517          	auipc	a0,0x16
    80000f6e:	0f650513          	addi	a0,a0,246 # 80017060 <__tbss_end+0x29a>
    80000f72:	4401                	li	s0,0
    80000f74:	391130ef          	jal	80014b04 <iprintf>
    80000f78:	4785                	li	a5,1
    80000f7a:	4991                	li	s3,4
    80000f7c:	00049683          	lh	a3,0(s1)
    80000f80:	00091603          	lh	a2,0(s2)
    80000f84:	85a2                	mv	a1,s0
    80000f86:	0066969b          	slliw	a3,a3,0x6
    80000f8a:	00016517          	auipc	a0,0x16
    80000f8e:	0f650513          	addi	a0,a0,246 # 80017080 <__tbss_end+0x2ba>
    80000f92:	00d60563          	beq	a2,a3,80000f9c <_Z23test_photonic_mvm_int16v+0xe8>
    80000f96:	36f130ef          	jal	80014b04 <iprintf>
    80000f9a:	4781                	li	a5,0
    80000f9c:	2405                	addiw	s0,s0,1
    80000f9e:	0489                	addi	s1,s1,2
    80000fa0:	0909                	addi	s2,s2,2
    80000fa2:	fd341de3          	bne	s0,s3,80000f7c <_Z23test_photonic_mvm_int16v+0xc8>
    80000fa6:	70a2                	ld	ra,40(sp)
    80000fa8:	7402                	ld	s0,32(sp)
    80000faa:	64e2                	ld	s1,24(sp)
    80000fac:	6942                	ld	s2,16(sp)
    80000fae:	69a2                	ld	s3,8(sp)
    80000fb0:	853e                	mv	a0,a5
    80000fb2:	6145                	addi	sp,sp,48
    80000fb4:	8082                	ret

0000000080000fb6 <_Z22test_transformer_blockv>:
    80000fb6:	715d                	addi	sp,sp,-80
    80000fb8:	00016517          	auipc	a0,0x16
    80000fbc:	0f050513          	addi	a0,a0,240 # 800170a8 <__tbss_end+0x2e2>
    80000fc0:	e486                	sd	ra,72(sp)
    80000fc2:	e0a2                	sd	s0,64(sp)
    80000fc4:	fc26                	sd	s1,56(sp)
    80000fc6:	f84a                	sd	s2,48(sp)
    80000fc8:	483130ef          	jal	80014c4a <puts>
    80000fcc:	00016517          	auipc	a0,0x16
    80000fd0:	10450513          	addi	a0,a0,260 # 800170d0 <__tbss_end+0x30a>
    80000fd4:	477130ef          	jal	80014c4a <puts>
    80000fd8:	02000693          	li	a3,32
    80000fdc:	8636                	mv	a2,a3
    80000fde:	4591                	li	a1,4
    80000fe0:	04000713          	li	a4,64
    80000fe4:	00016517          	auipc	a0,0x16
    80000fe8:	0fc50513          	addi	a0,a0,252 # 800170e0 <__tbss_end+0x31a>
    80000fec:	319130ef          	jal	80014b04 <iprintf>
    80000ff0:	00016517          	auipc	a0,0x16
    80000ff4:	12050513          	addi	a0,a0,288 # 80017110 <__tbss_end+0x34a>
    80000ff8:	453130ef          	jal	80014c4a <puts>
    80000ffc:	b0818413          	addi	s0,gp,-1272 # 80024f40 <_ZL9input_buf>
    80001000:	41c655b7          	lui	a1,0x41c65
    80001004:	660d                	lui	a2,0x3
    80001006:	86a2                	mv	a3,s0
    80001008:	e6d5859b          	addiw	a1,a1,-403 # 41c64e6d <__heap_size+0x41c44e6d>
    8000100c:	0396061b          	addiw	a2,a2,57 # 3039 <__stack_align+0x3029>
    80001010:	c0818513          	addi	a0,gp,-1016 # 80025040 <_ZL10output_buf>
    80001014:	31500793          	li	a5,789
    80001018:	02b787bb          	mulw	a5,a5,a1
    8000101c:	0689                	addi	a3,a3,2
    8000101e:	9fb1                	addw	a5,a5,a2
    80001020:	0087d71b          	srliw	a4,a5,0x8
    80001024:	0ff77713          	zext.b	a4,a4
    80001028:	f807071b          	addiw	a4,a4,-128
    8000102c:	fee69f23          	sh	a4,-2(a3)
    80001030:	fed514e3          	bne	a0,a3,80001018 <_Z22test_transformer_blockv+0x62>
    80001034:	41c655b7          	lui	a1,0x41c65
    80001038:	660d                	lui	a2,0x3
    8000103a:	e6d5859b          	addiw	a1,a1,-403 # 41c64e6d <__heap_size+0x41c44e6d>
    8000103e:	0396061b          	addiw	a2,a2,57 # 3039 <__stack_align+0x3029>
    80001042:	00028697          	auipc	a3,0x28
    80001046:	0fe68693          	addi	a3,a3,254 # 80029140 <_ZL6Wq_buf>
    8000104a:	00029517          	auipc	a0,0x29
    8000104e:	8f650513          	addi	a0,a0,-1802 # 80029940 <_ZL12pho_temp_vec>
    80001052:	02b787bb          	mulw	a5,a5,a1
    80001056:	0689                	addi	a3,a3,2
    80001058:	9fb1                	addw	a5,a5,a2
    8000105a:	0087d71b          	srliw	a4,a5,0x8
    8000105e:	0ff77713          	zext.b	a4,a4
    80001062:	f807071b          	addiw	a4,a4,-128
    80001066:	fee69f23          	sh	a4,-2(a3)
    8000106a:	fed514e3          	bne	a0,a3,80001052 <_Z22test_transformer_blockv+0x9c>
    8000106e:	41c655b7          	lui	a1,0x41c65
    80001072:	660d                	lui	a2,0x3
    80001074:	e6d5859b          	addiw	a1,a1,-403 # 41c64e6d <__heap_size+0x41c44e6d>
    80001078:	0396061b          	addiw	a2,a2,57 # 3039 <__stack_align+0x3029>
    8000107c:	00028697          	auipc	a3,0x28
    80001080:	8c468693          	addi	a3,a3,-1852 # 80028940 <_ZL6Wk_buf>
    80001084:	00028517          	auipc	a0,0x28
    80001088:	0bc50513          	addi	a0,a0,188 # 80029140 <_ZL6Wq_buf>
    8000108c:	02b787bb          	mulw	a5,a5,a1
    80001090:	0689                	addi	a3,a3,2
    80001092:	9fb1                	addw	a5,a5,a2
    80001094:	0087d71b          	srliw	a4,a5,0x8
    80001098:	0ff77713          	zext.b	a4,a4
    8000109c:	f807071b          	addiw	a4,a4,-128
    800010a0:	fee69f23          	sh	a4,-2(a3)
    800010a4:	fed514e3          	bne	a0,a3,8000108c <_Z22test_transformer_blockv+0xd6>
    800010a8:	41c655b7          	lui	a1,0x41c65
    800010ac:	660d                	lui	a2,0x3
    800010ae:	e6d5859b          	addiw	a1,a1,-403 # 41c64e6d <__heap_size+0x41c44e6d>
    800010b2:	0396061b          	addiw	a2,a2,57 # 3039 <__stack_align+0x3029>
    800010b6:	00027697          	auipc	a3,0x27
    800010ba:	08a68693          	addi	a3,a3,138 # 80028140 <_ZL6Wv_buf>
    800010be:	00028517          	auipc	a0,0x28
    800010c2:	88250513          	addi	a0,a0,-1918 # 80028940 <_ZL6Wk_buf>
    800010c6:	02b787bb          	mulw	a5,a5,a1
    800010ca:	0689                	addi	a3,a3,2
    800010cc:	9fb1                	addw	a5,a5,a2
    800010ce:	0087d71b          	srliw	a4,a5,0x8
    800010d2:	0ff77713          	zext.b	a4,a4
    800010d6:	f807071b          	addiw	a4,a4,-128
    800010da:	fee69f23          	sh	a4,-2(a3)
    800010de:	fed514e3          	bne	a0,a3,800010c6 <_Z22test_transformer_blockv+0x110>
    800010e2:	41c655b7          	lui	a1,0x41c65
    800010e6:	660d                	lui	a2,0x3
    800010e8:	e6d5859b          	addiw	a1,a1,-403 # 41c64e6d <__heap_size+0x41c44e6d>
    800010ec:	0396061b          	addiw	a2,a2,57 # 3039 <__stack_align+0x3029>
    800010f0:	00027697          	auipc	a3,0x27
    800010f4:	85068693          	addi	a3,a3,-1968 # 80027940 <_ZL6Wo_buf>
    800010f8:	00027517          	auipc	a0,0x27
    800010fc:	04850513          	addi	a0,a0,72 # 80028140 <_ZL6Wv_buf>
    80001100:	02b787bb          	mulw	a5,a5,a1
    80001104:	0689                	addi	a3,a3,2
    80001106:	9fb1                	addw	a5,a5,a2
    80001108:	0087d71b          	srliw	a4,a5,0x8
    8000110c:	0ff77713          	zext.b	a4,a4
    80001110:	f807071b          	addiw	a4,a4,-128
    80001114:	fee69f23          	sh	a4,-2(a3)
    80001118:	fed514e3          	bne	a0,a3,80001100 <_Z22test_transformer_blockv+0x14a>
    8000111c:	41c655b7          	lui	a1,0x41c65
    80001120:	660d                	lui	a2,0x3
    80001122:	e6d5859b          	addiw	a1,a1,-403 # 41c64e6d <__heap_size+0x41c44e6d>
    80001126:	0396061b          	addiw	a2,a2,57 # 3039 <__stack_align+0x3029>
    8000112a:	00026697          	auipc	a3,0x26
    8000112e:	81668693          	addi	a3,a3,-2026 # 80026940 <_ZL6W1_buf>
    80001132:	00027517          	auipc	a0,0x27
    80001136:	80e50513          	addi	a0,a0,-2034 # 80027940 <_ZL6Wo_buf>
    8000113a:	02b787bb          	mulw	a5,a5,a1
    8000113e:	0689                	addi	a3,a3,2
    80001140:	9fb1                	addw	a5,a5,a2
    80001142:	0087d71b          	srliw	a4,a5,0x8
    80001146:	0ff77713          	zext.b	a4,a4
    8000114a:	f807071b          	addiw	a4,a4,-128
    8000114e:	fee69f23          	sh	a4,-2(a3)
    80001152:	fed514e3          	bne	a0,a3,8000113a <_Z22test_transformer_blockv+0x184>
    80001156:	41c655b7          	lui	a1,0x41c65
    8000115a:	660d                	lui	a2,0x3
    8000115c:	e6d5859b          	addiw	a1,a1,-403 # 41c64e6d <__heap_size+0x41c44e6d>
    80001160:	0396061b          	addiw	a2,a2,57 # 3039 <__stack_align+0x3029>
    80001164:	00024697          	auipc	a3,0x24
    80001168:	7dc68693          	addi	a3,a3,2012 # 80025940 <_ZL6W2_buf>
    8000116c:	00025517          	auipc	a0,0x25
    80001170:	7d450513          	addi	a0,a0,2004 # 80026940 <_ZL6W1_buf>
    80001174:	02b787bb          	mulw	a5,a5,a1
    80001178:	0689                	addi	a3,a3,2
    8000117a:	9fb1                	addw	a5,a5,a2
    8000117c:	0087d71b          	srliw	a4,a5,0x8
    80001180:	0ff77713          	zext.b	a4,a4
    80001184:	f807071b          	addiw	a4,a4,-128
    80001188:	fee69f23          	sh	a4,-2(a3)
    8000118c:	fed514e3          	bne	a0,a3,80001174 <_Z22test_transformer_blockv+0x1be>
    80001190:	00016517          	auipc	a0,0x16
    80001194:	fb850513          	addi	a0,a0,-72 # 80017148 <__tbss_end+0x382>
    80001198:	00024717          	auipc	a4,0x24
    8000119c:	aaf72023          	sw	a5,-1376(a4) # 80024c38 <_ZL9rand_seed>
    800011a0:	165130ef          	jal	80014b04 <iprintf>
    800011a4:	00016597          	auipc	a1,0x16
    800011a8:	53c58593          	addi	a1,a1,1340 # 800176e0 <__tbss_end+0x91a>
    800011ac:	00016517          	auipc	a0,0x16
    800011b0:	c3c50513          	addi	a0,a0,-964 # 80016de8 <__tbss_end+0x22>
    800011b4:	151130ef          	jal	80014b04 <iprintf>
    800011b8:	b1818493          	addi	s1,gp,-1256 # 80024f50 <_ZL9input_buf+0x10>
    800011bc:	00041583          	lh	a1,0(s0)
    800011c0:	00016517          	auipc	a0,0x16
    800011c4:	c3050513          	addi	a0,a0,-976 # 80016df0 <__tbss_end+0x2a>
    800011c8:	0409                	addi	s0,s0,2
    800011ca:	13b130ef          	jal	80014b04 <iprintf>
    800011ce:	0e849263          	bne	s1,s0,800012b2 <_Z22test_transformer_blockv+0x2fc>
    800011d2:	00016517          	auipc	a0,0x16
    800011d6:	c3650513          	addi	a0,a0,-970 # 80016e08 <__tbss_end+0x42>
    800011da:	271130ef          	jal	80014c4a <puts>
    800011de:	00024797          	auipc	a5,0x24
    800011e2:	b0a7a507          	flw	fa0,-1270(a5) # 80024ce8 <__atexit_dummy+0x58>
    800011e6:	00024897          	auipc	a7,0x24
    800011ea:	75a88893          	addi	a7,a7,1882 # 80025940 <_ZL6W2_buf>
    800011ee:	4785                	li	a5,1
    800011f0:	f03e                	sd	a5,32(sp)
    800011f2:	04000793          	li	a5,64
    800011f6:	ec3e                	sd	a5,24(sp)
    800011f8:	4791                	li	a5,4
    800011fa:	e03e                	sd	a5,0(sp)
    800011fc:	02000793          	li	a5,32
    80001200:	00025817          	auipc	a6,0x25
    80001204:	74080813          	addi	a6,a6,1856 # 80026940 <_ZL6W1_buf>
    80001208:	00027717          	auipc	a4,0x27
    8000120c:	f3870713          	addi	a4,a4,-200 # 80028140 <_ZL6Wv_buf>
    80001210:	00027697          	auipc	a3,0x27
    80001214:	73068693          	addi	a3,a3,1840 # 80028940 <_ZL6Wk_buf>
    80001218:	00028617          	auipc	a2,0x28
    8000121c:	f2860613          	addi	a2,a2,-216 # 80029140 <_ZL6Wq_buf>
    80001220:	b0818593          	addi	a1,gp,-1272 # 80024f40 <_ZL9input_buf>
    80001224:	e83e                	sd	a5,16(sp)
    80001226:	e43e                	sd	a5,8(sp)
    80001228:	c0818513          	addi	a0,gp,-1016 # 80025040 <_ZL10output_buf>
    8000122c:	00026797          	auipc	a5,0x26
    80001230:	71478793          	addi	a5,a5,1812 # 80027940 <_ZL6Wo_buf>
    80001234:	47e040ef          	jal	800056b2 <_Z23transformer_block_int16PsPKsS1_S1_S1_S1_S1_S1_mmmmbf>
    80001238:	00016517          	auipc	a0,0x16
    8000123c:	f2850513          	addi	a0,a0,-216 # 80017160 <__tbss_end+0x39a>
    80001240:	0c5130ef          	jal	80014b04 <iprintf>
    80001244:	00016597          	auipc	a1,0x16
    80001248:	49c58593          	addi	a1,a1,1180 # 800176e0 <__tbss_end+0x91a>
    8000124c:	00016517          	auipc	a0,0x16
    80001250:	b9c50513          	addi	a0,a0,-1124 # 80016de8 <__tbss_end+0x22>
    80001254:	c0818413          	addi	s0,gp,-1016 # 80025040 <_ZL10output_buf>
    80001258:	0ad130ef          	jal	80014b04 <iprintf>
    8000125c:	84a2                	mv	s1,s0
    8000125e:	c1818913          	addi	s2,gp,-1000 # 80025050 <_ZL10output_buf+0x10>
    80001262:	00049583          	lh	a1,0(s1)
    80001266:	00016517          	auipc	a0,0x16
    8000126a:	b8a50513          	addi	a0,a0,-1142 # 80016df0 <__tbss_end+0x2a>
    8000126e:	0489                	addi	s1,s1,2
    80001270:	095130ef          	jal	80014b04 <iprintf>
    80001274:	02991863          	bne	s2,s1,800012a4 <_Z22test_transformer_blockv+0x2ee>
    80001278:	00016517          	auipc	a0,0x16
    8000127c:	b9050513          	addi	a0,a0,-1136 # 80016e08 <__tbss_end+0x42>
    80001280:	1cb130ef          	jal	80014c4a <puts>
    80001284:	d0818713          	addi	a4,gp,-760 # 80025140 <_ZL10mvm_weight>
    80001288:	a019                	j	8000128e <_Z22test_transformer_blockv+0x2d8>
    8000128a:	02870b63          	beq	a4,s0,800012c0 <_Z22test_transformer_blockv+0x30a>
    8000128e:	00041783          	lh	a5,0(s0)
    80001292:	0409                	addi	s0,s0,2
    80001294:	dbfd                	beqz	a5,8000128a <_Z22test_transformer_blockv+0x2d4>
    80001296:	60a6                	ld	ra,72(sp)
    80001298:	6406                	ld	s0,64(sp)
    8000129a:	74e2                	ld	s1,56(sp)
    8000129c:	7942                	ld	s2,48(sp)
    8000129e:	4505                	li	a0,1
    800012a0:	6161                	addi	sp,sp,80
    800012a2:	8082                	ret
    800012a4:	00016517          	auipc	a0,0x16
    800012a8:	b5450513          	addi	a0,a0,-1196 # 80016df8 <__tbss_end+0x32>
    800012ac:	059130ef          	jal	80014b04 <iprintf>
    800012b0:	bf4d                	j	80001262 <_Z22test_transformer_blockv+0x2ac>
    800012b2:	00016517          	auipc	a0,0x16
    800012b6:	b4650513          	addi	a0,a0,-1210 # 80016df8 <__tbss_end+0x32>
    800012ba:	04b130ef          	jal	80014b04 <iprintf>
    800012be:	bdfd                	j	800011bc <_Z22test_transformer_blockv+0x206>
    800012c0:	00016517          	auipc	a0,0x16
    800012c4:	eb850513          	addi	a0,a0,-328 # 80017178 <__tbss_end+0x3b2>
    800012c8:	183130ef          	jal	80014c4a <puts>
    800012cc:	60a6                	ld	ra,72(sp)
    800012ce:	6406                	ld	s0,64(sp)
    800012d0:	74e2                	ld	s1,56(sp)
    800012d2:	7942                	ld	s2,48(sp)
    800012d4:	4501                	li	a0,0
    800012d6:	6161                	addi	sp,sp,80
    800012d8:	8082                	ret

00000000800012da <_Z10matrix_sumPsPKsmm.part.0>:
    800012da:	1141                	addi	sp,sp,-16
    800012dc:	00016517          	auipc	a0,0x16
    800012e0:	02c50513          	addi	a0,a0,44 # 80017308 <__tbss_end+0x542>
    800012e4:	e406                	sd	ra,8(sp)
    800012e6:	165130ef          	jal	80014c4a <puts>
    800012ea:	00016517          	auipc	a0,0x16
    800012ee:	06e50513          	addi	a0,a0,110 # 80017358 <__tbss_end+0x592>
    800012f2:	159130ef          	jal	80014c4a <puts>
    800012f6:	557d                	li	a0,-1
    800012f8:	407120ef          	jal	80013efe <exit>

00000000800012fc <_Z12vector_equalPsPKsS1_m>:
    800012fc:	c505                	beqz	a0,80001324 <_Z12vector_equalPsPKsS1_m+0x28>
    800012fe:	c295                	beqz	a3,80001322 <_Z12vector_equalPsPKsS1_m+0x26>
    80001300:	0686                	slli	a3,a3,0x1
    80001302:	96ae                	add	a3,a3,a1
    80001304:	00059783          	lh	a5,0(a1)
    80001308:	00061703          	lh	a4,0(a2)
    8000130c:	0589                	addi	a1,a1,2
    8000130e:	0609                	addi	a2,a2,2
    80001310:	8f99                	sub	a5,a5,a4
    80001312:	0017b793          	seqz	a5,a5
    80001316:	00f51023          	sh	a5,0(a0)
    8000131a:	0509                	addi	a0,a0,2
    8000131c:	fed594e3          	bne	a1,a3,80001304 <_Z12vector_equalPsPKsS1_m+0x8>
    80001320:	8082                	ret
    80001322:	8082                	ret
    80001324:	1101                	addi	sp,sp,-32
    80001326:	00016517          	auipc	a0,0x16
    8000132a:	04a50513          	addi	a0,a0,74 # 80017370 <__tbss_end+0x5aa>
    8000132e:	ec06                	sd	ra,24(sp)
    80001330:	e436                	sd	a3,8(sp)
    80001332:	119130ef          	jal	80014c4a <puts>
    80001336:	65a2                	ld	a1,8(sp)
    80001338:	00016517          	auipc	a0,0x16
    8000133c:	08850513          	addi	a0,a0,136 # 800173c0 <__tbss_end+0x5fa>
    80001340:	7c4130ef          	jal	80014b04 <iprintf>
    80001344:	557d                	li	a0,-1
    80001346:	3b9120ef          	jal	80013efe <exit>

000000008000134a <_Z10vector_sumPsPKsm>:
    8000134a:	c11d                	beqz	a0,80001370 <_Z10vector_sumPsPKsm+0x26>
    8000134c:	4781                	li	a5,0
    8000134e:	ce11                	beqz	a2,8000136a <_Z10vector_sumPsPKsm+0x20>
    80001350:	0606                	slli	a2,a2,0x1
    80001352:	962e                	add	a2,a2,a1
    80001354:	4781                	li	a5,0
    80001356:	0005d703          	lhu	a4,0(a1)
    8000135a:	0589                	addi	a1,a1,2
    8000135c:	9fb9                	addw	a5,a5,a4
    8000135e:	0107979b          	slliw	a5,a5,0x10
    80001362:	4107d79b          	sraiw	a5,a5,0x10
    80001366:	feb618e3          	bne	a2,a1,80001356 <_Z10vector_sumPsPKsm+0xc>
    8000136a:	00f51023          	sh	a5,0(a0)
    8000136e:	8082                	ret
    80001370:	1141                	addi	sp,sp,-16
    80001372:	00016517          	auipc	a0,0x16
    80001376:	07650513          	addi	a0,a0,118 # 800173e8 <__tbss_end+0x622>
    8000137a:	e406                	sd	ra,8(sp)
    8000137c:	0cf130ef          	jal	80014c4a <puts>
    80001380:	00016517          	auipc	a0,0x16
    80001384:	fd850513          	addi	a0,a0,-40 # 80017358 <__tbss_end+0x592>
    80001388:	0c3130ef          	jal	80014c4a <puts>
    8000138c:	557d                	li	a0,-1
    8000138e:	371120ef          	jal	80013efe <exit>

0000000080001392 <_Z11vector_meanPsPKsm>:
    80001392:	c515                	beqz	a0,800013be <_Z11vector_meanPsPKsm+0x2c>
    80001394:	4781                	li	a5,0
    80001396:	c20d                	beqz	a2,800013b8 <_Z11vector_meanPsPKsm+0x26>
    80001398:	00161693          	slli	a3,a2,0x1
    8000139c:	96ae                	add	a3,a3,a1
    8000139e:	4781                	li	a5,0
    800013a0:	0005d703          	lhu	a4,0(a1)
    800013a4:	0589                	addi	a1,a1,2
    800013a6:	9fb9                	addw	a5,a5,a4
    800013a8:	0107979b          	slliw	a5,a5,0x10
    800013ac:	4107d79b          	sraiw	a5,a5,0x10
    800013b0:	feb698e3          	bne	a3,a1,800013a0 <_Z11vector_meanPsPKsm+0xe>
    800013b4:	02c7d7b3          	divu	a5,a5,a2
    800013b8:	00f51023          	sh	a5,0(a0)
    800013bc:	8082                	ret
    800013be:	1141                	addi	sp,sp,-16
    800013c0:	00016517          	auipc	a0,0x16
    800013c4:	07850513          	addi	a0,a0,120 # 80017438 <__tbss_end+0x672>
    800013c8:	e406                	sd	ra,8(sp)
    800013ca:	081130ef          	jal	80014c4a <puts>
    800013ce:	00016517          	auipc	a0,0x16
    800013d2:	f8a50513          	addi	a0,a0,-118 # 80017358 <__tbss_end+0x592>
    800013d6:	075130ef          	jal	80014c4a <puts>
    800013da:	557d                	li	a0,-1
    800013dc:	323120ef          	jal	80013efe <exit>

00000000800013e0 <_Z10vector_varPsPKsm>:
    800013e0:	7179                	addi	sp,sp,-48
    800013e2:	f406                	sd	ra,40(sp)
    800013e4:	f022                	sd	s0,32(sp)
    800013e6:	ec26                	sd	s1,24(sp)
    800013e8:	e84a                	sd	s2,16(sp)
    800013ea:	c525                	beqz	a0,80001452 <_Z10vector_varPsPKsm+0x72>
    800013ec:	57cd                	li	a5,-13
    800013ee:	8389                	srli	a5,a5,0x2
    800013f0:	84b2                	mv	s1,a2
    800013f2:	06c7ef63          	bltu	a5,a2,80001470 <_Z10vector_varPsPKsm+0x90>
    800013f6:	00161413          	slli	s0,a2,0x1
    800013fa:	892a                	mv	s2,a0
    800013fc:	8522                	mv	a0,s0
    800013fe:	e42e                	sd	a1,8(sp)
    80001400:	467040ef          	jal	80006066 <_Znam>
    80001404:	65a2                	ld	a1,8(sp)
    80001406:	c4a1                	beqz	s1,8000144e <_Z10vector_varPsPKsm+0x6e>
    80001408:	00858833          	add	a6,a1,s0
    8000140c:	87ae                	mv	a5,a1
    8000140e:	4601                	li	a2,0
    80001410:	0007d703          	lhu	a4,0(a5)
    80001414:	0789                	addi	a5,a5,2
    80001416:	9e39                	addw	a2,a2,a4
    80001418:	0106161b          	slliw	a2,a2,0x10
    8000141c:	4106561b          	sraiw	a2,a2,0x10
    80001420:	fef818e3          	bne	a6,a5,80001410 <_Z10vector_varPsPKsm+0x30>
    80001424:	02965633          	divu	a2,a2,s1
    80001428:	0106161b          	slliw	a2,a2,0x10
    8000142c:	4106561b          	sraiw	a2,a2,0x10
    80001430:	86a6                	mv	a3,s1
    80001432:	e42a                	sd	a0,8(sp)
    80001434:	7a0000ef          	jal	80001bd4 <_Z23tiled_vector_sub_scalarPsPKssm>
    80001438:	6622                	ld	a2,8(sp)
    8000143a:	7402                	ld	s0,32(sp)
    8000143c:	70a2                	ld	ra,40(sp)
    8000143e:	86a6                	mv	a3,s1
    80001440:	854a                	mv	a0,s2
    80001442:	64e2                	ld	s1,24(sp)
    80001444:	6942                	ld	s2,16(sp)
    80001446:	85b2                	mv	a1,a2
    80001448:	6145                	addi	sp,sp,48
    8000144a:	4e80106f          	j	80002932 <_Z13tiled_dotprodPsPKsS1_m>
    8000144e:	4601                	li	a2,0
    80001450:	b7c5                	j	80001430 <_Z10vector_varPsPKsm+0x50>
    80001452:	00016517          	auipc	a0,0x16
    80001456:	03650513          	addi	a0,a0,54 # 80017488 <__tbss_end+0x6c2>
    8000145a:	7f0130ef          	jal	80014c4a <puts>
    8000145e:	00016517          	auipc	a0,0x16
    80001462:	efa50513          	addi	a0,a0,-262 # 80017358 <__tbss_end+0x592>
    80001466:	7e4130ef          	jal	80014c4a <puts>
    8000146a:	557d                	li	a0,-1
    8000146c:	293120ef          	jal	80013efe <exit>
    80001470:	e19fe0ef          	jal	80000288 <__cxa_throw_bad_array_new_length>

0000000080001474 <_Z14vector_softmaxPsPKsms>:
    80001474:	715d                	addi	sp,sp,-80
    80001476:	e486                	sd	ra,72(sp)
    80001478:	e0a2                	sd	s0,64(sp)
    8000147a:	fc26                	sd	s1,56(sp)
    8000147c:	f84a                	sd	s2,48(sp)
    8000147e:	f44e                	sd	s3,40(sp)
    80001480:	c141                	beqz	a0,80001500 <_Z14vector_softmaxPsPKsms+0x8c>
    80001482:	842a                	mv	s0,a0
    80001484:	00e10513          	addi	a0,sp,14
    80001488:	8932                	mv	s2,a2
    8000148a:	89b6                	mv	s3,a3
    8000148c:	84ae                	mv	s1,a1
    8000148e:	391000ef          	jal	8000201e <_Z16tiled_vector_maxPsPKsm>
    80001492:	00e11603          	lh	a2,14(sp)
    80001496:	86ca                	mv	a3,s2
    80001498:	85a6                	mv	a1,s1
    8000149a:	8522                	mv	a0,s0
    8000149c:	738000ef          	jal	80001bd4 <_Z23tiled_vector_sub_scalarPsPKssm>
    800014a0:	04090963          	beqz	s2,800014f2 <_Z14vector_softmaxPsPKsms+0x7e>
    800014a4:	ac22                	fsd	fs0,24(sp)
    800014a6:	f2000453          	fmv.d.x	fs0,zero
    800014aa:	0906                	slli	s2,s2,0x1
    800014ac:	9922                	add	s2,s2,s0
    800014ae:	84a2                	mv	s1,s0
    800014b0:	00049783          	lh	a5,0(s1)
    800014b4:	0489                	addi	s1,s1,2
    800014b6:	d2078553          	fcvt.d.w	fa0,a5
    800014ba:	5c90e0ef          	jal	80010282 <exp>
    800014be:	02a47453          	fadd.d	fs0,fs0,fa0
    800014c2:	fe9917e3          	bne	s2,s1,800014b0 <_Z14vector_softmaxPsPKsms+0x3c>
    800014c6:	00023797          	auipc	a5,0x23
    800014ca:	7da7b707          	fld	fa4,2010(a5) # 80024ca0 <__atexit_dummy+0x10>
    800014ce:	1a877753          	fdiv.d	fa4,fa4,fs0
    800014d2:	00041783          	lh	a5,0(s0)
    800014d6:	0409                	addi	s0,s0,2
    800014d8:	033787bb          	mulw	a5,a5,s3
    800014dc:	d20787d3          	fcvt.d.w	fa5,a5
    800014e0:	12e7f7d3          	fmul.d	fa5,fa5,fa4
    800014e4:	c20797d3          	fcvt.w.d	a5,fa5,rtz
    800014e8:	fef41f23          	sh	a5,-2(s0)
    800014ec:	fe8913e3          	bne	s2,s0,800014d2 <_Z14vector_softmaxPsPKsms+0x5e>
    800014f0:	2462                	fld	fs0,24(sp)
    800014f2:	6406                	ld	s0,64(sp)
    800014f4:	60a6                	ld	ra,72(sp)
    800014f6:	74e2                	ld	s1,56(sp)
    800014f8:	7942                	ld	s2,48(sp)
    800014fa:	79a2                	ld	s3,40(sp)
    800014fc:	6161                	addi	sp,sp,80
    800014fe:	8082                	ret
    80001500:	00016517          	auipc	a0,0x16
    80001504:	fd850513          	addi	a0,a0,-40 # 800174d8 <__tbss_end+0x712>
    80001508:	ac22                	fsd	fs0,24(sp)
    8000150a:	740130ef          	jal	80014c4a <puts>
    8000150e:	00016517          	auipc	a0,0x16
    80001512:	e4a50513          	addi	a0,a0,-438 # 80017358 <__tbss_end+0x592>
    80001516:	734130ef          	jal	80014c4a <puts>
    8000151a:	557d                	li	a0,-1
    8000151c:	1e3120ef          	jal	80013efe <exit>

0000000080001520 <_Z10matrix_sumPsPKsmm>:
    80001520:	cd31                	beqz	a0,8000157c <_Z10matrix_sumPsPKsmm+0x5c>
    80001522:	ca19                	beqz	a2,80001538 <_Z10matrix_sumPsPKsmm+0x18>
    80001524:	00169313          	slli	t1,a3,0x1
    80001528:	959a                	add	a1,a1,t1
    8000152a:	00161e13          	slli	t3,a2,0x1
    8000152e:	4881                	li	a7,0
    80001530:	ea81                	bnez	a3,80001540 <_Z10matrix_sumPsPKsmm+0x20>
    80001532:	0885                	addi	a7,a7,1
    80001534:	ff161fe3          	bne	a2,a7,80001532 <_Z10matrix_sumPsPKsmm+0x12>
    80001538:	4801                	li	a6,0
    8000153a:	01051023          	sh	a6,0(a0)
    8000153e:	8082                	ret
    80001540:	4801                	li	a6,0
    80001542:	40658733          	sub	a4,a1,t1
    80001546:	4781                	li	a5,0
    80001548:	00075683          	lhu	a3,0(a4)
    8000154c:	0709                	addi	a4,a4,2
    8000154e:	9fb5                	addw	a5,a5,a3
    80001550:	03079693          	slli	a3,a5,0x30
    80001554:	0107979b          	slliw	a5,a5,0x10
    80001558:	92c1                	srli	a3,a3,0x30
    8000155a:	4107d79b          	sraiw	a5,a5,0x10
    8000155e:	fee595e3          	bne	a1,a4,80001548 <_Z10matrix_sumPsPKsmm+0x28>
    80001562:	00d8083b          	addw	a6,a6,a3
    80001566:	0108181b          	slliw	a6,a6,0x10
    8000156a:	0885                	addi	a7,a7,1
    8000156c:	4108581b          	sraiw	a6,a6,0x10
    80001570:	95f2                	add	a1,a1,t3
    80001572:	fcc898e3          	bne	a7,a2,80001542 <_Z10matrix_sumPsPKsmm+0x22>
    80001576:	01051023          	sh	a6,0(a0)
    8000157a:	8082                	ret
    8000157c:	1141                	addi	sp,sp,-16
    8000157e:	e406                	sd	ra,8(sp)
    80001580:	d5bff0ef          	jal	800012da <_Z10matrix_sumPsPKsmm.part.0>

0000000080001584 <_Z10matrix_sumPsPKsmmm>:
    80001584:	1141                	addi	sp,sp,-16
    80001586:	e406                	sd	ra,8(sp)
    80001588:	e022                	sd	s0,0(sp)
    8000158a:	cd49                	beqz	a0,80001624 <_Z10matrix_sumPsPKsmmm+0xa0>
    8000158c:	842a                	mv	s0,a0
    8000158e:	c741                	beqz	a4,80001616 <_Z10matrix_sumPsPKsmmm+0x92>
    80001590:	c259                	beqz	a2,80001616 <_Z10matrix_sumPsPKsmmm+0x92>
    80001592:	00169e93          	slli	t4,a3,0x1
    80001596:	01d582b3          	add	t0,a1,t4
    8000159a:	00171513          	slli	a0,a4,0x1
    8000159e:	00161f13          	slli	t5,a2,0x1
    800015a2:	4f81                	li	t6,0
    800015a4:	4381                	li	t2,0
    800015a6:	8896                	mv	a7,t0
    800015a8:	4e01                	li	t3,0
    800015aa:	e68d                	bnez	a3,800015d4 <_Z10matrix_sumPsPKsmmm+0x50>
    800015ac:	0e05                	addi	t3,t3,1
    800015ae:	ffc61fe3          	bne	a2,t3,800015ac <_Z10matrix_sumPsPKsmmm+0x28>
    800015b2:	4581                	li	a1,0
    800015b4:	00bf8fbb          	addw	t6,t6,a1
    800015b8:	010f9f9b          	slliw	t6,t6,0x10
    800015bc:	0385                	addi	t2,t2,1
    800015be:	410fdf9b          	sraiw	t6,t6,0x10
    800015c2:	92aa                	add	t0,t0,a0
    800015c4:	fee391e3          	bne	t2,a4,800015a6 <_Z10matrix_sumPsPKsmmm+0x22>
    800015c8:	60a2                	ld	ra,8(sp)
    800015ca:	01f41023          	sh	t6,0(s0)
    800015ce:	6402                	ld	s0,0(sp)
    800015d0:	0141                	addi	sp,sp,16
    800015d2:	8082                	ret
    800015d4:	4301                	li	t1,0
    800015d6:	41d885b3          	sub	a1,a7,t4
    800015da:	4781                	li	a5,0
    800015dc:	0005d803          	lhu	a6,0(a1)
    800015e0:	0589                	addi	a1,a1,2
    800015e2:	00f807bb          	addw	a5,a6,a5
    800015e6:	03079813          	slli	a6,a5,0x30
    800015ea:	0107979b          	slliw	a5,a5,0x10
    800015ee:	03085813          	srli	a6,a6,0x30
    800015f2:	4107d79b          	sraiw	a5,a5,0x10
    800015f6:	ff1593e3          	bne	a1,a7,800015dc <_Z10matrix_sumPsPKsmmm+0x58>
    800015fa:	010307bb          	addw	a5,t1,a6
    800015fe:	03079593          	slli	a1,a5,0x30
    80001602:	0107931b          	slliw	t1,a5,0x10
    80001606:	0e05                	addi	t3,t3,1
    80001608:	98fa                	add	a7,a7,t5
    8000160a:	91c1                	srli	a1,a1,0x30
    8000160c:	4103531b          	sraiw	t1,t1,0x10
    80001610:	fdc613e3          	bne	a2,t3,800015d6 <_Z10matrix_sumPsPKsmmm+0x52>
    80001614:	b745                	j	800015b4 <_Z10matrix_sumPsPKsmmm+0x30>
    80001616:	4f81                	li	t6,0
    80001618:	60a2                	ld	ra,8(sp)
    8000161a:	01f41023          	sh	t6,0(s0)
    8000161e:	6402                	ld	s0,0(sp)
    80001620:	0141                	addi	sp,sp,16
    80001622:	8082                	ret
    80001624:	cb7ff0ef          	jal	800012da <_Z10matrix_sumPsPKsmm.part.0>

0000000080001628 <_Z11matrix_meanPsPKsmm>:
    80001628:	c12d                	beqz	a0,8000168a <_Z11matrix_meanPsPKsmm+0x62>
    8000162a:	4801                	li	a6,0
    8000162c:	c205                	beqz	a2,8000164c <_Z11matrix_meanPsPKsmm+0x24>
    8000162e:	00169313          	slli	t1,a3,0x1
    80001632:	02d60eb3          	mul	t4,a2,a3
    80001636:	959a                	add	a1,a1,t1
    80001638:	00161e13          	slli	t3,a2,0x1
    8000163c:	4881                	li	a7,0
    8000163e:	ea91                	bnez	a3,80001652 <_Z11matrix_meanPsPKsmm+0x2a>
    80001640:	0885                	addi	a7,a7,1
    80001642:	ff161fe3          	bne	a2,a7,80001640 <_Z11matrix_meanPsPKsmm+0x18>
    80001646:	4801                	li	a6,0
    80001648:	03d85833          	divu	a6,a6,t4
    8000164c:	01051023          	sh	a6,0(a0)
    80001650:	8082                	ret
    80001652:	4801                	li	a6,0
    80001654:	40658733          	sub	a4,a1,t1
    80001658:	4781                	li	a5,0
    8000165a:	00075683          	lhu	a3,0(a4)
    8000165e:	0709                	addi	a4,a4,2
    80001660:	9fb5                	addw	a5,a5,a3
    80001662:	03079693          	slli	a3,a5,0x30
    80001666:	0107979b          	slliw	a5,a5,0x10
    8000166a:	92c1                	srli	a3,a3,0x30
    8000166c:	4107d79b          	sraiw	a5,a5,0x10
    80001670:	fee595e3          	bne	a1,a4,8000165a <_Z11matrix_meanPsPKsmm+0x32>
    80001674:	00d8083b          	addw	a6,a6,a3
    80001678:	0108181b          	slliw	a6,a6,0x10
    8000167c:	0885                	addi	a7,a7,1
    8000167e:	4108581b          	sraiw	a6,a6,0x10
    80001682:	95f2                	add	a1,a1,t3
    80001684:	fd1618e3          	bne	a2,a7,80001654 <_Z11matrix_meanPsPKsmm+0x2c>
    80001688:	b7c1                	j	80001648 <_Z11matrix_meanPsPKsmm+0x20>
    8000168a:	1141                	addi	sp,sp,-16
    8000168c:	00016517          	auipc	a0,0x16
    80001690:	e9c50513          	addi	a0,a0,-356 # 80017528 <__tbss_end+0x762>
    80001694:	e406                	sd	ra,8(sp)
    80001696:	5b4130ef          	jal	80014c4a <puts>
    8000169a:	00016517          	auipc	a0,0x16
    8000169e:	cbe50513          	addi	a0,a0,-834 # 80017358 <__tbss_end+0x592>
    800016a2:	5a8130ef          	jal	80014c4a <puts>
    800016a6:	557d                	li	a0,-1
    800016a8:	057120ef          	jal	80013efe <exit>

00000000800016ac <_Z11matrix_meanPsPKsmmm>:
    800016ac:	7139                	addi	sp,sp,-64
    800016ae:	fc06                	sd	ra,56(sp)
    800016b0:	f822                	sd	s0,48(sp)
    800016b2:	f426                	sd	s1,40(sp)
    800016b4:	f04a                	sd	s2,32(sp)
    800016b6:	ec4e                	sd	s3,24(sp)
    800016b8:	cd05                	beqz	a0,800016f0 <_Z11matrix_meanPsPKsmmm+0x44>
    800016ba:	842a                	mv	s0,a0
    800016bc:	00e10513          	addi	a0,sp,14
    800016c0:	84b2                	mv	s1,a2
    800016c2:	8936                	mv	s2,a3
    800016c4:	89ba                	mv	s3,a4
    800016c6:	00011723          	sh	zero,14(sp)
    800016ca:	ebbff0ef          	jal	80001584 <_Z10matrix_sumPsPKsmmm>
    800016ce:	03390633          	mul	a2,s2,s3
    800016d2:	00e11783          	lh	a5,14(sp)
    800016d6:	70e2                	ld	ra,56(sp)
    800016d8:	7902                	ld	s2,32(sp)
    800016da:	69e2                	ld	s3,24(sp)
    800016dc:	02960633          	mul	a2,a2,s1
    800016e0:	74a2                	ld	s1,40(sp)
    800016e2:	02c7d7b3          	divu	a5,a5,a2
    800016e6:	00f41023          	sh	a5,0(s0)
    800016ea:	7442                	ld	s0,48(sp)
    800016ec:	6121                	addi	sp,sp,64
    800016ee:	8082                	ret
    800016f0:	00016517          	auipc	a0,0x16
    800016f4:	e3850513          	addi	a0,a0,-456 # 80017528 <__tbss_end+0x762>
    800016f8:	552130ef          	jal	80014c4a <puts>
    800016fc:	00016517          	auipc	a0,0x16
    80001700:	c5c50513          	addi	a0,a0,-932 # 80017358 <__tbss_end+0x592>
    80001704:	546130ef          	jal	80014c4a <puts>
    80001708:	557d                	li	a0,-1
    8000170a:	7f4120ef          	jal	80013efe <exit>

000000008000170e <_Z14fit_vector_addPsPKsS1_m>:
    8000170e:	02000793          	li	a5,32
    80001712:	02d7e263          	bltu	a5,a3,80001736 <_Z14fit_vector_addPsPKsS1_m+0x28>
    80001716:	872a                	mv	a4,a0
    80001718:	8536                	mv	a0,a3
    8000171a:	1805200b          	.insn	4, 0x1805200b
    8000171e:	852e                	mv	a0,a1
    80001720:	1005208b          	.insn	4, 0x1005208b
    80001724:	8532                	mv	a0,a2
    80001726:	1005210b          	.insn	4, 0x1005210b
    8000172a:	0220818b          	.insn	4, 0x0220818b
    8000172e:	853a                	mv	a0,a4
    80001730:	1235200b          	.insn	4, 0x1235200b
    80001734:	8082                	ret
    80001736:	1141                	addi	sp,sp,-16
    80001738:	00016697          	auipc	a3,0x16
    8000173c:	e4068693          	addi	a3,a3,-448 # 80017578 <__tbss_end+0x7b2>
    80001740:	00016617          	auipc	a2,0x16
    80001744:	e5060613          	addi	a2,a2,-432 # 80017590 <__tbss_end+0x7ca>
    80001748:	4599                	li	a1,6
    8000174a:	00016517          	auipc	a0,0x16
    8000174e:	e8e50513          	addi	a0,a0,-370 # 800175d8 <__tbss_end+0x812>
    80001752:	e406                	sd	ra,8(sp)
    80001754:	764120ef          	jal	80013eb8 <__assert_func>

0000000080001758 <_Z16tiled_vector_addPsPKsS1_m>:
    80001758:	cd49                	beqz	a0,800017f2 <_Z16tiled_vector_addPsPKsS1_m+0x9a>
    8000175a:	02000793          	li	a5,32
    8000175e:	8e2a                	mv	t3,a0
    80001760:	06d7fa63          	bgeu	a5,a3,800017d4 <_Z16tiled_vector_addPsPKsS1_m+0x7c>
    80001764:	01f6fe93          	andi	t4,a3,31
    80001768:	0056d313          	srli	t1,a3,0x5
    8000176c:	88ae                	mv	a7,a1
    8000176e:	8832                	mv	a6,a2
    80001770:	872a                	mv	a4,a0
    80001772:	4781                	li	a5,0
    80001774:	02000513          	li	a0,32
    80001778:	1805200b          	.insn	4, 0x1805200b
    8000177c:	8546                	mv	a0,a7
    8000177e:	1005208b          	.insn	4, 0x1005208b
    80001782:	8542                	mv	a0,a6
    80001784:	1005210b          	.insn	4, 0x1005210b
    80001788:	0220818b          	.insn	4, 0x0220818b
    8000178c:	853a                	mv	a0,a4
    8000178e:	1235200b          	.insn	4, 0x1235200b
    80001792:	0785                	addi	a5,a5,1
    80001794:	04088893          	addi	a7,a7,64
    80001798:	04080813          	addi	a6,a6,64
    8000179c:	04070713          	addi	a4,a4,64
    800017a0:	fcf31ae3          	bne	t1,a5,80001774 <_Z16tiled_vector_addPsPKsS1_m+0x1c>
    800017a4:	000e9363          	bnez	t4,800017aa <_Z16tiled_vector_addPsPKsS1_m+0x52>
    800017a8:	8082                	ret
    800017aa:	41d686b3          	sub	a3,a3,t4
    800017ae:	0686                	slli	a3,a3,0x1
    800017b0:	8576                	mv	a0,t4
    800017b2:	1805200b          	.insn	4, 0x1805200b
    800017b6:	00d58533          	add	a0,a1,a3
    800017ba:	1005208b          	.insn	4, 0x1005208b
    800017be:	00d60533          	add	a0,a2,a3
    800017c2:	1005210b          	.insn	4, 0x1005210b
    800017c6:	0220818b          	.insn	4, 0x0220818b
    800017ca:	00de0533          	add	a0,t3,a3
    800017ce:	1235200b          	.insn	4, 0x1235200b
    800017d2:	8082                	ret
    800017d4:	8536                	mv	a0,a3
    800017d6:	1805200b          	.insn	4, 0x1805200b
    800017da:	852e                	mv	a0,a1
    800017dc:	1005208b          	.insn	4, 0x1005208b
    800017e0:	8532                	mv	a0,a2
    800017e2:	1005210b          	.insn	4, 0x1005210b
    800017e6:	0220818b          	.insn	4, 0x0220818b
    800017ea:	8572                	mv	a0,t3
    800017ec:	1235200b          	.insn	4, 0x1235200b
    800017f0:	8082                	ret
    800017f2:	1101                	addi	sp,sp,-32
    800017f4:	00016517          	auipc	a0,0x16
    800017f8:	dfc50513          	addi	a0,a0,-516 # 800175f0 <__tbss_end+0x82a>
    800017fc:	ec06                	sd	ra,24(sp)
    800017fe:	e436                	sd	a3,8(sp)
    80001800:	44a130ef          	jal	80014c4a <puts>
    80001804:	65a2                	ld	a1,8(sp)
    80001806:	00016517          	auipc	a0,0x16
    8000180a:	e3a50513          	addi	a0,a0,-454 # 80017640 <__tbss_end+0x87a>
    8000180e:	2f6130ef          	jal	80014b04 <iprintf>
    80001812:	557d                	li	a0,-1
    80001814:	6ea120ef          	jal	80013efe <exit>

0000000080001818 <_Z23tiled_matrix_vector_addPsPKsS1_mm>:
    80001818:	7139                	addi	sp,sp,-64
    8000181a:	e852                	sd	s4,16(sp)
    8000181c:	e456                	sd	s5,8(sp)
    8000181e:	fc06                	sd	ra,56(sp)
    80001820:	8a36                	mv	s4,a3
    80001822:	8aba                	mv	s5,a4
    80001824:	c131                	beqz	a0,80001868 <_Z23tiled_matrix_vector_addPsPKsS1_mm+0x50>
    80001826:	ce85                	beqz	a3,8000185e <_Z23tiled_matrix_vector_addPsPKsS1_mm+0x46>
    80001828:	f822                	sd	s0,48(sp)
    8000182a:	f426                	sd	s1,40(sp)
    8000182c:	f04a                	sd	s2,32(sp)
    8000182e:	ec4e                	sd	s3,24(sp)
    80001830:	e05a                	sd	s6,0(sp)
    80001832:	842a                	mv	s0,a0
    80001834:	8b32                	mv	s6,a2
    80001836:	84ae                	mv	s1,a1
    80001838:	00171993          	slli	s3,a4,0x1
    8000183c:	4901                	li	s2,0
    8000183e:	85a6                	mv	a1,s1
    80001840:	8522                	mv	a0,s0
    80001842:	86d6                	mv	a3,s5
    80001844:	865a                	mv	a2,s6
    80001846:	0905                	addi	s2,s2,1
    80001848:	f11ff0ef          	jal	80001758 <_Z16tiled_vector_addPsPKsS1_m>
    8000184c:	944e                	add	s0,s0,s3
    8000184e:	94ce                	add	s1,s1,s3
    80001850:	ff2a17e3          	bne	s4,s2,8000183e <_Z23tiled_matrix_vector_addPsPKsS1_mm+0x26>
    80001854:	7442                	ld	s0,48(sp)
    80001856:	74a2                	ld	s1,40(sp)
    80001858:	7902                	ld	s2,32(sp)
    8000185a:	69e2                	ld	s3,24(sp)
    8000185c:	6b02                	ld	s6,0(sp)
    8000185e:	70e2                	ld	ra,56(sp)
    80001860:	6a42                	ld	s4,16(sp)
    80001862:	6aa2                	ld	s5,8(sp)
    80001864:	6121                	addi	sp,sp,64
    80001866:	8082                	ret
    80001868:	00016517          	auipc	a0,0x16
    8000186c:	df850513          	addi	a0,a0,-520 # 80017660 <__tbss_end+0x89a>
    80001870:	f822                	sd	s0,48(sp)
    80001872:	f426                	sd	s1,40(sp)
    80001874:	f04a                	sd	s2,32(sp)
    80001876:	ec4e                	sd	s3,24(sp)
    80001878:	e05a                	sd	s6,0(sp)
    8000187a:	3d0130ef          	jal	80014c4a <puts>
    8000187e:	8656                	mv	a2,s5
    80001880:	85d2                	mv	a1,s4
    80001882:	00016517          	auipc	a0,0x16
    80001886:	e3650513          	addi	a0,a0,-458 # 800176b8 <__tbss_end+0x8f2>
    8000188a:	27a130ef          	jal	80014b04 <iprintf>
    8000188e:	557d                	li	a0,-1
    80001890:	66e120ef          	jal	80013efe <exit>

0000000080001894 <_Z14fit_vector_subPsPKsS1_m>:
    80001894:	02000793          	li	a5,32
    80001898:	02d7e263          	bltu	a5,a3,800018bc <_Z14fit_vector_subPsPKsS1_m+0x28>
    8000189c:	872a                	mv	a4,a0
    8000189e:	8536                	mv	a0,a3
    800018a0:	1805200b          	.insn	4, 0x1805200b
    800018a4:	852e                	mv	a0,a1
    800018a6:	1005208b          	.insn	4, 0x1005208b
    800018aa:	8532                	mv	a0,a2
    800018ac:	1005210b          	.insn	4, 0x1005210b
    800018b0:	0420818b          	.insn	4, 0x0420818b
    800018b4:	853a                	mv	a0,a4
    800018b6:	1235200b          	.insn	4, 0x1235200b
    800018ba:	8082                	ret
    800018bc:	1141                	addi	sp,sp,-16
    800018be:	00016697          	auipc	a3,0x16
    800018c2:	cba68693          	addi	a3,a3,-838 # 80017578 <__tbss_end+0x7b2>
    800018c6:	00016617          	auipc	a2,0x16
    800018ca:	e2260613          	addi	a2,a2,-478 # 800176e8 <__tbss_end+0x922>
    800018ce:	03600593          	li	a1,54
    800018d2:	00016517          	auipc	a0,0x16
    800018d6:	d0650513          	addi	a0,a0,-762 # 800175d8 <__tbss_end+0x812>
    800018da:	e406                	sd	ra,8(sp)
    800018dc:	5dc120ef          	jal	80013eb8 <__assert_func>

00000000800018e0 <_Z16tiled_vector_subPsPKsS1_m>:
    800018e0:	cd49                	beqz	a0,8000197a <_Z16tiled_vector_subPsPKsS1_m+0x9a>
    800018e2:	02000793          	li	a5,32
    800018e6:	8e2a                	mv	t3,a0
    800018e8:	06d7fa63          	bgeu	a5,a3,8000195c <_Z16tiled_vector_subPsPKsS1_m+0x7c>
    800018ec:	01f6fe93          	andi	t4,a3,31
    800018f0:	0056d313          	srli	t1,a3,0x5
    800018f4:	88ae                	mv	a7,a1
    800018f6:	8832                	mv	a6,a2
    800018f8:	872a                	mv	a4,a0
    800018fa:	4781                	li	a5,0
    800018fc:	02000513          	li	a0,32
    80001900:	1805200b          	.insn	4, 0x1805200b
    80001904:	8546                	mv	a0,a7
    80001906:	1005208b          	.insn	4, 0x1005208b
    8000190a:	8542                	mv	a0,a6
    8000190c:	1005210b          	.insn	4, 0x1005210b
    80001910:	0420818b          	.insn	4, 0x0420818b
    80001914:	853a                	mv	a0,a4
    80001916:	1235200b          	.insn	4, 0x1235200b
    8000191a:	0785                	addi	a5,a5,1
    8000191c:	04088893          	addi	a7,a7,64
    80001920:	04080813          	addi	a6,a6,64
    80001924:	04070713          	addi	a4,a4,64
    80001928:	fcf31ae3          	bne	t1,a5,800018fc <_Z16tiled_vector_subPsPKsS1_m+0x1c>
    8000192c:	000e9363          	bnez	t4,80001932 <_Z16tiled_vector_subPsPKsS1_m+0x52>
    80001930:	8082                	ret
    80001932:	41d686b3          	sub	a3,a3,t4
    80001936:	0686                	slli	a3,a3,0x1
    80001938:	8576                	mv	a0,t4
    8000193a:	1805200b          	.insn	4, 0x1805200b
    8000193e:	00d58533          	add	a0,a1,a3
    80001942:	1005208b          	.insn	4, 0x1005208b
    80001946:	00d60533          	add	a0,a2,a3
    8000194a:	1005210b          	.insn	4, 0x1005210b
    8000194e:	0420818b          	.insn	4, 0x0420818b
    80001952:	00de0533          	add	a0,t3,a3
    80001956:	1235200b          	.insn	4, 0x1235200b
    8000195a:	8082                	ret
    8000195c:	8536                	mv	a0,a3
    8000195e:	1805200b          	.insn	4, 0x1805200b
    80001962:	852e                	mv	a0,a1
    80001964:	1005208b          	.insn	4, 0x1005208b
    80001968:	8532                	mv	a0,a2
    8000196a:	1005210b          	.insn	4, 0x1005210b
    8000196e:	0420818b          	.insn	4, 0x0420818b
    80001972:	8572                	mv	a0,t3
    80001974:	1235200b          	.insn	4, 0x1235200b
    80001978:	8082                	ret
    8000197a:	1101                	addi	sp,sp,-32
    8000197c:	00016517          	auipc	a0,0x16
    80001980:	db450513          	addi	a0,a0,-588 # 80017730 <__tbss_end+0x96a>
    80001984:	ec06                	sd	ra,24(sp)
    80001986:	e436                	sd	a3,8(sp)
    80001988:	2c2130ef          	jal	80014c4a <puts>
    8000198c:	65a2                	ld	a1,8(sp)
    8000198e:	00016517          	auipc	a0,0x16
    80001992:	cb250513          	addi	a0,a0,-846 # 80017640 <__tbss_end+0x87a>
    80001996:	16e130ef          	jal	80014b04 <iprintf>
    8000199a:	557d                	li	a0,-1
    8000199c:	562120ef          	jal	80013efe <exit>

00000000800019a0 <_Z23tiled_matrix_vector_subPsPKsS1_mm>:
    800019a0:	7139                	addi	sp,sp,-64
    800019a2:	e852                	sd	s4,16(sp)
    800019a4:	e456                	sd	s5,8(sp)
    800019a6:	fc06                	sd	ra,56(sp)
    800019a8:	8a36                	mv	s4,a3
    800019aa:	8aba                	mv	s5,a4
    800019ac:	c131                	beqz	a0,800019f0 <_Z23tiled_matrix_vector_subPsPKsS1_mm+0x50>
    800019ae:	ce85                	beqz	a3,800019e6 <_Z23tiled_matrix_vector_subPsPKsS1_mm+0x46>
    800019b0:	f822                	sd	s0,48(sp)
    800019b2:	f426                	sd	s1,40(sp)
    800019b4:	f04a                	sd	s2,32(sp)
    800019b6:	ec4e                	sd	s3,24(sp)
    800019b8:	e05a                	sd	s6,0(sp)
    800019ba:	842a                	mv	s0,a0
    800019bc:	8b32                	mv	s6,a2
    800019be:	84ae                	mv	s1,a1
    800019c0:	00171993          	slli	s3,a4,0x1
    800019c4:	4901                	li	s2,0
    800019c6:	85a6                	mv	a1,s1
    800019c8:	8522                	mv	a0,s0
    800019ca:	86d6                	mv	a3,s5
    800019cc:	865a                	mv	a2,s6
    800019ce:	0905                	addi	s2,s2,1
    800019d0:	f11ff0ef          	jal	800018e0 <_Z16tiled_vector_subPsPKsS1_m>
    800019d4:	944e                	add	s0,s0,s3
    800019d6:	94ce                	add	s1,s1,s3
    800019d8:	ff2a17e3          	bne	s4,s2,800019c6 <_Z23tiled_matrix_vector_subPsPKsS1_mm+0x26>
    800019dc:	7442                	ld	s0,48(sp)
    800019de:	74a2                	ld	s1,40(sp)
    800019e0:	7902                	ld	s2,32(sp)
    800019e2:	69e2                	ld	s3,24(sp)
    800019e4:	6b02                	ld	s6,0(sp)
    800019e6:	70e2                	ld	ra,56(sp)
    800019e8:	6a42                	ld	s4,16(sp)
    800019ea:	6aa2                	ld	s5,8(sp)
    800019ec:	6121                	addi	sp,sp,64
    800019ee:	8082                	ret
    800019f0:	00016517          	auipc	a0,0x16
    800019f4:	d9050513          	addi	a0,a0,-624 # 80017780 <__tbss_end+0x9ba>
    800019f8:	f822                	sd	s0,48(sp)
    800019fa:	f426                	sd	s1,40(sp)
    800019fc:	f04a                	sd	s2,32(sp)
    800019fe:	ec4e                	sd	s3,24(sp)
    80001a00:	e05a                	sd	s6,0(sp)
    80001a02:	248130ef          	jal	80014c4a <puts>
    80001a06:	8656                	mv	a2,s5
    80001a08:	85d2                	mv	a1,s4
    80001a0a:	00016517          	auipc	a0,0x16
    80001a0e:	cae50513          	addi	a0,a0,-850 # 800176b8 <__tbss_end+0x8f2>
    80001a12:	0f2130ef          	jal	80014b04 <iprintf>
    80001a16:	557d                	li	a0,-1
    80001a18:	4e6120ef          	jal	80013efe <exit>

0000000080001a1c <_Z21fit_vector_add_scalarPsPKssm>:
    80001a1c:	02000793          	li	a5,32
    80001a20:	02d7e063          	bltu	a5,a3,80001a40 <_Z21fit_vector_add_scalarPsPKssm+0x24>
    80001a24:	872a                	mv	a4,a0
    80001a26:	8536                	mv	a0,a3
    80001a28:	1805200b          	.insn	4, 0x1805200b
    80001a2c:	852e                	mv	a0,a1
    80001a2e:	1005208b          	.insn	4, 0x1005208b
    80001a32:	8532                	mv	a0,a2
    80001a34:	0615210b          	.insn	4, 0x0615210b
    80001a38:	853a                	mv	a0,a4
    80001a3a:	1235200b          	.insn	4, 0x1235200b
    80001a3e:	8082                	ret
    80001a40:	1141                	addi	sp,sp,-16
    80001a42:	00016697          	auipc	a3,0x16
    80001a46:	b3668693          	addi	a3,a3,-1226 # 80017578 <__tbss_end+0x7b2>
    80001a4a:	00016617          	auipc	a2,0x16
    80001a4e:	d8e60613          	addi	a2,a2,-626 # 800177d8 <__tbss_end+0xa12>
    80001a52:	06600593          	li	a1,102
    80001a56:	00016517          	auipc	a0,0x16
    80001a5a:	b8250513          	addi	a0,a0,-1150 # 800175d8 <__tbss_end+0x812>
    80001a5e:	e406                	sd	ra,8(sp)
    80001a60:	458120ef          	jal	80013eb8 <__assert_func>

0000000080001a64 <_Z23tiled_vector_add_scalarPsPKssm>:
    80001a64:	c159                	beqz	a0,80001aea <_Z23tiled_vector_add_scalarPsPKssm+0x86>
    80001a66:	02000793          	li	a5,32
    80001a6a:	832a                	mv	t1,a0
    80001a6c:	06d7f263          	bgeu	a5,a3,80001ad0 <_Z23tiled_vector_add_scalarPsPKssm+0x6c>
    80001a70:	01f6fe13          	andi	t3,a3,31
    80001a74:	0056d893          	srli	a7,a3,0x5
    80001a78:	882e                	mv	a6,a1
    80001a7a:	872a                	mv	a4,a0
    80001a7c:	4781                	li	a5,0
    80001a7e:	02000513          	li	a0,32
    80001a82:	1805200b          	.insn	4, 0x1805200b
    80001a86:	8542                	mv	a0,a6
    80001a88:	1005208b          	.insn	4, 0x1005208b
    80001a8c:	8532                	mv	a0,a2
    80001a8e:	0615210b          	.insn	4, 0x0615210b
    80001a92:	853a                	mv	a0,a4
    80001a94:	1235200b          	.insn	4, 0x1235200b
    80001a98:	0785                	addi	a5,a5,1
    80001a9a:	04080813          	addi	a6,a6,64
    80001a9e:	04070713          	addi	a4,a4,64
    80001aa2:	fcf89ee3          	bne	a7,a5,80001a7e <_Z23tiled_vector_add_scalarPsPKssm+0x1a>
    80001aa6:	000e1363          	bnez	t3,80001aac <_Z23tiled_vector_add_scalarPsPKssm+0x48>
    80001aaa:	8082                	ret
    80001aac:	41c686b3          	sub	a3,a3,t3
    80001ab0:	0686                	slli	a3,a3,0x1
    80001ab2:	8572                	mv	a0,t3
    80001ab4:	1805200b          	.insn	4, 0x1805200b
    80001ab8:	00d58533          	add	a0,a1,a3
    80001abc:	1005208b          	.insn	4, 0x1005208b
    80001ac0:	8532                	mv	a0,a2
    80001ac2:	0615210b          	.insn	4, 0x0615210b
    80001ac6:	00d30533          	add	a0,t1,a3
    80001aca:	1235200b          	.insn	4, 0x1235200b
    80001ace:	8082                	ret
    80001ad0:	8536                	mv	a0,a3
    80001ad2:	1805200b          	.insn	4, 0x1805200b
    80001ad6:	852e                	mv	a0,a1
    80001ad8:	1005208b          	.insn	4, 0x1005208b
    80001adc:	8532                	mv	a0,a2
    80001ade:	0615210b          	.insn	4, 0x0615210b
    80001ae2:	851a                	mv	a0,t1
    80001ae4:	1235200b          	.insn	4, 0x1235200b
    80001ae8:	8082                	ret
    80001aea:	1101                	addi	sp,sp,-32
    80001aec:	00016517          	auipc	a0,0x16
    80001af0:	d3450513          	addi	a0,a0,-716 # 80017820 <__tbss_end+0xa5a>
    80001af4:	ec06                	sd	ra,24(sp)
    80001af6:	e436                	sd	a3,8(sp)
    80001af8:	152130ef          	jal	80014c4a <puts>
    80001afc:	65a2                	ld	a1,8(sp)
    80001afe:	00016517          	auipc	a0,0x16
    80001b02:	b4250513          	addi	a0,a0,-1214 # 80017640 <__tbss_end+0x87a>
    80001b06:	7ff120ef          	jal	80014b04 <iprintf>
    80001b0a:	557d                	li	a0,-1
    80001b0c:	3f2120ef          	jal	80013efe <exit>

0000000080001b10 <_Z23tiled_matrix_add_scalarPsPKssmm>:
    80001b10:	7139                	addi	sp,sp,-64
    80001b12:	e852                	sd	s4,16(sp)
    80001b14:	e456                	sd	s5,8(sp)
    80001b16:	fc06                	sd	ra,56(sp)
    80001b18:	8a36                	mv	s4,a3
    80001b1a:	8aba                	mv	s5,a4
    80001b1c:	c131                	beqz	a0,80001b60 <_Z23tiled_matrix_add_scalarPsPKssmm+0x50>
    80001b1e:	ce85                	beqz	a3,80001b56 <_Z23tiled_matrix_add_scalarPsPKssmm+0x46>
    80001b20:	f822                	sd	s0,48(sp)
    80001b22:	f426                	sd	s1,40(sp)
    80001b24:	f04a                	sd	s2,32(sp)
    80001b26:	ec4e                	sd	s3,24(sp)
    80001b28:	e05a                	sd	s6,0(sp)
    80001b2a:	842a                	mv	s0,a0
    80001b2c:	8b32                	mv	s6,a2
    80001b2e:	84ae                	mv	s1,a1
    80001b30:	00171993          	slli	s3,a4,0x1
    80001b34:	4901                	li	s2,0
    80001b36:	85a6                	mv	a1,s1
    80001b38:	8522                	mv	a0,s0
    80001b3a:	86d6                	mv	a3,s5
    80001b3c:	865a                	mv	a2,s6
    80001b3e:	0905                	addi	s2,s2,1
    80001b40:	f25ff0ef          	jal	80001a64 <_Z23tiled_vector_add_scalarPsPKssm>
    80001b44:	944e                	add	s0,s0,s3
    80001b46:	94ce                	add	s1,s1,s3
    80001b48:	ff2a17e3          	bne	s4,s2,80001b36 <_Z23tiled_matrix_add_scalarPsPKssmm+0x26>
    80001b4c:	7442                	ld	s0,48(sp)
    80001b4e:	74a2                	ld	s1,40(sp)
    80001b50:	7902                	ld	s2,32(sp)
    80001b52:	69e2                	ld	s3,24(sp)
    80001b54:	6b02                	ld	s6,0(sp)
    80001b56:	70e2                	ld	ra,56(sp)
    80001b58:	6a42                	ld	s4,16(sp)
    80001b5a:	6aa2                	ld	s5,8(sp)
    80001b5c:	6121                	addi	sp,sp,64
    80001b5e:	8082                	ret
    80001b60:	00016517          	auipc	a0,0x16
    80001b64:	d1850513          	addi	a0,a0,-744 # 80017878 <__tbss_end+0xab2>
    80001b68:	f822                	sd	s0,48(sp)
    80001b6a:	f426                	sd	s1,40(sp)
    80001b6c:	f04a                	sd	s2,32(sp)
    80001b6e:	ec4e                	sd	s3,24(sp)
    80001b70:	e05a                	sd	s6,0(sp)
    80001b72:	0d8130ef          	jal	80014c4a <puts>
    80001b76:	8656                	mv	a2,s5
    80001b78:	85d2                	mv	a1,s4
    80001b7a:	00016517          	auipc	a0,0x16
    80001b7e:	b3e50513          	addi	a0,a0,-1218 # 800176b8 <__tbss_end+0x8f2>
    80001b82:	783120ef          	jal	80014b04 <iprintf>
    80001b86:	557d                	li	a0,-1
    80001b88:	376120ef          	jal	80013efe <exit>

0000000080001b8c <_Z21fit_vector_sub_scalarPsPKssm>:
    80001b8c:	02000793          	li	a5,32
    80001b90:	02d7e063          	bltu	a5,a3,80001bb0 <_Z21fit_vector_sub_scalarPsPKssm+0x24>
    80001b94:	872a                	mv	a4,a0
    80001b96:	8536                	mv	a0,a3
    80001b98:	1805200b          	.insn	4, 0x1805200b
    80001b9c:	852e                	mv	a0,a1
    80001b9e:	1005208b          	.insn	4, 0x1005208b
    80001ba2:	8532                	mv	a0,a2
    80001ba4:	0815210b          	.insn	4, 0x0815210b
    80001ba8:	853a                	mv	a0,a4
    80001baa:	1235200b          	.insn	4, 0x1235200b
    80001bae:	8082                	ret
    80001bb0:	1141                	addi	sp,sp,-16
    80001bb2:	00016697          	auipc	a3,0x16
    80001bb6:	9c668693          	addi	a3,a3,-1594 # 80017578 <__tbss_end+0x7b2>
    80001bba:	00016617          	auipc	a2,0x16
    80001bbe:	d1660613          	addi	a2,a2,-746 # 800178d0 <__tbss_end+0xb0a>
    80001bc2:	09500593          	li	a1,149
    80001bc6:	00016517          	auipc	a0,0x16
    80001bca:	a1250513          	addi	a0,a0,-1518 # 800175d8 <__tbss_end+0x812>
    80001bce:	e406                	sd	ra,8(sp)
    80001bd0:	2e8120ef          	jal	80013eb8 <__assert_func>

0000000080001bd4 <_Z23tiled_vector_sub_scalarPsPKssm>:
    80001bd4:	c159                	beqz	a0,80001c5a <_Z23tiled_vector_sub_scalarPsPKssm+0x86>
    80001bd6:	02000793          	li	a5,32
    80001bda:	832a                	mv	t1,a0
    80001bdc:	06d7f263          	bgeu	a5,a3,80001c40 <_Z23tiled_vector_sub_scalarPsPKssm+0x6c>
    80001be0:	01f6fe13          	andi	t3,a3,31
    80001be4:	0056d893          	srli	a7,a3,0x5
    80001be8:	882e                	mv	a6,a1
    80001bea:	872a                	mv	a4,a0
    80001bec:	4781                	li	a5,0
    80001bee:	02000513          	li	a0,32
    80001bf2:	1805200b          	.insn	4, 0x1805200b
    80001bf6:	8542                	mv	a0,a6
    80001bf8:	1005208b          	.insn	4, 0x1005208b
    80001bfc:	8532                	mv	a0,a2
    80001bfe:	0815210b          	.insn	4, 0x0815210b
    80001c02:	853a                	mv	a0,a4
    80001c04:	1235200b          	.insn	4, 0x1235200b
    80001c08:	0785                	addi	a5,a5,1
    80001c0a:	04080813          	addi	a6,a6,64
    80001c0e:	04070713          	addi	a4,a4,64
    80001c12:	fcf89ee3          	bne	a7,a5,80001bee <_Z23tiled_vector_sub_scalarPsPKssm+0x1a>
    80001c16:	000e1363          	bnez	t3,80001c1c <_Z23tiled_vector_sub_scalarPsPKssm+0x48>
    80001c1a:	8082                	ret
    80001c1c:	41c686b3          	sub	a3,a3,t3
    80001c20:	0686                	slli	a3,a3,0x1
    80001c22:	8572                	mv	a0,t3
    80001c24:	1805200b          	.insn	4, 0x1805200b
    80001c28:	00d58533          	add	a0,a1,a3
    80001c2c:	1005208b          	.insn	4, 0x1005208b
    80001c30:	8532                	mv	a0,a2
    80001c32:	0815210b          	.insn	4, 0x0815210b
    80001c36:	00d30533          	add	a0,t1,a3
    80001c3a:	1235200b          	.insn	4, 0x1235200b
    80001c3e:	8082                	ret
    80001c40:	8536                	mv	a0,a3
    80001c42:	1805200b          	.insn	4, 0x1805200b
    80001c46:	852e                	mv	a0,a1
    80001c48:	1005208b          	.insn	4, 0x1005208b
    80001c4c:	8532                	mv	a0,a2
    80001c4e:	0815210b          	.insn	4, 0x0815210b
    80001c52:	851a                	mv	a0,t1
    80001c54:	1235200b          	.insn	4, 0x1235200b
    80001c58:	8082                	ret
    80001c5a:	1101                	addi	sp,sp,-32
    80001c5c:	00016517          	auipc	a0,0x16
    80001c60:	cbc50513          	addi	a0,a0,-836 # 80017918 <__tbss_end+0xb52>
    80001c64:	ec06                	sd	ra,24(sp)
    80001c66:	e436                	sd	a3,8(sp)
    80001c68:	7e3120ef          	jal	80014c4a <puts>
    80001c6c:	65a2                	ld	a1,8(sp)
    80001c6e:	00016517          	auipc	a0,0x16
    80001c72:	9d250513          	addi	a0,a0,-1582 # 80017640 <__tbss_end+0x87a>
    80001c76:	68f120ef          	jal	80014b04 <iprintf>
    80001c7a:	557d                	li	a0,-1
    80001c7c:	282120ef          	jal	80013efe <exit>

0000000080001c80 <_Z23tiled_matrix_sub_scalarPsPKssmm>:
    80001c80:	7139                	addi	sp,sp,-64
    80001c82:	e852                	sd	s4,16(sp)
    80001c84:	e456                	sd	s5,8(sp)
    80001c86:	fc06                	sd	ra,56(sp)
    80001c88:	8a36                	mv	s4,a3
    80001c8a:	8aba                	mv	s5,a4
    80001c8c:	c131                	beqz	a0,80001cd0 <_Z23tiled_matrix_sub_scalarPsPKssmm+0x50>
    80001c8e:	ce85                	beqz	a3,80001cc6 <_Z23tiled_matrix_sub_scalarPsPKssmm+0x46>
    80001c90:	f822                	sd	s0,48(sp)
    80001c92:	f426                	sd	s1,40(sp)
    80001c94:	f04a                	sd	s2,32(sp)
    80001c96:	ec4e                	sd	s3,24(sp)
    80001c98:	e05a                	sd	s6,0(sp)
    80001c9a:	842a                	mv	s0,a0
    80001c9c:	8b32                	mv	s6,a2
    80001c9e:	84ae                	mv	s1,a1
    80001ca0:	00171993          	slli	s3,a4,0x1
    80001ca4:	4901                	li	s2,0
    80001ca6:	85a6                	mv	a1,s1
    80001ca8:	8522                	mv	a0,s0
    80001caa:	86d6                	mv	a3,s5
    80001cac:	865a                	mv	a2,s6
    80001cae:	0905                	addi	s2,s2,1
    80001cb0:	f25ff0ef          	jal	80001bd4 <_Z23tiled_vector_sub_scalarPsPKssm>
    80001cb4:	944e                	add	s0,s0,s3
    80001cb6:	94ce                	add	s1,s1,s3
    80001cb8:	ff2a17e3          	bne	s4,s2,80001ca6 <_Z23tiled_matrix_sub_scalarPsPKssmm+0x26>
    80001cbc:	7442                	ld	s0,48(sp)
    80001cbe:	74a2                	ld	s1,40(sp)
    80001cc0:	7902                	ld	s2,32(sp)
    80001cc2:	69e2                	ld	s3,24(sp)
    80001cc4:	6b02                	ld	s6,0(sp)
    80001cc6:	70e2                	ld	ra,56(sp)
    80001cc8:	6a42                	ld	s4,16(sp)
    80001cca:	6aa2                	ld	s5,8(sp)
    80001ccc:	6121                	addi	sp,sp,64
    80001cce:	8082                	ret
    80001cd0:	00016517          	auipc	a0,0x16
    80001cd4:	ca050513          	addi	a0,a0,-864 # 80017970 <__tbss_end+0xbaa>
    80001cd8:	f822                	sd	s0,48(sp)
    80001cda:	f426                	sd	s1,40(sp)
    80001cdc:	f04a                	sd	s2,32(sp)
    80001cde:	ec4e                	sd	s3,24(sp)
    80001ce0:	e05a                	sd	s6,0(sp)
    80001ce2:	769120ef          	jal	80014c4a <puts>
    80001ce6:	8656                	mv	a2,s5
    80001ce8:	85d2                	mv	a1,s4
    80001cea:	00016517          	auipc	a0,0x16
    80001cee:	9ce50513          	addi	a0,a0,-1586 # 800176b8 <__tbss_end+0x8f2>
    80001cf2:	613120ef          	jal	80014b04 <iprintf>
    80001cf6:	557d                	li	a0,-1
    80001cf8:	206120ef          	jal	80013efe <exit>

0000000080001cfc <_Z21fit_vector_mul_scalarPsPKssm>:
    80001cfc:	02000793          	li	a5,32
    80001d00:	02d7e063          	bltu	a5,a3,80001d20 <_Z21fit_vector_mul_scalarPsPKssm+0x24>
    80001d04:	872a                	mv	a4,a0
    80001d06:	8536                	mv	a0,a3
    80001d08:	1805200b          	.insn	4, 0x1805200b
    80001d0c:	852e                	mv	a0,a1
    80001d0e:	1005208b          	.insn	4, 0x1005208b
    80001d12:	8532                	mv	a0,a2
    80001d14:	0a15210b          	.insn	4, 0x0a15210b
    80001d18:	853a                	mv	a0,a4
    80001d1a:	1235200b          	.insn	4, 0x1235200b
    80001d1e:	8082                	ret
    80001d20:	1141                	addi	sp,sp,-16
    80001d22:	00016697          	auipc	a3,0x16
    80001d26:	85668693          	addi	a3,a3,-1962 # 80017578 <__tbss_end+0x7b2>
    80001d2a:	00016617          	auipc	a2,0x16
    80001d2e:	c9e60613          	addi	a2,a2,-866 # 800179c8 <__tbss_end+0xc02>
    80001d32:	0c400593          	li	a1,196
    80001d36:	00016517          	auipc	a0,0x16
    80001d3a:	8a250513          	addi	a0,a0,-1886 # 800175d8 <__tbss_end+0x812>
    80001d3e:	e406                	sd	ra,8(sp)
    80001d40:	178120ef          	jal	80013eb8 <__assert_func>

0000000080001d44 <_Z23tiled_vector_mul_scalarPsPKssm>:
    80001d44:	c159                	beqz	a0,80001dca <_Z23tiled_vector_mul_scalarPsPKssm+0x86>
    80001d46:	02000793          	li	a5,32
    80001d4a:	832a                	mv	t1,a0
    80001d4c:	06d7f263          	bgeu	a5,a3,80001db0 <_Z23tiled_vector_mul_scalarPsPKssm+0x6c>
    80001d50:	01f6fe13          	andi	t3,a3,31
    80001d54:	0056d893          	srli	a7,a3,0x5
    80001d58:	882e                	mv	a6,a1
    80001d5a:	872a                	mv	a4,a0
    80001d5c:	4781                	li	a5,0
    80001d5e:	02000513          	li	a0,32
    80001d62:	1805200b          	.insn	4, 0x1805200b
    80001d66:	8542                	mv	a0,a6
    80001d68:	1005208b          	.insn	4, 0x1005208b
    80001d6c:	8532                	mv	a0,a2
    80001d6e:	0a15210b          	.insn	4, 0x0a15210b
    80001d72:	853a                	mv	a0,a4
    80001d74:	1235200b          	.insn	4, 0x1235200b
    80001d78:	0785                	addi	a5,a5,1
    80001d7a:	04080813          	addi	a6,a6,64
    80001d7e:	04070713          	addi	a4,a4,64
    80001d82:	fcf89ee3          	bne	a7,a5,80001d5e <_Z23tiled_vector_mul_scalarPsPKssm+0x1a>
    80001d86:	000e1363          	bnez	t3,80001d8c <_Z23tiled_vector_mul_scalarPsPKssm+0x48>
    80001d8a:	8082                	ret
    80001d8c:	41c686b3          	sub	a3,a3,t3
    80001d90:	0686                	slli	a3,a3,0x1
    80001d92:	8572                	mv	a0,t3
    80001d94:	1805200b          	.insn	4, 0x1805200b
    80001d98:	00d58533          	add	a0,a1,a3
    80001d9c:	1005208b          	.insn	4, 0x1005208b
    80001da0:	8532                	mv	a0,a2
    80001da2:	0a15210b          	.insn	4, 0x0a15210b
    80001da6:	00d30533          	add	a0,t1,a3
    80001daa:	1235200b          	.insn	4, 0x1235200b
    80001dae:	8082                	ret
    80001db0:	8536                	mv	a0,a3
    80001db2:	1805200b          	.insn	4, 0x1805200b
    80001db6:	852e                	mv	a0,a1
    80001db8:	1005208b          	.insn	4, 0x1005208b
    80001dbc:	8532                	mv	a0,a2
    80001dbe:	0a15210b          	.insn	4, 0x0a15210b
    80001dc2:	851a                	mv	a0,t1
    80001dc4:	1235200b          	.insn	4, 0x1235200b
    80001dc8:	8082                	ret
    80001dca:	1101                	addi	sp,sp,-32
    80001dcc:	00016517          	auipc	a0,0x16
    80001dd0:	c4450513          	addi	a0,a0,-956 # 80017a10 <__tbss_end+0xc4a>
    80001dd4:	ec06                	sd	ra,24(sp)
    80001dd6:	e436                	sd	a3,8(sp)
    80001dd8:	673120ef          	jal	80014c4a <puts>
    80001ddc:	65a2                	ld	a1,8(sp)
    80001dde:	00016517          	auipc	a0,0x16
    80001de2:	86250513          	addi	a0,a0,-1950 # 80017640 <__tbss_end+0x87a>
    80001de6:	51f120ef          	jal	80014b04 <iprintf>
    80001dea:	557d                	li	a0,-1
    80001dec:	112120ef          	jal	80013efe <exit>

0000000080001df0 <_Z23tiled_matrix_mul_scalarPsPKssmm>:
    80001df0:	7139                	addi	sp,sp,-64
    80001df2:	e852                	sd	s4,16(sp)
    80001df4:	e456                	sd	s5,8(sp)
    80001df6:	fc06                	sd	ra,56(sp)
    80001df8:	8a36                	mv	s4,a3
    80001dfa:	8aba                	mv	s5,a4
    80001dfc:	c131                	beqz	a0,80001e40 <_Z23tiled_matrix_mul_scalarPsPKssmm+0x50>
    80001dfe:	ce85                	beqz	a3,80001e36 <_Z23tiled_matrix_mul_scalarPsPKssmm+0x46>
    80001e00:	f822                	sd	s0,48(sp)
    80001e02:	f426                	sd	s1,40(sp)
    80001e04:	f04a                	sd	s2,32(sp)
    80001e06:	ec4e                	sd	s3,24(sp)
    80001e08:	e05a                	sd	s6,0(sp)
    80001e0a:	842a                	mv	s0,a0
    80001e0c:	8b32                	mv	s6,a2
    80001e0e:	84ae                	mv	s1,a1
    80001e10:	00171993          	slli	s3,a4,0x1
    80001e14:	4901                	li	s2,0
    80001e16:	85a6                	mv	a1,s1
    80001e18:	8522                	mv	a0,s0
    80001e1a:	86d6                	mv	a3,s5
    80001e1c:	865a                	mv	a2,s6
    80001e1e:	0905                	addi	s2,s2,1
    80001e20:	f25ff0ef          	jal	80001d44 <_Z23tiled_vector_mul_scalarPsPKssm>
    80001e24:	944e                	add	s0,s0,s3
    80001e26:	94ce                	add	s1,s1,s3
    80001e28:	ff2a17e3          	bne	s4,s2,80001e16 <_Z23tiled_matrix_mul_scalarPsPKssmm+0x26>
    80001e2c:	7442                	ld	s0,48(sp)
    80001e2e:	74a2                	ld	s1,40(sp)
    80001e30:	7902                	ld	s2,32(sp)
    80001e32:	69e2                	ld	s3,24(sp)
    80001e34:	6b02                	ld	s6,0(sp)
    80001e36:	70e2                	ld	ra,56(sp)
    80001e38:	6a42                	ld	s4,16(sp)
    80001e3a:	6aa2                	ld	s5,8(sp)
    80001e3c:	6121                	addi	sp,sp,64
    80001e3e:	8082                	ret
    80001e40:	00016517          	auipc	a0,0x16
    80001e44:	c2850513          	addi	a0,a0,-984 # 80017a68 <__tbss_end+0xca2>
    80001e48:	f822                	sd	s0,48(sp)
    80001e4a:	f426                	sd	s1,40(sp)
    80001e4c:	f04a                	sd	s2,32(sp)
    80001e4e:	ec4e                	sd	s3,24(sp)
    80001e50:	e05a                	sd	s6,0(sp)
    80001e52:	5f9120ef          	jal	80014c4a <puts>
    80001e56:	8656                	mv	a2,s5
    80001e58:	85d2                	mv	a1,s4
    80001e5a:	00016517          	auipc	a0,0x16
    80001e5e:	85e50513          	addi	a0,a0,-1954 # 800176b8 <__tbss_end+0x8f2>
    80001e62:	4a3120ef          	jal	80014b04 <iprintf>
    80001e66:	557d                	li	a0,-1
    80001e68:	096120ef          	jal	80013efe <exit>

0000000080001e6c <_Z21fit_vector_div_scalarPsPKssm>:
    80001e6c:	02000793          	li	a5,32
    80001e70:	02d7e063          	bltu	a5,a3,80001e90 <_Z21fit_vector_div_scalarPsPKssm+0x24>
    80001e74:	872a                	mv	a4,a0
    80001e76:	8536                	mv	a0,a3
    80001e78:	1805200b          	.insn	4, 0x1805200b
    80001e7c:	852e                	mv	a0,a1
    80001e7e:	1005208b          	.insn	4, 0x1005208b
    80001e82:	8532                	mv	a0,a2
    80001e84:	0c15210b          	.insn	4, 0x0c15210b
    80001e88:	853a                	mv	a0,a4
    80001e8a:	1235200b          	.insn	4, 0x1235200b
    80001e8e:	8082                	ret
    80001e90:	1141                	addi	sp,sp,-16
    80001e92:	00015697          	auipc	a3,0x15
    80001e96:	6e668693          	addi	a3,a3,1766 # 80017578 <__tbss_end+0x7b2>
    80001e9a:	00016617          	auipc	a2,0x16
    80001e9e:	c2660613          	addi	a2,a2,-986 # 80017ac0 <__tbss_end+0xcfa>
    80001ea2:	0f300593          	li	a1,243
    80001ea6:	00015517          	auipc	a0,0x15
    80001eaa:	73250513          	addi	a0,a0,1842 # 800175d8 <__tbss_end+0x812>
    80001eae:	e406                	sd	ra,8(sp)
    80001eb0:	008120ef          	jal	80013eb8 <__assert_func>

0000000080001eb4 <_Z23tiled_vector_div_scalarPsPKssm>:
    80001eb4:	c159                	beqz	a0,80001f3a <_Z23tiled_vector_div_scalarPsPKssm+0x86>
    80001eb6:	02000793          	li	a5,32
    80001eba:	832a                	mv	t1,a0
    80001ebc:	06d7f263          	bgeu	a5,a3,80001f20 <_Z23tiled_vector_div_scalarPsPKssm+0x6c>
    80001ec0:	01f6fe13          	andi	t3,a3,31
    80001ec4:	0056d893          	srli	a7,a3,0x5
    80001ec8:	882e                	mv	a6,a1
    80001eca:	872a                	mv	a4,a0
    80001ecc:	4781                	li	a5,0
    80001ece:	02000513          	li	a0,32
    80001ed2:	1805200b          	.insn	4, 0x1805200b
    80001ed6:	8542                	mv	a0,a6
    80001ed8:	1005208b          	.insn	4, 0x1005208b
    80001edc:	8532                	mv	a0,a2
    80001ede:	0c15210b          	.insn	4, 0x0c15210b
    80001ee2:	853a                	mv	a0,a4
    80001ee4:	1235200b          	.insn	4, 0x1235200b
    80001ee8:	0785                	addi	a5,a5,1
    80001eea:	04080813          	addi	a6,a6,64
    80001eee:	04070713          	addi	a4,a4,64
    80001ef2:	fcf89ee3          	bne	a7,a5,80001ece <_Z23tiled_vector_div_scalarPsPKssm+0x1a>
    80001ef6:	000e1363          	bnez	t3,80001efc <_Z23tiled_vector_div_scalarPsPKssm+0x48>
    80001efa:	8082                	ret
    80001efc:	41c686b3          	sub	a3,a3,t3
    80001f00:	0686                	slli	a3,a3,0x1
    80001f02:	8572                	mv	a0,t3
    80001f04:	1805200b          	.insn	4, 0x1805200b
    80001f08:	00d58533          	add	a0,a1,a3
    80001f0c:	1005208b          	.insn	4, 0x1005208b
    80001f10:	8532                	mv	a0,a2
    80001f12:	0c15210b          	.insn	4, 0x0c15210b
    80001f16:	00d30533          	add	a0,t1,a3
    80001f1a:	1235200b          	.insn	4, 0x1235200b
    80001f1e:	8082                	ret
    80001f20:	8536                	mv	a0,a3
    80001f22:	1805200b          	.insn	4, 0x1805200b
    80001f26:	852e                	mv	a0,a1
    80001f28:	1005208b          	.insn	4, 0x1005208b
    80001f2c:	8532                	mv	a0,a2
    80001f2e:	0c15210b          	.insn	4, 0x0c15210b
    80001f32:	851a                	mv	a0,t1
    80001f34:	1235200b          	.insn	4, 0x1235200b
    80001f38:	8082                	ret
    80001f3a:	1101                	addi	sp,sp,-32
    80001f3c:	00016517          	auipc	a0,0x16
    80001f40:	bcc50513          	addi	a0,a0,-1076 # 80017b08 <__tbss_end+0xd42>
    80001f44:	ec06                	sd	ra,24(sp)
    80001f46:	e436                	sd	a3,8(sp)
    80001f48:	503120ef          	jal	80014c4a <puts>
    80001f4c:	65a2                	ld	a1,8(sp)
    80001f4e:	00015517          	auipc	a0,0x15
    80001f52:	6f250513          	addi	a0,a0,1778 # 80017640 <__tbss_end+0x87a>
    80001f56:	3af120ef          	jal	80014b04 <iprintf>
    80001f5a:	557d                	li	a0,-1
    80001f5c:	7a3110ef          	jal	80013efe <exit>

0000000080001f60 <_Z23tiled_matrix_div_scalarPsPKssmm>:
    80001f60:	7139                	addi	sp,sp,-64
    80001f62:	e852                	sd	s4,16(sp)
    80001f64:	e456                	sd	s5,8(sp)
    80001f66:	fc06                	sd	ra,56(sp)
    80001f68:	8a36                	mv	s4,a3
    80001f6a:	8aba                	mv	s5,a4
    80001f6c:	c131                	beqz	a0,80001fb0 <_Z23tiled_matrix_div_scalarPsPKssmm+0x50>
    80001f6e:	ce85                	beqz	a3,80001fa6 <_Z23tiled_matrix_div_scalarPsPKssmm+0x46>
    80001f70:	f822                	sd	s0,48(sp)
    80001f72:	f426                	sd	s1,40(sp)
    80001f74:	f04a                	sd	s2,32(sp)
    80001f76:	ec4e                	sd	s3,24(sp)
    80001f78:	e05a                	sd	s6,0(sp)
    80001f7a:	842a                	mv	s0,a0
    80001f7c:	8b32                	mv	s6,a2
    80001f7e:	84ae                	mv	s1,a1
    80001f80:	00171993          	slli	s3,a4,0x1
    80001f84:	4901                	li	s2,0
    80001f86:	85a6                	mv	a1,s1
    80001f88:	8522                	mv	a0,s0
    80001f8a:	86d6                	mv	a3,s5
    80001f8c:	865a                	mv	a2,s6
    80001f8e:	0905                	addi	s2,s2,1
    80001f90:	f25ff0ef          	jal	80001eb4 <_Z23tiled_vector_div_scalarPsPKssm>
    80001f94:	944e                	add	s0,s0,s3
    80001f96:	94ce                	add	s1,s1,s3
    80001f98:	ff2a17e3          	bne	s4,s2,80001f86 <_Z23tiled_matrix_div_scalarPsPKssmm+0x26>
    80001f9c:	7442                	ld	s0,48(sp)
    80001f9e:	74a2                	ld	s1,40(sp)
    80001fa0:	7902                	ld	s2,32(sp)
    80001fa2:	69e2                	ld	s3,24(sp)
    80001fa4:	6b02                	ld	s6,0(sp)
    80001fa6:	70e2                	ld	ra,56(sp)
    80001fa8:	6a42                	ld	s4,16(sp)
    80001faa:	6aa2                	ld	s5,8(sp)
    80001fac:	6121                	addi	sp,sp,64
    80001fae:	8082                	ret
    80001fb0:	00016517          	auipc	a0,0x16
    80001fb4:	bb050513          	addi	a0,a0,-1104 # 80017b60 <__tbss_end+0xd9a>
    80001fb8:	f822                	sd	s0,48(sp)
    80001fba:	f426                	sd	s1,40(sp)
    80001fbc:	f04a                	sd	s2,32(sp)
    80001fbe:	ec4e                	sd	s3,24(sp)
    80001fc0:	e05a                	sd	s6,0(sp)
    80001fc2:	489120ef          	jal	80014c4a <puts>
    80001fc6:	8656                	mv	a2,s5
    80001fc8:	85d2                	mv	a1,s4
    80001fca:	00015517          	auipc	a0,0x15
    80001fce:	6ee50513          	addi	a0,a0,1774 # 800176b8 <__tbss_end+0x8f2>
    80001fd2:	333120ef          	jal	80014b04 <iprintf>
    80001fd6:	557d                	li	a0,-1
    80001fd8:	727110ef          	jal	80013efe <exit>

0000000080001fdc <_Z14fit_vector_maxPsPKsm>:
    80001fdc:	02000793          	li	a5,32
    80001fe0:	00c7ee63          	bltu	a5,a2,80001ffc <_Z14fit_vector_maxPsPKsm+0x20>
    80001fe4:	872a                	mv	a4,a0
    80001fe6:	8532                	mv	a0,a2
    80001fe8:	1805200b          	.insn	4, 0x1805200b
    80001fec:	852e                	mv	a0,a1
    80001fee:	1005208b          	.insn	4, 0x1005208b
    80001ff2:	1600c50b          	.insn	4, 0x1600c50b
    80001ff6:	00a71023          	sh	a0,0(a4)
    80001ffa:	8082                	ret
    80001ffc:	1141                	addi	sp,sp,-16
    80001ffe:	00015697          	auipc	a3,0x15
    80002002:	57a68693          	addi	a3,a3,1402 # 80017578 <__tbss_end+0x7b2>
    80002006:	00016617          	auipc	a2,0x16
    8000200a:	bb260613          	addi	a2,a2,-1102 # 80017bb8 <__tbss_end+0xdf2>
    8000200e:	4599                	li	a1,6
    80002010:	00016517          	auipc	a0,0x16
    80002014:	be050513          	addi	a0,a0,-1056 # 80017bf0 <__tbss_end+0xe2a>
    80002018:	e406                	sd	ra,8(sp)
    8000201a:	69f110ef          	jal	80013eb8 <__assert_func>

000000008000201e <_Z16tiled_vector_maxPsPKsm>:
    8000201e:	c14d                	beqz	a0,800020c0 <_Z16tiled_vector_maxPsPKsm+0xa2>
    80002020:	02000793          	li	a5,32
    80002024:	8e2a                	mv	t3,a0
    80002026:	06c7fe63          	bgeu	a5,a2,800020a2 <_Z16tiled_vector_maxPsPKsm+0x84>
    8000202a:	01f67e93          	andi	t4,a2,31
    8000202e:	00565313          	srli	t1,a2,0x5
    80002032:	882e                	mv	a6,a1
    80002034:	7761                	lui	a4,0xffff8
    80002036:	4681                	li	a3,0
    80002038:	02000513          	li	a0,32
    8000203c:	1805200b          	.insn	4, 0x1805200b
    80002040:	8542                	mv	a0,a6
    80002042:	1005208b          	.insn	4, 0x1005208b
    80002046:	1600c50b          	.insn	4, 0x1600c50b
    8000204a:	0105189b          	slliw	a7,a0,0x10
    8000204e:	4108d89b          	sraiw	a7,a7,0x10
    80002052:	87aa                	mv	a5,a0
    80002054:	00e8d363          	bge	a7,a4,8000205a <_Z16tiled_vector_maxPsPKsm+0x3c>
    80002058:	87ba                	mv	a5,a4
    8000205a:	0107971b          	slliw	a4,a5,0x10
    8000205e:	0685                	addi	a3,a3,1
    80002060:	04080813          	addi	a6,a6,64
    80002064:	4107571b          	sraiw	a4,a4,0x10
    80002068:	fcd318e3          	bne	t1,a3,80002038 <_Z16tiled_vector_maxPsPKsm+0x1a>
    8000206c:	000e9563          	bnez	t4,80002076 <_Z16tiled_vector_maxPsPKsm+0x58>
    80002070:	00ee1023          	sh	a4,0(t3)
    80002074:	8082                	ret
    80002076:	41d60633          	sub	a2,a2,t4
    8000207a:	0606                	slli	a2,a2,0x1
    8000207c:	8576                	mv	a0,t4
    8000207e:	1805200b          	.insn	4, 0x1805200b
    80002082:	00c58533          	add	a0,a1,a2
    80002086:	1005208b          	.insn	4, 0x1005208b
    8000208a:	1600c50b          	.insn	4, 0x1600c50b
    8000208e:	0105169b          	slliw	a3,a0,0x10
    80002092:	4106d69b          	sraiw	a3,a3,0x10
    80002096:	02e6c263          	blt	a3,a4,800020ba <_Z16tiled_vector_maxPsPKsm+0x9c>
    8000209a:	872a                	mv	a4,a0
    8000209c:	00ee1023          	sh	a4,0(t3)
    800020a0:	8082                	ret
    800020a2:	8532                	mv	a0,a2
    800020a4:	1805200b          	.insn	4, 0x1805200b
    800020a8:	852e                	mv	a0,a1
    800020aa:	1005208b          	.insn	4, 0x1005208b
    800020ae:	1600c50b          	.insn	4, 0x1600c50b
    800020b2:	872a                	mv	a4,a0
    800020b4:	00ee1023          	sh	a4,0(t3)
    800020b8:	8082                	ret
    800020ba:	853e                	mv	a0,a5
    800020bc:	872a                	mv	a4,a0
    800020be:	bff9                	j	8000209c <_Z16tiled_vector_maxPsPKsm+0x7e>
    800020c0:	1141                	addi	sp,sp,-16
    800020c2:	00016517          	auipc	a0,0x16
    800020c6:	b4650513          	addi	a0,a0,-1210 # 80017c08 <__tbss_end+0xe42>
    800020ca:	e406                	sd	ra,8(sp)
    800020cc:	37f120ef          	jal	80014c4a <puts>
    800020d0:	00015517          	auipc	a0,0x15
    800020d4:	28850513          	addi	a0,a0,648 # 80017358 <__tbss_end+0x592>
    800020d8:	373120ef          	jal	80014c4a <puts>
    800020dc:	557d                	li	a0,-1
    800020de:	621110ef          	jal	80013efe <exit>

00000000800020e2 <_Z23tiled_matrix_vector_maxPsPKsmm>:
    800020e2:	7139                	addi	sp,sp,-64
    800020e4:	ec4e                	sd	s3,24(sp)
    800020e6:	fc06                	sd	ra,56(sp)
    800020e8:	89b2                	mv	s3,a2
    800020ea:	c121                	beqz	a0,8000212a <_Z23tiled_matrix_vector_maxPsPKsmm+0x48>
    800020ec:	ca1d                	beqz	a2,80002122 <_Z23tiled_matrix_vector_maxPsPKsmm+0x40>
    800020ee:	f822                	sd	s0,48(sp)
    800020f0:	f426                	sd	s1,40(sp)
    800020f2:	f04a                	sd	s2,32(sp)
    800020f4:	e852                	sd	s4,16(sp)
    800020f6:	e456                	sd	s5,8(sp)
    800020f8:	8a36                	mv	s4,a3
    800020fa:	842a                	mv	s0,a0
    800020fc:	84ae                	mv	s1,a1
    800020fe:	00169a93          	slli	s5,a3,0x1
    80002102:	4901                	li	s2,0
    80002104:	85a6                	mv	a1,s1
    80002106:	8522                	mv	a0,s0
    80002108:	8652                	mv	a2,s4
    8000210a:	0905                	addi	s2,s2,1
    8000210c:	f13ff0ef          	jal	8000201e <_Z16tiled_vector_maxPsPKsm>
    80002110:	0409                	addi	s0,s0,2
    80002112:	94d6                	add	s1,s1,s5
    80002114:	ff2998e3          	bne	s3,s2,80002104 <_Z23tiled_matrix_vector_maxPsPKsmm+0x22>
    80002118:	7442                	ld	s0,48(sp)
    8000211a:	74a2                	ld	s1,40(sp)
    8000211c:	7902                	ld	s2,32(sp)
    8000211e:	6a42                	ld	s4,16(sp)
    80002120:	6aa2                	ld	s5,8(sp)
    80002122:	70e2                	ld	ra,56(sp)
    80002124:	69e2                	ld	s3,24(sp)
    80002126:	6121                	addi	sp,sp,64
    80002128:	8082                	ret
    8000212a:	00016517          	auipc	a0,0x16
    8000212e:	b2e50513          	addi	a0,a0,-1234 # 80017c58 <__tbss_end+0xe92>
    80002132:	f822                	sd	s0,48(sp)
    80002134:	f426                	sd	s1,40(sp)
    80002136:	f04a                	sd	s2,32(sp)
    80002138:	e852                	sd	s4,16(sp)
    8000213a:	e456                	sd	s5,8(sp)
    8000213c:	30f120ef          	jal	80014c4a <puts>
    80002140:	85ce                	mv	a1,s3
    80002142:	00016517          	auipc	a0,0x16
    80002146:	b6e50513          	addi	a0,a0,-1170 # 80017cb0 <__tbss_end+0xeea>
    8000214a:	1bb120ef          	jal	80014b04 <iprintf>
    8000214e:	557d                	li	a0,-1
    80002150:	5af110ef          	jal	80013efe <exit>

0000000080002154 <_Z14fit_vector_minPsPKsm>:
    80002154:	02000793          	li	a5,32
    80002158:	00c7ee63          	bltu	a5,a2,80002174 <_Z14fit_vector_minPsPKsm+0x20>
    8000215c:	872a                	mv	a4,a0
    8000215e:	8532                	mv	a0,a2
    80002160:	1805200b          	.insn	4, 0x1805200b
    80002164:	852e                	mv	a0,a1
    80002166:	1005208b          	.insn	4, 0x1005208b
    8000216a:	1610c50b          	.insn	4, 0x1610c50b
    8000216e:	00a71023          	sh	a0,0(a4) # ffffffffffff8000 <__heap_end+0xffffffff7ffa8000>
    80002172:	8082                	ret
    80002174:	1141                	addi	sp,sp,-16
    80002176:	00015697          	auipc	a3,0x15
    8000217a:	40268693          	addi	a3,a3,1026 # 80017578 <__tbss_end+0x7b2>
    8000217e:	00016617          	auipc	a2,0x16
    80002182:	b5260613          	addi	a2,a2,-1198 # 80017cd0 <__tbss_end+0xf0a>
    80002186:	03400593          	li	a1,52
    8000218a:	00016517          	auipc	a0,0x16
    8000218e:	a6650513          	addi	a0,a0,-1434 # 80017bf0 <__tbss_end+0xe2a>
    80002192:	e406                	sd	ra,8(sp)
    80002194:	525110ef          	jal	80013eb8 <__assert_func>

0000000080002198 <_Z16tiled_vector_minPsPKsm>:
    80002198:	c155                	beqz	a0,8000223c <_Z16tiled_vector_minPsPKsm+0xa4>
    8000219a:	02000793          	li	a5,32
    8000219e:	8e2a                	mv	t3,a0
    800021a0:	06c7ff63          	bgeu	a5,a2,8000221e <_Z16tiled_vector_minPsPKsm+0x86>
    800021a4:	6721                	lui	a4,0x8
    800021a6:	177d                	addi	a4,a4,-1 # 7fff <__stack_size_min+0x1fff>
    800021a8:	01f67e93          	andi	t4,a2,31
    800021ac:	00565313          	srli	t1,a2,0x5
    800021b0:	882e                	mv	a6,a1
    800021b2:	4681                	li	a3,0
    800021b4:	02000513          	li	a0,32
    800021b8:	1805200b          	.insn	4, 0x1805200b
    800021bc:	8542                	mv	a0,a6
    800021be:	1005208b          	.insn	4, 0x1005208b
    800021c2:	1610c50b          	.insn	4, 0x1610c50b
    800021c6:	0105189b          	slliw	a7,a0,0x10
    800021ca:	4108d89b          	sraiw	a7,a7,0x10
    800021ce:	87aa                	mv	a5,a0
    800021d0:	01175363          	bge	a4,a7,800021d6 <_Z16tiled_vector_minPsPKsm+0x3e>
    800021d4:	87ba                	mv	a5,a4
    800021d6:	0107971b          	slliw	a4,a5,0x10
    800021da:	0685                	addi	a3,a3,1
    800021dc:	04080813          	addi	a6,a6,64
    800021e0:	4107571b          	sraiw	a4,a4,0x10
    800021e4:	fcd318e3          	bne	t1,a3,800021b4 <_Z16tiled_vector_minPsPKsm+0x1c>
    800021e8:	000e9563          	bnez	t4,800021f2 <_Z16tiled_vector_minPsPKsm+0x5a>
    800021ec:	00ee1023          	sh	a4,0(t3)
    800021f0:	8082                	ret
    800021f2:	41d60633          	sub	a2,a2,t4
    800021f6:	0606                	slli	a2,a2,0x1
    800021f8:	8576                	mv	a0,t4
    800021fa:	1805200b          	.insn	4, 0x1805200b
    800021fe:	00c58533          	add	a0,a1,a2
    80002202:	1005208b          	.insn	4, 0x1005208b
    80002206:	1610c50b          	.insn	4, 0x1610c50b
    8000220a:	0105169b          	slliw	a3,a0,0x10
    8000220e:	4106d69b          	sraiw	a3,a3,0x10
    80002212:	02d74263          	blt	a4,a3,80002236 <_Z16tiled_vector_minPsPKsm+0x9e>
    80002216:	872a                	mv	a4,a0
    80002218:	00ee1023          	sh	a4,0(t3)
    8000221c:	8082                	ret
    8000221e:	8532                	mv	a0,a2
    80002220:	1805200b          	.insn	4, 0x1805200b
    80002224:	852e                	mv	a0,a1
    80002226:	1005208b          	.insn	4, 0x1005208b
    8000222a:	1610c50b          	.insn	4, 0x1610c50b
    8000222e:	872a                	mv	a4,a0
    80002230:	00ee1023          	sh	a4,0(t3)
    80002234:	8082                	ret
    80002236:	853e                	mv	a0,a5
    80002238:	872a                	mv	a4,a0
    8000223a:	bff9                	j	80002218 <_Z16tiled_vector_minPsPKsm+0x80>
    8000223c:	1141                	addi	sp,sp,-16
    8000223e:	00016517          	auipc	a0,0x16
    80002242:	aca50513          	addi	a0,a0,-1334 # 80017d08 <__tbss_end+0xf42>
    80002246:	e406                	sd	ra,8(sp)
    80002248:	203120ef          	jal	80014c4a <puts>
    8000224c:	00015517          	auipc	a0,0x15
    80002250:	10c50513          	addi	a0,a0,268 # 80017358 <__tbss_end+0x592>
    80002254:	1f7120ef          	jal	80014c4a <puts>
    80002258:	557d                	li	a0,-1
    8000225a:	4a5110ef          	jal	80013efe <exit>

000000008000225e <_Z23tiled_matrix_vector_minPsPKsmm>:
    8000225e:	7139                	addi	sp,sp,-64
    80002260:	ec4e                	sd	s3,24(sp)
    80002262:	fc06                	sd	ra,56(sp)
    80002264:	89b2                	mv	s3,a2
    80002266:	c121                	beqz	a0,800022a6 <_Z23tiled_matrix_vector_minPsPKsmm+0x48>
    80002268:	ca1d                	beqz	a2,8000229e <_Z23tiled_matrix_vector_minPsPKsmm+0x40>
    8000226a:	f822                	sd	s0,48(sp)
    8000226c:	f426                	sd	s1,40(sp)
    8000226e:	f04a                	sd	s2,32(sp)
    80002270:	e852                	sd	s4,16(sp)
    80002272:	e456                	sd	s5,8(sp)
    80002274:	8a36                	mv	s4,a3
    80002276:	842a                	mv	s0,a0
    80002278:	84ae                	mv	s1,a1
    8000227a:	00169a93          	slli	s5,a3,0x1
    8000227e:	4901                	li	s2,0
    80002280:	85a6                	mv	a1,s1
    80002282:	8522                	mv	a0,s0
    80002284:	8652                	mv	a2,s4
    80002286:	0905                	addi	s2,s2,1
    80002288:	f11ff0ef          	jal	80002198 <_Z16tiled_vector_minPsPKsm>
    8000228c:	0409                	addi	s0,s0,2
    8000228e:	94d6                	add	s1,s1,s5
    80002290:	ff2998e3          	bne	s3,s2,80002280 <_Z23tiled_matrix_vector_minPsPKsmm+0x22>
    80002294:	7442                	ld	s0,48(sp)
    80002296:	74a2                	ld	s1,40(sp)
    80002298:	7902                	ld	s2,32(sp)
    8000229a:	6a42                	ld	s4,16(sp)
    8000229c:	6aa2                	ld	s5,8(sp)
    8000229e:	70e2                	ld	ra,56(sp)
    800022a0:	69e2                	ld	s3,24(sp)
    800022a2:	6121                	addi	sp,sp,64
    800022a4:	8082                	ret
    800022a6:	00016517          	auipc	a0,0x16
    800022aa:	ab250513          	addi	a0,a0,-1358 # 80017d58 <__tbss_end+0xf92>
    800022ae:	f822                	sd	s0,48(sp)
    800022b0:	f426                	sd	s1,40(sp)
    800022b2:	f04a                	sd	s2,32(sp)
    800022b4:	e852                	sd	s4,16(sp)
    800022b6:	e456                	sd	s5,8(sp)
    800022b8:	193120ef          	jal	80014c4a <puts>
    800022bc:	85ce                	mv	a1,s3
    800022be:	00016517          	auipc	a0,0x16
    800022c2:	9f250513          	addi	a0,a0,-1550 # 80017cb0 <__tbss_end+0xeea>
    800022c6:	03f120ef          	jal	80014b04 <iprintf>
    800022ca:	557d                	li	a0,-1
    800022cc:	433110ef          	jal	80013efe <exit>

00000000800022d0 <_Z18fit_vector_dropoutPsPKssm>:
    800022d0:	02000793          	li	a5,32
    800022d4:	02d7e163          	bltu	a5,a3,800022f6 <_Z18fit_vector_dropoutPsPKssm+0x26>
    800022d8:	852e                	mv	a0,a1
    800022da:	1005258b          	.insn	4, 0x1005258b
    800022de:	8536                	mv	a0,a3
    800022e0:	1805200b          	.insn	4, 0x1805200b
    800022e4:	45ad                	li	a1,11
    800022e6:	18c5b08b          	.insn	4, 0x18c5b08b
    800022ea:	0205858b          	.insn	4, 0x0205858b
    800022ee:	567d                	li	a2,-1
    800022f0:	18c5b08b          	.insn	4, 0x18c5b08b
    800022f4:	8082                	ret
    800022f6:	1141                	addi	sp,sp,-16
    800022f8:	00015697          	auipc	a3,0x15
    800022fc:	28068693          	addi	a3,a3,640 # 80017578 <__tbss_end+0x7b2>
    80002300:	00016617          	auipc	a2,0x16
    80002304:	ab060613          	addi	a2,a2,-1360 # 80017db0 <__tbss_end+0xfea>
    80002308:	06200593          	li	a1,98
    8000230c:	00016517          	auipc	a0,0x16
    80002310:	8e450513          	addi	a0,a0,-1820 # 80017bf0 <__tbss_end+0xe2a>
    80002314:	e406                	sd	ra,8(sp)
    80002316:	3a3110ef          	jal	80013eb8 <__assert_func>

000000008000231a <_Z13vector_argmaxPsPKsm>:
    8000231a:	7139                	addi	sp,sp,-64
    8000231c:	f426                	sd	s1,40(sp)
    8000231e:	84aa                	mv	s1,a0
    80002320:	01e10513          	addi	a0,sp,30
    80002324:	f822                	sd	s0,48(sp)
    80002326:	e432                	sd	a2,8(sp)
    80002328:	fc06                	sd	ra,56(sp)
    8000232a:	842e                	mv	s0,a1
    8000232c:	cf3ff0ef          	jal	8000201e <_Z16tiled_vector_maxPsPKsm>
    80002330:	6622                	ld	a2,8(sp)
    80002332:	c60d                	beqz	a2,8000235c <_Z13vector_argmaxPsPKsm+0x42>
    80002334:	01e11683          	lh	a3,30(sp)
    80002338:	85a2                	mv	a1,s0
    8000233a:	4781                	li	a5,0
    8000233c:	a021                	j	80002344 <_Z13vector_argmaxPsPKsm+0x2a>
    8000233e:	0785                	addi	a5,a5,1
    80002340:	00f60763          	beq	a2,a5,8000234e <_Z13vector_argmaxPsPKsm+0x34>
    80002344:	00059703          	lh	a4,0(a1)
    80002348:	0589                	addi	a1,a1,2
    8000234a:	fed71ae3          	bne	a4,a3,8000233e <_Z13vector_argmaxPsPKsm+0x24>
    8000234e:	70e2                	ld	ra,56(sp)
    80002350:	7442                	ld	s0,48(sp)
    80002352:	00f49023          	sh	a5,0(s1)
    80002356:	74a2                	ld	s1,40(sp)
    80002358:	6121                	addi	sp,sp,64
    8000235a:	8082                	ret
    8000235c:	4781                	li	a5,0
    8000235e:	bfc5                	j	8000234e <_Z13vector_argmaxPsPKsm+0x34>

0000000080002360 <_Z20matrix_vector_argmaxPsPKsmm>:
    80002360:	715d                	addi	sp,sp,-80
    80002362:	f052                	sd	s4,32(sp)
    80002364:	e486                	sd	ra,72(sp)
    80002366:	8a32                	mv	s4,a2
    80002368:	c935                	beqz	a0,800023dc <_Z20matrix_vector_argmaxPsPKsmm+0x7c>
    8000236a:	ce21                	beqz	a2,800023c2 <_Z20matrix_vector_argmaxPsPKsmm+0x62>
    8000236c:	e0a2                	sd	s0,64(sp)
    8000236e:	fc26                	sd	s1,56(sp)
    80002370:	f84a                	sd	s2,48(sp)
    80002372:	f44e                	sd	s3,40(sp)
    80002374:	ec56                	sd	s5,24(sp)
    80002376:	8436                	mv	s0,a3
    80002378:	84ae                	mv	s1,a1
    8000237a:	892a                	mv	s2,a0
    8000237c:	00169a93          	slli	s5,a3,0x1
    80002380:	4981                	li	s3,0
    80002382:	8622                	mv	a2,s0
    80002384:	85a6                	mv	a1,s1
    80002386:	00e10513          	addi	a0,sp,14
    8000238a:	c95ff0ef          	jal	8000201e <_Z16tiled_vector_maxPsPKsm>
    8000238e:	cc15                	beqz	s0,800023ca <_Z20matrix_vector_argmaxPsPKsmm+0x6a>
    80002390:	00e11683          	lh	a3,14(sp)
    80002394:	8726                	mv	a4,s1
    80002396:	4781                	li	a5,0
    80002398:	a029                	j	800023a2 <_Z20matrix_vector_argmaxPsPKsmm+0x42>
    8000239a:	0785                	addi	a5,a5,1
    8000239c:	0709                	addi	a4,a4,2
    8000239e:	00f40663          	beq	s0,a5,800023aa <_Z20matrix_vector_argmaxPsPKsmm+0x4a>
    800023a2:	00071803          	lh	a6,0(a4)
    800023a6:	fed81ae3          	bne	a6,a3,8000239a <_Z20matrix_vector_argmaxPsPKsmm+0x3a>
    800023aa:	00f91023          	sh	a5,0(s2)
    800023ae:	0985                	addi	s3,s3,1
    800023b0:	94d6                	add	s1,s1,s5
    800023b2:	0909                	addi	s2,s2,2
    800023b4:	fd3a17e3          	bne	s4,s3,80002382 <_Z20matrix_vector_argmaxPsPKsmm+0x22>
    800023b8:	6406                	ld	s0,64(sp)
    800023ba:	74e2                	ld	s1,56(sp)
    800023bc:	7942                	ld	s2,48(sp)
    800023be:	79a2                	ld	s3,40(sp)
    800023c0:	6ae2                	ld	s5,24(sp)
    800023c2:	60a6                	ld	ra,72(sp)
    800023c4:	7a02                	ld	s4,32(sp)
    800023c6:	6161                	addi	sp,sp,80
    800023c8:	8082                	ret
    800023ca:	4781                	li	a5,0
    800023cc:	00f91023          	sh	a5,0(s2)
    800023d0:	0985                	addi	s3,s3,1
    800023d2:	94d6                	add	s1,s1,s5
    800023d4:	0909                	addi	s2,s2,2
    800023d6:	fb3a16e3          	bne	s4,s3,80002382 <_Z20matrix_vector_argmaxPsPKsmm+0x22>
    800023da:	bff9                	j	800023b8 <_Z20matrix_vector_argmaxPsPKsmm+0x58>
    800023dc:	00016517          	auipc	a0,0x16
    800023e0:	a1450513          	addi	a0,a0,-1516 # 80017df0 <__tbss_end+0x102a>
    800023e4:	e0a2                	sd	s0,64(sp)
    800023e6:	fc26                	sd	s1,56(sp)
    800023e8:	f84a                	sd	s2,48(sp)
    800023ea:	f44e                	sd	s3,40(sp)
    800023ec:	ec56                	sd	s5,24(sp)
    800023ee:	05d120ef          	jal	80014c4a <puts>
    800023f2:	85d2                	mv	a1,s4
    800023f4:	00016517          	auipc	a0,0x16
    800023f8:	8bc50513          	addi	a0,a0,-1860 # 80017cb0 <__tbss_end+0xeea>
    800023fc:	708120ef          	jal	80014b04 <iprintf>
    80002400:	557d                	li	a0,-1
    80002402:	2fd110ef          	jal	80013efe <exit>

0000000080002406 <_Z12vector_shiftPsmm11direction_t>:
    80002406:	c215                	beqz	a2,8000242a <_Z12vector_shiftPsmm11direction_t+0x24>
    80002408:	c121                	beqz	a0,80002448 <_Z12vector_shiftPsmm11direction_t+0x42>
    8000240a:	4785                	li	a5,1
    8000240c:	02f68063          	beq	a3,a5,8000242c <_Z12vector_shiftPsmm11direction_t+0x26>
    80002410:	00159713          	slli	a4,a1,0x1
    80002414:	972a                	add	a4,a4,a0
    80002416:	c985                	beqz	a1,80002446 <_Z12vector_shiftPsmm11direction_t+0x40>
    80002418:	00051783          	lh	a5,0(a0)
    8000241c:	0509                	addi	a0,a0,2
    8000241e:	00c797bb          	sllw	a5,a5,a2
    80002422:	fef51f23          	sh	a5,-2(a0)
    80002426:	fea719e3          	bne	a4,a0,80002418 <_Z12vector_shiftPsmm11direction_t+0x12>
    8000242a:	8082                	ret
    8000242c:	ddfd                	beqz	a1,8000242a <_Z12vector_shiftPsmm11direction_t+0x24>
    8000242e:	0586                	slli	a1,a1,0x1
    80002430:	95aa                	add	a1,a1,a0
    80002432:	00051783          	lh	a5,0(a0)
    80002436:	0509                	addi	a0,a0,2
    80002438:	40c7d7bb          	sraw	a5,a5,a2
    8000243c:	fef51f23          	sh	a5,-2(a0)
    80002440:	fea599e3          	bne	a1,a0,80002432 <_Z12vector_shiftPsmm11direction_t+0x2c>
    80002444:	8082                	ret
    80002446:	8082                	ret
    80002448:	1101                	addi	sp,sp,-32
    8000244a:	00016517          	auipc	a0,0x16
    8000244e:	9fe50513          	addi	a0,a0,-1538 # 80017e48 <__tbss_end+0x1082>
    80002452:	ec06                	sd	ra,24(sp)
    80002454:	e42e                	sd	a1,8(sp)
    80002456:	7f4120ef          	jal	80014c4a <puts>
    8000245a:	65a2                	ld	a1,8(sp)
    8000245c:	00016517          	auipc	a0,0x16
    80002460:	a3c50513          	addi	a0,a0,-1476 # 80017e98 <__tbss_end+0x10d2>
    80002464:	6a0120ef          	jal	80014b04 <iprintf>
    80002468:	557d                	li	a0,-1
    8000246a:	295110ef          	jal	80013efe <exit>

000000008000246e <_Z13mat_transposePsPKsmm>:
    8000246e:	cd15                	beqz	a0,800024aa <_Z13mat_transposePsPKsmm+0x3c>
    80002470:	c611                	beqz	a2,8000247c <_Z13mat_transposePsPKsmm+0xe>
    80002472:	4881                	li	a7,0
    80002474:	e689                	bnez	a3,8000247e <_Z13mat_transposePsPKsmm+0x10>
    80002476:	0885                	addi	a7,a7,1
    80002478:	ff161fe3          	bne	a2,a7,80002476 <_Z13mat_transposePsPKsmm+0x8>
    8000247c:	8082                	ret
    8000247e:	00169313          	slli	t1,a3,0x1
    80002482:	959a                	add	a1,a1,t1
    80002484:	00161813          	slli	a6,a2,0x1
    80002488:	406587b3          	sub	a5,a1,t1
    8000248c:	872a                	mv	a4,a0
    8000248e:	00079683          	lh	a3,0(a5)
    80002492:	0789                	addi	a5,a5,2
    80002494:	00d71023          	sh	a3,0(a4)
    80002498:	9742                	add	a4,a4,a6
    8000249a:	fef59ae3          	bne	a1,a5,8000248e <_Z13mat_transposePsPKsmm+0x20>
    8000249e:	0885                	addi	a7,a7,1
    800024a0:	0509                	addi	a0,a0,2
    800024a2:	959a                	add	a1,a1,t1
    800024a4:	ff1612e3          	bne	a2,a7,80002488 <_Z13mat_transposePsPKsmm+0x1a>
    800024a8:	8082                	ret
    800024aa:	1101                	addi	sp,sp,-32
    800024ac:	00016517          	auipc	a0,0x16
    800024b0:	a0c50513          	addi	a0,a0,-1524 # 80017eb8 <__tbss_end+0x10f2>
    800024b4:	ec06                	sd	ra,24(sp)
    800024b6:	e436                	sd	a3,8(sp)
    800024b8:	e032                	sd	a2,0(sp)
    800024ba:	790120ef          	jal	80014c4a <puts>
    800024be:	6602                	ld	a2,0(sp)
    800024c0:	65a2                	ld	a1,8(sp)
    800024c2:	00016517          	auipc	a0,0x16
    800024c6:	a4650513          	addi	a0,a0,-1466 # 80017f08 <__tbss_end+0x1142>
    800024ca:	63a120ef          	jal	80014b04 <iprintf>
    800024ce:	557d                	li	a0,-1
    800024d0:	22f110ef          	jal	80013efe <exit>

00000000800024d4 <_Z15fit_vector_reluPsPKsm>:
    800024d4:	02000793          	li	a5,32
    800024d8:	00c7ef63          	bltu	a5,a2,800024f6 <_Z15fit_vector_reluPsPKsm+0x22>
    800024dc:	872a                	mv	a4,a0
    800024de:	8532                	mv	a0,a2
    800024e0:	1805200b          	.insn	4, 0x1805200b
    800024e4:	852e                	mv	a0,a1
    800024e6:	1005208b          	.insn	4, 0x1005208b
    800024ea:	0e00810b          	.insn	4, 0x0e00810b
    800024ee:	853a                	mv	a0,a4
    800024f0:	1225200b          	.insn	4, 0x1225200b
    800024f4:	8082                	ret
    800024f6:	1141                	addi	sp,sp,-16
    800024f8:	00015697          	auipc	a3,0x15
    800024fc:	08068693          	addi	a3,a3,128 # 80017578 <__tbss_end+0x7b2>
    80002500:	00016617          	auipc	a2,0x16
    80002504:	a3060613          	addi	a2,a2,-1488 # 80017f30 <__tbss_end+0x116a>
    80002508:	4599                	li	a1,6
    8000250a:	00016517          	auipc	a0,0x16
    8000250e:	a5e50513          	addi	a0,a0,-1442 # 80017f68 <__tbss_end+0x11a2>
    80002512:	e406                	sd	ra,8(sp)
    80002514:	1a5110ef          	jal	80013eb8 <__assert_func>

0000000080002518 <_Z17tiled_vector_reluPsPKsm>:
    80002518:	c141                	beqz	a0,80002598 <_Z17tiled_vector_reluPsPKsm+0x80>
    8000251a:	02000793          	li	a5,32
    8000251e:	88aa                	mv	a7,a0
    80002520:	06c7f063          	bgeu	a5,a2,80002580 <_Z17tiled_vector_reluPsPKsm+0x68>
    80002524:	01f67313          	andi	t1,a2,31
    80002528:	00565813          	srli	a6,a2,0x5
    8000252c:	86ae                	mv	a3,a1
    8000252e:	872a                	mv	a4,a0
    80002530:	4781                	li	a5,0
    80002532:	02000513          	li	a0,32
    80002536:	1805200b          	.insn	4, 0x1805200b
    8000253a:	8536                	mv	a0,a3
    8000253c:	1005208b          	.insn	4, 0x1005208b
    80002540:	0e00810b          	.insn	4, 0x0e00810b
    80002544:	853a                	mv	a0,a4
    80002546:	1225200b          	.insn	4, 0x1225200b
    8000254a:	0785                	addi	a5,a5,1
    8000254c:	04068693          	addi	a3,a3,64
    80002550:	04070713          	addi	a4,a4,64
    80002554:	fcf81fe3          	bne	a6,a5,80002532 <_Z17tiled_vector_reluPsPKsm+0x1a>
    80002558:	00031363          	bnez	t1,8000255e <_Z17tiled_vector_reluPsPKsm+0x46>
    8000255c:	8082                	ret
    8000255e:	40660633          	sub	a2,a2,t1
    80002562:	0606                	slli	a2,a2,0x1
    80002564:	851a                	mv	a0,t1
    80002566:	1805200b          	.insn	4, 0x1805200b
    8000256a:	00c58533          	add	a0,a1,a2
    8000256e:	1005208b          	.insn	4, 0x1005208b
    80002572:	0e00810b          	.insn	4, 0x0e00810b
    80002576:	00c88533          	add	a0,a7,a2
    8000257a:	1225200b          	.insn	4, 0x1225200b
    8000257e:	8082                	ret
    80002580:	8532                	mv	a0,a2
    80002582:	1805200b          	.insn	4, 0x1805200b
    80002586:	852e                	mv	a0,a1
    80002588:	1005208b          	.insn	4, 0x1005208b
    8000258c:	0e00810b          	.insn	4, 0x0e00810b
    80002590:	8546                	mv	a0,a7
    80002592:	1225200b          	.insn	4, 0x1225200b
    80002596:	8082                	ret
    80002598:	1101                	addi	sp,sp,-32
    8000259a:	00016517          	auipc	a0,0x16
    8000259e:	9e650513          	addi	a0,a0,-1562 # 80017f80 <__tbss_end+0x11ba>
    800025a2:	ec06                	sd	ra,24(sp)
    800025a4:	e432                	sd	a2,8(sp)
    800025a6:	6a4120ef          	jal	80014c4a <puts>
    800025aa:	65a2                	ld	a1,8(sp)
    800025ac:	00015517          	auipc	a0,0x15
    800025b0:	09450513          	addi	a0,a0,148 # 80017640 <__tbss_end+0x87a>
    800025b4:	550120ef          	jal	80014b04 <iprintf>
    800025b8:	557d                	li	a0,-1
    800025ba:	145110ef          	jal	80013efe <exit>

00000000800025be <_Z17tiled_matrix_reluPsPKsmm>:
    800025be:	7139                	addi	sp,sp,-64
    800025c0:	e852                	sd	s4,16(sp)
    800025c2:	e456                	sd	s5,8(sp)
    800025c4:	fc06                	sd	ra,56(sp)
    800025c6:	8a32                	mv	s4,a2
    800025c8:	8ab6                	mv	s5,a3
    800025ca:	cd15                	beqz	a0,80002606 <_Z17tiled_matrix_reluPsPKsmm+0x48>
    800025cc:	ca05                	beqz	a2,800025fc <_Z17tiled_matrix_reluPsPKsmm+0x3e>
    800025ce:	f822                	sd	s0,48(sp)
    800025d0:	f426                	sd	s1,40(sp)
    800025d2:	f04a                	sd	s2,32(sp)
    800025d4:	ec4e                	sd	s3,24(sp)
    800025d6:	842a                	mv	s0,a0
    800025d8:	84ae                	mv	s1,a1
    800025da:	00169993          	slli	s3,a3,0x1
    800025de:	4901                	li	s2,0
    800025e0:	85a6                	mv	a1,s1
    800025e2:	8522                	mv	a0,s0
    800025e4:	8656                	mv	a2,s5
    800025e6:	0905                	addi	s2,s2,1
    800025e8:	f31ff0ef          	jal	80002518 <_Z17tiled_vector_reluPsPKsm>
    800025ec:	944e                	add	s0,s0,s3
    800025ee:	94ce                	add	s1,s1,s3
    800025f0:	ff2a18e3          	bne	s4,s2,800025e0 <_Z17tiled_matrix_reluPsPKsmm+0x22>
    800025f4:	7442                	ld	s0,48(sp)
    800025f6:	74a2                	ld	s1,40(sp)
    800025f8:	7902                	ld	s2,32(sp)
    800025fa:	69e2                	ld	s3,24(sp)
    800025fc:	70e2                	ld	ra,56(sp)
    800025fe:	6a42                	ld	s4,16(sp)
    80002600:	6aa2                	ld	s5,8(sp)
    80002602:	6121                	addi	sp,sp,64
    80002604:	8082                	ret
    80002606:	00016517          	auipc	a0,0x16
    8000260a:	9d250513          	addi	a0,a0,-1582 # 80017fd8 <__tbss_end+0x1212>
    8000260e:	f822                	sd	s0,48(sp)
    80002610:	f426                	sd	s1,40(sp)
    80002612:	f04a                	sd	s2,32(sp)
    80002614:	ec4e                	sd	s3,24(sp)
    80002616:	634120ef          	jal	80014c4a <puts>
    8000261a:	8656                	mv	a2,s5
    8000261c:	85d2                	mv	a1,s4
    8000261e:	00016517          	auipc	a0,0x16
    80002622:	a1250513          	addi	a0,a0,-1518 # 80018030 <__tbss_end+0x126a>
    80002626:	4de120ef          	jal	80014b04 <iprintf>
    8000262a:	557d                	li	a0,-1
    8000262c:	0d3110ef          	jal	80013efe <exit>

0000000080002630 <_Z15fit_vector_tanhPsPKsm>:
    80002630:	02000793          	li	a5,32
    80002634:	00c7ef63          	bltu	a5,a2,80002652 <_Z15fit_vector_tanhPsPKsm+0x22>
    80002638:	872a                	mv	a4,a0
    8000263a:	8532                	mv	a0,a2
    8000263c:	1805200b          	.insn	4, 0x1805200b
    80002640:	852e                	mv	a0,a1
    80002642:	1005208b          	.insn	4, 0x1005208b
    80002646:	0e10810b          	.insn	4, 0x0e10810b
    8000264a:	853a                	mv	a0,a4
    8000264c:	1225200b          	.insn	4, 0x1225200b
    80002650:	8082                	ret
    80002652:	1141                	addi	sp,sp,-16
    80002654:	00015697          	auipc	a3,0x15
    80002658:	f2468693          	addi	a3,a3,-220 # 80017578 <__tbss_end+0x7b2>
    8000265c:	00016617          	auipc	a2,0x16
    80002660:	a0460613          	addi	a2,a2,-1532 # 80018060 <__tbss_end+0x129a>
    80002664:	03100593          	li	a1,49
    80002668:	00016517          	auipc	a0,0x16
    8000266c:	90050513          	addi	a0,a0,-1792 # 80017f68 <__tbss_end+0x11a2>
    80002670:	e406                	sd	ra,8(sp)
    80002672:	047110ef          	jal	80013eb8 <__assert_func>

0000000080002676 <_Z17tiled_vector_tanhPsPKsm>:
    80002676:	c141                	beqz	a0,800026f6 <_Z17tiled_vector_tanhPsPKsm+0x80>
    80002678:	02000793          	li	a5,32
    8000267c:	88aa                	mv	a7,a0
    8000267e:	06c7f063          	bgeu	a5,a2,800026de <_Z17tiled_vector_tanhPsPKsm+0x68>
    80002682:	01f67313          	andi	t1,a2,31
    80002686:	00565813          	srli	a6,a2,0x5
    8000268a:	86ae                	mv	a3,a1
    8000268c:	872a                	mv	a4,a0
    8000268e:	4781                	li	a5,0
    80002690:	02000513          	li	a0,32
    80002694:	1805200b          	.insn	4, 0x1805200b
    80002698:	8536                	mv	a0,a3
    8000269a:	1005208b          	.insn	4, 0x1005208b
    8000269e:	0e10810b          	.insn	4, 0x0e10810b
    800026a2:	853a                	mv	a0,a4
    800026a4:	1225200b          	.insn	4, 0x1225200b
    800026a8:	0785                	addi	a5,a5,1
    800026aa:	04068693          	addi	a3,a3,64
    800026ae:	04070713          	addi	a4,a4,64
    800026b2:	fcf81fe3          	bne	a6,a5,80002690 <_Z17tiled_vector_tanhPsPKsm+0x1a>
    800026b6:	00031363          	bnez	t1,800026bc <_Z17tiled_vector_tanhPsPKsm+0x46>
    800026ba:	8082                	ret
    800026bc:	40660633          	sub	a2,a2,t1
    800026c0:	0606                	slli	a2,a2,0x1
    800026c2:	851a                	mv	a0,t1
    800026c4:	1805200b          	.insn	4, 0x1805200b
    800026c8:	00c58533          	add	a0,a1,a2
    800026cc:	1005208b          	.insn	4, 0x1005208b
    800026d0:	0e10810b          	.insn	4, 0x0e10810b
    800026d4:	00c88533          	add	a0,a7,a2
    800026d8:	1225200b          	.insn	4, 0x1225200b
    800026dc:	8082                	ret
    800026de:	8532                	mv	a0,a2
    800026e0:	1805200b          	.insn	4, 0x1805200b
    800026e4:	852e                	mv	a0,a1
    800026e6:	1005208b          	.insn	4, 0x1005208b
    800026ea:	0e10810b          	.insn	4, 0x0e10810b
    800026ee:	8546                	mv	a0,a7
    800026f0:	1225200b          	.insn	4, 0x1225200b
    800026f4:	8082                	ret
    800026f6:	1101                	addi	sp,sp,-32
    800026f8:	00016517          	auipc	a0,0x16
    800026fc:	9a050513          	addi	a0,a0,-1632 # 80018098 <__tbss_end+0x12d2>
    80002700:	ec06                	sd	ra,24(sp)
    80002702:	e432                	sd	a2,8(sp)
    80002704:	546120ef          	jal	80014c4a <puts>
    80002708:	65a2                	ld	a1,8(sp)
    8000270a:	00015517          	auipc	a0,0x15
    8000270e:	f3650513          	addi	a0,a0,-202 # 80017640 <__tbss_end+0x87a>
    80002712:	3f2120ef          	jal	80014b04 <iprintf>
    80002716:	557d                	li	a0,-1
    80002718:	7e6110ef          	jal	80013efe <exit>

000000008000271c <_Z17tiled_matrix_tanhPsPKsmm>:
    8000271c:	7139                	addi	sp,sp,-64
    8000271e:	e852                	sd	s4,16(sp)
    80002720:	e456                	sd	s5,8(sp)
    80002722:	fc06                	sd	ra,56(sp)
    80002724:	8a32                	mv	s4,a2
    80002726:	8ab6                	mv	s5,a3
    80002728:	cd15                	beqz	a0,80002764 <_Z17tiled_matrix_tanhPsPKsmm+0x48>
    8000272a:	ca05                	beqz	a2,8000275a <_Z17tiled_matrix_tanhPsPKsmm+0x3e>
    8000272c:	f822                	sd	s0,48(sp)
    8000272e:	f426                	sd	s1,40(sp)
    80002730:	f04a                	sd	s2,32(sp)
    80002732:	ec4e                	sd	s3,24(sp)
    80002734:	842a                	mv	s0,a0
    80002736:	84ae                	mv	s1,a1
    80002738:	00169993          	slli	s3,a3,0x1
    8000273c:	4901                	li	s2,0
    8000273e:	85a6                	mv	a1,s1
    80002740:	8522                	mv	a0,s0
    80002742:	8656                	mv	a2,s5
    80002744:	0905                	addi	s2,s2,1
    80002746:	f31ff0ef          	jal	80002676 <_Z17tiled_vector_tanhPsPKsm>
    8000274a:	944e                	add	s0,s0,s3
    8000274c:	94ce                	add	s1,s1,s3
    8000274e:	ff2a18e3          	bne	s4,s2,8000273e <_Z17tiled_matrix_tanhPsPKsmm+0x22>
    80002752:	7442                	ld	s0,48(sp)
    80002754:	74a2                	ld	s1,40(sp)
    80002756:	7902                	ld	s2,32(sp)
    80002758:	69e2                	ld	s3,24(sp)
    8000275a:	70e2                	ld	ra,56(sp)
    8000275c:	6a42                	ld	s4,16(sp)
    8000275e:	6aa2                	ld	s5,8(sp)
    80002760:	6121                	addi	sp,sp,64
    80002762:	8082                	ret
    80002764:	00016517          	auipc	a0,0x16
    80002768:	98c50513          	addi	a0,a0,-1652 # 800180f0 <__tbss_end+0x132a>
    8000276c:	f822                	sd	s0,48(sp)
    8000276e:	f426                	sd	s1,40(sp)
    80002770:	f04a                	sd	s2,32(sp)
    80002772:	ec4e                	sd	s3,24(sp)
    80002774:	4d6120ef          	jal	80014c4a <puts>
    80002778:	8656                	mv	a2,s5
    8000277a:	85d2                	mv	a1,s4
    8000277c:	00016517          	auipc	a0,0x16
    80002780:	8b450513          	addi	a0,a0,-1868 # 80018030 <__tbss_end+0x126a>
    80002784:	380120ef          	jal	80014b04 <iprintf>
    80002788:	557d                	li	a0,-1
    8000278a:	774110ef          	jal	80013efe <exit>

000000008000278e <_Z18fit_vector_sigmoidPsPKsm>:
    8000278e:	02000793          	li	a5,32
    80002792:	00c7ef63          	bltu	a5,a2,800027b0 <_Z18fit_vector_sigmoidPsPKsm+0x22>
    80002796:	872a                	mv	a4,a0
    80002798:	8532                	mv	a0,a2
    8000279a:	1805200b          	.insn	4, 0x1805200b
    8000279e:	852e                	mv	a0,a1
    800027a0:	1005208b          	.insn	4, 0x1005208b
    800027a4:	0e20810b          	.insn	4, 0x0e20810b
    800027a8:	853a                	mv	a0,a4
    800027aa:	1225200b          	.insn	4, 0x1225200b
    800027ae:	8082                	ret
    800027b0:	1141                	addi	sp,sp,-16
    800027b2:	00015697          	auipc	a3,0x15
    800027b6:	dc668693          	addi	a3,a3,-570 # 80017578 <__tbss_end+0x7b2>
    800027ba:	00016617          	auipc	a2,0x16
    800027be:	98e60613          	addi	a2,a2,-1650 # 80018148 <__tbss_end+0x1382>
    800027c2:	05c00593          	li	a1,92
    800027c6:	00015517          	auipc	a0,0x15
    800027ca:	7a250513          	addi	a0,a0,1954 # 80017f68 <__tbss_end+0x11a2>
    800027ce:	e406                	sd	ra,8(sp)
    800027d0:	6e8110ef          	jal	80013eb8 <__assert_func>

00000000800027d4 <_Z20tiled_vector_sigmoidPsPKsm>:
    800027d4:	c141                	beqz	a0,80002854 <_Z20tiled_vector_sigmoidPsPKsm+0x80>
    800027d6:	02000793          	li	a5,32
    800027da:	88aa                	mv	a7,a0
    800027dc:	06c7f063          	bgeu	a5,a2,8000283c <_Z20tiled_vector_sigmoidPsPKsm+0x68>
    800027e0:	01f67313          	andi	t1,a2,31
    800027e4:	00565813          	srli	a6,a2,0x5
    800027e8:	86ae                	mv	a3,a1
    800027ea:	872a                	mv	a4,a0
    800027ec:	4781                	li	a5,0
    800027ee:	02000513          	li	a0,32
    800027f2:	1805200b          	.insn	4, 0x1805200b
    800027f6:	8536                	mv	a0,a3
    800027f8:	1005208b          	.insn	4, 0x1005208b
    800027fc:	0e20810b          	.insn	4, 0x0e20810b
    80002800:	853a                	mv	a0,a4
    80002802:	1225200b          	.insn	4, 0x1225200b
    80002806:	0785                	addi	a5,a5,1
    80002808:	04068693          	addi	a3,a3,64
    8000280c:	04070713          	addi	a4,a4,64
    80002810:	fcf81fe3          	bne	a6,a5,800027ee <_Z20tiled_vector_sigmoidPsPKsm+0x1a>
    80002814:	00031363          	bnez	t1,8000281a <_Z20tiled_vector_sigmoidPsPKsm+0x46>
    80002818:	8082                	ret
    8000281a:	40660633          	sub	a2,a2,t1
    8000281e:	0606                	slli	a2,a2,0x1
    80002820:	851a                	mv	a0,t1
    80002822:	1805200b          	.insn	4, 0x1805200b
    80002826:	00c58533          	add	a0,a1,a2
    8000282a:	1005208b          	.insn	4, 0x1005208b
    8000282e:	0e20810b          	.insn	4, 0x0e20810b
    80002832:	00c88533          	add	a0,a7,a2
    80002836:	1225200b          	.insn	4, 0x1225200b
    8000283a:	8082                	ret
    8000283c:	8532                	mv	a0,a2
    8000283e:	1805200b          	.insn	4, 0x1805200b
    80002842:	852e                	mv	a0,a1
    80002844:	1005208b          	.insn	4, 0x1005208b
    80002848:	0e20810b          	.insn	4, 0x0e20810b
    8000284c:	8546                	mv	a0,a7
    8000284e:	1225200b          	.insn	4, 0x1225200b
    80002852:	8082                	ret
    80002854:	1101                	addi	sp,sp,-32
    80002856:	00016517          	auipc	a0,0x16
    8000285a:	92a50513          	addi	a0,a0,-1750 # 80018180 <__tbss_end+0x13ba>
    8000285e:	ec06                	sd	ra,24(sp)
    80002860:	e432                	sd	a2,8(sp)
    80002862:	3e8120ef          	jal	80014c4a <puts>
    80002866:	65a2                	ld	a1,8(sp)
    80002868:	00015517          	auipc	a0,0x15
    8000286c:	dd850513          	addi	a0,a0,-552 # 80017640 <__tbss_end+0x87a>
    80002870:	294120ef          	jal	80014b04 <iprintf>
    80002874:	557d                	li	a0,-1
    80002876:	688110ef          	jal	80013efe <exit>

000000008000287a <_Z20tiled_matrix_sigmoidPsPKsmm>:
    8000287a:	7139                	addi	sp,sp,-64
    8000287c:	e852                	sd	s4,16(sp)
    8000287e:	e456                	sd	s5,8(sp)
    80002880:	fc06                	sd	ra,56(sp)
    80002882:	8a32                	mv	s4,a2
    80002884:	8ab6                	mv	s5,a3
    80002886:	cd15                	beqz	a0,800028c2 <_Z20tiled_matrix_sigmoidPsPKsmm+0x48>
    80002888:	ca05                	beqz	a2,800028b8 <_Z20tiled_matrix_sigmoidPsPKsmm+0x3e>
    8000288a:	f822                	sd	s0,48(sp)
    8000288c:	f426                	sd	s1,40(sp)
    8000288e:	f04a                	sd	s2,32(sp)
    80002890:	ec4e                	sd	s3,24(sp)
    80002892:	842a                	mv	s0,a0
    80002894:	84ae                	mv	s1,a1
    80002896:	00169993          	slli	s3,a3,0x1
    8000289a:	4901                	li	s2,0
    8000289c:	85a6                	mv	a1,s1
    8000289e:	8522                	mv	a0,s0
    800028a0:	8656                	mv	a2,s5
    800028a2:	0905                	addi	s2,s2,1
    800028a4:	f31ff0ef          	jal	800027d4 <_Z20tiled_vector_sigmoidPsPKsm>
    800028a8:	944e                	add	s0,s0,s3
    800028aa:	94ce                	add	s1,s1,s3
    800028ac:	ff2a18e3          	bne	s4,s2,8000289c <_Z20tiled_matrix_sigmoidPsPKsmm+0x22>
    800028b0:	7442                	ld	s0,48(sp)
    800028b2:	74a2                	ld	s1,40(sp)
    800028b4:	7902                	ld	s2,32(sp)
    800028b6:	69e2                	ld	s3,24(sp)
    800028b8:	70e2                	ld	ra,56(sp)
    800028ba:	6a42                	ld	s4,16(sp)
    800028bc:	6aa2                	ld	s5,8(sp)
    800028be:	6121                	addi	sp,sp,64
    800028c0:	8082                	ret
    800028c2:	00016517          	auipc	a0,0x16
    800028c6:	91650513          	addi	a0,a0,-1770 # 800181d8 <__tbss_end+0x1412>
    800028ca:	f822                	sd	s0,48(sp)
    800028cc:	f426                	sd	s1,40(sp)
    800028ce:	f04a                	sd	s2,32(sp)
    800028d0:	ec4e                	sd	s3,24(sp)
    800028d2:	378120ef          	jal	80014c4a <puts>
    800028d6:	8656                	mv	a2,s5
    800028d8:	85d2                	mv	a1,s4
    800028da:	00015517          	auipc	a0,0x15
    800028de:	75650513          	addi	a0,a0,1878 # 80018030 <__tbss_end+0x126a>
    800028e2:	222120ef          	jal	80014b04 <iprintf>
    800028e6:	557d                	li	a0,-1
    800028e8:	616110ef          	jal	80013efe <exit>

00000000800028ec <_Z11fit_dotprodPsPKsS1_m>:
    800028ec:	47a1                	li	a5,8
    800028ee:	02d7e163          	bltu	a5,a3,80002910 <_Z11fit_dotprodPsPKsS1_m+0x24>
    800028f2:	872a                	mv	a4,a0
    800028f4:	8536                	mv	a0,a3
    800028f6:	1805200b          	.insn	4, 0x1805200b
    800028fa:	852e                	mv	a0,a1
    800028fc:	1005208b          	.insn	4, 0x1005208b
    80002900:	8532                	mv	a0,a2
    80002902:	1005210b          	.insn	4, 0x1005210b
    80002906:	1a20c50b          	.insn	4, 0x1a20c50b
    8000290a:	00a71023          	sh	a0,0(a4)
    8000290e:	8082                	ret
    80002910:	1141                	addi	sp,sp,-16
    80002912:	00016697          	auipc	a3,0x16
    80002916:	91e68693          	addi	a3,a3,-1762 # 80018230 <__tbss_end+0x146a>
    8000291a:	00016617          	auipc	a2,0x16
    8000291e:	92e60613          	addi	a2,a2,-1746 # 80018248 <__tbss_end+0x1482>
    80002922:	4591                	li	a1,4
    80002924:	00016517          	auipc	a0,0x16
    80002928:	96450513          	addi	a0,a0,-1692 # 80018288 <__tbss_end+0x14c2>
    8000292c:	e406                	sd	ra,8(sp)
    8000292e:	58a110ef          	jal	80013eb8 <__assert_func>

0000000080002932 <_Z13tiled_dotprodPsPKsS1_m>:
    80002932:	47a1                	li	a5,8
    80002934:	8eaa                	mv	t4,a0
    80002936:	06d7fa63          	bgeu	a5,a3,800029aa <_Z13tiled_dotprodPsPKsS1_m+0x78>
    8000293a:	0076ff13          	andi	t5,a3,7
    8000293e:	0036de13          	srli	t3,a3,0x3
    80002942:	88ae                	mv	a7,a1
    80002944:	8832                	mv	a6,a2
    80002946:	4301                	li	t1,0
    80002948:	4701                	li	a4,0
    8000294a:	4521                	li	a0,8
    8000294c:	1805200b          	.insn	4, 0x1805200b
    80002950:	8546                	mv	a0,a7
    80002952:	1005208b          	.insn	4, 0x1005208b
    80002956:	8542                	mv	a0,a6
    80002958:	1005210b          	.insn	4, 0x1005210b
    8000295c:	1a20c50b          	.insn	4, 0x1a20c50b
    80002960:	00a307bb          	addw	a5,t1,a0
    80002964:	0107931b          	slliw	t1,a5,0x10
    80002968:	0705                	addi	a4,a4,1
    8000296a:	08c1                	addi	a7,a7,16
    8000296c:	0841                	addi	a6,a6,16
    8000296e:	4103531b          	sraiw	t1,t1,0x10
    80002972:	fcee1ce3          	bne	t3,a4,8000294a <_Z13tiled_dotprodPsPKsS1_m+0x18>
    80002976:	000f1563          	bnez	t5,80002980 <_Z13tiled_dotprodPsPKsS1_m+0x4e>
    8000297a:	006e9023          	sh	t1,0(t4)
    8000297e:	8082                	ret
    80002980:	41e686b3          	sub	a3,a3,t5
    80002984:	0686                	slli	a3,a3,0x1
    80002986:	857a                	mv	a0,t5
    80002988:	1805200b          	.insn	4, 0x1805200b
    8000298c:	00d58533          	add	a0,a1,a3
    80002990:	1005208b          	.insn	4, 0x1005208b
    80002994:	00d60533          	add	a0,a2,a3
    80002998:	1005210b          	.insn	4, 0x1005210b
    8000299c:	1a20c50b          	.insn	4, 0x1a20c50b
    800029a0:	00f5033b          	addw	t1,a0,a5
    800029a4:	006e9023          	sh	t1,0(t4)
    800029a8:	8082                	ret
    800029aa:	8536                	mv	a0,a3
    800029ac:	1805200b          	.insn	4, 0x1805200b
    800029b0:	852e                	mv	a0,a1
    800029b2:	1005208b          	.insn	4, 0x1005208b
    800029b6:	8532                	mv	a0,a2
    800029b8:	1005210b          	.insn	4, 0x1005210b
    800029bc:	1a20c50b          	.insn	4, 0x1a20c50b
    800029c0:	832a                	mv	t1,a0
    800029c2:	006e9023          	sh	t1,0(t4)
    800029c6:	8082                	ret

00000000800029c8 <_Z9tiled_mvmPsPKsS1_mm>:
    800029c8:	7139                	addi	sp,sp,-64
    800029ca:	ec4e                	sd	s3,24(sp)
    800029cc:	fc06                	sd	ra,56(sp)
    800029ce:	89b6                	mv	s3,a3
    800029d0:	c521                	beqz	a0,80002a18 <_Z9tiled_mvmPsPKsS1_mm+0x50>
    800029d2:	ce9d                	beqz	a3,80002a10 <_Z9tiled_mvmPsPKsS1_mm+0x48>
    800029d4:	f822                	sd	s0,48(sp)
    800029d6:	f426                	sd	s1,40(sp)
    800029d8:	f04a                	sd	s2,32(sp)
    800029da:	e852                	sd	s4,16(sp)
    800029dc:	e456                	sd	s5,8(sp)
    800029de:	e05a                	sd	s6,0(sp)
    800029e0:	8ab2                	mv	s5,a2
    800029e2:	8a3a                	mv	s4,a4
    800029e4:	842a                	mv	s0,a0
    800029e6:	84ae                	mv	s1,a1
    800029e8:	00171b13          	slli	s6,a4,0x1
    800029ec:	4901                	li	s2,0
    800029ee:	85a6                	mv	a1,s1
    800029f0:	8522                	mv	a0,s0
    800029f2:	86d2                	mv	a3,s4
    800029f4:	8656                	mv	a2,s5
    800029f6:	0905                	addi	s2,s2,1
    800029f8:	f3bff0ef          	jal	80002932 <_Z13tiled_dotprodPsPKsS1_m>
    800029fc:	0409                	addi	s0,s0,2
    800029fe:	94da                	add	s1,s1,s6
    80002a00:	ff2997e3          	bne	s3,s2,800029ee <_Z9tiled_mvmPsPKsS1_mm+0x26>
    80002a04:	7442                	ld	s0,48(sp)
    80002a06:	74a2                	ld	s1,40(sp)
    80002a08:	7902                	ld	s2,32(sp)
    80002a0a:	6a42                	ld	s4,16(sp)
    80002a0c:	6aa2                	ld	s5,8(sp)
    80002a0e:	6b02                	ld	s6,0(sp)
    80002a10:	70e2                	ld	ra,56(sp)
    80002a12:	69e2                	ld	s3,24(sp)
    80002a14:	6121                	addi	sp,sp,64
    80002a16:	8082                	ret
    80002a18:	00016517          	auipc	a0,0x16
    80002a1c:	88850513          	addi	a0,a0,-1912 # 800182a0 <__tbss_end+0x14da>
    80002a20:	f822                	sd	s0,48(sp)
    80002a22:	f426                	sd	s1,40(sp)
    80002a24:	f04a                	sd	s2,32(sp)
    80002a26:	e852                	sd	s4,16(sp)
    80002a28:	e456                	sd	s5,8(sp)
    80002a2a:	e05a                	sd	s6,0(sp)
    80002a2c:	21e120ef          	jal	80014c4a <puts>
    80002a30:	85ce                	mv	a1,s3
    80002a32:	00015517          	auipc	a0,0x15
    80002a36:	27e50513          	addi	a0,a0,638 # 80017cb0 <__tbss_end+0xeea>
    80002a3a:	0ca120ef          	jal	80014b04 <iprintf>
    80002a3e:	557d                	li	a0,-1
    80002a40:	4be110ef          	jal	80013efe <exit>

0000000080002a44 <_Z22tiled_matmul_transposePsPKsS1_mmm>:
    80002a44:	7159                	addi	sp,sp,-112
    80002a46:	e4ce                	sd	s3,72(sp)
    80002a48:	f062                	sd	s8,32(sp)
    80002a4a:	f486                	sd	ra,104(sp)
    80002a4c:	89b6                	mv	s3,a3
    80002a4e:	8c3e                	mv	s8,a5
    80002a50:	c92d                	beqz	a0,80002ac2 <_Z22tiled_matmul_transposePsPKsS1_mmm+0x7e>
    80002a52:	c3bd                	beqz	a5,80002ab8 <_Z22tiled_matmul_transposePsPKsS1_mmm+0x74>
    80002a54:	c2b5                	beqz	a3,80002ab8 <_Z22tiled_matmul_transposePsPKsS1_mmm+0x74>
    80002a56:	e8ca                	sd	s2,80(sp)
    80002a58:	e0d2                	sd	s4,64(sp)
    80002a5a:	fc56                	sd	s5,56(sp)
    80002a5c:	f85a                	sd	s6,48(sp)
    80002a5e:	f45e                	sd	s7,40(sp)
    80002a60:	ec66                	sd	s9,24(sp)
    80002a62:	e86a                	sd	s10,16(sp)
    80002a64:	f0a2                	sd	s0,96(sp)
    80002a66:	eca6                	sd	s1,88(sp)
    80002a68:	e46e                	sd	s11,8(sp)
    80002a6a:	8caa                	mv	s9,a0
    80002a6c:	8d2e                	mv	s10,a1
    80002a6e:	8aba                	mv	s5,a4
    80002a70:	8932                	mv	s2,a2
    80002a72:	00171a13          	slli	s4,a4,0x1
    80002a76:	4b81                	li	s7,0
    80002a78:	4b01                	li	s6,0
    80002a7a:	001b9413          	slli	s0,s7,0x1
    80002a7e:	9466                	add	s0,s0,s9
    80002a80:	8dea                	mv	s11,s10
    80002a82:	4481                	li	s1,0
    80002a84:	85ee                	mv	a1,s11
    80002a86:	8522                	mv	a0,s0
    80002a88:	86d6                	mv	a3,s5
    80002a8a:	864a                	mv	a2,s2
    80002a8c:	0485                	addi	s1,s1,1
    80002a8e:	ea5ff0ef          	jal	80002932 <_Z13tiled_dotprodPsPKsS1_m>
    80002a92:	0409                	addi	s0,s0,2
    80002a94:	9dd2                	add	s11,s11,s4
    80002a96:	fe9997e3          	bne	s3,s1,80002a84 <_Z22tiled_matmul_transposePsPKsS1_mmm+0x40>
    80002a9a:	0b05                	addi	s6,s6,1
    80002a9c:	9bce                	add	s7,s7,s3
    80002a9e:	9952                	add	s2,s2,s4
    80002aa0:	fd8b1de3          	bne	s6,s8,80002a7a <_Z22tiled_matmul_transposePsPKsS1_mmm+0x36>
    80002aa4:	7406                	ld	s0,96(sp)
    80002aa6:	64e6                	ld	s1,88(sp)
    80002aa8:	6946                	ld	s2,80(sp)
    80002aaa:	6a06                	ld	s4,64(sp)
    80002aac:	7ae2                	ld	s5,56(sp)
    80002aae:	7b42                	ld	s6,48(sp)
    80002ab0:	7ba2                	ld	s7,40(sp)
    80002ab2:	6ce2                	ld	s9,24(sp)
    80002ab4:	6d42                	ld	s10,16(sp)
    80002ab6:	6da2                	ld	s11,8(sp)
    80002ab8:	70a6                	ld	ra,104(sp)
    80002aba:	69a6                	ld	s3,72(sp)
    80002abc:	7c02                	ld	s8,32(sp)
    80002abe:	6165                	addi	sp,sp,112
    80002ac0:	8082                	ret
    80002ac2:	00016517          	auipc	a0,0x16
    80002ac6:	82e50513          	addi	a0,a0,-2002 # 800182f0 <__tbss_end+0x152a>
    80002aca:	f0a2                	sd	s0,96(sp)
    80002acc:	eca6                	sd	s1,88(sp)
    80002ace:	e8ca                	sd	s2,80(sp)
    80002ad0:	e0d2                	sd	s4,64(sp)
    80002ad2:	fc56                	sd	s5,56(sp)
    80002ad4:	f85a                	sd	s6,48(sp)
    80002ad6:	f45e                	sd	s7,40(sp)
    80002ad8:	ec66                	sd	s9,24(sp)
    80002ada:	e86a                	sd	s10,16(sp)
    80002adc:	e46e                	sd	s11,8(sp)
    80002ade:	16c120ef          	jal	80014c4a <puts>
    80002ae2:	864e                	mv	a2,s3
    80002ae4:	85e2                	mv	a1,s8
    80002ae6:	00016517          	auipc	a0,0x16
    80002aea:	86250513          	addi	a0,a0,-1950 # 80018348 <__tbss_end+0x1582>
    80002aee:	016120ef          	jal	80014b04 <iprintf>
    80002af2:	557d                	li	a0,-1
    80002af4:	40a110ef          	jal	80013efe <exit>

0000000080002af8 <_Z21tiled_dotprod_stridedPsPKsS1_mm>:
    80002af8:	47a1                	li	a5,8
    80002afa:	8eaa                	mv	t4,a0
    80002afc:	06d7f963          	bgeu	a5,a3,80002b6e <_Z21tiled_dotprod_stridedPsPKsS1_mm+0x76>
    80002b00:	0076ff13          	andi	t5,a3,7
    80002b04:	0706                	slli	a4,a4,0x1
    80002b06:	828d                	srli	a3,a3,0x3
    80002b08:	832e                	mv	t1,a1
    80002b0a:	88b2                	mv	a7,a2
    80002b0c:	4e01                	li	t3,0
    80002b0e:	4801                	li	a6,0
    80002b10:	4521                	li	a0,8
    80002b12:	1805200b          	.insn	4, 0x1805200b
    80002b16:	851a                	mv	a0,t1
    80002b18:	1005208b          	.insn	4, 0x1005208b
    80002b1c:	8546                	mv	a0,a7
    80002b1e:	1005210b          	.insn	4, 0x1005210b
    80002b22:	1a20c50b          	.insn	4, 0x1a20c50b
    80002b26:	00ae07bb          	addw	a5,t3,a0
    80002b2a:	01079e1b          	slliw	t3,a5,0x10
    80002b2e:	0805                	addi	a6,a6,1
    80002b30:	933a                	add	t1,t1,a4
    80002b32:	98ba                	add	a7,a7,a4
    80002b34:	410e5e1b          	sraiw	t3,t3,0x10
    80002b38:	fd069ce3          	bne	a3,a6,80002b10 <_Z21tiled_dotprod_stridedPsPKsS1_mm+0x18>
    80002b3c:	000f1563          	bnez	t5,80002b46 <_Z21tiled_dotprod_stridedPsPKsS1_mm+0x4e>
    80002b40:	01ce9023          	sh	t3,0(t4)
    80002b44:	8082                	ret
    80002b46:	02d70733          	mul	a4,a4,a3
    80002b4a:	857a                	mv	a0,t5
    80002b4c:	1805200b          	.insn	4, 0x1805200b
    80002b50:	00e58533          	add	a0,a1,a4
    80002b54:	1005208b          	.insn	4, 0x1005208b
    80002b58:	00e60533          	add	a0,a2,a4
    80002b5c:	1005210b          	.insn	4, 0x1005210b
    80002b60:	1a20c50b          	.insn	4, 0x1a20c50b
    80002b64:	00f50e3b          	addw	t3,a0,a5
    80002b68:	01ce9023          	sh	t3,0(t4)
    80002b6c:	8082                	ret
    80002b6e:	8536                	mv	a0,a3
    80002b70:	1805200b          	.insn	4, 0x1805200b
    80002b74:	852e                	mv	a0,a1
    80002b76:	1005208b          	.insn	4, 0x1005208b
    80002b7a:	8532                	mv	a0,a2
    80002b7c:	1005210b          	.insn	4, 0x1005210b
    80002b80:	1a20c50b          	.insn	4, 0x1a20c50b
    80002b84:	8e2a                	mv	t3,a0
    80002b86:	01ce9023          	sh	t3,0(t4)
    80002b8a:	8082                	ret

0000000080002b8c <_Z17tiled_mvm_stridedPsPKsS1_mmm>:
    80002b8c:	7139                	addi	sp,sp,-64
    80002b8e:	e852                	sd	s4,16(sp)
    80002b90:	fc06                	sd	ra,56(sp)
    80002b92:	8a36                	mv	s4,a3
    80002b94:	c531                	beqz	a0,80002be0 <_Z17tiled_mvm_stridedPsPKsS1_mmm+0x54>
    80002b96:	c2a9                	beqz	a3,80002bd8 <_Z17tiled_mvm_stridedPsPKsS1_mmm+0x4c>
    80002b98:	f822                	sd	s0,48(sp)
    80002b9a:	f426                	sd	s1,40(sp)
    80002b9c:	f04a                	sd	s2,32(sp)
    80002b9e:	ec4e                	sd	s3,24(sp)
    80002ba0:	e456                	sd	s5,8(sp)
    80002ba2:	e05a                	sd	s6,0(sp)
    80002ba4:	8ab2                	mv	s5,a2
    80002ba6:	8b3a                	mv	s6,a4
    80002ba8:	842a                	mv	s0,a0
    80002baa:	00179993          	slli	s3,a5,0x1
    80002bae:	84ae                	mv	s1,a1
    80002bb0:	4901                	li	s2,0
    80002bb2:	85a6                	mv	a1,s1
    80002bb4:	8522                	mv	a0,s0
    80002bb6:	02000713          	li	a4,32
    80002bba:	86da                	mv	a3,s6
    80002bbc:	8656                	mv	a2,s5
    80002bbe:	0905                	addi	s2,s2,1
    80002bc0:	f39ff0ef          	jal	80002af8 <_Z21tiled_dotprod_stridedPsPKsS1_mm>
    80002bc4:	0409                	addi	s0,s0,2
    80002bc6:	94ce                	add	s1,s1,s3
    80002bc8:	ff2a15e3          	bne	s4,s2,80002bb2 <_Z17tiled_mvm_stridedPsPKsS1_mmm+0x26>
    80002bcc:	7442                	ld	s0,48(sp)
    80002bce:	74a2                	ld	s1,40(sp)
    80002bd0:	7902                	ld	s2,32(sp)
    80002bd2:	69e2                	ld	s3,24(sp)
    80002bd4:	6aa2                	ld	s5,8(sp)
    80002bd6:	6b02                	ld	s6,0(sp)
    80002bd8:	70e2                	ld	ra,56(sp)
    80002bda:	6a42                	ld	s4,16(sp)
    80002bdc:	6121                	addi	sp,sp,64
    80002bde:	8082                	ret
    80002be0:	00015517          	auipc	a0,0x15
    80002be4:	79050513          	addi	a0,a0,1936 # 80018370 <__tbss_end+0x15aa>
    80002be8:	f822                	sd	s0,48(sp)
    80002bea:	f426                	sd	s1,40(sp)
    80002bec:	f04a                	sd	s2,32(sp)
    80002bee:	ec4e                	sd	s3,24(sp)
    80002bf0:	e456                	sd	s5,8(sp)
    80002bf2:	e05a                	sd	s6,0(sp)
    80002bf4:	056120ef          	jal	80014c4a <puts>
    80002bf8:	85d2                	mv	a1,s4
    80002bfa:	00015517          	auipc	a0,0x15
    80002bfe:	0b650513          	addi	a0,a0,182 # 80017cb0 <__tbss_end+0xeea>
    80002c02:	703110ef          	jal	80014b04 <iprintf>
    80002c06:	557d                	li	a0,-1
    80002c08:	2f6110ef          	jal	80013efe <exit>

0000000080002c0c <_Z30tiled_matmul_transpose_stridedPsPKsS1_mmmmm>:
    80002c0c:	7119                	addi	sp,sp,-128
    80002c0e:	f0ca                	sd	s2,96(sp)
    80002c10:	f862                	sd	s8,48(sp)
    80002c12:	fc86                	sd	ra,120(sp)
    80002c14:	e42e                	sd	a1,8(sp)
    80002c16:	8936                	mv	s2,a3
    80002c18:	8c3e                	mv	s8,a5
    80002c1a:	cd25                	beqz	a0,80002c92 <_Z30tiled_matmul_transpose_stridedPsPKsS1_mmmmm+0x86>
    80002c1c:	c7b5                	beqz	a5,80002c88 <_Z30tiled_matmul_transpose_stridedPsPKsS1_mmmmm+0x7c>
    80002c1e:	c6ad                	beqz	a3,80002c88 <_Z30tiled_matmul_transpose_stridedPsPKsS1_mmmmm+0x7c>
    80002c20:	f4a6                	sd	s1,104(sp)
    80002c22:	ecce                	sd	s3,88(sp)
    80002c24:	e8d2                	sd	s4,80(sp)
    80002c26:	e4d6                	sd	s5,72(sp)
    80002c28:	e0da                	sd	s6,64(sp)
    80002c2a:	fc5e                	sd	s7,56(sp)
    80002c2c:	f466                	sd	s9,40(sp)
    80002c2e:	f8a2                	sd	s0,112(sp)
    80002c30:	f06a                	sd	s10,32(sp)
    80002c32:	ec6e                	sd	s11,24(sp)
    80002c34:	8caa                	mv	s9,a0
    80002c36:	8a3a                	mv	s4,a4
    80002c38:	00189b93          	slli	s7,a7,0x1
    80002c3c:	84b2                	mv	s1,a2
    80002c3e:	00181993          	slli	s3,a6,0x1
    80002c42:	4b01                	li	s6,0
    80002c44:	4a81                	li	s5,0
    80002c46:	6d22                	ld	s10,8(sp)
    80002c48:	001b1413          	slli	s0,s6,0x1
    80002c4c:	9466                	add	s0,s0,s9
    80002c4e:	4d81                	li	s11,0
    80002c50:	85ea                	mv	a1,s10
    80002c52:	8522                	mv	a0,s0
    80002c54:	02000713          	li	a4,32
    80002c58:	86d2                	mv	a3,s4
    80002c5a:	8626                	mv	a2,s1
    80002c5c:	0d85                	addi	s11,s11,1
    80002c5e:	e9bff0ef          	jal	80002af8 <_Z21tiled_dotprod_stridedPsPKsS1_mm>
    80002c62:	0409                	addi	s0,s0,2
    80002c64:	9d4e                	add	s10,s10,s3
    80002c66:	ffb915e3          	bne	s2,s11,80002c50 <_Z30tiled_matmul_transpose_stridedPsPKsS1_mmmmm+0x44>
    80002c6a:	0a85                	addi	s5,s5,1
    80002c6c:	9b4a                	add	s6,s6,s2
    80002c6e:	94de                	add	s1,s1,s7
    80002c70:	fd5c1be3          	bne	s8,s5,80002c46 <_Z30tiled_matmul_transpose_stridedPsPKsS1_mmmmm+0x3a>
    80002c74:	7446                	ld	s0,112(sp)
    80002c76:	74a6                	ld	s1,104(sp)
    80002c78:	69e6                	ld	s3,88(sp)
    80002c7a:	6a46                	ld	s4,80(sp)
    80002c7c:	6aa6                	ld	s5,72(sp)
    80002c7e:	6b06                	ld	s6,64(sp)
    80002c80:	7be2                	ld	s7,56(sp)
    80002c82:	7ca2                	ld	s9,40(sp)
    80002c84:	7d02                	ld	s10,32(sp)
    80002c86:	6de2                	ld	s11,24(sp)
    80002c88:	70e6                	ld	ra,120(sp)
    80002c8a:	7906                	ld	s2,96(sp)
    80002c8c:	7c42                	ld	s8,48(sp)
    80002c8e:	6109                	addi	sp,sp,128
    80002c90:	8082                	ret
    80002c92:	00015517          	auipc	a0,0x15
    80002c96:	73650513          	addi	a0,a0,1846 # 800183c8 <__tbss_end+0x1602>
    80002c9a:	f8a2                	sd	s0,112(sp)
    80002c9c:	f4a6                	sd	s1,104(sp)
    80002c9e:	ecce                	sd	s3,88(sp)
    80002ca0:	e8d2                	sd	s4,80(sp)
    80002ca2:	e4d6                	sd	s5,72(sp)
    80002ca4:	e0da                	sd	s6,64(sp)
    80002ca6:	fc5e                	sd	s7,56(sp)
    80002ca8:	f466                	sd	s9,40(sp)
    80002caa:	f06a                	sd	s10,32(sp)
    80002cac:	ec6e                	sd	s11,24(sp)
    80002cae:	79d110ef          	jal	80014c4a <puts>
    80002cb2:	864a                	mv	a2,s2
    80002cb4:	85e2                	mv	a1,s8
    80002cb6:	00015517          	auipc	a0,0x15
    80002cba:	69250513          	addi	a0,a0,1682 # 80018348 <__tbss_end+0x1582>
    80002cbe:	647110ef          	jal	80014b04 <iprintf>
    80002cc2:	557d                	li	a0,-1
    80002cc4:	23a110ef          	jal	80013efe <exit>

0000000080002cc8 <_Z35tiled_matmul_transpose_full_stridedPsPKsS1_mmmmmm>:
    80002cc8:	7119                	addi	sp,sp,-128
    80002cca:	f862                	sd	s8,48(sp)
    80002ccc:	fc86                	sd	ra,120(sp)
    80002cce:	e42e                	sd	a1,8(sp)
    80002cd0:	8c3e                	mv	s8,a5
    80002cd2:	c149                	beqz	a0,80002d54 <_Z35tiled_matmul_transpose_full_stridedPsPKsS1_mmmmmm+0x8c>
    80002cd4:	cbb5                	beqz	a5,80002d48 <_Z35tiled_matmul_transpose_full_stridedPsPKsS1_mmmmmm+0x80>
    80002cd6:	ecce                	sd	s3,88(sp)
    80002cd8:	89b6                	mv	s3,a3
    80002cda:	cabd                	beqz	a3,80002d50 <_Z35tiled_matmul_transpose_full_stridedPsPKsS1_mmmmmm+0x88>
    80002cdc:	f4a6                	sd	s1,104(sp)
    80002cde:	f0ca                	sd	s2,96(sp)
    80002ce0:	e8d2                	sd	s4,80(sp)
    80002ce2:	e4d6                	sd	s5,72(sp)
    80002ce4:	e0da                	sd	s6,64(sp)
    80002ce6:	fc5e                	sd	s7,56(sp)
    80002ce8:	f466                	sd	s9,40(sp)
    80002cea:	f8a2                	sd	s0,112(sp)
    80002cec:	f06a                	sd	s10,32(sp)
    80002cee:	ec6e                	sd	s11,24(sp)
    80002cf0:	8caa                	mv	s9,a0
    80002cf2:	8a3a                	mv	s4,a4
    80002cf4:	00189b93          	slli	s7,a7,0x1
    80002cf8:	84b2                	mv	s1,a2
    80002cfa:	00181913          	slli	s2,a6,0x1
    80002cfe:	4b01                	li	s6,0
    80002d00:	4a81                	li	s5,0
    80002d02:	6da2                	ld	s11,8(sp)
    80002d04:	001b1413          	slli	s0,s6,0x1
    80002d08:	9466                	add	s0,s0,s9
    80002d0a:	4d01                	li	s10,0
    80002d0c:	85ee                	mv	a1,s11
    80002d0e:	8522                	mv	a0,s0
    80002d10:	02000713          	li	a4,32
    80002d14:	86d2                	mv	a3,s4
    80002d16:	8626                	mv	a2,s1
    80002d18:	0d05                	addi	s10,s10,1
    80002d1a:	ddfff0ef          	jal	80002af8 <_Z21tiled_dotprod_stridedPsPKsS1_mm>
    80002d1e:	0409                	addi	s0,s0,2
    80002d20:	9dca                	add	s11,s11,s2
    80002d22:	ffa995e3          	bne	s3,s10,80002d0c <_Z35tiled_matmul_transpose_full_stridedPsPKsS1_mmmmmm+0x44>
    80002d26:	678a                	ld	a5,128(sp)
    80002d28:	0a85                	addi	s5,s5,1
    80002d2a:	94de                	add	s1,s1,s7
    80002d2c:	9b3e                	add	s6,s6,a5
    80002d2e:	fd5c1ae3          	bne	s8,s5,80002d02 <_Z35tiled_matmul_transpose_full_stridedPsPKsS1_mmmmmm+0x3a>
    80002d32:	7446                	ld	s0,112(sp)
    80002d34:	74a6                	ld	s1,104(sp)
    80002d36:	7906                	ld	s2,96(sp)
    80002d38:	69e6                	ld	s3,88(sp)
    80002d3a:	6a46                	ld	s4,80(sp)
    80002d3c:	6aa6                	ld	s5,72(sp)
    80002d3e:	6b06                	ld	s6,64(sp)
    80002d40:	7be2                	ld	s7,56(sp)
    80002d42:	7ca2                	ld	s9,40(sp)
    80002d44:	7d02                	ld	s10,32(sp)
    80002d46:	6de2                	ld	s11,24(sp)
    80002d48:	70e6                	ld	ra,120(sp)
    80002d4a:	7c42                	ld	s8,48(sp)
    80002d4c:	6109                	addi	sp,sp,128
    80002d4e:	8082                	ret
    80002d50:	69e6                	ld	s3,88(sp)
    80002d52:	bfdd                	j	80002d48 <_Z35tiled_matmul_transpose_full_stridedPsPKsS1_mmmmmm+0x80>
    80002d54:	00015517          	auipc	a0,0x15
    80002d58:	6d450513          	addi	a0,a0,1748 # 80018428 <__tbss_end+0x1662>
    80002d5c:	f8a2                	sd	s0,112(sp)
    80002d5e:	f4a6                	sd	s1,104(sp)
    80002d60:	f0ca                	sd	s2,96(sp)
    80002d62:	ecce                	sd	s3,88(sp)
    80002d64:	e8d2                	sd	s4,80(sp)
    80002d66:	e4d6                	sd	s5,72(sp)
    80002d68:	e0da                	sd	s6,64(sp)
    80002d6a:	fc5e                	sd	s7,56(sp)
    80002d6c:	f466                	sd	s9,40(sp)
    80002d6e:	f06a                	sd	s10,32(sp)
    80002d70:	ec6e                	sd	s11,24(sp)
    80002d72:	6d9110ef          	jal	80014c4a <puts>
    80002d76:	660a                	ld	a2,128(sp)
    80002d78:	85e2                	mv	a1,s8
    80002d7a:	00015517          	auipc	a0,0x15
    80002d7e:	71650513          	addi	a0,a0,1814 # 80018490 <__tbss_end+0x16ca>
    80002d82:	583110ef          	jal	80014b04 <iprintf>
    80002d86:	557d                	li	a0,-1
    80002d88:	176110ef          	jal	80013efe <exit>

0000000080002d8c <_Z10array_initPsms>:
    80002d8c:	c981                	beqz	a1,80002d9c <_Z10array_initPsms+0x10>
    80002d8e:	0586                	slli	a1,a1,0x1
    80002d90:	95aa                	add	a1,a1,a0
    80002d92:	00c51023          	sh	a2,0(a0)
    80002d96:	0509                	addi	a0,a0,2
    80002d98:	feb51de3          	bne	a0,a1,80002d92 <_Z10array_initPsms+0x6>
    80002d9c:	8082                	ret

0000000080002d9e <_Z12conv2d_shapePmS_S_mmmmmmmm>:
    80002d9e:	6e02                	ld	t3,0(sp)
    80002da0:	6842                	ld	a6,16(sp)
    80002da2:	6322                	ld	t1,8(sp)
    80002da4:	41c70733          	sub	a4,a4,t3
    80002da8:	0806                	slli	a6,a6,0x1
    80002daa:	9742                	add	a4,a4,a6
    80002dac:	02675733          	divu	a4,a4,t1
    80002db0:	41c787b3          	sub	a5,a5,t3
    80002db4:	97c2                	add	a5,a5,a6
    80002db6:	0267d7b3          	divu	a5,a5,t1
    80002dba:	0705                	addi	a4,a4,1
    80002dbc:	031686b3          	mul	a3,a3,a7
    80002dc0:	0785                	addi	a5,a5,1
    80002dc2:	02e686b3          	mul	a3,a3,a4
    80002dc6:	02f686b3          	mul	a3,a3,a5
    80002dca:	e114                	sd	a3,0(a0)
    80002dcc:	e198                	sd	a4,0(a1)
    80002dce:	e21c                	sd	a5,0(a2)
    80002dd0:	8082                	ret

0000000080002dd2 <_Z15padding2d_shapePmS_S_mmmmm>:
    80002dd2:	03180833          	mul	a6,a6,a7
    80002dd6:	0686                	slli	a3,a3,0x1
    80002dd8:	9736                	add	a4,a4,a3
    80002dda:	e198                	sd	a4,0(a1)
    80002ddc:	96be                	add	a3,a3,a5
    80002dde:	e214                	sd	a3,0(a2)
    80002de0:	619c                	ld	a5,0(a1)
    80002de2:	02f80833          	mul	a6,a6,a5
    80002de6:	02d80833          	mul	a6,a6,a3
    80002dea:	01053023          	sd	a6,0(a0)
    80002dee:	8082                	ret

0000000080002df0 <_Z9padding2dPsPKsmsmm>:
    80002df0:	7159                	addi	sp,sp,-112
    80002df2:	e4ce                	sd	s3,72(sp)
    80002df4:	00161993          	slli	s3,a2,0x1
    80002df8:	f062                	sd	s8,32(sp)
    80002dfa:	00f98c33          	add	s8,s3,a5
    80002dfe:	eca6                	sd	s1,88(sp)
    80002e00:	02cc04b3          	mul	s1,s8,a2
    80002e04:	f0a2                	sd	s0,96(sp)
    80002e06:	e8ca                	sd	s2,80(sp)
    80002e08:	fc56                	sd	s5,56(sp)
    80002e0a:	f45e                	sd	s7,40(sp)
    80002e0c:	f486                	sd	ra,104(sp)
    80002e0e:	8bb2                	mv	s7,a2
    80002e10:	8aaa                	mv	s5,a0
    80002e12:	8436                	mv	s0,a3
    80002e14:	893a                	mv	s2,a4
    80002e16:	cce9                	beqz	s1,80002ef0 <_Z9padding2dPsPKsmsmm+0x100>
    80002e18:	00149693          	slli	a3,s1,0x1
    80002e1c:	96aa                	add	a3,a3,a0
    80002e1e:	872a                	mv	a4,a0
    80002e20:	00871023          	sh	s0,0(a4)
    80002e24:	0709                	addi	a4,a4,2
    80002e26:	fed71de3          	bne	a4,a3,80002e20 <_Z9padding2dPsPKsmsmm+0x30>
    80002e2a:	8726                	mv	a4,s1
    80002e2c:	08090263          	beqz	s2,80002eb0 <_Z9padding2dPsPKsmsmm+0xc0>
    80002e30:	f85a                	sd	s6,48(sp)
    80002e32:	417c0b33          	sub	s6,s8,s7
    80002e36:	e0d2                	sd	s4,64(sp)
    80002e38:	ec66                	sd	s9,24(sp)
    80002e3a:	e86a                	sd	s10,16(sp)
    80002e3c:	e46e                	sd	s11,8(sp)
    80002e3e:	00179a13          	slli	s4,a5,0x1
    80002e42:	8d2e                	mv	s10,a1
    80002e44:	99d6                	add	s3,s3,s5
    80002e46:	9b26                	add	s6,s6,s1
    80002e48:	8ca6                	mv	s9,s1
    80002e4a:	4d81                	li	s11,0
    80002e4c:	001c9793          	slli	a5,s9,0x1
    80002e50:	00f98533          	add	a0,s3,a5
    80002e54:	080b8363          	beqz	s7,80002eda <_Z9padding2dPsPKsmsmm+0xea>
    80002e58:	019b8733          	add	a4,s7,s9
    80002e5c:	0706                	slli	a4,a4,0x1
    80002e5e:	97d6                	add	a5,a5,s5
    80002e60:	9756                	add	a4,a4,s5
    80002e62:	00879023          	sh	s0,0(a5)
    80002e66:	0789                	addi	a5,a5,2
    80002e68:	fee79de3          	bne	a5,a4,80002e62 <_Z9padding2dPsPKsmsmm+0x72>
    80002e6c:	8652                	mv	a2,s4
    80002e6e:	85ea                	mv	a1,s10
    80002e70:	772120ef          	jal	800155e2 <memcpy>
    80002e74:	016b8733          	add	a4,s7,s6
    80002e78:	0706                	slli	a4,a4,0x1
    80002e7a:	001b1793          	slli	a5,s6,0x1
    80002e7e:	9756                	add	a4,a4,s5
    80002e80:	97d6                	add	a5,a5,s5
    80002e82:	00879023          	sh	s0,0(a5)
    80002e86:	0789                	addi	a5,a5,2
    80002e88:	fee79de3          	bne	a5,a4,80002e82 <_Z9padding2dPsPKsmsmm+0x92>
    80002e8c:	0d85                	addi	s11,s11,1
    80002e8e:	9ce2                	add	s9,s9,s8
    80002e90:	9d52                	add	s10,s10,s4
    80002e92:	9b62                	add	s6,s6,s8
    80002e94:	fb2dece3          	bltu	s11,s2,80002e4c <_Z9padding2dPsPKsmsmm+0x5c>
    80002e98:	ccb1                	beqz	s1,80002ef4 <_Z9padding2dPsPKsmsmm+0x104>
    80002e9a:	fff90713          	addi	a4,s2,-1
    80002e9e:	03870733          	mul	a4,a4,s8
    80002ea2:	6a06                	ld	s4,64(sp)
    80002ea4:	7b42                	ld	s6,48(sp)
    80002ea6:	6ce2                	ld	s9,24(sp)
    80002ea8:	6d42                	ld	s10,16(sp)
    80002eaa:	6da2                	ld	s11,8(sp)
    80002eac:	9c26                	add	s8,s8,s1
    80002eae:	9762                	add	a4,a4,s8
    80002eb0:	00e487b3          	add	a5,s1,a4
    80002eb4:	0786                	slli	a5,a5,0x1
    80002eb6:	0706                	slli	a4,a4,0x1
    80002eb8:	97d6                	add	a5,a5,s5
    80002eba:	9aba                	add	s5,s5,a4
    80002ebc:	008a9023          	sh	s0,0(s5)
    80002ec0:	0a89                	addi	s5,s5,2
    80002ec2:	ff579de3          	bne	a5,s5,80002ebc <_Z9padding2dPsPKsmsmm+0xcc>
    80002ec6:	70a6                	ld	ra,104(sp)
    80002ec8:	7406                	ld	s0,96(sp)
    80002eca:	64e6                	ld	s1,88(sp)
    80002ecc:	6946                	ld	s2,80(sp)
    80002ece:	69a6                	ld	s3,72(sp)
    80002ed0:	7ae2                	ld	s5,56(sp)
    80002ed2:	7ba2                	ld	s7,40(sp)
    80002ed4:	7c02                	ld	s8,32(sp)
    80002ed6:	6165                	addi	sp,sp,112
    80002ed8:	8082                	ret
    80002eda:	85ea                	mv	a1,s10
    80002edc:	8652                	mv	a2,s4
    80002ede:	0d85                	addi	s11,s11,1
    80002ee0:	702120ef          	jal	800155e2 <memcpy>
    80002ee4:	9ce2                	add	s9,s9,s8
    80002ee6:	9d52                	add	s10,s10,s4
    80002ee8:	9b62                	add	s6,s6,s8
    80002eea:	f72de1e3          	bltu	s11,s2,80002e4c <_Z9padding2dPsPKsmsmm+0x5c>
    80002eee:	b76d                	j	80002e98 <_Z9padding2dPsPKsmsmm+0xa8>
    80002ef0:	f321                	bnez	a4,80002e30 <_Z9padding2dPsPKsmsmm+0x40>
    80002ef2:	bfd1                	j	80002ec6 <_Z9padding2dPsPKsmsmm+0xd6>
    80002ef4:	6a06                	ld	s4,64(sp)
    80002ef6:	7b42                	ld	s6,48(sp)
    80002ef8:	6ce2                	ld	s9,24(sp)
    80002efa:	6d42                	ld	s10,16(sp)
    80002efc:	6da2                	ld	s11,8(sp)
    80002efe:	b7e1                	j	80002ec6 <_Z9padding2dPsPKsmsmm+0xd6>

0000000080002f00 <_Z9padding2dPsPKsmsmmm>:
    80002f00:	06080b63          	beqz	a6,80002f76 <_Z9padding2dPsPKsmsmmm+0x76>
    80002f04:	711d                	addi	sp,sp,-96
    80002f06:	fc4e                	sd	s3,56(sp)
    80002f08:	89be                	mv	s3,a5
    80002f0a:	00161793          	slli	a5,a2,0x1
    80002f0e:	f456                	sd	s5,40(sp)
    80002f10:	00e78ab3          	add	s5,a5,a4
    80002f14:	97ce                	add	a5,a5,s3
    80002f16:	02fa8ab3          	mul	s5,s5,a5
    80002f1a:	e466                	sd	s9,8(sp)
    80002f1c:	e8a2                	sd	s0,80(sp)
    80002f1e:	e4a6                	sd	s1,72(sp)
    80002f20:	e0ca                	sd	s2,64(sp)
    80002f22:	f852                	sd	s4,48(sp)
    80002f24:	f05a                	sd	s6,32(sp)
    80002f26:	ec5e                	sd	s7,24(sp)
    80002f28:	e862                	sd	s8,16(sp)
    80002f2a:	ec86                	sd	ra,88(sp)
    80002f2c:	03370cb3          	mul	s9,a4,s3
    80002f30:	8a3a                	mv	s4,a4
    80002f32:	8bb6                	mv	s7,a3
    80002f34:	8b32                	mv	s6,a2
    80002f36:	8c42                	mv	s8,a6
    80002f38:	84aa                	mv	s1,a0
    80002f3a:	842e                	mv	s0,a1
    80002f3c:	4901                	li	s2,0
    80002f3e:	0a86                	slli	s5,s5,0x1
    80002f40:	0c86                	slli	s9,s9,0x1
    80002f42:	85a2                	mv	a1,s0
    80002f44:	8526                	mv	a0,s1
    80002f46:	87ce                	mv	a5,s3
    80002f48:	8752                	mv	a4,s4
    80002f4a:	86de                	mv	a3,s7
    80002f4c:	865a                	mv	a2,s6
    80002f4e:	0905                	addi	s2,s2,1
    80002f50:	ea1ff0ef          	jal	80002df0 <_Z9padding2dPsPKsmsmm>
    80002f54:	94d6                	add	s1,s1,s5
    80002f56:	9466                	add	s0,s0,s9
    80002f58:	ff2c15e3          	bne	s8,s2,80002f42 <_Z9padding2dPsPKsmsmmm+0x42>
    80002f5c:	60e6                	ld	ra,88(sp)
    80002f5e:	6446                	ld	s0,80(sp)
    80002f60:	64a6                	ld	s1,72(sp)
    80002f62:	6906                	ld	s2,64(sp)
    80002f64:	79e2                	ld	s3,56(sp)
    80002f66:	7a42                	ld	s4,48(sp)
    80002f68:	7aa2                	ld	s5,40(sp)
    80002f6a:	7b02                	ld	s6,32(sp)
    80002f6c:	6be2                	ld	s7,24(sp)
    80002f6e:	6c42                	ld	s8,16(sp)
    80002f70:	6ca2                	ld	s9,8(sp)
    80002f72:	6125                	addi	sp,sp,96
    80002f74:	8082                	ret
    80002f76:	8082                	ret

0000000080002f78 <_Z9padding2dPsPKsmsmmmm>:
    80002f78:	0c088163          	beqz	a7,8000303a <_Z9padding2dPsPKsmsmmmm+0xc2>
    80002f7c:	0a080f63          	beqz	a6,8000303a <_Z9padding2dPsPKsmsmmmm+0xc2>
    80002f80:	7135                	addi	sp,sp,-160
    80002f82:	e526                	sd	s1,136(sp)
    80002f84:	e14a                	sd	s2,128(sp)
    80002f86:	84be                	mv	s1,a5
    80002f88:	893a                	mv	s2,a4
    80002f8a:	00161713          	slli	a4,a2,0x1
    80002f8e:	012707b3          	add	a5,a4,s2
    80002f92:	9726                	add	a4,a4,s1
    80002f94:	02e787b3          	mul	a5,a5,a4
    80002f98:	f0da                	sd	s6,96(sp)
    80002f9a:	e922                	sd	s0,144(sp)
    80002f9c:	fcce                	sd	s3,120(sp)
    80002f9e:	f8d2                	sd	s4,112(sp)
    80002fa0:	f4d6                	sd	s5,104(sp)
    80002fa2:	e8e2                	sd	s8,80(sp)
    80002fa4:	e4e6                	sd	s9,72(sp)
    80002fa6:	ed06                	sd	ra,152(sp)
    80002fa8:	ecde                	sd	s7,88(sp)
    80002faa:	02990733          	mul	a4,s2,s1
    80002fae:	00179b13          	slli	s6,a5,0x1
    80002fb2:	e0ea                	sd	s10,64(sp)
    80002fb4:	fc6e                	sd	s11,56(sp)
    80002fb6:	8442                	mv	s0,a6
    80002fb8:	8a36                	mv	s4,a3
    80002fba:	89b2                	mv	s3,a2
    80002fbc:	f42e                	sd	a1,40(sp)
    80002fbe:	f02a                	sd	a0,32(sp)
    80002fc0:	ec46                	sd	a7,24(sp)
    80002fc2:	030787b3          	mul	a5,a5,a6
    80002fc6:	4c81                	li	s9,0
    80002fc8:	4c01                	li	s8,0
    80002fca:	e002                	sd	zero,0(sp)
    80002fcc:	00171a93          	slli	s5,a4,0x1
    80002fd0:	e43e                	sd	a5,8(sp)
    80002fd2:	030707b3          	mul	a5,a4,a6
    80002fd6:	e83e                	sd	a5,16(sp)
    80002fd8:	7782                	ld	a5,32(sp)
    80002fda:	001c1513          	slli	a0,s8,0x1
    80002fde:	001c9593          	slli	a1,s9,0x1
    80002fe2:	00a78bb3          	add	s7,a5,a0
    80002fe6:	77a2                	ld	a5,40(sp)
    80002fe8:	4d01                	li	s10,0
    80002fea:	00b78db3          	add	s11,a5,a1
    80002fee:	85ee                	mv	a1,s11
    80002ff0:	855e                	mv	a0,s7
    80002ff2:	87a6                	mv	a5,s1
    80002ff4:	874a                	mv	a4,s2
    80002ff6:	86d2                	mv	a3,s4
    80002ff8:	864e                	mv	a2,s3
    80002ffa:	0d05                	addi	s10,s10,1
    80002ffc:	df5ff0ef          	jal	80002df0 <_Z9padding2dPsPKsmsmm>
    80003000:	9bda                	add	s7,s7,s6
    80003002:	9dd6                	add	s11,s11,s5
    80003004:	ffa415e3          	bne	s0,s10,80002fee <_Z9padding2dPsPKsmsmmmm+0x76>
    80003008:	6722                	ld	a4,8(sp)
    8000300a:	6782                	ld	a5,0(sp)
    8000300c:	9c3a                	add	s8,s8,a4
    8000300e:	6742                	ld	a4,16(sp)
    80003010:	0785                	addi	a5,a5,1
    80003012:	e03e                	sd	a5,0(sp)
    80003014:	9cba                	add	s9,s9,a4
    80003016:	6762                	ld	a4,24(sp)
    80003018:	fce790e3          	bne	a5,a4,80002fd8 <_Z9padding2dPsPKsmsmmmm+0x60>
    8000301c:	60ea                	ld	ra,152(sp)
    8000301e:	644a                	ld	s0,144(sp)
    80003020:	64aa                	ld	s1,136(sp)
    80003022:	690a                	ld	s2,128(sp)
    80003024:	79e6                	ld	s3,120(sp)
    80003026:	7a46                	ld	s4,112(sp)
    80003028:	7aa6                	ld	s5,104(sp)
    8000302a:	7b06                	ld	s6,96(sp)
    8000302c:	6be6                	ld	s7,88(sp)
    8000302e:	6c46                	ld	s8,80(sp)
    80003030:	6ca6                	ld	s9,72(sp)
    80003032:	6d06                	ld	s10,64(sp)
    80003034:	7de2                	ld	s11,56(sp)
    80003036:	610d                	addi	sp,sp,160
    80003038:	8082                	ret
    8000303a:	8082                	ret

000000008000303c <_Z15pooling2d_shapePmS_S_mmmmmmm>:
    8000303c:	6e22                	ld	t3,8(sp)
    8000303e:	6302                	ld	t1,0(sp)
    80003040:	000e1363          	bnez	t3,80003046 <_Z15pooling2d_shapePmS_S_mmmmmmm+0xa>
    80003044:	8e46                	mv	t3,a7
    80003046:	0306                	slli	t1,t1,0x1
    80003048:	969a                	add	a3,a3,t1
    8000304a:	411686b3          	sub	a3,a3,a7
    8000304e:	971a                	add	a4,a4,t1
    80003050:	03c6d6b3          	divu	a3,a3,t3
    80003054:	41170733          	sub	a4,a4,a7
    80003058:	03c75733          	divu	a4,a4,t3
    8000305c:	0685                	addi	a3,a3,1
    8000305e:	e194                	sd	a3,0(a1)
    80003060:	0705                	addi	a4,a4,1
    80003062:	e218                	sd	a4,0(a2)
    80003064:	6194                	ld	a3,0(a1)
    80003066:	02d80833          	mul	a6,a6,a3
    8000306a:	02f80833          	mul	a6,a6,a5
    8000306e:	02e80833          	mul	a6,a6,a4
    80003072:	01053023          	sd	a6,0(a0)
    80003076:	8082                	ret

0000000080003078 <_Z9nn_conv2dPsPKsS1_mmmmmmmm>:
    80003078:	7109                	addi	sp,sp,-384
    8000307a:	faa2                	sd	s0,368(sp)
    8000307c:	f6a6                	sd	s1,360(sp)
    8000307e:	0300                	addi	s0,sp,384
    80003080:	e6d6                	sd	s5,328(sp)
    80003082:	fa62                	sd	s8,304(sp)
    80003084:	fe86                	sd	ra,376(sp)
    80003086:	f2ca                	sd	s2,352(sp)
    80003088:	eece                	sd	s3,344(sp)
    8000308a:	ead2                	sd	s4,336(sp)
    8000308c:	e2da                	sd	s6,320(sp)
    8000308e:	fe5e                	sd	s7,312(sp)
    80003090:	f666                	sd	s9,296(sp)
    80003092:	f26a                	sd	s10,288(sp)
    80003094:	ee6e                	sd	s11,280(sp)
    80003096:	00843c03          	ld	s8,8(s0)
    8000309a:	f2a43c23          	sd	a0,-200(s0)
    8000309e:	eab43423          	sd	a1,-344(s0)
    800030a2:	f0d43c23          	sd	a3,-232(s0)
    800030a6:	f1143823          	sd	a7,-240(s0)
    800030aa:	f3043023          	sd	a6,-224(s0)
    800030ae:	00043a83          	ld	s5,0(s0)
    800030b2:	6804                	ld	s1,16(s0)
    800030b4:	2a0c0c63          	beqz	s8,8000336c <_Z9nn_conv2dPsPKsS1_mmmmmmmm+0x2f4>
    800030b8:	f3843683          	ld	a3,-200(s0)
    800030bc:	2c068763          	beqz	a3,8000338a <_Z9nn_conv2dPsPKsS1_mmmmmmmm+0x312>
    800030c0:	f1843b03          	ld	s6,-232(s0)
    800030c4:	8a32                	mv	s4,a2
    800030c6:	86a6                	mv	a3,s1
    800030c8:	88da                	mv	a7,s6
    800030ca:	f8840613          	addi	a2,s0,-120
    800030ce:	f8040593          	addi	a1,s0,-128
    800030d2:	f7840513          	addi	a0,s0,-136
    800030d6:	89be                	mv	s3,a5
    800030d8:	893a                	mv	s2,a4
    800030da:	cf9ff0ef          	jal	80002dd2 <_Z15padding2d_shapePmS_S_mmmmm>
    800030de:	f7843783          	ld	a5,-136(s0)
    800030e2:	f2043c83          	ld	s9,-224(s0)
    800030e6:	85d2                	mv	a1,s4
    800030e8:	0786                	slli	a5,a5,0x1
    800030ea:	07bd                	addi	a5,a5,15
    800030ec:	9bc1                	andi	a5,a5,-16
    800030ee:	40f10133          	sub	sp,sp,a5
    800030f2:	88da                	mv	a7,s6
    800030f4:	850a                	mv	a0,sp
    800030f6:	8866                	mv	a6,s9
    800030f8:	87ce                	mv	a5,s3
    800030fa:	874a                	mv	a4,s2
    800030fc:	8626                	mv	a2,s1
    800030fe:	4681                	li	a3,0
    80003100:	f6243023          	sd	sp,-160(s0)
    80003104:	e75ff0ef          	jal	80002f78 <_Z9padding2dPsPKsmsmmmm>
    80003108:	100b0363          	beqz	s6,8000320e <_Z9nn_conv2dPsPKsS1_mmmmmmmm+0x196>
    8000310c:	f1043703          	ld	a4,-240(s0)
    80003110:	cf7d                	beqz	a4,8000320e <_Z9nn_conv2dPsPKsS1_mmmmmmmm+0x196>
    80003112:	00149793          	slli	a5,s1,0x1
    80003116:	41598633          	sub	a2,s3,s5
    8000311a:	415904b3          	sub	s1,s2,s5
    8000311e:	94be                	add	s1,s1,a5
    80003120:	963e                	add	a2,a2,a5
    80003122:	0384d4b3          	divu	s1,s1,s8
    80003126:	85e2                	mv	a1,s8
    80003128:	00199b93          	slli	s7,s3,0x1
    8000312c:	001a9b13          	slli	s6,s5,0x1
    80003130:	4d81                	li	s11,0
    80003132:	03865633          	divu	a2,a2,s8
    80003136:	00148e13          	addi	t3,s1,1
    8000313a:	00160513          	addi	a0,a2,1
    8000313e:	02ae06b3          	mul	a3,t3,a0
    80003142:	8a32                	mv	s4,a2
    80003144:	033c0833          	mul	a6,s8,s3
    80003148:	4c01                	li	s8,0
    8000314a:	033908b3          	mul	a7,s2,s3
    8000314e:	f3043423          	sd	a6,-216(s0)
    80003152:	8826                	mv	a6,s1
    80003154:	84b6                	mv	s1,a3
    80003156:	035a8333          	mul	t1,s5,s5
    8000315a:	02e68933          	mul	s2,a3,a4
    8000315e:	03930eb3          	mul	t4,t1,s9
    80003162:	031c8d33          	mul	s10,s9,a7
    80003166:	4c81                	li	s9,0
    80003168:	f2043603          	ld	a2,-224(s0)
    8000316c:	876e                	mv	a4,s11
    8000316e:	ca49                	beqz	a2,80003200 <_Z9nn_conv2dPsPKsS1_mmmmmmmm+0x188>
    80003170:	e9a43c23          	sd	s10,-360(s0)
    80003174:	eb843023          	sd	s8,-352(s0)
    80003178:	8d52                	mv	s10,s4
    8000317a:	4981                	li	s3,0
    8000317c:	4a01                	li	s4,0
    8000317e:	879a                	mv	a5,t1
    80003180:	e9243823          	sd	s2,-368(s0)
    80003184:	e9b43423          	sd	s11,-376(s0)
    80003188:	f1343423          	sd	s3,-248(s0)
    8000318c:	8c56                	mv	s8,s5
    8000318e:	8de6                	mv	s11,s9
    80003190:	f1443023          	sd	s4,-256(s0)
    80003194:	efd43c23          	sd	t4,-264(s0)
    80003198:	ee943823          	sd	s1,-272(s0)
    8000319c:	ef943423          	sd	s9,-280(s0)
    800031a0:	4981                	li	s3,0
    800031a2:	8652                	mv	a2,s4
    800031a4:	8aae                	mv	s5,a1
    800031a6:	180e0063          	beqz	t3,80003326 <_Z9nn_conv2dPsPKsS1_mmmmmmmm+0x2ae>
    800031aa:	4481                	li	s1,0
    800031ac:	e151                	bnez	a0,80003230 <_Z9nn_conv2dPsPKsS1_mmmmmmmm+0x1b8>
    800031ae:	00980563          	beq	a6,s1,800031b8 <_Z9nn_conv2dPsPKsS1_mmmmmmmm+0x140>
    800031b2:	0485                	addi	s1,s1,1
    800031b4:	fe981fe3          	bne	a6,s1,800031b2 <_Z9nn_conv2dPsPKsS1_mmmmmmmm+0x13a>
    800031b8:	f2043683          	ld	a3,-224(s0)
    800031bc:	0985                	addi	s3,s3,1
    800031be:	9dc6                	add	s11,s11,a7
    800031c0:	963e                	add	a2,a2,a5
    800031c2:	ff3694e3          	bne	a3,s3,800031aa <_Z9nn_conv2dPsPKsS1_mmmmmmmm+0x132>
    800031c6:	f0843983          	ld	s3,-248(s0)
    800031ca:	f0043a03          	ld	s4,-256(s0)
    800031ce:	ef843e83          	ld	t4,-264(s0)
    800031d2:	ef043483          	ld	s1,-272(s0)
    800031d6:	f1043683          	ld	a3,-240(s0)
    800031da:	0985                	addi	s3,s3,1
    800031dc:	85d6                	mv	a1,s5
    800031de:	ee843c83          	ld	s9,-280(s0)
    800031e2:	8ae2                	mv	s5,s8
    800031e4:	9726                	add	a4,a4,s1
    800031e6:	9a76                	add	s4,s4,t4
    800031e8:	fb3690e3          	bne	a3,s3,80003188 <_Z9nn_conv2dPsPKsS1_mmmmmmmm+0x110>
    800031ec:	8a6a                	mv	s4,s10
    800031ee:	ea043c03          	ld	s8,-352(s0)
    800031f2:	e9843d03          	ld	s10,-360(s0)
    800031f6:	e9043903          	ld	s2,-368(s0)
    800031fa:	e8843d83          	ld	s11,-376(s0)
    800031fe:	833e                	mv	t1,a5
    80003200:	f1843783          	ld	a5,-232(s0)
    80003204:	0c05                	addi	s8,s8,1
    80003206:	9cea                	add	s9,s9,s10
    80003208:	9dca                	add	s11,s11,s2
    8000320a:	f5879fe3          	bne	a5,s8,80003168 <_Z9nn_conv2dPsPKsS1_mmmmmmmm+0xf0>
    8000320e:	e8040113          	addi	sp,s0,-384
    80003212:	70f6                	ld	ra,376(sp)
    80003214:	7456                	ld	s0,368(sp)
    80003216:	74b6                	ld	s1,360(sp)
    80003218:	7916                	ld	s2,352(sp)
    8000321a:	69f6                	ld	s3,344(sp)
    8000321c:	6a56                	ld	s4,336(sp)
    8000321e:	6ab6                	ld	s5,328(sp)
    80003220:	6b16                	ld	s6,320(sp)
    80003222:	7bf2                	ld	s7,312(sp)
    80003224:	7c52                	ld	s8,304(sp)
    80003226:	7cb2                	ld	s9,296(sp)
    80003228:	7d12                	ld	s10,288(sp)
    8000322a:	6df2                	ld	s11,280(sp)
    8000322c:	6119                	addi	sp,sp,384
    8000322e:	8082                	ret
    80003230:	ea843683          	ld	a3,-344(s0)
    80003234:	00161c93          	slli	s9,a2,0x1
    80003238:	eee43023          	sd	a4,-288(s0)
    8000323c:	96e6                	add	a3,a3,s9
    8000323e:	f6d43423          	sd	a3,-152(s0)
    80003242:	ecf43c23          	sd	a5,-296(s0)
    80003246:	86a6                	mv	a3,s1
    80003248:	f5043023          	sd	a6,-192(s0)
    8000324c:	edc43823          	sd	t3,-304(s0)
    80003250:	f2a43823          	sd	a0,-208(s0)
    80003254:	ed143423          	sd	a7,-312(s0)
    80003258:	ed343023          	sd	s3,-320(s0)
    8000325c:	ebb43c23          	sd	s11,-328(s0)
    80003260:	eac43823          	sd	a2,-336(s0)
    80003264:	84e2                	mv	s1,s8
    80003266:	87ba                	mv	a5,a4
    80003268:	876e                	mv	a4,s11
    8000326a:	c4c9                	beqz	s1,800032f4 <_Z9nn_conv2dPsPKsS1_mmmmmmmm+0x27c>
    8000326c:	f3843603          	ld	a2,-200(s0)
    80003270:	00179813          	slli	a6,a5,0x1
    80003274:	8ca6                	mv	s9,s1
    80003276:	01060933          	add	s2,a2,a6
    8000327a:	8a3a                	mv	s4,a4
    8000327c:	f4f43c23          	sd	a5,-168(s0)
    80003280:	f4d43823          	sd	a3,-176(s0)
    80003284:	f4e43423          	sd	a4,-184(s0)
    80003288:	4481                	li	s1,0
    8000328a:	f6043783          	ld	a5,-160(s0)
    8000328e:	f6843983          	ld	s3,-152(s0)
    80003292:	001a1613          	slli	a2,s4,0x1
    80003296:	00c78c33          	add	s8,a5,a2
    8000329a:	4d81                	li	s11,0
    8000329c:	8662                	mv	a2,s8
    8000329e:	85ce                	mv	a1,s3
    800032a0:	86e6                	mv	a3,s9
    800032a2:	f7640513          	addi	a0,s0,-138
    800032a6:	e8cff0ef          	jal	80002932 <_Z13tiled_dotprodPsPKsS1_m>
    800032aa:	00095783          	lhu	a5,0(s2)
    800032ae:	f7645703          	lhu	a4,-138(s0)
    800032b2:	0d85                	addi	s11,s11,1
    800032b4:	99da                	add	s3,s3,s6
    800032b6:	9fb9                	addw	a5,a5,a4
    800032b8:	00f91023          	sh	a5,0(s2)
    800032bc:	9c5e                	add	s8,s8,s7
    800032be:	fdbc9fe3          	bne	s9,s11,8000329c <_Z9nn_conv2dPsPKsS1_mmmmmmmm+0x224>
    800032c2:	9a56                	add	s4,s4,s5
    800032c4:	0909                	addi	s2,s2,2
    800032c6:	009d0463          	beq	s10,s1,800032ce <_Z9nn_conv2dPsPKsS1_mmmmmmmm+0x256>
    800032ca:	0485                	addi	s1,s1,1
    800032cc:	bf7d                	j	8000328a <_Z9nn_conv2dPsPKsS1_mmmmmmmm+0x212>
    800032ce:	f5043683          	ld	a3,-176(s0)
    800032d2:	f4043603          	ld	a2,-192(s0)
    800032d6:	f5843783          	ld	a5,-168(s0)
    800032da:	f4843703          	ld	a4,-184(s0)
    800032de:	84e6                	mv	s1,s9
    800032e0:	04d60b63          	beq	a2,a3,80003336 <_Z9nn_conv2dPsPKsS1_mmmmmmmm+0x2be>
    800032e4:	f3043603          	ld	a2,-208(s0)
    800032e8:	0685                	addi	a3,a3,1
    800032ea:	97b2                	add	a5,a5,a2
    800032ec:	f2843603          	ld	a2,-216(s0)
    800032f0:	9732                	add	a4,a4,a2
    800032f2:	fcad                	bnez	s1,8000326c <_Z9nn_conv2dPsPKsS1_mmmmmmmm+0x1f4>
    800032f4:	f4043803          	ld	a6,-192(s0)
    800032f8:	8c26                	mv	s8,s1
    800032fa:	84b6                	mv	s1,a3
    800032fc:	ee043703          	ld	a4,-288(s0)
    80003300:	ed843783          	ld	a5,-296(s0)
    80003304:	ed043e03          	ld	t3,-304(s0)
    80003308:	f3043503          	ld	a0,-208(s0)
    8000330c:	ec843883          	ld	a7,-312(s0)
    80003310:	ec043983          	ld	s3,-320(s0)
    80003314:	eb843d83          	ld	s11,-328(s0)
    80003318:	eb043603          	ld	a2,-336(s0)
    8000331c:	00980563          	beq	a6,s1,80003326 <_Z9nn_conv2dPsPKsS1_mmmmmmmm+0x2ae>
    80003320:	0485                	addi	s1,s1,1
    80003322:	fe981fe3          	bne	a6,s1,80003320 <_Z9nn_conv2dPsPKsS1_mmmmmmmm+0x2a8>
    80003326:	f2043683          	ld	a3,-224(s0)
    8000332a:	0985                	addi	s3,s3,1
    8000332c:	9dc6                	add	s11,s11,a7
    8000332e:	963e                	add	a2,a2,a5
    80003330:	e7369be3          	bne	a3,s3,800031a6 <_Z9nn_conv2dPsPKsS1_mmmmmmmm+0x12e>
    80003334:	bd49                	j	800031c6 <_Z9nn_conv2dPsPKsS1_mmmmmmmm+0x14e>
    80003336:	ec043983          	ld	s3,-320(s0)
    8000333a:	ed843783          	ld	a5,-296(s0)
    8000333e:	ec843883          	ld	a7,-312(s0)
    80003342:	eb843d83          	ld	s11,-328(s0)
    80003346:	eb043603          	ld	a2,-336(s0)
    8000334a:	f2043683          	ld	a3,-224(s0)
    8000334e:	0985                	addi	s3,s3,1
    80003350:	f4043803          	ld	a6,-192(s0)
    80003354:	ee043703          	ld	a4,-288(s0)
    80003358:	ed043e03          	ld	t3,-304(s0)
    8000335c:	f3043503          	ld	a0,-208(s0)
    80003360:	8c66                	mv	s8,s9
    80003362:	9dc6                	add	s11,s11,a7
    80003364:	963e                	add	a2,a2,a5
    80003366:	e53690e3          	bne	a3,s3,800031a6 <_Z9nn_conv2dPsPKsS1_mmmmmmmm+0x12e>
    8000336a:	bdb1                	j	800031c6 <_Z9nn_conv2dPsPKsS1_mmmmmmmm+0x14e>
    8000336c:	00015697          	auipc	a3,0x15
    80003370:	15468693          	addi	a3,a3,340 # 800184c0 <__tbss_end+0x16fa>
    80003374:	00015617          	auipc	a2,0x15
    80003378:	15c60613          	addi	a2,a2,348 # 800184d0 <__tbss_end+0x170a>
    8000337c:	45a9                	li	a1,10
    8000337e:	00015517          	auipc	a0,0x15
    80003382:	1ca50513          	addi	a0,a0,458 # 80018548 <__tbss_end+0x1782>
    80003386:	333100ef          	jal	80013eb8 <__assert_func>
    8000338a:	00015517          	auipc	a0,0x15
    8000338e:	1d650513          	addi	a0,a0,470 # 80018560 <__tbss_end+0x179a>
    80003392:	0b9110ef          	jal	80014c4a <puts>
    80003396:	00015517          	auipc	a0,0x15
    8000339a:	21a50513          	addi	a0,a0,538 # 800185b0 <__tbss_end+0x17ea>
    8000339e:	0ad110ef          	jal	80014c4a <puts>
    800033a2:	00015517          	auipc	a0,0x15
    800033a6:	24e50513          	addi	a0,a0,590 # 800185f0 <__tbss_end+0x182a>
    800033aa:	0a1110ef          	jal	80014c4a <puts>
    800033ae:	557d                	li	a0,-1
    800033b0:	34f100ef          	jal	80013efe <exit>

00000000800033b4 <_Z9nn_linearPsPKsS1_mmm>:
    800033b4:	883a                	mv	a6,a4
    800033b6:	c509                	beqz	a0,800033c0 <_Z9nn_linearPsPKsS1_mmm+0xc>
    800033b8:	8736                	mv	a4,a3
    800033ba:	86c2                	mv	a3,a6
    800033bc:	e88ff06f          	j	80002a44 <_Z22tiled_matmul_transposePsPKsS1_mmm>
    800033c0:	1101                	addi	sp,sp,-32
    800033c2:	00015517          	auipc	a0,0x15
    800033c6:	26e50513          	addi	a0,a0,622 # 80018630 <__tbss_end+0x186a>
    800033ca:	ec06                	sd	ra,24(sp)
    800033cc:	e43e                	sd	a5,8(sp)
    800033ce:	e03a                	sd	a4,0(sp)
    800033d0:	07b110ef          	jal	80014c4a <puts>
    800033d4:	6602                	ld	a2,0(sp)
    800033d6:	65a2                	ld	a1,8(sp)
    800033d8:	00015517          	auipc	a0,0x15
    800033dc:	2a850513          	addi	a0,a0,680 # 80018680 <__tbss_end+0x18ba>
    800033e0:	724110ef          	jal	80014b04 <iprintf>
    800033e4:	557d                	li	a0,-1
    800033e6:	319100ef          	jal	80013efe <exit>

00000000800033ea <_Z9nn_linearPsPKsS1_S1_mmm>:
    800033ea:	7179                	addi	sp,sp,-48
    800033ec:	ec26                	sd	s1,24(sp)
    800033ee:	f406                	sd	ra,40(sp)
    800033f0:	f022                	sd	s0,32(sp)
    800033f2:	84b6                	mv	s1,a3
    800033f4:	86be                	mv	a3,a5
    800033f6:	c115                	beqz	a0,8000341a <_Z9nn_linearPsPKsS1_S1_mmm+0x30>
    800033f8:	87c2                	mv	a5,a6
    800033fa:	842a                	mv	s0,a0
    800033fc:	e036                	sd	a3,0(sp)
    800033fe:	e442                	sd	a6,8(sp)
    80003400:	e44ff0ef          	jal	80002a44 <_Z22tiled_matmul_transposePsPKsS1_mmm>
    80003404:	85a2                	mv	a1,s0
    80003406:	8522                	mv	a0,s0
    80003408:	7402                	ld	s0,32(sp)
    8000340a:	6702                	ld	a4,0(sp)
    8000340c:	66a2                	ld	a3,8(sp)
    8000340e:	70a2                	ld	ra,40(sp)
    80003410:	8626                	mv	a2,s1
    80003412:	64e2                	ld	s1,24(sp)
    80003414:	6145                	addi	sp,sp,48
    80003416:	c02fe06f          	j	80001818 <_Z23tiled_matrix_vector_addPsPKsS1_mm>
    8000341a:	00015517          	auipc	a0,0x15
    8000341e:	21650513          	addi	a0,a0,534 # 80018630 <__tbss_end+0x186a>
    80003422:	e442                	sd	a6,8(sp)
    80003424:	e03e                	sd	a5,0(sp)
    80003426:	025110ef          	jal	80014c4a <puts>
    8000342a:	6602                	ld	a2,0(sp)
    8000342c:	65a2                	ld	a1,8(sp)
    8000342e:	00015517          	auipc	a0,0x15
