
build-baremetal/text_gen_transformer.elf:     file format elf64-littleriscv


Disassembly of section .text:

0000000080000000 <_start>:
    80000000:	4081                	li	ra,0
    80000002:	4101                	li	sp,0
    80000004:	4181                	li	gp,0
    80000006:	4201                	li	tp,0
    80000008:	4281                	li	t0,0
    8000000a:	4301                	li	t1,0
    8000000c:	4381                	li	t2,0
    8000000e:	4401                	li	s0,0
    80000010:	4481                	li	s1,0
    80000012:	4501                	li	a0,0
    80000014:	4581                	li	a1,0
    80000016:	4601                	li	a2,0
    80000018:	4681                	li	a3,0
    8000001a:	4701                	li	a4,0
    8000001c:	4781                	li	a5,0
    8000001e:	4801                	li	a6,0
    80000020:	4881                	li	a7,0
    80000022:	4901                	li	s2,0
    80000024:	4981                	li	s3,0
    80000026:	4a01                	li	s4,0
    80000028:	4a81                	li	s5,0
    8000002a:	4b01                	li	s6,0
    8000002c:	4b81                	li	s7,0
    8000002e:	4c01                	li	s8,0
    80000030:	4c81                	li	s9,0
    80000032:	4d01                	li	s10,0
    80000034:	4d81                	li	s11,0
    80000036:	4e01                	li	t3,0
    80000038:	4e81                	li	t4,0
    8000003a:	4f01                	li	t5,0
    8000003c:	4f81                	li	t6,0
    8000003e:	62f9                	lui	t0,0x1e
    80000040:	3002a073          	csrs	mstatus,t0
    80000044:	00000297          	auipc	t0,0x0
    80000048:	09028293          	addi	t0,t0,144 # 800000d4 <_start+0xd4>
    8000004c:	30529073          	csrw	mtvec,t0
    80000050:	00301073          	fscsr	zero
    80000054:	f0000053          	fmv.w.x	ft0,zero
    80000058:	f00000d3          	fmv.w.x	ft1,zero
    8000005c:	f0000153          	fmv.w.x	ft2,zero
    80000060:	f00001d3          	fmv.w.x	ft3,zero
    80000064:	f0000253          	fmv.w.x	ft4,zero
    80000068:	f00002d3          	fmv.w.x	ft5,zero
    8000006c:	f0000353          	fmv.w.x	ft6,zero
    80000070:	f00003d3          	fmv.w.x	ft7,zero
    80000074:	f0000453          	fmv.w.x	fs0,zero
    80000078:	f00004d3          	fmv.w.x	fs1,zero
    8000007c:	f0000553          	fmv.w.x	fa0,zero
    80000080:	f00005d3          	fmv.w.x	fa1,zero
    80000084:	f0000653          	fmv.w.x	fa2,zero
    80000088:	f00006d3          	fmv.w.x	fa3,zero
    8000008c:	f0000753          	fmv.w.x	fa4,zero
    80000090:	f00007d3          	fmv.w.x	fa5,zero
    80000094:	f0000853          	fmv.w.x	fa6,zero
    80000098:	f00008d3          	fmv.w.x	fa7,zero
    8000009c:	f0000953          	fmv.w.x	fs2,zero
    800000a0:	f00009d3          	fmv.w.x	fs3,zero
    800000a4:	f0000a53          	fmv.w.x	fs4,zero
    800000a8:	f0000ad3          	fmv.w.x	fs5,zero
    800000ac:	f0000b53          	fmv.w.x	fs6,zero
    800000b0:	f0000bd3          	fmv.w.x	fs7,zero
    800000b4:	f0000c53          	fmv.w.x	fs8,zero
    800000b8:	f0000cd3          	fmv.w.x	fs9,zero
    800000bc:	f0000d53          	fmv.w.x	fs10,zero
    800000c0:	f0000dd3          	fmv.w.x	fs11,zero
    800000c4:	f0000e53          	fmv.w.x	ft8,zero
    800000c8:	f0000ed3          	fmv.w.x	ft9,zero
    800000cc:	f0000f53          	fmv.w.x	ft10,zero
    800000d0:	f0000fd3          	fmv.w.x	ft11,zero
    800000d4:	00025197          	auipc	gp,0x25
    800000d8:	a2418193          	addi	gp,gp,-1500 # 80024af8 <__global_pointer$>
    800000dc:	f1402473          	csrr	s0,mhartid
    800000e0:	00f00293          	li	t0,15
    800000e4:	00089217          	auipc	tp,0x89
    800000e8:	f1c20213          	addi	tp,tp,-228 # 80089000 <__heap_end>
    800000ec:	005412b3          	sll	t0,s0,t0
    800000f0:	9216                	add	tp,tp,t0
    800000f2:	62a1                	lui	t0,0x8
    800000f4:	00028293          	mv	t0,t0
    800000f8:	00520133          	add	sp,tp,t0
    800000fc:	00000297          	auipc	t0,0x0
    80000100:	04828293          	addi	t0,t0,72 # 80000144 <trap_entry>
    80000104:	30529073          	csrw	mtvec,t0
    80000108:	6ce160ef          	jal	800167d6 <__init_tls>
    8000010c:	00000293          	li	t0,0
    80000110:	00540463          	beq	s0,t0,80000118 <_start+0x118>
    80000114:	0fe0006f          	j	80000212 <_start_secondary>
    80000118:	9f818293          	addi	t0,gp,-1544 # 800244f0 <_ZZN9__gnu_cxx27__verbose_terminate_handlerEvE11terminating>
    8000011c:	00069317          	auipc	t1,0x69
    80000120:	93430313          	addi	t1,t1,-1740 # 80068a50 <_end>
    80000124:	0062f763          	bgeu	t0,t1,80000132 <_start+0x132>
    80000128:	0002b023          	sd	zero,0(t0)
    8000012c:	02a1                	addi	t0,t0,8
    8000012e:	fe62ede3          	bltu	t0,t1,80000128 <_start+0x128>
    80000132:	00016517          	auipc	a0,0x16
    80000136:	78c50513          	addi	a0,a0,1932 # 800168be <__libc_fini_array>
    8000013a:	71c160ef          	jal	80016856 <atexit>
    8000013e:	722160ef          	jal	80016860 <__libc_init_array>
    80000142:	a075                	j	800001ee <_start_main>

0000000080000144 <trap_entry>:
    80000144:	34011073          	csrw	mscratch,sp
    80000148:	7111                	addi	sp,sp,-256
    8000014a:	e406                	sd	ra,8(sp)
    8000014c:	340020f3          	csrr	ra,mscratch
    80000150:	e806                	sd	ra,16(sp)
    80000152:	ec0e                	sd	gp,24(sp)
    80000154:	f012                	sd	tp,32(sp)
    80000156:	f416                	sd	t0,40(sp)
    80000158:	f81a                	sd	t1,48(sp)
    8000015a:	fc1e                	sd	t2,56(sp)
    8000015c:	e0a2                	sd	s0,64(sp)
    8000015e:	e4a6                	sd	s1,72(sp)
    80000160:	e8aa                	sd	a0,80(sp)
    80000162:	ecae                	sd	a1,88(sp)
    80000164:	f0b2                	sd	a2,96(sp)
    80000166:	f4b6                	sd	a3,104(sp)
    80000168:	f8ba                	sd	a4,112(sp)
    8000016a:	fcbe                	sd	a5,120(sp)
    8000016c:	e142                	sd	a6,128(sp)
    8000016e:	e546                	sd	a7,136(sp)
    80000170:	e94a                	sd	s2,144(sp)
    80000172:	ed4e                	sd	s3,152(sp)
    80000174:	f152                	sd	s4,160(sp)
    80000176:	f556                	sd	s5,168(sp)
    80000178:	f95a                	sd	s6,176(sp)
    8000017a:	fd5e                	sd	s7,184(sp)
    8000017c:	e1e2                	sd	s8,192(sp)
    8000017e:	e5e6                	sd	s9,200(sp)
    80000180:	e9ea                	sd	s10,208(sp)
    80000182:	edee                	sd	s11,216(sp)
    80000184:	f1f2                	sd	t3,224(sp)
    80000186:	f5f6                	sd	t4,232(sp)
    80000188:	f9fa                	sd	t5,240(sp)
    8000018a:	fdfe                	sd	t6,248(sp)
    8000018c:	34102573          	csrr	a0,mepc
    80000190:	342025f3          	csrr	a1,mcause
    80000194:	34302673          	csrr	a2,mtval
    80000198:	868a                	mv	a3,sp
    8000019a:	626160ef          	jal	800167c0 <handle_trap>
    8000019e:	34151073          	csrw	mepc,a0
    800001a2:	6289                	lui	t0,0x2
    800001a4:	8002829b          	addiw	t0,t0,-2048 # 1800 <__stack_align+0x17f0>
    800001a8:	3002a073          	csrs	mstatus,t0
    800001ac:	60a2                	ld	ra,8(sp)
    800001ae:	61e2                	ld	gp,24(sp)
    800001b0:	7202                	ld	tp,32(sp)
    800001b2:	72a2                	ld	t0,40(sp)
    800001b4:	7342                	ld	t1,48(sp)
    800001b6:	73e2                	ld	t2,56(sp)
    800001b8:	6406                	ld	s0,64(sp)
    800001ba:	64a6                	ld	s1,72(sp)
    800001bc:	6546                	ld	a0,80(sp)
    800001be:	65e6                	ld	a1,88(sp)
    800001c0:	7606                	ld	a2,96(sp)
    800001c2:	76a6                	ld	a3,104(sp)
    800001c4:	7746                	ld	a4,112(sp)
    800001c6:	77e6                	ld	a5,120(sp)
    800001c8:	680a                	ld	a6,128(sp)
    800001ca:	68aa                	ld	a7,136(sp)
    800001cc:	694a                	ld	s2,144(sp)
    800001ce:	69ea                	ld	s3,152(sp)
    800001d0:	7a0a                	ld	s4,160(sp)
    800001d2:	7aaa                	ld	s5,168(sp)
    800001d4:	7b4a                	ld	s6,176(sp)
    800001d6:	7bea                	ld	s7,184(sp)
    800001d8:	6c0e                	ld	s8,192(sp)
    800001da:	6cae                	ld	s9,200(sp)
    800001dc:	6d4e                	ld	s10,208(sp)
    800001de:	6dee                	ld	s11,216(sp)
    800001e0:	7e0e                	ld	t3,224(sp)
    800001e2:	7eae                	ld	t4,232(sp)
    800001e4:	7f4e                	ld	t5,240(sp)
    800001e6:	7fee                	ld	t6,248(sp)
    800001e8:	6142                	ld	sp,16(sp)
    800001ea:	30200073          	mret

00000000800001ee <_start_main>:
    800001ee:	52fd                	li	t0,-1
    800001f0:	0110000f          	fence	w,w
    800001f4:	00068317          	auipc	t1,0x68
    800001f8:	72532e23          	sw	t0,1852(t1) # 80068930 <__boot_sync>
    800001fc:	4505                	li	a0,1
    800001fe:	0001d597          	auipc	a1,0x1d
    80000202:	b9a58593          	addi	a1,a1,-1126 # 8001cd98 <argv>
    80000206:	8481b603          	ld	a2,-1976(gp) # 80024340 <environ>
    8000020a:	5e4000ef          	jal	800007ee <main>
    8000020e:	15d1306f          	j	80013b6a <exit>

0000000080000212 <_start_secondary>:
    80000212:	00068317          	auipc	t1,0x68
    80000216:	71e32283          	lw	t0,1822(t1) # 80068930 <__boot_sync>
    8000021a:	fe028ee3          	beqz	t0,80000216 <_start_secondary+0x4>
    8000021e:	0220000f          	fence	r,r
    80000222:	4505                	li	a0,1
    80000224:	0001d597          	auipc	a1,0x1d
    80000228:	b7458593          	addi	a1,a1,-1164 # 8001cd98 <argv>
    8000022c:	8481b603          	ld	a2,-1976(gp) # 80024340 <environ>
    80000230:	5d6160ef          	jal	80016806 <__main>
    80000234:	1371306f          	j	80013b6a <exit>

0000000080000238 <__cxa_bad_cast>:
    80000238:	1141                	addi	sp,sp,-16
    8000023a:	4521                	li	a0,8
    8000023c:	e406                	sd	ra,8(sp)
    8000023e:	0ed050ef          	jal	80005b2a <__cxa_allocate_exception>
    80000242:	0001a797          	auipc	a5,0x1a
    80000246:	fd678793          	addi	a5,a5,-42 # 8001a218 <_ZTVSt8bad_cast+0x10>
    8000024a:	e11c                	sd	a5,0(a0)
    8000024c:	00005617          	auipc	a2,0x5
    80000250:	7ae60613          	addi	a2,a2,1966 # 800059fa <_ZNSt8bad_castD1Ev>
    80000254:	0001a597          	auipc	a1,0x1a
    80000258:	f9c58593          	addi	a1,a1,-100 # 8001a1f0 <_ZTISt8bad_cast>
    8000025c:	6d6050ef          	jal	80005932 <__cxa_throw>

0000000080000260 <__cxa_bad_typeid>:
    80000260:	1141                	addi	sp,sp,-16
    80000262:	4521                	li	a0,8
    80000264:	e406                	sd	ra,8(sp)
    80000266:	0c5050ef          	jal	80005b2a <__cxa_allocate_exception>
    8000026a:	0001a797          	auipc	a5,0x1a
    8000026e:	ffe78793          	addi	a5,a5,-2 # 8001a268 <_ZTVSt10bad_typeid+0x10>
    80000272:	e11c                	sd	a5,0(a0)
    80000274:	00005617          	auipc	a2,0x5
    80000278:	7b060613          	addi	a2,a2,1968 # 80005a24 <_ZNSt10bad_typeidD1Ev>
    8000027c:	0001a597          	auipc	a1,0x1a
    80000280:	fc458593          	addi	a1,a1,-60 # 8001a240 <_ZTISt10bad_typeid>
    80000284:	6ae050ef          	jal	80005932 <__cxa_throw>

0000000080000288 <__cxa_throw_bad_array_new_length>:
    80000288:	1141                	addi	sp,sp,-16
    8000028a:	4521                	li	a0,8
    8000028c:	e406                	sd	ra,8(sp)
    8000028e:	09d050ef          	jal	80005b2a <__cxa_allocate_exception>
    80000292:	0001a797          	auipc	a5,0x1a
    80000296:	f3678793          	addi	a5,a5,-202 # 8001a1c8 <_ZTVSt20bad_array_new_length+0x10>
    8000029a:	e11c                	sd	a5,0(a0)
    8000029c:	00005617          	auipc	a2,0x5
    800002a0:	73260613          	addi	a2,a2,1842 # 800059ce <_ZNSt20bad_array_new_lengthD1Ev>
    800002a4:	0001a597          	auipc	a1,0x1a
    800002a8:	efc58593          	addi	a1,a1,-260 # 8001a1a0 <_ZTISt20bad_array_new_length>
    800002ac:	686050ef          	jal	80005932 <__cxa_throw>

00000000800002b0 <_ZN9__gnu_cxx9__freeresEv>:
    800002b0:	00068517          	auipc	a0,0x68
    800002b4:	3a853503          	ld	a0,936(a0) # 80068658 <_ZN12_GLOBAL__N_1L14emergency_poolE+0x10>
    800002b8:	cd01                	beqz	a0,800002d0 <_ZN9__gnu_cxx9__freeresEv+0x20>
    800002ba:	1141                	addi	sp,sp,-16
    800002bc:	e406                	sd	ra,8(sp)
    800002be:	1a1130ef          	jal	80013c5e <free>
    800002c2:	60a2                	ld	ra,8(sp)
    800002c4:	00068797          	auipc	a5,0x68
    800002c8:	3807ba23          	sd	zero,916(a5) # 80068658 <_ZN12_GLOBAL__N_1L14emergency_poolE+0x10>
    800002cc:	0141                	addi	sp,sp,16
    800002ce:	8082                	ret
    800002d0:	8082                	ret

00000000800002d2 <_ZSt9terminatev>:
    800002d2:	1141                	addi	sp,sp,-16
    800002d4:	e406                	sd	ra,8(sp)
    800002d6:	1ac060ef          	jal	80006482 <_ZSt13get_terminatev>
    800002da:	182060ef          	jal	8000645c <_ZN10__cxxabiv111__terminateEPFvvE>

00000000800002de <_ZSt10unexpectedv>:
    800002de:	1141                	addi	sp,sp,-16
    800002e0:	e406                	sd	ra,8(sp)
    800002e2:	1ca060ef          	jal	800064ac <_ZSt14get_unexpectedv>
    800002e6:	1a8060ef          	jal	8000648e <_ZN10__cxxabiv112__unexpectedEPFvvE>

00000000800002ea <_ZSt21__throw_bad_exceptionv>:
    800002ea:	1141                	addi	sp,sp,-16
    800002ec:	4521                	li	a0,8
    800002ee:	e406                	sd	ra,8(sp)
    800002f0:	03b050ef          	jal	80005b2a <__cxa_allocate_exception>
    800002f4:	0001a797          	auipc	a5,0x1a
    800002f8:	07c78793          	addi	a5,a5,124 # 8001a370 <_ZTVSt13bad_exception+0x10>
    800002fc:	e11c                	sd	a5,0(a0)
    800002fe:	00006617          	auipc	a2,0x6
    80000302:	a4a60613          	addi	a2,a2,-1462 # 80005d48 <_ZNSt13bad_exceptionD1Ev>
    80000306:	0001a597          	auipc	a1,0x1a
    8000030a:	fb258593          	addi	a1,a1,-78 # 8001a2b8 <_ZTISt13bad_exception>
    8000030e:	624050ef          	jal	80005932 <__cxa_throw>

0000000080000312 <_ZSt17__throw_bad_allocv>:
    80000312:	1141                	addi	sp,sp,-16
    80000314:	4521                	li	a0,8
    80000316:	e406                	sd	ra,8(sp)
    80000318:	013050ef          	jal	80005b2a <__cxa_allocate_exception>
    8000031c:	0001a797          	auipc	a5,0x1a
    80000320:	22478793          	addi	a5,a5,548 # 8001a540 <_ZTVSt9bad_alloc+0x10>
    80000324:	e11c                	sd	a5,0(a0)
    80000326:	00006617          	auipc	a2,0x6
    8000032a:	5b660613          	addi	a2,a2,1462 # 800068dc <_ZNSt9bad_allocD1Ev>
    8000032e:	0001a597          	auipc	a1,0x1a
    80000332:	1ea58593          	addi	a1,a1,490 # 8001a518 <_ZTISt9bad_alloc>
    80000336:	5fc050ef          	jal	80005932 <__cxa_throw>

000000008000033a <_ZSt28__throw_bad_array_new_lengthv>:
    8000033a:	1141                	addi	sp,sp,-16
    8000033c:	4521                	li	a0,8
    8000033e:	e406                	sd	ra,8(sp)
    80000340:	7ea050ef          	jal	80005b2a <__cxa_allocate_exception>
    80000344:	0001a797          	auipc	a5,0x1a
    80000348:	e8478793          	addi	a5,a5,-380 # 8001a1c8 <_ZTVSt20bad_array_new_length+0x10>
    8000034c:	e11c                	sd	a5,0(a0)
    8000034e:	00005617          	auipc	a2,0x5
    80000352:	68060613          	addi	a2,a2,1664 # 800059ce <_ZNSt20bad_array_new_lengthD1Ev>
    80000356:	0001a597          	auipc	a1,0x1a
    8000035a:	e4a58593          	addi	a1,a1,-438 # 8001a1a0 <_ZTISt20bad_array_new_length>
    8000035e:	5d4050ef          	jal	80005932 <__cxa_throw>

0000000080000362 <_ZSt16__throw_bad_castv>:
    80000362:	1141                	addi	sp,sp,-16
    80000364:	4521                	li	a0,8
    80000366:	e406                	sd	ra,8(sp)
    80000368:	7c2050ef          	jal	80005b2a <__cxa_allocate_exception>
    8000036c:	0001a797          	auipc	a5,0x1a
    80000370:	eac78793          	addi	a5,a5,-340 # 8001a218 <_ZTVSt8bad_cast+0x10>
    80000374:	e11c                	sd	a5,0(a0)
    80000376:	00005617          	auipc	a2,0x5
    8000037a:	68460613          	addi	a2,a2,1668 # 800059fa <_ZNSt8bad_castD1Ev>
    8000037e:	0001a597          	auipc	a1,0x1a
    80000382:	e7258593          	addi	a1,a1,-398 # 8001a1f0 <_ZTISt8bad_cast>
    80000386:	5ac050ef          	jal	80005932 <__cxa_throw>

000000008000038a <_ZSt18__throw_bad_typeidv>:
    8000038a:	1141                	addi	sp,sp,-16
    8000038c:	4521                	li	a0,8
    8000038e:	e406                	sd	ra,8(sp)
    80000390:	79a050ef          	jal	80005b2a <__cxa_allocate_exception>
    80000394:	0001a797          	auipc	a5,0x1a
    80000398:	ed478793          	addi	a5,a5,-300 # 8001a268 <_ZTVSt10bad_typeid+0x10>
    8000039c:	e11c                	sd	a5,0(a0)
    8000039e:	00005617          	auipc	a2,0x5
    800003a2:	68660613          	addi	a2,a2,1670 # 80005a24 <_ZNSt10bad_typeidD1Ev>
    800003a6:	0001a597          	auipc	a1,0x1a
    800003aa:	e9a58593          	addi	a1,a1,-358 # 8001a240 <_ZTISt10bad_typeid>
    800003ae:	584050ef          	jal	80005932 <__cxa_throw>

00000000800003b2 <_ZSt19__throw_logic_errorPKc>:
    800003b2:	7179                	addi	sp,sp,-48
    800003b4:	e42a                	sd	a0,8(sp)
    800003b6:	4541                	li	a0,16
    800003b8:	f022                	sd	s0,32(sp)
    800003ba:	f406                	sd	ra,40(sp)
    800003bc:	ec26                	sd	s1,24(sp)
    800003be:	76c050ef          	jal	80005b2a <__cxa_allocate_exception>
    800003c2:	65a2                	ld	a1,8(sp)
    800003c4:	842a                	mv	s0,a0
    800003c6:	0220b0ef          	jal	8000b3e8 <_ZNSt11logic_errorC1EPKc>
    800003ca:	0000b617          	auipc	a2,0xb
    800003ce:	cf260613          	addi	a2,a2,-782 # 8000b0bc <_ZNSt11logic_errorD1Ev>
    800003d2:	0001b597          	auipc	a1,0x1b
    800003d6:	38e58593          	addi	a1,a1,910 # 8001b760 <_ZTISt11logic_error>
    800003da:	8522                	mv	a0,s0
    800003dc:	556050ef          	jal	80005932 <__cxa_throw>
    800003e0:	84aa                	mv	s1,a0
    800003e2:	8522                	mv	a0,s0
    800003e4:	780050ef          	jal	80005b64 <__cxa_free_exception>
    800003e8:	8526                	mv	a0,s1
    800003ea:	368120ef          	jal	80012752 <_Unwind_Resume>

00000000800003ee <_ZSt20__throw_domain_errorPKc>:
    800003ee:	7179                	addi	sp,sp,-48
    800003f0:	e42a                	sd	a0,8(sp)
    800003f2:	4541                	li	a0,16
    800003f4:	f022                	sd	s0,32(sp)
    800003f6:	f406                	sd	ra,40(sp)
    800003f8:	ec26                	sd	s1,24(sp)
    800003fa:	730050ef          	jal	80005b2a <__cxa_allocate_exception>
    800003fe:	65a2                	ld	a1,8(sp)
    80000400:	842a                	mv	s0,a0
    80000402:	01c0b0ef          	jal	8000b41e <_ZNSt12domain_errorC1EPKc>
    80000406:	0000b617          	auipc	a2,0xb
    8000040a:	cf260613          	addi	a2,a2,-782 # 8000b0f8 <_ZNSt12domain_errorD1Ev>
    8000040e:	0001b597          	auipc	a1,0x1b
    80000412:	38258593          	addi	a1,a1,898 # 8001b790 <_ZTISt12domain_error>
    80000416:	8522                	mv	a0,s0
    80000418:	51a050ef          	jal	80005932 <__cxa_throw>
    8000041c:	84aa                	mv	s1,a0
    8000041e:	8522                	mv	a0,s0
    80000420:	744050ef          	jal	80005b64 <__cxa_free_exception>
    80000424:	8526                	mv	a0,s1
    80000426:	32c120ef          	jal	80012752 <_Unwind_Resume>

000000008000042a <_ZSt24__throw_invalid_argumentPKc>:
    8000042a:	7179                	addi	sp,sp,-48
    8000042c:	e42a                	sd	a0,8(sp)
    8000042e:	4541                	li	a0,16
    80000430:	f022                	sd	s0,32(sp)
    80000432:	f406                	sd	ra,40(sp)
    80000434:	ec26                	sd	s1,24(sp)
    80000436:	6f4050ef          	jal	80005b2a <__cxa_allocate_exception>
    8000043a:	65a2                	ld	a1,8(sp)
    8000043c:	842a                	mv	s0,a0
    8000043e:	7fd0a0ef          	jal	8000b43a <_ZNSt16invalid_argumentC1EPKc>
    80000442:	0000b617          	auipc	a2,0xb
    80000446:	cd860613          	addi	a2,a2,-808 # 8000b11a <_ZNSt16invalid_argumentD1Ev>
    8000044a:	0001b597          	auipc	a1,0x1b
    8000044e:	37658593          	addi	a1,a1,886 # 8001b7c0 <_ZTISt16invalid_argument>
    80000452:	8522                	mv	a0,s0
    80000454:	4de050ef          	jal	80005932 <__cxa_throw>
    80000458:	84aa                	mv	s1,a0
    8000045a:	8522                	mv	a0,s0
    8000045c:	708050ef          	jal	80005b64 <__cxa_free_exception>
    80000460:	8526                	mv	a0,s1
    80000462:	2f0120ef          	jal	80012752 <_Unwind_Resume>

0000000080000466 <_ZSt20__throw_length_errorPKc>:
    80000466:	7179                	addi	sp,sp,-48
    80000468:	e42a                	sd	a0,8(sp)
    8000046a:	4541                	li	a0,16
    8000046c:	f022                	sd	s0,32(sp)
    8000046e:	f406                	sd	ra,40(sp)
    80000470:	ec26                	sd	s1,24(sp)
    80000472:	6b8050ef          	jal	80005b2a <__cxa_allocate_exception>
    80000476:	65a2                	ld	a1,8(sp)
    80000478:	842a                	mv	s0,a0
    8000047a:	7dd0a0ef          	jal	8000b456 <_ZNSt12length_errorC1EPKc>
    8000047e:	0000b617          	auipc	a2,0xb
    80000482:	cbe60613          	addi	a2,a2,-834 # 8000b13c <_ZNSt12length_errorD1Ev>
    80000486:	0001b597          	auipc	a1,0x1b
    8000048a:	36a58593          	addi	a1,a1,874 # 8001b7f0 <_ZTISt12length_error>
    8000048e:	8522                	mv	a0,s0
    80000490:	4a2050ef          	jal	80005932 <__cxa_throw>
    80000494:	84aa                	mv	s1,a0
    80000496:	8522                	mv	a0,s0
    80000498:	6cc050ef          	jal	80005b64 <__cxa_free_exception>
    8000049c:	8526                	mv	a0,s1
    8000049e:	2b4120ef          	jal	80012752 <_Unwind_Resume>

00000000800004a2 <_ZSt20__throw_out_of_rangePKc>:
    800004a2:	7179                	addi	sp,sp,-48
    800004a4:	e42a                	sd	a0,8(sp)
    800004a6:	4541                	li	a0,16
    800004a8:	f022                	sd	s0,32(sp)
    800004aa:	f406                	sd	ra,40(sp)
    800004ac:	ec26                	sd	s1,24(sp)
    800004ae:	67c050ef          	jal	80005b2a <__cxa_allocate_exception>
    800004b2:	65a2                	ld	a1,8(sp)
    800004b4:	842a                	mv	s0,a0
    800004b6:	7bd0a0ef          	jal	8000b472 <_ZNSt12out_of_rangeC1EPKc>
    800004ba:	0000b617          	auipc	a2,0xb
    800004be:	ca460613          	addi	a2,a2,-860 # 8000b15e <_ZNSt12out_of_rangeD1Ev>
    800004c2:	0001b597          	auipc	a1,0x1b
    800004c6:	35e58593          	addi	a1,a1,862 # 8001b820 <_ZTISt12out_of_range>
    800004ca:	8522                	mv	a0,s0
    800004cc:	466050ef          	jal	80005932 <__cxa_throw>
    800004d0:	84aa                	mv	s1,a0
    800004d2:	8522                	mv	a0,s0
    800004d4:	690050ef          	jal	80005b64 <__cxa_free_exception>
    800004d8:	8526                	mv	a0,s1
    800004da:	278120ef          	jal	80012752 <_Unwind_Resume>

00000000800004de <_ZSt24__throw_out_of_range_fmtPKcz>:
    800004de:	7159                	addi	sp,sp,-112
    800004e0:	f406                	sd	ra,40(sp)
    800004e2:	f022                	sd	s0,32(sp)
    800004e4:	ec26                	sd	s1,24(sp)
    800004e6:	1800                	addi	s0,sp,48
    800004e8:	e84a                	sd	s2,16(sp)
    800004ea:	84aa                	mv	s1,a0
    800004ec:	f018                	sd	a4,32(s0)
    800004ee:	03043823          	sd	a6,48(s0)
    800004f2:	03143c23          	sd	a7,56(s0)
    800004f6:	e40c                	sd	a1,8(s0)
    800004f8:	e810                	sd	a2,16(s0)
    800004fa:	ec14                	sd	a3,24(s0)
    800004fc:	f41c                	sd	a5,40(s0)
    800004fe:	567140ef          	jal	80015264 <strlen>
    80000502:	20f50793          	addi	a5,a0,527
    80000506:	9bc1                	andi	a5,a5,-16
    80000508:	40f10133          	sub	sp,sp,a5
    8000050c:	20050593          	addi	a1,a0,512
    80000510:	00840693          	addi	a3,s0,8
    80000514:	8626                	mv	a2,s1
    80000516:	850a                	mv	a0,sp
    80000518:	fcd43c23          	sd	a3,-40(s0)
    8000051c:	2fa060ef          	jal	80006816 <_ZN9__gnu_cxx15__snprintf_liteEPcmPKcPv>
    80000520:	4541                	li	a0,16
    80000522:	608050ef          	jal	80005b2a <__cxa_allocate_exception>
    80000526:	858a                	mv	a1,sp
    80000528:	84aa                	mv	s1,a0
    8000052a:	7490a0ef          	jal	8000b472 <_ZNSt12out_of_rangeC1EPKc>
    8000052e:	0000b617          	auipc	a2,0xb
    80000532:	c3060613          	addi	a2,a2,-976 # 8000b15e <_ZNSt12out_of_rangeD1Ev>
    80000536:	0001b597          	auipc	a1,0x1b
    8000053a:	2ea58593          	addi	a1,a1,746 # 8001b820 <_ZTISt12out_of_range>
    8000053e:	8526                	mv	a0,s1
    80000540:	3f2050ef          	jal	80005932 <__cxa_throw>
    80000544:	892a                	mv	s2,a0
    80000546:	8526                	mv	a0,s1
    80000548:	61c050ef          	jal	80005b64 <__cxa_free_exception>
    8000054c:	854a                	mv	a0,s2
    8000054e:	204120ef          	jal	80012752 <_Unwind_Resume>

0000000080000552 <_ZSt21__throw_runtime_errorPKc>:
    80000552:	7179                	addi	sp,sp,-48
    80000554:	e42a                	sd	a0,8(sp)
    80000556:	4541                	li	a0,16
    80000558:	f022                	sd	s0,32(sp)
    8000055a:	f406                	sd	ra,40(sp)
    8000055c:	ec26                	sd	s1,24(sp)
    8000055e:	5cc050ef          	jal	80005b2a <__cxa_allocate_exception>
    80000562:	65a2                	ld	a1,8(sp)
    80000564:	842a                	mv	s0,a0
    80000566:	7290a0ef          	jal	8000b48e <_ZNSt13runtime_errorC1EPKc>
    8000056a:	0000b617          	auipc	a2,0xb
    8000056e:	ab060613          	addi	a2,a2,-1360 # 8000b01a <_ZNSt13runtime_errorD1Ev>
    80000572:	0001b597          	auipc	a1,0x1b
    80000576:	2de58593          	addi	a1,a1,734 # 8001b850 <_ZTISt13runtime_error>
    8000057a:	8522                	mv	a0,s0
    8000057c:	3b6050ef          	jal	80005932 <__cxa_throw>
    80000580:	84aa                	mv	s1,a0
    80000582:	8522                	mv	a0,s0
    80000584:	5e0050ef          	jal	80005b64 <__cxa_free_exception>
    80000588:	8526                	mv	a0,s1
    8000058a:	1c8120ef          	jal	80012752 <_Unwind_Resume>

000000008000058e <_ZSt19__throw_range_errorPKc>:
    8000058e:	7179                	addi	sp,sp,-48
    80000590:	e42a                	sd	a0,8(sp)
    80000592:	4541                	li	a0,16
    80000594:	f022                	sd	s0,32(sp)
    80000596:	f406                	sd	ra,40(sp)
    80000598:	ec26                	sd	s1,24(sp)
    8000059a:	590050ef          	jal	80005b2a <__cxa_allocate_exception>
    8000059e:	65a2                	ld	a1,8(sp)
    800005a0:	842a                	mv	s0,a0
    800005a2:	7230a0ef          	jal	8000b4c4 <_ZNSt11range_errorC1EPKc>
    800005a6:	0000b617          	auipc	a2,0xb
    800005aa:	ab060613          	addi	a2,a2,-1360 # 8000b056 <_ZNSt11range_errorD1Ev>
    800005ae:	0001b597          	auipc	a1,0x1b
    800005b2:	2ca58593          	addi	a1,a1,714 # 8001b878 <_ZTISt11range_error>
    800005b6:	8522                	mv	a0,s0
    800005b8:	37a050ef          	jal	80005932 <__cxa_throw>
    800005bc:	84aa                	mv	s1,a0
    800005be:	8522                	mv	a0,s0
    800005c0:	5a4050ef          	jal	80005b64 <__cxa_free_exception>
    800005c4:	8526                	mv	a0,s1
    800005c6:	18c120ef          	jal	80012752 <_Unwind_Resume>

00000000800005ca <_ZSt22__throw_overflow_errorPKc>:
    800005ca:	7179                	addi	sp,sp,-48
    800005cc:	e42a                	sd	a0,8(sp)
    800005ce:	4541                	li	a0,16
    800005d0:	f022                	sd	s0,32(sp)
    800005d2:	f406                	sd	ra,40(sp)
    800005d4:	ec26                	sd	s1,24(sp)
    800005d6:	554050ef          	jal	80005b2a <__cxa_allocate_exception>
    800005da:	65a2                	ld	a1,8(sp)
    800005dc:	842a                	mv	s0,a0
    800005de:	7030a0ef          	jal	8000b4e0 <_ZNSt14overflow_errorC1EPKc>
    800005e2:	0000b617          	auipc	a2,0xb
    800005e6:	a9660613          	addi	a2,a2,-1386 # 8000b078 <_ZNSt14overflow_errorD1Ev>
    800005ea:	0001b597          	auipc	a1,0x1b
    800005ee:	2be58593          	addi	a1,a1,702 # 8001b8a8 <_ZTISt14overflow_error>
    800005f2:	8522                	mv	a0,s0
    800005f4:	33e050ef          	jal	80005932 <__cxa_throw>
    800005f8:	84aa                	mv	s1,a0
    800005fa:	8522                	mv	a0,s0
    800005fc:	568050ef          	jal	80005b64 <__cxa_free_exception>
    80000600:	8526                	mv	a0,s1
    80000602:	150120ef          	jal	80012752 <_Unwind_Resume>

0000000080000606 <_ZSt23__throw_underflow_errorPKc>:
    80000606:	7179                	addi	sp,sp,-48
    80000608:	e42a                	sd	a0,8(sp)
    8000060a:	4541                	li	a0,16
    8000060c:	f022                	sd	s0,32(sp)
    8000060e:	f406                	sd	ra,40(sp)
    80000610:	ec26                	sd	s1,24(sp)
    80000612:	518050ef          	jal	80005b2a <__cxa_allocate_exception>
    80000616:	65a2                	ld	a1,8(sp)
    80000618:	842a                	mv	s0,a0
    8000061a:	6e30a0ef          	jal	8000b4fc <_ZNSt15underflow_errorC1EPKc>
    8000061e:	0000b617          	auipc	a2,0xb
    80000622:	a7c60613          	addi	a2,a2,-1412 # 8000b09a <_ZNSt15underflow_errorD1Ev>
    80000626:	0001b597          	auipc	a1,0x1b
    8000062a:	2b258593          	addi	a1,a1,690 # 8001b8d8 <_ZTISt15underflow_error>
    8000062e:	8522                	mv	a0,s0
    80000630:	302050ef          	jal	80005932 <__cxa_throw>
    80000634:	84aa                	mv	s1,a0
    80000636:	8522                	mv	a0,s0
    80000638:	52c050ef          	jal	80005b64 <__cxa_free_exception>
    8000063c:	8526                	mv	a0,s1
    8000063e:	114120ef          	jal	80012752 <_Unwind_Resume>

0000000080000642 <_ZN9__gnu_cxx26__throw_insufficient_spaceEPKcS1_>:
    80000642:	7175                	addi	sp,sp,-144
    80000644:	e122                	sd	s0,128(sp)
    80000646:	0900                	addi	s0,sp,144
    80000648:	e506                	sd	ra,136(sp)
    8000064a:	fca6                	sd	s1,120(sp)
    8000064c:	f8ca                	sd	s2,112(sp)
    8000064e:	84ae                	mv	s1,a1
    80000650:	892a                	mv	s2,a0
    80000652:	06900613          	li	a2,105
    80000656:	00018597          	auipc	a1,0x18
    8000065a:	39a58593          	addi	a1,a1,922 # 800189f0 <__tbss_end+0x1fbe>
    8000065e:	f7040513          	addi	a0,s0,-144
    80000662:	412484b3          	sub	s1,s1,s2
    80000666:	3e9140ef          	jal	8001524e <memcpy>
    8000066a:	07848793          	addi	a5,s1,120
    8000066e:	9bc1                	andi	a5,a5,-16
    80000670:	40f10133          	sub	sp,sp,a5
    80000674:	06800613          	li	a2,104
    80000678:	f7040593          	addi	a1,s0,-144
    8000067c:	850a                	mv	a0,sp
    8000067e:	3d1140ef          	jal	8001524e <memcpy>
    80000682:	8626                	mv	a2,s1
    80000684:	85ca                	mv	a1,s2
    80000686:	10a8                	addi	a0,sp,104
    80000688:	3c7140ef          	jal	8001524e <memcpy>
    8000068c:	948a                	add	s1,s1,sp
    8000068e:	06048423          	sb	zero,104(s1)
    80000692:	850a                	mv	a0,sp
    80000694:	d1fff0ef          	jal	800003b2 <_ZSt19__throw_logic_errorPKc>

0000000080000698 <__cxa_call_terminate>:
    80000698:	1141                	addi	sp,sp,-16
    8000069a:	e406                	sd	ra,8(sp)
    8000069c:	e022                	sd	s0,0(sp)
    8000069e:	c905                	beqz	a0,800006ce <__cxa_call_terminate+0x36>
    800006a0:	842a                	mv	s0,a0
    800006a2:	5a8050ef          	jal	80005c4a <__cxa_begin_catch>
    800006a6:	b8b1b7b7          	lui	a5,0xb8b1b
    800006aa:	abd78793          	addi	a5,a5,-1347 # ffffffffb8b1aabd <__heap_end+0xffffffff38a91abd>
    800006ae:	07b2                	slli	a5,a5,0xc
    800006b0:	bcd78793          	addi	a5,a5,-1075
    800006b4:	6018                	ld	a4,0(s0)
    800006b6:	07b2                	slli	a5,a5,0xc
    800006b8:	4d578793          	addi	a5,a5,1237
    800006bc:	07a2                	slli	a5,a5,0x8
    800006be:	97ba                	add	a5,a5,a4
    800006c0:	4705                	li	a4,1
    800006c2:	00f76663          	bltu	a4,a5,800006ce <__cxa_call_terminate+0x36>
    800006c6:	fc843503          	ld	a0,-56(s0)
    800006ca:	593050ef          	jal	8000645c <_ZN10__cxxabiv111__terminateEPFvvE>
    800006ce:	c05ff0ef          	jal	800002d2 <_ZSt9terminatev>

00000000800006d2 <_ZNSt7__cxx1112basic_stringIcSt11char_traitsIcESaIcEE15_M_replace_coldEPcmPKcmm>:
    800006d2:	7139                	addi	sp,sp,-64
    800006d4:	f822                	sd	s0,48(sp)
    800006d6:	f426                	sd	s1,40(sp)
    800006d8:	f04a                	sd	s2,32(sp)
    800006da:	ec4e                	sd	s3,24(sp)
    800006dc:	843a                	mv	s0,a4
    800006de:	fc06                	sd	ra,56(sp)
    800006e0:	177d                	addi	a4,a4,-1
    800006e2:	84ae                	mv	s1,a1
    800006e4:	8932                	mv	s2,a2
    800006e6:	89b6                	mv	s3,a3
    800006e8:	00c77963          	bgeu	a4,a2,800006fa <_ZNSt7__cxx1112basic_stringIcSt11char_traitsIcESaIcEE15_M_replace_coldEPcmPKcmm+0x28>
    800006ec:	8622                	mv	a2,s0
    800006ee:	85b6                	mv	a1,a3
    800006f0:	8526                	mv	a0,s1
    800006f2:	e43e                	sd	a5,8(sp)
    800006f4:	7e60d0ef          	jal	8000deda <_ZNSt7__cxx1112basic_stringIcSt11char_traitsIcESaIcEE7_S_moveEPcPKcm>
    800006f8:	67a2                	ld	a5,8(sp)
    800006fa:	cb91                	beqz	a5,8000070e <_ZNSt7__cxx1112basic_stringIcSt11char_traitsIcESaIcEE15_M_replace_coldEPcmPKcmm+0x3c>
    800006fc:	07240963          	beq	s0,s2,8000076e <_ZNSt7__cxx1112basic_stringIcSt11char_traitsIcESaIcEE15_M_replace_coldEPcmPKcmm+0x9c>
    80000700:	863e                	mv	a2,a5
    80000702:	012485b3          	add	a1,s1,s2
    80000706:	00848533          	add	a0,s1,s0
    8000070a:	7d00d0ef          	jal	8000deda <_ZNSt7__cxx1112basic_stringIcSt11char_traitsIcESaIcEE7_S_moveEPcPKcm>
    8000070e:	06897063          	bgeu	s2,s0,8000076e <_ZNSt7__cxx1112basic_stringIcSt11char_traitsIcESaIcEE15_M_replace_coldEPcmPKcmm+0x9c>
    80000712:	012487b3          	add	a5,s1,s2
    80000716:	00898733          	add	a4,s3,s0
    8000071a:	00e7ed63          	bltu	a5,a4,80000734 <_ZNSt7__cxx1112basic_stringIcSt11char_traitsIcESaIcEE15_M_replace_coldEPcmPKcmm+0x62>
    8000071e:	8622                	mv	a2,s0
    80000720:	7442                	ld	s0,48(sp)
    80000722:	70e2                	ld	ra,56(sp)
    80000724:	7902                	ld	s2,32(sp)
    80000726:	85ce                	mv	a1,s3
    80000728:	8526                	mv	a0,s1
    8000072a:	69e2                	ld	s3,24(sp)
    8000072c:	74a2                	ld	s1,40(sp)
    8000072e:	6121                	addi	sp,sp,64
    80000730:	7aa0d06f          	j	8000deda <_ZNSt7__cxx1112basic_stringIcSt11char_traitsIcESaIcEE7_S_moveEPcPKcm>
    80000734:	00f9ef63          	bltu	s3,a5,80000752 <_ZNSt7__cxx1112basic_stringIcSt11char_traitsIcESaIcEE15_M_replace_coldEPcmPKcmm+0x80>
    80000738:	412405b3          	sub	a1,s0,s2
    8000073c:	8622                	mv	a2,s0
    8000073e:	95ce                	add	a1,a1,s3
    80000740:	8526                	mv	a0,s1
    80000742:	7442                	ld	s0,48(sp)
    80000744:	70e2                	ld	ra,56(sp)
    80000746:	74a2                	ld	s1,40(sp)
    80000748:	7902                	ld	s2,32(sp)
    8000074a:	69e2                	ld	s3,24(sp)
    8000074c:	6121                	addi	sp,sp,64
    8000074e:	7780d06f          	j	8000dec6 <_ZNSt7__cxx1112basic_stringIcSt11char_traitsIcESaIcEE7_S_copyEPcPKcm>
    80000752:	41378933          	sub	s2,a5,s3
    80000756:	864a                	mv	a2,s2
    80000758:	85ce                	mv	a1,s3
    8000075a:	8526                	mv	a0,s1
    8000075c:	77e0d0ef          	jal	8000deda <_ZNSt7__cxx1112basic_stringIcSt11char_traitsIcESaIcEE7_S_moveEPcPKcm>
    80000760:	41240633          	sub	a2,s0,s2
    80000764:	008485b3          	add	a1,s1,s0
    80000768:	01248533          	add	a0,s1,s2
    8000076c:	bfd9                	j	80000742 <_ZNSt7__cxx1112basic_stringIcSt11char_traitsIcESaIcEE15_M_replace_coldEPcmPKcmm+0x70>
    8000076e:	70e2                	ld	ra,56(sp)
    80000770:	7442                	ld	s0,48(sp)
    80000772:	74a2                	ld	s1,40(sp)
    80000774:	7902                	ld	s2,32(sp)
    80000776:	69e2                	ld	s3,24(sp)
    80000778:	6121                	addi	sp,sp,64
    8000077a:	8082                	ret

000000008000077c <_ZSt20__throw_system_errori>:
    8000077c:	7139                	addi	sp,sp,-64
    8000077e:	f04a                	sd	s2,32(sp)
    80000780:	892a                	mv	s2,a0
    80000782:	02000513          	li	a0,32
    80000786:	f822                	sd	s0,48(sp)
    80000788:	f426                	sd	s1,40(sp)
    8000078a:	83818413          	addi	s0,gp,-1992 # 80024330 <_ZN12_GLOBAL__N_1L25generic_category_instanceE>
    8000078e:	fc06                	sd	ra,56(sp)
    80000790:	39a050ef          	jal	80005b2a <__cxa_allocate_exception>
    80000794:	601c                	ld	a5,0(s0)
    80000796:	84aa                	mv	s1,a0
    80000798:	864a                	mv	a2,s2
    8000079a:	739c                	ld	a5,32(a5)
    8000079c:	85a2                	mv	a1,s0
    8000079e:	850a                	mv	a0,sp
    800007a0:	9782                	jalr	a5
    800007a2:	858a                	mv	a1,sp
    800007a4:	8526                	mv	a0,s1
    800007a6:	2cc0f0ef          	jal	8000fa72 <_ZNSt13runtime_errorC1ERKNSt7__cxx1112basic_stringIcSt11char_traitsIcESaIcEEE>
    800007aa:	850a                	mv	a0,sp
    800007ac:	6a00d0ef          	jal	8000de4c <_ZNSt7__cxx1112basic_stringIcSt11char_traitsIcESaIcEE10_M_disposeEv>
    800007b0:	0001b797          	auipc	a5,0x1b
    800007b4:	49878793          	addi	a5,a5,1176 # 8001bc48 <_ZTVSt12system_error+0x10>
    800007b8:	e09c                	sd	a5,0(s1)
    800007ba:	0124a823          	sw	s2,16(s1)
    800007be:	ec80                	sd	s0,24(s1)
    800007c0:	0000f617          	auipc	a2,0xf
    800007c4:	0b260613          	addi	a2,a2,178 # 8000f872 <_ZNSt12system_errorD1Ev>
    800007c8:	0001b597          	auipc	a1,0x1b
    800007cc:	2d858593          	addi	a1,a1,728 # 8001baa0 <_ZTISt12system_error>
    800007d0:	8526                	mv	a0,s1
    800007d2:	160050ef          	jal	80005932 <__cxa_throw>
    800007d6:	842a                	mv	s0,a0
    800007d8:	850a                	mv	a0,sp
    800007da:	6720d0ef          	jal	8000de4c <_ZNSt7__cxx1112basic_stringIcSt11char_traitsIcESaIcEE10_M_disposeEv>
    800007de:	8526                	mv	a0,s1
    800007e0:	384050ef          	jal	80005b64 <__cxa_free_exception>
    800007e4:	8522                	mv	a0,s0
    800007e6:	76d110ef          	jal	80012752 <_Unwind_Resume>
    800007ea:	842a                	mv	s0,a0
    800007ec:	bfcd                	j	800007de <_ZSt20__throw_system_errori+0x62>

00000000800007ee <main>:
    800007ee:	1141                	addi	sp,sp,-16
    800007f0:	00016517          	auipc	a0,0x16
    800007f4:	58850513          	addi	a0,a0,1416 # 80016d78 <__tbss_end+0x346>
    800007f8:	e406                	sd	ra,8(sp)
    800007fa:	0bc140ef          	jal	800148b6 <puts>
    800007fe:	00016517          	auipc	a0,0x16
    80000802:	5c250513          	addi	a0,a0,1474 # 80016dc0 <__tbss_end+0x38e>
    80000806:	0b0140ef          	jal	800148b6 <puts>
    8000080a:	00016517          	auipc	a0,0x16
    8000080e:	5de50513          	addi	a0,a0,1502 # 80016de8 <__tbss_end+0x3b6>
    80000812:	0a4140ef          	jal	800148b6 <puts>
    80000816:	00016517          	auipc	a0,0x16
    8000081a:	5f250513          	addi	a0,a0,1522 # 80016e08 <__tbss_end+0x3d6>
    8000081e:	098140ef          	jal	800148b6 <puts>
    80000822:	00016517          	auipc	a0,0x16
    80000826:	62e50513          	addi	a0,a0,1582 # 80016e50 <__tbss_end+0x41e>
    8000082a:	08c140ef          	jal	800148b6 <puts>
    8000082e:	08000593          	li	a1,128
    80000832:	00016517          	auipc	a0,0x16
    80000836:	63650513          	addi	a0,a0,1590 # 80016e68 <__tbss_end+0x436>
    8000083a:	737130ef          	jal	80014770 <iprintf>
    8000083e:	02000593          	li	a1,32
    80000842:	00016517          	auipc	a0,0x16
    80000846:	64650513          	addi	a0,a0,1606 # 80016e88 <__tbss_end+0x456>
    8000084a:	727130ef          	jal	80014770 <iprintf>
    8000084e:	04000593          	li	a1,64
    80000852:	00016517          	auipc	a0,0x16
    80000856:	64e50513          	addi	a0,a0,1614 # 80016ea0 <__tbss_end+0x46e>
    8000085a:	717130ef          	jal	80014770 <iprintf>
    8000085e:	02000593          	li	a1,32
    80000862:	00016517          	auipc	a0,0x16
    80000866:	65650513          	addi	a0,a0,1622 # 80016eb8 <__tbss_end+0x486>
    8000086a:	707130ef          	jal	80014770 <iprintf>
    8000086e:	08000593          	li	a1,128
    80000872:	00016517          	auipc	a0,0x16
    80000876:	65e50513          	addi	a0,a0,1630 # 80016ed0 <__tbss_end+0x49e>
    8000087a:	6f7130ef          	jal	80014770 <iprintf>
    8000087e:	4589                	li	a1,2
    80000880:	00016517          	auipc	a0,0x16
    80000884:	66850513          	addi	a0,a0,1640 # 80016ee8 <__tbss_end+0x4b6>
    80000888:	6e9130ef          	jal	80014770 <iprintf>
    8000088c:	4529                	li	a0,10
    8000088e:	775130ef          	jal	80014802 <putchar>
    80000892:	00016517          	auipc	a0,0x16
    80000896:	66e50513          	addi	a0,a0,1646 # 80016f00 <__tbss_end+0x4ce>
    8000089a:	300130ef          	jal	80013b9a <getenv>
    8000089e:	00016597          	auipc	a1,0x16
    800008a2:	4ca58593          	addi	a1,a1,1226 # 80016d68 <__tbss_end+0x336>
    800008a6:	c111                	beqz	a0,800008aa <main+0xbc>
    800008a8:	85aa                	mv	a1,a0
    800008aa:	00016517          	auipc	a0,0x16
    800008ae:	66e50513          	addi	a0,a0,1646 # 80016f18 <__tbss_end+0x4e6>
    800008b2:	6bf130ef          	jal	80014770 <iprintf>
    800008b6:	7e6000ef          	jal	8000109c <_Z16init_all_weightsv>
    800008ba:	196010ef          	jal	80001a50 <_Z17demo_forward_passv>
    800008be:	00016517          	auipc	a0,0x16
    800008c2:	35a50513          	addi	a0,a0,858 # 80016c18 <__tbss_end+0x1e6>
    800008c6:	7f1130ef          	jal	800148b6 <puts>
    800008ca:	00016517          	auipc	a0,0x16
    800008ce:	66650513          	addi	a0,a0,1638 # 80016f30 <__tbss_end+0x4fe>
    800008d2:	7e5130ef          	jal	800148b6 <puts>
    800008d6:	00016517          	auipc	a0,0x16
    800008da:	4ba50513          	addi	a0,a0,1210 # 80016d90 <__tbss_end+0x35e>
    800008de:	7d9130ef          	jal	800148b6 <puts>
    800008e2:	00016517          	auipc	a0,0x16
    800008e6:	66e50513          	addi	a0,a0,1646 # 80016f50 <__tbss_end+0x51e>
    800008ea:	7cd130ef          	jal	800148b6 <puts>
    800008ee:	00024797          	auipc	a5,0x24
    800008f2:	aca7a507          	flw	fa0,-1334(a5) # 800243b8 <__atexit_dummy+0x68>
    800008f6:	4601                	li	a2,0
    800008f8:	03200593          	li	a1,50
    800008fc:	00016517          	auipc	a0,0x16
    80000900:	67c50513          	addi	a0,a0,1660 # 80016f78 <__tbss_end+0x546>
    80000904:	365000ef          	jal	80001468 <_Z13generate_textPKcifb>
    80000908:	00016517          	auipc	a0,0x16
    8000090c:	67850513          	addi	a0,a0,1656 # 80016f80 <__tbss_end+0x54e>
    80000910:	7a7130ef          	jal	800148b6 <puts>
    80000914:	00024797          	auipc	a5,0x24
    80000918:	ac07a507          	flw	fa0,-1344(a5) # 800243d4 <__atexit_dummy+0x84>
    8000091c:	4605                	li	a2,1
    8000091e:	02a00793          	li	a5,42
    80000922:	03200593          	li	a1,50
    80000926:	00016517          	auipc	a0,0x16
    8000092a:	68a50513          	addi	a0,a0,1674 # 80016fb0 <__tbss_end+0x57e>
    8000092e:	00024717          	auipc	a4,0x24
    80000932:	9cf72523          	sw	a5,-1590(a4) # 800242f8 <_ZL6g_seed>
    80000936:	333000ef          	jal	80001468 <_Z13generate_textPKcifb>
    8000093a:	00016517          	auipc	a0,0x16
    8000093e:	67e50513          	addi	a0,a0,1662 # 80016fb8 <__tbss_end+0x586>
    80000942:	775130ef          	jal	800148b6 <puts>
    80000946:	00024797          	auipc	a5,0x24
    8000094a:	a927a507          	flw	fa0,-1390(a5) # 800243d8 <__atexit_dummy+0x88>
    8000094e:	4605                	li	a2,1
    80000950:	07b00793          	li	a5,123
    80000954:	03200593          	li	a1,50
    80000958:	00016517          	auipc	a0,0x16
    8000095c:	69050513          	addi	a0,a0,1680 # 80016fe8 <__tbss_end+0x5b6>
    80000960:	00024717          	auipc	a4,0x24
    80000964:	98f72c23          	sw	a5,-1640(a4) # 800242f8 <_ZL6g_seed>
    80000968:	301000ef          	jal	80001468 <_Z13generate_textPKcifb>
    8000096c:	00016517          	auipc	a0,0x16
    80000970:	68450513          	addi	a0,a0,1668 # 80016ff0 <__tbss_end+0x5be>
    80000974:	743130ef          	jal	800148b6 <puts>
    80000978:	00024797          	auipc	a5,0x24
    8000097c:	a647a507          	flw	fa0,-1436(a5) # 800243dc <__atexit_dummy+0x8c>
    80000980:	4605                	li	a2,1
    80000982:	1c800793          	li	a5,456
    80000986:	45f9                	li	a1,30
    80000988:	00016517          	auipc	a0,0x16
    8000098c:	69850513          	addi	a0,a0,1688 # 80017020 <__tbss_end+0x5ee>
    80000990:	00024717          	auipc	a4,0x24
    80000994:	96f72423          	sw	a5,-1688(a4) # 800242f8 <_ZL6g_seed>
    80000998:	2d1000ef          	jal	80001468 <_Z13generate_textPKcifb>
    8000099c:	00016517          	auipc	a0,0x16
    800009a0:	68c50513          	addi	a0,a0,1676 # 80017028 <__tbss_end+0x5f6>
    800009a4:	713130ef          	jal	800148b6 <puts>
    800009a8:	00016517          	auipc	a0,0x16
    800009ac:	6c850513          	addi	a0,a0,1736 # 80017070 <__tbss_end+0x63e>
    800009b0:	707130ef          	jal	800148b6 <puts>
    800009b4:	00016517          	auipc	a0,0x16
    800009b8:	3c450513          	addi	a0,a0,964 # 80016d78 <__tbss_end+0x346>
    800009bc:	6fb130ef          	jal	800148b6 <puts>
    800009c0:	00016517          	auipc	a0,0x16
    800009c4:	6c850513          	addi	a0,a0,1736 # 80017088 <__tbss_end+0x656>
    800009c8:	6ef130ef          	jal	800148b6 <puts>
    800009cc:	00016517          	auipc	a0,0x16
    800009d0:	6f450513          	addi	a0,a0,1780 # 800170c0 <__tbss_end+0x68e>
    800009d4:	6e3130ef          	jal	800148b6 <puts>
    800009d8:	00016517          	auipc	a0,0x16
    800009dc:	72850513          	addi	a0,a0,1832 # 80017100 <__tbss_end+0x6ce>
    800009e0:	6d7130ef          	jal	800148b6 <puts>
    800009e4:	1e00000b          	.insn	4, 0x1e00000b
    800009e8:	60a2                	ld	ra,8(sp)
    800009ea:	4501                	li	a0,0
    800009ec:	0141                	addi	sp,sp,16
    800009ee:	8082                	ret

00000000800009f0 <_GLOBAL__sub_I__ZN9__gnu_cxx9__freeresEv>:
    800009f0:	7175                	addi	sp,sp,-144
    800009f2:	00018517          	auipc	a0,0x18
    800009f6:	eee50513          	addi	a0,a0,-274 # 800188e0 <__tbss_end+0x1eae>
    800009fa:	e122                	sd	s0,128(sp)
    800009fc:	f8ca                	sd	s2,112(sp)
    800009fe:	f4ce                	sd	s3,104(sp)
    80000a00:	00068797          	auipc	a5,0x68
    80000a04:	c407b823          	sd	zero,-944(a5) # 80068650 <_ZN12_GLOBAL__N_1L14emergency_poolE+0x8>
    80000a08:	00068797          	auipc	a5,0x68
    80000a0c:	c407b823          	sd	zero,-944(a5) # 80068658 <_ZN12_GLOBAL__N_1L14emergency_poolE+0x10>
    80000a10:	00068797          	auipc	a5,0x68
    80000a14:	c407b823          	sd	zero,-944(a5) # 80068660 <_ZN12_GLOBAL__N_1L14emergency_poolE+0x18>
    80000a18:	e506                	sd	ra,136(sp)
    80000a1a:	fca6                	sd	s1,120(sp)
    80000a1c:	17e130ef          	jal	80013b9a <getenv>
    80000a20:	47bd                	li	a5,15
    80000a22:	f03e                	sd	a5,32(sp)
    80000a24:	00018797          	auipc	a5,0x18
    80000a28:	ed478793          	addi	a5,a5,-300 # 800188f8 <__tbss_end+0x1ec6>
    80000a2c:	f43e                	sd	a5,40(sp)
    80000a2e:	47a1                	li	a5,8
    80000a30:	f83e                	sd	a5,48(sp)
    80000a32:	00018797          	auipc	a5,0x18
    80000a36:	ed678793          	addi	a5,a5,-298 # 80018908 <__tbss_end+0x1ed6>
    80000a3a:	fc3e                	sd	a5,56(sp)
    80000a3c:	47a5                	li	a5,9
    80000a3e:	e4be                	sd	a5,72(sp)
    80000a40:	00018797          	auipc	a5,0x18
    80000a44:	ed878793          	addi	a5,a5,-296 # 80018918 <__tbss_end+0x1ee6>
    80000a48:	e8be                	sd	a5,80(sp)
    80000a4a:	4791                	li	a5,4
    80000a4c:	842a                	mv	s0,a0
    80000a4e:	e082                	sd	zero,64(sp)
    80000a50:	ccbe                	sw	a5,88(sp)
    80000a52:	03a00913          	li	s2,58
    80000a56:	02e00993          	li	s3,46
    80000a5a:	e829                	bnez	s0,80000aac <_GLOBAL__sub_I__ZN9__gnu_cxx9__freeresEv+0xbc>
    80000a5c:	46e6                	lw	a3,88(sp)
    80000a5e:	04000713          	li	a4,64
    80000a62:	0006879b          	sext.w	a5,a3
    80000a66:	00d75463          	bge	a4,a3,80000a6e <_GLOBAL__sub_I__ZN9__gnu_cxx9__freeresEv+0x7e>
    80000a6a:	0007079b          	sext.w	a5,a4
    80000a6e:	4406                	lw	s0,64(sp)
    80000a70:	e011                	bnez	s0,80000a74 <_GLOBAL__sub_I__ZN9__gnu_cxx9__freeresEv+0x84>
    80000a72:	4419                	li	s0,6
    80000a74:	0479                	addi	s0,s0,30
    80000a76:	02f40433          	mul	s0,s0,a5
    80000a7a:	040e                	slli	s0,s0,0x3
    80000a7c:	00068797          	auipc	a5,0x68
    80000a80:	be87b223          	sd	s0,-1052(a5) # 80068660 <_ZN12_GLOBAL__N_1L14emergency_poolE+0x18>
    80000a84:	cc09                	beqz	s0,80000a9e <_GLOBAL__sub_I__ZN9__gnu_cxx9__freeresEv+0xae>
    80000a86:	8522                	mv	a0,s0
    80000a88:	1ce130ef          	jal	80013c56 <malloc>
    80000a8c:	00068797          	auipc	a5,0x68
    80000a90:	bca7b623          	sd	a0,-1076(a5) # 80068658 <_ZN12_GLOBAL__N_1L14emergency_poolE+0x10>
    80000a94:	e545                	bnez	a0,80000b3c <_GLOBAL__sub_I__ZN9__gnu_cxx9__freeresEv+0x14c>
    80000a96:	00068797          	auipc	a5,0x68
    80000a9a:	bc07b523          	sd	zero,-1078(a5) # 80068660 <_ZN12_GLOBAL__N_1L14emergency_poolE+0x18>
    80000a9e:	60aa                	ld	ra,136(sp)
    80000aa0:	640a                	ld	s0,128(sp)
    80000aa2:	74e6                	ld	s1,120(sp)
    80000aa4:	7946                	ld	s2,112(sp)
    80000aa6:	79a6                	ld	s3,104(sp)
    80000aa8:	6149                	addi	sp,sp,144
    80000aaa:	8082                	ret
    80000aac:	00044783          	lbu	a5,0(s0)
    80000ab0:	01279363          	bne	a5,s2,80000ab6 <_GLOBAL__sub_I__ZN9__gnu_cxx9__freeresEv+0xc6>
    80000ab4:	0405                	addi	s0,s0,1
    80000ab6:	473d                	li	a4,15
    80000ab8:	86a2                	mv	a3,s0
    80000aba:	863a                	mv	a2,a4
    80000abc:	4581                	li	a1,0
    80000abe:	1008                	addi	a0,sp,32
    80000ac0:	11a050ef          	jal	80005bda <_ZNKSt17basic_string_viewIcSt11char_traitsIcEE7compareEmmPKcm>
    80000ac4:	ed0d                	bnez	a0,80000afe <_GLOBAL__sub_I__ZN9__gnu_cxx9__freeresEv+0x10e>
    80000ac6:	00f44783          	lbu	a5,15(s0)
    80000aca:	03379a63          	bne	a5,s3,80000afe <_GLOBAL__sub_I__ZN9__gnu_cxx9__freeresEv+0x10e>
    80000ace:	0441                	addi	s0,s0,16
    80000ad0:	1804                	addi	s1,sp,48
    80000ad2:	6098                	ld	a4,0(s1)
    80000ad4:	86a2                	mv	a3,s0
    80000ad6:	4581                	li	a1,0
    80000ad8:	863a                	mv	a2,a4
    80000ada:	8526                	mv	a0,s1
    80000adc:	e43a                	sd	a4,8(sp)
    80000ade:	0fc050ef          	jal	80005bda <_ZNKSt17basic_string_viewIcSt11char_traitsIcEE7compareEmmPKcm>
    80000ae2:	e911                	bnez	a0,80000af6 <_GLOBAL__sub_I__ZN9__gnu_cxx9__freeresEv+0x106>
    80000ae4:	6722                	ld	a4,8(sp)
    80000ae6:	00e407b3          	add	a5,s0,a4
    80000aea:	0007c683          	lbu	a3,0(a5)
    80000aee:	03d00793          	li	a5,61
    80000af2:	00f68d63          	beq	a3,a5,80000b0c <_GLOBAL__sub_I__ZN9__gnu_cxx9__freeresEv+0x11c>
    80000af6:	04e1                	addi	s1,s1,24
    80000af8:	109c                	addi	a5,sp,96
    80000afa:	fcf49ce3          	bne	s1,a5,80000ad2 <_GLOBAL__sub_I__ZN9__gnu_cxx9__freeresEv+0xe2>
    80000afe:	8522                	mv	a0,s0
    80000b00:	03a00593          	li	a1,58
    80000b04:	2fe140ef          	jal	80014e02 <strchr>
    80000b08:	842a                	mv	s0,a0
    80000b0a:	bf81                	j	80000a5a <_GLOBAL__sub_I__ZN9__gnu_cxx9__freeresEv+0x6a>
    80000b0c:	0705                	addi	a4,a4,1
    80000b0e:	00e40533          	add	a0,s0,a4
    80000b12:	4601                	li	a2,0
    80000b14:	082c                	addi	a1,sp,24
    80000b16:	472130ef          	jal	80013f88 <strtoul>
    80000b1a:	6462                	ld	s0,24(sp)
    80000b1c:	00044703          	lbu	a4,0(s0)
    80000b20:	fc670793          	addi	a5,a4,-58
    80000b24:	0017b793          	seqz	a5,a5
    80000b28:	00173713          	seqz	a4,a4
    80000b2c:	8fd9                	or	a5,a5,a4
    80000b2e:	dbe1                	beqz	a5,80000afe <_GLOBAL__sub_I__ZN9__gnu_cxx9__freeresEv+0x10e>
    80000b30:	4785                	li	a5,1
    80000b32:	07fe                	slli	a5,a5,0x1f
    80000b34:	fcf575e3          	bgeu	a0,a5,80000afe <_GLOBAL__sub_I__ZN9__gnu_cxx9__freeresEv+0x10e>
    80000b38:	c888                	sw	a0,16(s1)
    80000b3a:	b7d1                	j	80000afe <_GLOBAL__sub_I__ZN9__gnu_cxx9__freeresEv+0x10e>
    80000b3c:	00068797          	auipc	a5,0x68
    80000b40:	b0a7ba23          	sd	a0,-1260(a5) # 80068650 <_ZN12_GLOBAL__N_1L14emergency_poolE+0x8>
    80000b44:	e100                	sd	s0,0(a0)
    80000b46:	00053423          	sd	zero,8(a0)
    80000b4a:	bf91                	j	80000a9e <_GLOBAL__sub_I__ZN9__gnu_cxx9__freeresEv+0xae>

0000000080000b4c <_GLOBAL__sub_I__ZSt20__throw_system_errori>:
    80000b4c:	8082                	ret

0000000080000b4e <_Z5randfv>:
    80000b4e:	00023797          	auipc	a5,0x23
    80000b52:	7aa7a783          	lw	a5,1962(a5) # 800242f8 <_ZL6g_seed>
    80000b56:	41c65637          	lui	a2,0x41c65
    80000b5a:	e6d6061b          	addiw	a2,a2,-403 # 41c64e6d <__heap_size+0x41c44e6d>
    80000b5e:	02f6063b          	mulw	a2,a2,a5
    80000b62:	678d                	lui	a5,0x3
    80000b64:	0397879b          	addiw	a5,a5,57 # 3039 <__stack_align+0x3029>
    80000b68:	000d2737          	lui	a4,0xd2
    80000b6c:	b7170713          	addi	a4,a4,-1167 # d1b71 <__heap_size+0xb1b71>
    80000b70:	0732                	slli	a4,a4,0xc
    80000b72:	75970713          	addi	a4,a4,1881
    80000b76:	6689                	lui	a3,0x2
    80000b78:	7106869b          	addiw	a3,a3,1808 # 2710 <__stack_align+0x2700>
    80000b7c:	00024597          	auipc	a1,0x24
    80000b80:	82c5a707          	flw	fa4,-2004(a1) # 800243a8 <__atexit_dummy+0x58>
    80000b84:	9fb1                	addw	a5,a5,a2
    80000b86:	02079613          	slli	a2,a5,0x20
    80000b8a:	9201                	srli	a2,a2,0x20
    80000b8c:	02e60733          	mul	a4,a2,a4
    80000b90:	00023597          	auipc	a1,0x23
    80000b94:	76f5a423          	sw	a5,1896(a1) # 800242f8 <_ZL6g_seed>
    80000b98:	00024597          	auipc	a1,0x24
    80000b9c:	8145a787          	flw	fa5,-2028(a1) # 800243ac <__atexit_dummy+0x5c>
    80000ba0:	9335                	srli	a4,a4,0x2d
    80000ba2:	02e6873b          	mulw	a4,a3,a4
    80000ba6:	9f99                	subw	a5,a5,a4
    80000ba8:	d007f553          	fcvt.s.w	fa0,a5
    80000bac:	78e57543          	fmadd.s	fa0,fa0,fa4,fa5
    80000bb0:	8082                	ret

0000000080000bb2 <_Z8set_seedj>:
    80000bb2:	00023797          	auipc	a5,0x23
    80000bb6:	74a7a323          	sw	a0,1862(a5) # 800242f8 <_ZL6g_seed>
    80000bba:	8082                	ret

0000000080000bbc <_Z11xavier_initmm>:
    80000bbc:	952e                	add	a0,a0,a1
    80000bbe:	d0357753          	fcvt.s.lu	fa4,a0
    80000bc2:	00023797          	auipc	a5,0x23
    80000bc6:	7ee7a787          	flw	fa5,2030(a5) # 800243b0 <__atexit_dummy+0x60>
    80000bca:	00023797          	auipc	a5,0x23
    80000bce:	72e7a783          	lw	a5,1838(a5) # 800242f8 <_ZL6g_seed>
    80000bd2:	41c65637          	lui	a2,0x41c65
    80000bd6:	18e7f7d3          	fdiv.s	fa5,fa5,fa4
    80000bda:	e6d6061b          	addiw	a2,a2,-403 # 41c64e6d <__heap_size+0x41c44e6d>
    80000bde:	02f6063b          	mulw	a2,a2,a5
    80000be2:	678d                	lui	a5,0x3
    80000be4:	0397879b          	addiw	a5,a5,57 # 3039 <__stack_align+0x3029>
    80000be8:	000d2737          	lui	a4,0xd2
    80000bec:	b7170713          	addi	a4,a4,-1167 # d1b71 <__heap_size+0xb1b71>
    80000bf0:	0732                	slli	a4,a4,0xc
    80000bf2:	75970713          	addi	a4,a4,1881
    80000bf6:	6689                	lui	a3,0x2
    80000bf8:	7106869b          	addiw	a3,a3,1808 # 2710 <__stack_align+0x2700>
    80000bfc:	00023597          	auipc	a1,0x23
    80000c00:	7ac5a687          	flw	fa3,1964(a1) # 800243a8 <__atexit_dummy+0x58>
    80000c04:	9fb1                	addw	a5,a5,a2
    80000c06:	02079613          	slli	a2,a5,0x20
    80000c0a:	9201                	srli	a2,a2,0x20
    80000c0c:	02e60733          	mul	a4,a2,a4
    80000c10:	00023617          	auipc	a2,0x23
    80000c14:	6ef62423          	sw	a5,1768(a2) # 800242f8 <_ZL6g_seed>
    80000c18:	00023597          	auipc	a1,0x23
    80000c1c:	7945a707          	flw	fa4,1940(a1) # 800243ac <__atexit_dummy+0x5c>
    80000c20:	5807f7d3          	fsqrt.s	fa5,fa5
    80000c24:	9335                	srli	a4,a4,0x2d
    80000c26:	02e6873b          	mulw	a4,a3,a4
    80000c2a:	9f99                	subw	a5,a5,a4
    80000c2c:	d007f553          	fcvt.s.w	fa0,a5
    80000c30:	70d57543          	fmadd.s	fa0,fa0,fa3,fa4
    80000c34:	10f57553          	fmul.s	fa0,fa0,fa5
    80000c38:	8082                	ret

0000000080000c3a <_Z14init_embeddingv>:
    80000c3a:	000d2637          	lui	a2,0xd2
    80000c3e:	b7160613          	addi	a2,a2,-1167 # d1b71 <__heap_size+0xb1b71>
    80000c42:	00023717          	auipc	a4,0x23
    80000c46:	6b672703          	lw	a4,1718(a4) # 800242f8 <_ZL6g_seed>
    80000c4a:	00023797          	auipc	a5,0x23
    80000c4e:	75e7a607          	flw	fa2,1886(a5) # 800243a8 <__atexit_dummy+0x58>
    80000c52:	00023797          	auipc	a5,0x23
    80000c56:	75a7a687          	flw	fa3,1882(a5) # 800243ac <__atexit_dummy+0x5c>
    80000c5a:	00023797          	auipc	a5,0x23
    80000c5e:	75a7a707          	flw	fa4,1882(a5) # 800243b4 <__atexit_dummy+0x64>
    80000c62:	0632                	slli	a2,a2,0xc
    80000c64:	41c65837          	lui	a6,0x41c65
    80000c68:	650d                	lui	a0,0x3
    80000c6a:	6589                	lui	a1,0x2
    80000c6c:	75960613          	addi	a2,a2,1881
    80000c70:	e6d8081b          	addiw	a6,a6,-403 # 41c64e6d <__heap_size+0x41c44e6d>
    80000c74:	0395051b          	addiw	a0,a0,57 # 3039 <__stack_align+0x3029>
    80000c78:	7105859b          	addiw	a1,a1,1808 # 2710 <__stack_align+0x2700>
    80000c7c:	0005f697          	auipc	a3,0x5f
    80000c80:	8cc68693          	addi	a3,a3,-1844 # 8005f548 <_ZL16embedding_weight>
    80000c84:	00067897          	auipc	a7,0x67
    80000c88:	8c488893          	addi	a7,a7,-1852 # 80067548 <_ZL12pho_temp_vec>
    80000c8c:	0307073b          	mulw	a4,a4,a6
    80000c90:	0691                	addi	a3,a3,4
    80000c92:	9f29                	addw	a4,a4,a0
    80000c94:	02071793          	slli	a5,a4,0x20
    80000c98:	9381                	srli	a5,a5,0x20
    80000c9a:	02c787b3          	mul	a5,a5,a2
    80000c9e:	93b5                	srli	a5,a5,0x2d
    80000ca0:	02f587bb          	mulw	a5,a1,a5
    80000ca4:	40f707bb          	subw	a5,a4,a5
    80000ca8:	d007f7d3          	fcvt.s.w	fa5,a5
    80000cac:	68c7f7c3          	fmadd.s	fa5,fa5,fa2,fa3
    80000cb0:	10e7f7d3          	fmul.s	fa5,fa5,fa4
    80000cb4:	fef6ae27          	fsw	fa5,-4(a3)
    80000cb8:	fcd89ae3          	bne	a7,a3,80000c8c <_Z14init_embeddingv+0x52>
    80000cbc:	00023797          	auipc	a5,0x23
    80000cc0:	62e7ae23          	sw	a4,1596(a5) # 800242f8 <_ZL6g_seed>
    80000cc4:	8082                	ret

0000000080000cc6 <_Z24init_positional_encodingv>:
    80000cc6:	711d                	addi	sp,sp,-96
    80000cc8:	a826                	fsd	fs1,16(sp)
    80000cca:	a44a                	fsd	fs2,8(sp)
    80000ccc:	a04e                	fsd	fs3,0(sp)
    80000cce:	00023797          	auipc	a5,0x23
    80000cd2:	6ee7a907          	flw	fs2,1774(a5) # 800243bc <__atexit_dummy+0x6c>
    80000cd6:	00023797          	auipc	a5,0x23
    80000cda:	6e27a987          	flw	fs3,1762(a5) # 800243b8 <__atexit_dummy+0x68>
    80000cde:	00023797          	auipc	a5,0x23
    80000ce2:	6e27a487          	flw	fs1,1762(a5) # 800243c0 <__atexit_dummy+0x70>
    80000ce6:	e0ca                	sd	s2,64(sp)
    80000ce8:	fc4e                	sd	s3,56(sp)
    80000cea:	f852                	sd	s4,48(sp)
    80000cec:	f456                	sd	s5,40(sp)
    80000cee:	ec86                	sd	ra,88(sp)
    80000cf0:	e8a2                	sd	s0,80(sp)
    80000cf2:	e4a6                	sd	s1,72(sp)
    80000cf4:	ac22                	fsd	fs0,24(sp)
    80000cf6:	0005da17          	auipc	s4,0x5d
    80000cfa:	852a0a13          	addi	s4,s4,-1966 # 8005d548 <_ZL12pos_encoding>
    80000cfe:	4981                	li	s3,0
    80000d00:	04000913          	li	s2,64
    80000d04:	02000a93          	li	s5,32
    80000d08:	d029f453          	fcvt.s.l	fs0,s3
    80000d0c:	21398553          	fmv.s	fa0,fs3
    80000d10:	84d2                	mv	s1,s4
    80000d12:	4401                	li	s0,0
    80000d14:	a01d                	j	80000d3a <_Z24init_positional_encodingv+0x74>
    80000d16:	4ce0f0ef          	jal	800101e4 <sinf>
    80000d1a:	00a4a027          	fsw	fa0,0(s1)
    80000d1e:	0405                	addi	s0,s0,1
    80000d20:	0491                	addi	s1,s1,4
    80000d22:	ffe47793          	andi	a5,s0,-2
    80000d26:	d027f553          	fcvt.s.l	fa0,a5
    80000d2a:	11257553          	fmul.s	fa0,fa0,fs2
    80000d2e:	20a51553          	fneg.s	fa0,fa0
    80000d32:	10957553          	fmul.s	fa0,fa0,fs1
    80000d36:	3940f0ef          	jal	800100ca <expf>
    80000d3a:	00147793          	andi	a5,s0,1
    80000d3e:	10a47553          	fmul.s	fa0,fs0,fa0
    80000d42:	dbf1                	beqz	a5,80000d16 <_Z24init_positional_encodingv+0x50>
    80000d44:	62e0f0ef          	jal	80010372 <cosf>
    80000d48:	0405                	addi	s0,s0,1
    80000d4a:	00a4a027          	fsw	fa0,0(s1)
    80000d4e:	01240463          	beq	s0,s2,80000d56 <_Z24init_positional_encodingv+0x90>
    80000d52:	0491                	addi	s1,s1,4
    80000d54:	b7f9                	j	80000d22 <_Z24init_positional_encodingv+0x5c>
    80000d56:	0985                	addi	s3,s3,1
    80000d58:	100a0a13          	addi	s4,s4,256
    80000d5c:	fb5996e3          	bne	s3,s5,80000d08 <_Z24init_positional_encodingv+0x42>
    80000d60:	60e6                	ld	ra,88(sp)
    80000d62:	6446                	ld	s0,80(sp)
    80000d64:	64a6                	ld	s1,72(sp)
    80000d66:	6906                	ld	s2,64(sp)
    80000d68:	79e2                	ld	s3,56(sp)
    80000d6a:	7a42                	ld	s4,48(sp)
    80000d6c:	7aa2                	ld	s5,40(sp)
    80000d6e:	2462                	fld	fs0,24(sp)
    80000d70:	24c2                	fld	fs1,16(sp)
    80000d72:	2922                	fld	fs2,8(sp)
    80000d74:	2982                	fld	fs3,0(sp)
    80000d76:	6125                	addi	sp,sp,96
    80000d78:	8082                	ret

0000000080000d7a <_Z24init_transformer_weightsv>:
    80000d7a:	7159                	addi	sp,sp,-112
    80000d7c:	ec6a                	sd	s10,24(sp)
    80000d7e:	000d25b7          	lui	a1,0xd2
    80000d82:	00023d17          	auipc	s10,0x23
    80000d86:	636d0d13          	addi	s10,s10,1590 # 800243b8 <__atexit_dummy+0x68>
    80000d8a:	b7158593          	addi	a1,a1,-1167 # d1b71 <__heap_size+0xb1b71>
    80000d8e:	000d2007          	flw	ft0,0(s10)
    80000d92:	00023797          	auipc	a5,0x23
    80000d96:	5667a783          	lw	a5,1382(a5) # 800242f8 <_ZL6g_seed>
    80000d9a:	00023717          	auipc	a4,0x23
    80000d9e:	60e72707          	flw	fa4,1550(a4) # 800243a8 <__atexit_dummy+0x58>
    80000da2:	00023717          	auipc	a4,0x23
    80000da6:	60a72787          	flw	fa5,1546(a4) # 800243ac <__atexit_dummy+0x5c>
    80000daa:	00023717          	auipc	a4,0x23
    80000dae:	61a72587          	flw	fa1,1562(a4) # 800243c4 <__atexit_dummy+0x74>
    80000db2:	00023717          	auipc	a4,0x23
    80000db6:	60272507          	flw	fa0,1538(a4) # 800243b4 <__atexit_dummy+0x64>
    80000dba:	e4d2                	sd	s4,72(sp)
    80000dbc:	e0d6                	sd	s5,64(sp)
    80000dbe:	fc5a                	sd	s6,56(sp)
    80000dc0:	f85e                	sd	s7,48(sp)
    80000dc2:	f462                	sd	s8,40(sp)
    80000dc4:	f066                	sd	s9,32(sp)
    80000dc6:	05b2                	slli	a1,a1,0xc
    80000dc8:	7ca1                	lui	s9,0xfffe8
    80000dca:	7c21                	lui	s8,0xfffe8
    80000dcc:	7bb1                	lui	s7,0xfffec
    80000dce:	41c658b7          	lui	a7,0x41c65
    80000dd2:	680d                	lui	a6,0x3
    80000dd4:	6509                	lui	a0,0x2
    80000dd6:	7b39                	lui	s6,0xfffee
    80000dd8:	7ac1                	lui	s5,0xffff0
    80000dda:	6a61                	lui	s4,0x18
    80000ddc:	f4a2                	sd	s0,104(sp)
    80000dde:	ecca                	sd	s2,88(sp)
    80000de0:	e8ce                	sd	s3,80(sp)
    80000de2:	e86e                	sd	s11,16(sp)
    80000de4:	f0a6                	sd	s1,96(sp)
    80000de6:	75958593          	addi	a1,a1,1881
    80000dea:	a00c8c93          	addi	s9,s9,-1536 # fffffffffffe7a00 <__heap_end+0xffffffff7ff5ea00>
    80000dee:	c00c0c13          	addi	s8,s8,-1024 # fffffffffffe7c00 <__heap_end+0xffffffff7ff5ec00>
    80000df2:	c00b8b93          	addi	s7,s7,-1024 # fffffffffffebc00 <__heap_end+0xffffffff7ff62c00>
    80000df6:	e6d8889b          	addiw	a7,a7,-403 # 41c64e6d <__heap_size+0x41c44e6d>
    80000dfa:	0398081b          	addiw	a6,a6,57 # 3039 <__stack_align+0x3029>
    80000dfe:	7105051b          	addiw	a0,a0,1808 # 2710 <__stack_align+0x2700>
    80000e02:	c00b0b13          	addi	s6,s6,-1024 # fffffffffffedc00 <__heap_end+0xffffffff7ff64c00>
    80000e06:	e00a8a93          	addi	s5,s5,-512 # fffffffffffefe00 <__heap_end+0xffffffff7ff66e00>
    80000e0a:	700a0a13          	addi	s4,s4,1792 # 18700 <__stack_size+0x10700>
    80000e0e:	00044e17          	auipc	t3,0x44
    80000e12:	f3ae0e13          	addi	t3,t3,-198 # 80044d48 <_ZL13layer_weights+0x18600>
    80000e16:	00044997          	auipc	s3,0x44
    80000e1a:	03298993          	addi	s3,s3,50 # 80044e48 <_ZL13layer_weights+0x18700>
    80000e1e:	0003c417          	auipc	s0,0x3c
    80000e22:	f2a40413          	addi	s0,s0,-214 # 8003cd48 <_ZL13layer_weights+0x10600>
    80000e26:	0003c397          	auipc	t2,0x3c
    80000e2a:	d2238393          	addi	t2,t2,-734 # 8003cb48 <_ZL13layer_weights+0x10400>
    80000e2e:	00034297          	auipc	t0,0x34
    80000e32:	b1a28293          	addi	t0,t0,-1254 # 80034948 <_ZL13layer_weights+0x8200>
    80000e36:	00034917          	auipc	s2,0x34
    80000e3a:	c1290913          	addi	s2,s2,-1006 # 80034a48 <_ZL13layer_weights+0x8300>
    80000e3e:	0002ef97          	auipc	t6,0x2e
    80000e42:	b0af8f93          	addi	t6,t6,-1270 # 8002e948 <_ZL13layer_weights+0x2200>
    80000e46:	00075d97          	auipc	s11,0x75
    80000e4a:	d02d8d93          	addi	s11,s11,-766 # 80075b48 <_end+0xd0f8>
    80000e4e:	0002ce97          	auipc	t4,0x2c
    80000e52:	9fae8e93          	addi	t4,t4,-1542 # 8002c848 <_ZL13layer_weights+0x100>
    80000e56:	019e0733          	add	a4,t3,s9
    80000e5a:	00072027          	fsw	ft0,0(a4)
    80000e5e:	10072023          	sw	zero,256(a4)
    80000e62:	0711                	addi	a4,a4,4
    80000e64:	feee9be3          	bne	t4,a4,80000e5a <_Z24init_transformer_weightsv+0xe0>
    80000e68:	018e0333          	add	t1,t3,s8
    80000e6c:	017e04b3          	add	s1,t3,s7
    80000e70:	8f7e                	mv	t5,t6
    80000e72:	e476                	sd	t4,8(sp)
    80000e74:	031787bb          	mulw	a5,a5,a7
    80000e78:	0311                	addi	t1,t1,4
    80000e7a:	0f11                	addi	t5,t5,4
    80000e7c:	0491                	addi	s1,s1,4
    80000e7e:	00f80ebb          	addw	t4,a6,a5
    80000e82:	03d8863b          	mulw	a2,a7,t4
    80000e86:	020e9693          	slli	a3,t4,0x20
    80000e8a:	9281                	srli	a3,a3,0x20
    80000e8c:	00c8063b          	addw	a2,a6,a2
    80000e90:	02c887bb          	mulw	a5,a7,a2
    80000e94:	02b686b3          	mul	a3,a3,a1
    80000e98:	00f807bb          	addw	a5,a6,a5
    80000e9c:	02079713          	slli	a4,a5,0x20
    80000ea0:	9301                	srli	a4,a4,0x20
    80000ea2:	02b70733          	mul	a4,a4,a1
    80000ea6:	92b5                	srli	a3,a3,0x2d
    80000ea8:	02d506bb          	mulw	a3,a0,a3
    80000eac:	9335                	srli	a4,a4,0x2d
    80000eae:	40de86bb          	subw	a3,t4,a3
    80000eb2:	02e50ebb          	mulw	t4,a0,a4
    80000eb6:	02061713          	slli	a4,a2,0x20
    80000eba:	9301                	srli	a4,a4,0x20
    80000ebc:	d006f653          	fcvt.s.w	fa2,a3
    80000ec0:	78e67643          	fmadd.s	fa2,fa2,fa4,fa5
    80000ec4:	02b70733          	mul	a4,a4,a1
    80000ec8:	10b67653          	fmul.s	fa2,fa2,fa1
    80000ecc:	41d78ebb          	subw	t4,a5,t4
    80000ed0:	d00ef6d3          	fcvt.s.w	fa3,t4
    80000ed4:	fec32e27          	fsw	fa2,-4(t1)
    80000ed8:	78e6f6c3          	fmadd.s	fa3,fa3,fa4,fa5
    80000edc:	9335                	srli	a4,a4,0x2d
    80000ede:	02e5073b          	mulw	a4,a0,a4
    80000ee2:	10b6f6d3          	fmul.s	fa3,fa3,fa1
    80000ee6:	9e19                	subw	a2,a2,a4
    80000ee8:	d0067653          	fcvt.s.w	fa2,a2
    80000eec:	78e67643          	fmadd.s	fa2,fa2,fa4,fa5
    80000ef0:	10b67653          	fmul.s	fa2,fa2,fa1
    80000ef4:	fecf2e27          	fsw	fa2,-4(t5)
    80000ef8:	fed4ae27          	fsw	fa3,-4(s1)
    80000efc:	f66f9ce3          	bne	t6,t1,80000e74 <_Z24init_transformer_weightsv+0xfa>
    80000f00:	6ea2                	ld	t4,8(sp)
    80000f02:	016e06b3          	add	a3,t3,s6
    80000f06:	031787bb          	mulw	a5,a5,a7
    80000f0a:	0691                	addi	a3,a3,4
    80000f0c:	00f807bb          	addw	a5,a6,a5
    80000f10:	02079713          	slli	a4,a5,0x20
    80000f14:	9301                	srli	a4,a4,0x20
    80000f16:	02b70733          	mul	a4,a4,a1
    80000f1a:	9335                	srli	a4,a4,0x2d
    80000f1c:	02e5073b          	mulw	a4,a0,a4
    80000f20:	40e7873b          	subw	a4,a5,a4
    80000f24:	d00776d3          	fcvt.s.w	fa3,a4
    80000f28:	78e6f6c3          	fmadd.s	fa3,fa3,fa4,fa5
    80000f2c:	10b6f6d3          	fmul.s	fa3,fa3,fa1
    80000f30:	fed6ae27          	fsw	fa3,-4(a3)
    80000f34:	fcd299e3          	bne	t0,a3,80000f06 <_Z24init_transformer_weightsv+0x18c>
    80000f38:	000d2687          	flw	fa3,0(s10)
    80000f3c:	00d6a027          	fsw	fa3,0(a3)
    80000f40:	1006a023          	sw	zero,256(a3)
    80000f44:	0691                	addi	a3,a3,4
    80000f46:	fed91be3          	bne	s2,a3,80000f3c <_Z24init_transformer_weightsv+0x1c2>
    80000f4a:	015e0733          	add	a4,t3,s5
    80000f4e:	031787bb          	mulw	a5,a5,a7
    80000f52:	0711                	addi	a4,a4,4
    80000f54:	00f807bb          	addw	a5,a6,a5
    80000f58:	02079693          	slli	a3,a5,0x20
    80000f5c:	9281                	srli	a3,a3,0x20
    80000f5e:	02b686b3          	mul	a3,a3,a1
    80000f62:	92b5                	srli	a3,a3,0x2d
    80000f64:	02d506bb          	mulw	a3,a0,a3
    80000f68:	40d786bb          	subw	a3,a5,a3
    80000f6c:	d006f6d3          	fcvt.s.w	fa3,a3
    80000f70:	78e6f6c3          	fmadd.s	fa3,fa3,fa4,fa5
    80000f74:	10a6f6d3          	fmul.s	fa3,fa3,fa0
    80000f78:	fed72e27          	fsw	fa3,-4(a4)
    80000f7c:	fce399e3          	bne	t2,a4,80000f4e <_Z24init_transformer_weightsv+0x1d4>
    80000f80:	00072023          	sw	zero,0(a4)
    80000f84:	0711                	addi	a4,a4,4
    80000f86:	fee41de3          	bne	s0,a4,80000f80 <_Z24init_transformer_weightsv+0x206>
    80000f8a:	031787bb          	mulw	a5,a5,a7
    80000f8e:	0711                	addi	a4,a4,4
    80000f90:	00f807bb          	addw	a5,a6,a5
    80000f94:	02079693          	slli	a3,a5,0x20
    80000f98:	9281                	srli	a3,a3,0x20
    80000f9a:	02b686b3          	mul	a3,a3,a1
    80000f9e:	92b5                	srli	a3,a3,0x2d
    80000fa0:	02d506bb          	mulw	a3,a0,a3
    80000fa4:	40d786bb          	subw	a3,a5,a3
    80000fa8:	d006f6d3          	fcvt.s.w	fa3,a3
    80000fac:	78e6f6c3          	fmadd.s	fa3,fa3,fa4,fa5
    80000fb0:	10a6f6d3          	fmul.s	fa3,fa3,fa0
    80000fb4:	fed72e27          	fsw	fa3,-4(a4)
    80000fb8:	fcee19e3          	bne	t3,a4,80000f8a <_Z24init_transformer_weightsv+0x210>
    80000fbc:	00072023          	sw	zero,0(a4)
    80000fc0:	0711                	addi	a4,a4,4
    80000fc2:	fee99de3          	bne	s3,a4,80000fbc <_Z24init_transformer_weightsv+0x242>
    80000fc6:	9e52                	add	t3,t3,s4
    80000fc8:	99d2                	add	s3,s3,s4
    80000fca:	9452                	add	s0,s0,s4
    80000fcc:	93d2                	add	t2,t2,s4
    80000fce:	92d2                	add	t0,t0,s4
    80000fd0:	9952                	add	s2,s2,s4
    80000fd2:	9fd2                	add	t6,t6,s4
    80000fd4:	9ed2                	add	t4,t4,s4
    80000fd6:	e9cd90e3          	bne	s11,t3,80000e56 <_Z24init_transformer_weightsv+0xdc>
    80000fda:	7426                	ld	s0,104(sp)
    80000fdc:	00023717          	auipc	a4,0x23
    80000fe0:	30f72e23          	sw	a5,796(a4) # 800242f8 <_ZL6g_seed>
    80000fe4:	7486                	ld	s1,96(sp)
    80000fe6:	6966                	ld	s2,88(sp)
    80000fe8:	69c6                	ld	s3,80(sp)
    80000fea:	6a26                	ld	s4,72(sp)
    80000fec:	6a86                	ld	s5,64(sp)
    80000fee:	7b62                	ld	s6,56(sp)
    80000ff0:	7bc2                	ld	s7,48(sp)
    80000ff2:	7c22                	ld	s8,40(sp)
    80000ff4:	7c82                	ld	s9,32(sp)
    80000ff6:	6d62                	ld	s10,24(sp)
    80000ff8:	6dc2                	ld	s11,16(sp)
    80000ffa:	6165                	addi	sp,sp,112
    80000ffc:	8082                	ret

0000000080000ffe <_Z17init_output_layerv>:
    80000ffe:	000d2637          	lui	a2,0xd2
    80001002:	b7160613          	addi	a2,a2,-1167 # d1b71 <__heap_size+0xb1b71>
    80001006:	00023717          	auipc	a4,0x23
    8000100a:	2f272703          	lw	a4,754(a4) # 800242f8 <_ZL6g_seed>
    8000100e:	00023797          	auipc	a5,0x23
    80001012:	39a7a607          	flw	fa2,922(a5) # 800243a8 <__atexit_dummy+0x58>
    80001016:	00023797          	auipc	a5,0x23
    8000101a:	3967a687          	flw	fa3,918(a5) # 800243ac <__atexit_dummy+0x5c>
    8000101e:	00023797          	auipc	a5,0x23
    80001022:	3967a707          	flw	fa4,918(a5) # 800243b4 <__atexit_dummy+0x64>
    80001026:	0632                	slli	a2,a2,0xc
    80001028:	41c65837          	lui	a6,0x41c65
    8000102c:	650d                	lui	a0,0x3
    8000102e:	6589                	lui	a1,0x2
    80001030:	75960613          	addi	a2,a2,1881
    80001034:	e6d8081b          	addiw	a6,a6,-403 # 41c64e6d <__heap_size+0x41c44e6d>
    80001038:	0395051b          	addiw	a0,a0,57 # 3039 <__stack_align+0x3029>
    8000103c:	7105859b          	addiw	a1,a1,1808 # 2710 <__stack_align+0x2700>
    80001040:	00023697          	auipc	a3,0x23
    80001044:	70868693          	addi	a3,a3,1800 # 80024748 <_ZL13output_weight>
    80001048:	0002b897          	auipc	a7,0x2b
    8000104c:	70088893          	addi	a7,a7,1792 # 8002c748 <_ZL13layer_weights>
    80001050:	0307073b          	mulw	a4,a4,a6
    80001054:	0691                	addi	a3,a3,4
    80001056:	9f29                	addw	a4,a4,a0
    80001058:	02071793          	slli	a5,a4,0x20
    8000105c:	9381                	srli	a5,a5,0x20
    8000105e:	02c787b3          	mul	a5,a5,a2
    80001062:	93b5                	srli	a5,a5,0x2d
    80001064:	02f587bb          	mulw	a5,a1,a5
    80001068:	40f707bb          	subw	a5,a4,a5
    8000106c:	d007f7d3          	fcvt.s.w	fa5,a5
    80001070:	68c7f7c3          	fmadd.s	fa5,fa5,fa2,fa3
    80001074:	10e7f7d3          	fmul.s	fa5,fa5,fa4
    80001078:	fef6ae27          	fsw	fa5,-4(a3)
    8000107c:	fcd89ae3          	bne	a7,a3,80001050 <_Z17init_output_layerv+0x52>
    80001080:	00023797          	auipc	a5,0x23
    80001084:	26e7ac23          	sw	a4,632(a5) # 800242f8 <_ZL6g_seed>
    80001088:	a5018793          	addi	a5,gp,-1456 # 80024548 <_ZL11output_bias>
    8000108c:	c5018713          	addi	a4,gp,-944 # 80024748 <_ZL13output_weight>
    80001090:	0007a023          	sw	zero,0(a5)
    80001094:	0791                	addi	a5,a5,4
    80001096:	fef71de3          	bne	a4,a5,80001090 <_Z17init_output_layerv+0x92>
    8000109a:	8082                	ret

000000008000109c <_Z16init_all_weightsv>:
    8000109c:	1141                	addi	sp,sp,-16
    8000109e:	00016517          	auipc	a0,0x16
    800010a2:	99a50513          	addi	a0,a0,-1638 # 80016a38 <__tbss_end+0x6>
    800010a6:	e406                	sd	ra,8(sp)
    800010a8:	00f130ef          	jal	800148b6 <puts>
    800010ac:	678d                	lui	a5,0x3
    800010ae:	03978793          	addi	a5,a5,57 # 3039 <__stack_align+0x3029>
    800010b2:	00023717          	auipc	a4,0x23
    800010b6:	24f72323          	sw	a5,582(a4) # 800242f8 <_ZL6g_seed>
    800010ba:	b81ff0ef          	jal	80000c3a <_Z14init_embeddingv>
    800010be:	c09ff0ef          	jal	80000cc6 <_Z24init_positional_encodingv>
    800010c2:	cb9ff0ef          	jal	80000d7a <_Z24init_transformer_weightsv>
    800010c6:	f39ff0ef          	jal	80000ffe <_Z17init_output_layerv>
    800010ca:	00016517          	auipc	a0,0x16
    800010ce:	98e50513          	addi	a0,a0,-1650 # 80016a58 <__tbss_end+0x26>
    800010d2:	7e4130ef          	jal	800148b6 <puts>
    800010d6:	04000613          	li	a2,64
    800010da:	08000593          	li	a1,128
    800010de:	00016517          	auipc	a0,0x16
    800010e2:	99a50513          	addi	a0,a0,-1638 # 80016a78 <__tbss_end+0x46>
    800010e6:	68a130ef          	jal	80014770 <iprintf>
    800010ea:	04000613          	li	a2,64
    800010ee:	02000593          	li	a1,32
    800010f2:	00016517          	auipc	a0,0x16
    800010f6:	99e50513          	addi	a0,a0,-1634 # 80016a90 <__tbss_end+0x5e>
    800010fa:	676130ef          	jal	80014770 <iprintf>
    800010fe:	4589                	li	a1,2
    80001100:	00016517          	auipc	a0,0x16
    80001104:	9b850513          	addi	a0,a0,-1608 # 80016ab8 <__tbss_end+0x86>
    80001108:	668130ef          	jal	80014770 <iprintf>
    8000110c:	04000613          	li	a2,64
    80001110:	08000593          	li	a1,128
    80001114:	00016517          	auipc	a0,0x16
    80001118:	9c450513          	addi	a0,a0,-1596 # 80016ad8 <__tbss_end+0xa6>
    8000111c:	654130ef          	jal	80014770 <iprintf>
    80001120:	60a2                	ld	ra,8(sp)
    80001122:	00016517          	auipc	a0,0x16
    80001126:	9d650513          	addi	a0,a0,-1578 # 80016af8 <__tbss_end+0xc6>
    8000112a:	0141                	addi	sp,sp,16
    8000112c:	78a1306f          	j	800148b6 <puts>

0000000080001130 <_Z11char_to_idxc>:
    80001130:	07f00793          	li	a5,127
    80001134:	00a7d363          	bge	a5,a0,8000113a <_Z11char_to_idxc+0xa>
    80001138:	4501                	li	a0,0
    8000113a:	8082                	ret

000000008000113c <_Z11idx_to_chari>:
    8000113c:	07f00793          	li	a5,127
    80001140:	00a7f463          	bgeu	a5,a0,80001148 <_Z11idx_to_chari+0xc>
    80001144:	03f00513          	li	a0,63
    80001148:	0ff57513          	zext.b	a0,a0
    8000114c:	8082                	ret

000000008000114e <_Z13encode_stringPKcPim>:
    8000114e:	1101                	addi	sp,sp,-32
    80001150:	e822                	sd	s0,16(sp)
    80001152:	e42e                	sd	a1,8(sp)
    80001154:	e032                	sd	a2,0(sp)
    80001156:	ec06                	sd	ra,24(sp)
    80001158:	842a                	mv	s0,a0
    8000115a:	10a140ef          	jal	80015264 <strlen>
    8000115e:	6602                	ld	a2,0(sp)
    80001160:	65a2                	ld	a1,8(sp)
    80001162:	00a67363          	bgeu	a2,a0,80001168 <_Z13encode_stringPKcPim+0x1a>
    80001166:	8532                	mv	a0,a2
    80001168:	c10d                	beqz	a0,8000118a <_Z13encode_stringPKcPim+0x3c>
    8000116a:	050a                	slli	a0,a0,0x2
    8000116c:	00a58733          	add	a4,a1,a0
    80001170:	07f00693          	li	a3,127
    80001174:	8522                	mv	a0,s0
    80001176:	00054783          	lbu	a5,0(a0)
    8000117a:	0505                	addi	a0,a0,1
    8000117c:	00f6d363          	bge	a3,a5,80001182 <_Z13encode_stringPKcPim+0x34>
    80001180:	4781                	li	a5,0
    80001182:	c19c                	sw	a5,0(a1)
    80001184:	0591                	addi	a1,a1,4
    80001186:	fee598e3          	bne	a1,a4,80001176 <_Z13encode_stringPKcPim+0x28>
    8000118a:	60e2                	ld	ra,24(sp)
    8000118c:	6442                	ld	s0,16(sp)
    8000118e:	6105                	addi	sp,sp,32
    80001190:	8082                	ret

0000000080001192 <_Z12embed_tokensPfPKim>:
    80001192:	c621                	beqz	a2,800011da <_Z12embed_tokensPfPKim+0x48>
    80001194:	882e                	mv	a6,a1
    80001196:	0005e317          	auipc	t1,0x5e
    8000119a:	3b230313          	addi	t1,t1,946 # 8005f548 <_ZL16embedding_weight>
    8000119e:	85aa                	mv	a1,a0
    800011a0:	0005e897          	auipc	a7,0x5e
    800011a4:	4a888893          	addi	a7,a7,1192 # 8005f648 <_ZL16embedding_weight+0x100>
    800011a8:	00661513          	slli	a0,a2,0x6
    800011ac:	4601                	li	a2,0
    800011ae:	00082683          	lw	a3,0(a6)
    800011b2:	872e                	mv	a4,a1
    800011b4:	06a2                	slli	a3,a3,0x8
    800011b6:	00d307b3          	add	a5,t1,a3
    800011ba:	96c6                	add	a3,a3,a7
    800011bc:	0007a787          	flw	fa5,0(a5)
    800011c0:	0791                	addi	a5,a5,4
    800011c2:	0711                	addi	a4,a4,4
    800011c4:	fef72e27          	fsw	fa5,-4(a4)
    800011c8:	fed79ae3          	bne	a5,a3,800011bc <_Z12embed_tokensPfPKim+0x2a>
    800011cc:	04060613          	addi	a2,a2,64
    800011d0:	0811                	addi	a6,a6,4
    800011d2:	10058593          	addi	a1,a1,256
    800011d6:	fca61ce3          	bne	a2,a0,800011ae <_Z12embed_tokensPfPKim+0x1c>
    800011da:	8082                	ret

00000000800011dc <_Z23add_positional_encodingPfm>:
    800011dc:	c1a9                	beqz	a1,8000121e <_Z23add_positional_encodingPfm+0x42>
    800011de:	10050693          	addi	a3,a0,256
    800011e2:	4601                	li	a2,0
    800011e4:	00659513          	slli	a0,a1,0x6
    800011e8:	0005c597          	auipc	a1,0x5c
    800011ec:	36058593          	addi	a1,a1,864 # 8005d548 <_ZL12pos_encoding>
    800011f0:	f0068793          	addi	a5,a3,-256
    800011f4:	872e                	mv	a4,a1
    800011f6:	0007a787          	flw	fa5,0(a5)
    800011fa:	00072707          	flw	fa4,0(a4)
    800011fe:	0791                	addi	a5,a5,4
    80001200:	0711                	addi	a4,a4,4
    80001202:	00e7f7d3          	fadd.s	fa5,fa5,fa4
    80001206:	fef7ae27          	fsw	fa5,-4(a5)
    8000120a:	fed796e3          	bne	a5,a3,800011f6 <_Z23add_positional_encodingPfm+0x1a>
    8000120e:	04060613          	addi	a2,a2,64
    80001212:	10058593          	addi	a1,a1,256
    80001216:	10068693          	addi	a3,a3,256
    8000121a:	fca61be3          	bne	a2,a0,800011f0 <_Z23add_positional_encodingPfm+0x14>
    8000121e:	8082                	ret

0000000080001220 <_Z25forward_transformer_blockPfPKfRK23TransformerBlockWeightsm>:
    80001220:	6fe1                	lui	t6,0x18
    80001222:	6f41                	lui	t5,0x10
    80001224:	6ec1                	lui	t4,0x10
    80001226:	600f8f93          	addi	t6,t6,1536 # 18600 <__stack_size+0x10600>
    8000122a:	600f0f13          	addi	t5,t5,1536 # 10600 <__stack_size+0x8600>
    8000122e:	400e8e93          	addi	t4,t4,1024 # 10400 <__stack_size+0x8400>
    80001232:	6e21                	lui	t3,0x8
    80001234:	6321                	lui	t1,0x8
    80001236:	6721                	lui	a4,0x8
    80001238:	7159                	addi	sp,sp,-112
    8000123a:	9fb2                	add	t6,t6,a2
    8000123c:	9f32                	add	t5,t5,a2
    8000123e:	9eb2                	add	t4,t4,a2
    80001240:	400e0e13          	addi	t3,t3,1024 # 8400 <__stack_size+0x400>
    80001244:	30030313          	addi	t1,t1,768 # 8300 <__stack_size+0x300>
    80001248:	20070713          	addi	a4,a4,512 # 8200 <__stack_size+0x200>
    8000124c:	6899                	lui	a7,0x6
    8000124e:	6811                	lui	a6,0x4
    80001250:	6789                	lui	a5,0x2
    80001252:	9732                	add	a4,a4,a2
    80001254:	f47e                	sd	t6,40(sp)
    80001256:	f07a                	sd	t5,32(sp)
    80001258:	ec76                	sd	t4,24(sp)
    8000125a:	9e32                	add	t3,t3,a2
    8000125c:	9332                	add	t1,t1,a2
    8000125e:	4285                	li	t0,1
    80001260:	08000f93          	li	t6,128
    80001264:	02000f13          	li	t5,32
    80001268:	04000e93          	li	t4,64
    8000126c:	20088893          	addi	a7,a7,512 # 6200 <__stack_size_min+0x200>
    80001270:	20080813          	addi	a6,a6,512 # 4200 <__stack_align+0x41f0>
    80001274:	20078793          	addi	a5,a5,512 # 2200 <__stack_align+0x21f0>
    80001278:	f836                	sd	a3,48(sp)
    8000127a:	e03a                	sd	a4,0(sp)
    8000127c:	e872                	sd	t3,16(sp)
    8000127e:	e41a                	sd	t1,8(sp)
    80001280:	e896                	sd	t0,80(sp)
    80001282:	e4fe                	sd	t6,72(sp)
    80001284:	e0fa                	sd	t5,64(sp)
    80001286:	fc76                	sd	t4,56(sp)
    80001288:	98b2                	add	a7,a7,a2
    8000128a:	9832                	add	a6,a6,a2
    8000128c:	97b2                	add	a5,a5,a2
    8000128e:	20060713          	addi	a4,a2,512
    80001292:	10060693          	addi	a3,a2,256
    80001296:	f486                	sd	ra,104(sp)
    80001298:	513030ef          	jal	80004faa <_Z22transformer_block_fp32PfPKfS1_S1_S1_S1_S1_S1_S1_S1_S1_S1_S1_S1_mmmmb>
    8000129c:	70a6                	ld	ra,104(sp)
    8000129e:	6165                	addi	sp,sp,112
    800012a0:	8082                	ret

00000000800012a2 <_Z16project_to_vocabPfPKfm>:
    800012a2:	00861793          	slli	a5,a2,0x8
    800012a6:	f0058813          	addi	a6,a1,-256
    800012aa:	00f586b3          	add	a3,a1,a5
    800012ae:	983e                	add	a6,a6,a5
    800012b0:	a5018613          	addi	a2,gp,-1456 # 80024548 <_ZL11output_bias>
    800012b4:	00023597          	auipc	a1,0x23
    800012b8:	49458593          	addi	a1,a1,1172 # 80024748 <_ZL13output_weight>
    800012bc:	c5018893          	addi	a7,gp,-944 # 80024748 <_ZL13output_weight>
    800012c0:	00062787          	flw	fa5,0(a2)
    800012c4:	872e                	mv	a4,a1
    800012c6:	87c2                	mv	a5,a6
    800012c8:	0007a687          	flw	fa3,0(a5)
    800012cc:	00072707          	flw	fa4,0(a4)
    800012d0:	0791                	addi	a5,a5,4
    800012d2:	0711                	addi	a4,a4,4
    800012d4:	78e6f7c3          	fmadd.s	fa5,fa3,fa4,fa5
    800012d8:	fef698e3          	bne	a3,a5,800012c8 <_Z16project_to_vocabPfPKfm+0x26>
    800012dc:	00f52027          	fsw	fa5,0(a0)
    800012e0:	0611                	addi	a2,a2,4
    800012e2:	0511                	addi	a0,a0,4
    800012e4:	10058593          	addi	a1,a1,256
    800012e8:	fd161ce3          	bne	a2,a7,800012c0 <_Z16project_to_vocabPfPKfm+0x1e>
    800012ec:	8082                	ret

00000000800012ee <_Z14softmax_logitsPfPKfmf>:
    800012ee:	711d                	addi	sp,sp,-96
    800012f0:	ac22                	fsd	fs0,24(sp)
    800012f2:	ec86                	sd	ra,88(sp)
    800012f4:	f456                	sd	s5,40(sp)
    800012f6:	4785                	li	a5,1
    800012f8:	0005a407          	flw	fs0,0(a1)
    800012fc:	08c7ff63          	bgeu	a5,a2,8000139a <_Z14softmax_logitsPfPKfmf+0xac>
    80001300:	00261a93          	slli	s5,a2,0x2
    80001304:	e8a2                	sd	s0,80(sp)
    80001306:	e4a6                	sd	s1,72(sp)
    80001308:	e0ca                	sd	s2,64(sp)
    8000130a:	fc4e                	sd	s3,56(sp)
    8000130c:	f852                	sd	s4,48(sp)
    8000130e:	a826                	fsd	fs1,16(sp)
    80001310:	a44a                	fsd	fs2,8(sp)
    80001312:	a04e                	fsd	fs3,0(sp)
    80001314:	01558733          	add	a4,a1,s5
    80001318:	00458793          	addi	a5,a1,4
    8000131c:	0007a787          	flw	fa5,0(a5)
    80001320:	0791                	addi	a5,a5,4
    80001322:	28f41453          	fmax.s	fs0,fs0,fa5
    80001326:	fee79be3          	bne	a5,a4,8000131c <_Z14softmax_logitsPfPKfmf+0x2e>
    8000132a:	00023797          	auipc	a5,0x23
    8000132e:	08e7a987          	flw	fs3,142(a5) # 800243b8 <__atexit_dummy+0x68>
    80001332:	f00004d3          	fmv.w.x	fs1,zero
    80001336:	89aa                	mv	s3,a0
    80001338:	18a9f953          	fdiv.s	fs2,fs3,fa0
    8000133c:	84ae                	mv	s1,a1
    8000133e:	01558a33          	add	s4,a1,s5
    80001342:	842a                	mv	s0,a0
    80001344:	892a                	mv	s2,a0
    80001346:	0004a507          	flw	fa0,0(s1)
    8000134a:	0491                	addi	s1,s1,4
    8000134c:	0911                	addi	s2,s2,4
    8000134e:	08857553          	fsub.s	fa0,fa0,fs0
    80001352:	11257553          	fmul.s	fa0,fa0,fs2
    80001356:	5750e0ef          	jal	800100ca <expf>
    8000135a:	fea92e27          	fsw	fa0,-4(s2)
    8000135e:	00a4f4d3          	fadd.s	fs1,fs1,fa0
    80001362:	ff4492e3          	bne	s1,s4,80001346 <_Z14softmax_logitsPfPKfmf+0x58>
    80001366:	1899f753          	fdiv.s	fa4,fs3,fs1
    8000136a:	01598533          	add	a0,s3,s5
    8000136e:	00042787          	flw	fa5,0(s0)
    80001372:	0411                	addi	s0,s0,4
    80001374:	10e7f7d3          	fmul.s	fa5,fa5,fa4
    80001378:	fef42e27          	fsw	fa5,-4(s0)
    8000137c:	fe8519e3          	bne	a0,s0,8000136e <_Z14softmax_logitsPfPKfmf+0x80>
    80001380:	6446                	ld	s0,80(sp)
    80001382:	64a6                	ld	s1,72(sp)
    80001384:	6906                	ld	s2,64(sp)
    80001386:	79e2                	ld	s3,56(sp)
    80001388:	7a42                	ld	s4,48(sp)
    8000138a:	24c2                	fld	fs1,16(sp)
    8000138c:	2922                	fld	fs2,8(sp)
    8000138e:	2982                	fld	fs3,0(sp)
    80001390:	60e6                	ld	ra,88(sp)
    80001392:	7aa2                	ld	s5,40(sp)
    80001394:	2462                	fld	fs0,24(sp)
    80001396:	6125                	addi	sp,sp,96
    80001398:	8082                	ret
    8000139a:	da7d                	beqz	a2,80001390 <_Z14softmax_logitsPfPKfmf+0xa2>
    8000139c:	e8a2                	sd	s0,80(sp)
    8000139e:	e4a6                	sd	s1,72(sp)
    800013a0:	e0ca                	sd	s2,64(sp)
    800013a2:	fc4e                	sd	s3,56(sp)
    800013a4:	f852                	sd	s4,48(sp)
    800013a6:	a826                	fsd	fs1,16(sp)
    800013a8:	a44a                	fsd	fs2,8(sp)
    800013aa:	a04e                	fsd	fs3,0(sp)
    800013ac:	00261a93          	slli	s5,a2,0x2
    800013b0:	bfad                	j	8000132a <_Z14softmax_logitsPfPKfmf+0x3c>

00000000800013b2 <_Z17sample_from_probsPKfm>:
    800013b2:	00023697          	auipc	a3,0x23
    800013b6:	f466a683          	lw	a3,-186(a3) # 800242f8 <_ZL6g_seed>
    800013ba:	41c65737          	lui	a4,0x41c65
    800013be:	e6d7071b          	addiw	a4,a4,-403 # 41c64e6d <__heap_size+0x41c44e6d>
    800013c2:	02e6873b          	mulw	a4,a3,a4
    800013c6:	678d                	lui	a5,0x3
    800013c8:	0397879b          	addiw	a5,a5,57 # 3039 <__stack_align+0x3029>
    800013cc:	9fb9                	addw	a5,a5,a4
    800013ce:	00023717          	auipc	a4,0x23
    800013d2:	f2f72523          	sw	a5,-214(a4) # 800242f8 <_ZL6g_seed>
    800013d6:	cdb1                	beqz	a1,80001432 <_Z17sample_from_probsPKfm+0x80>
    800013d8:	000d27b7          	lui	a5,0xd2
    800013dc:	b7178793          	addi	a5,a5,-1167 # d1b71 <__heap_size+0xb1b71>
    800013e0:	02069613          	slli	a2,a3,0x20
    800013e4:	07b2                	slli	a5,a5,0xc
    800013e6:	75978793          	addi	a5,a5,1881
    800013ea:	9201                	srli	a2,a2,0x20
    800013ec:	02f60633          	mul	a2,a2,a5
    800013f0:	6709                	lui	a4,0x2
    800013f2:	7107071b          	addiw	a4,a4,1808 # 2710 <__stack_align+0x2700>
    800013f6:	00023797          	auipc	a5,0x23
    800013fa:	fd27a707          	flw	fa4,-46(a5) # 800243c8 <__atexit_dummy+0x78>
    800013fe:	f00007d3          	fmv.w.x	fa5,zero
    80001402:	4781                	li	a5,0
    80001404:	9235                	srli	a2,a2,0x2d
    80001406:	02c7073b          	mulw	a4,a4,a2
    8000140a:	9e99                	subw	a3,a3,a4
    8000140c:	d006f6d3          	fcvt.s.w	fa3,a3
    80001410:	10e6f6d3          	fmul.s	fa3,fa3,fa4
    80001414:	a021                	j	8000141c <_Z17sample_from_probsPKfm+0x6a>
    80001416:	0785                	addi	a5,a5,1
    80001418:	00f58d63          	beq	a1,a5,80001432 <_Z17sample_from_probsPKfm+0x80>
    8000141c:	00052707          	flw	fa4,0(a0)
    80001420:	0511                	addi	a0,a0,4
    80001422:	00e7f7d3          	fadd.s	fa5,fa5,fa4
    80001426:	a0d78753          	fle.s	a4,fa5,fa3
    8000142a:	f775                	bnez	a4,80001416 <_Z17sample_from_probsPKfm+0x64>
    8000142c:	0007851b          	sext.w	a0,a5
    80001430:	8082                	ret
    80001432:	fff5851b          	addiw	a0,a1,-1
    80001436:	8082                	ret

0000000080001438 <_Z6argmaxPKfm>:
    80001438:	4785                	li	a5,1
    8000143a:	02b7f563          	bgeu	a5,a1,80001464 <_Z6argmaxPKfm+0x2c>
    8000143e:	00052707          	flw	fa4,0(a0)
    80001442:	00450713          	addi	a4,a0,4
    80001446:	4501                	li	a0,0
    80001448:	00072787          	flw	fa5,0(a4)
    8000144c:	0711                	addi	a4,a4,4
    8000144e:	a0e786d3          	fle.s	a3,fa5,fa4
    80001452:	e689                	bnez	a3,8000145c <_Z6argmaxPKfm+0x24>
    80001454:	20f78753          	fmv.s	fa4,fa5
    80001458:	0007851b          	sext.w	a0,a5
    8000145c:	0785                	addi	a5,a5,1
    8000145e:	fef595e3          	bne	a1,a5,80001448 <_Z6argmaxPKfm+0x10>
    80001462:	8082                	ret
    80001464:	4501                	li	a0,0
    80001466:	8082                	ret

0000000080001468 <_Z13generate_textPKcifb>:
    80001468:	c1010113          	addi	sp,sp,-1008
    8000146c:	3e813023          	sd	s0,992(sp)
    80001470:	36913827          	fsd	fs1,880(sp)
    80001474:	842a                	mv	s0,a0
    80001476:	20a504d3          	fmv.s	fs1,fa0
    8000147a:	f02e                	sd	a1,32(sp)
    8000147c:	00015517          	auipc	a0,0x15
    80001480:	69c50513          	addi	a0,a0,1692 # 80016b18 <__tbss_end+0xe6>
    80001484:	85a2                	mv	a1,s0
    80001486:	3c913c23          	sd	s1,984(sp)
    8000148a:	e8b2                	sd	a2,80(sp)
    8000148c:	84b2                	mv	s1,a2
    8000148e:	3e113423          	sd	ra,1000(sp)
    80001492:	3d213823          	sd	s2,976(sp)
    80001496:	3d313423          	sd	s3,968(sp)
    8000149a:	3d413023          	sd	s4,960(sp)
    8000149e:	3b513c23          	sd	s5,952(sp)
    800014a2:	3b613823          	sd	s6,944(sp)
    800014a6:	3b813023          	sd	s8,928(sp)
    800014aa:	39913c23          	sd	s9,920(sp)
    800014ae:	37213427          	fsd	fs2,872(sp)
    800014b2:	2be130ef          	jal	80014770 <iprintf>
    800014b6:	420487d3          	fcvt.d.s	fa5,fs1
    800014ba:	00015697          	auipc	a3,0x15
    800014be:	64668693          	addi	a3,a3,1606 # 80016b00 <__tbss_end+0xce>
    800014c2:	e2078653          	fmv.x.d	a2,fa5
    800014c6:	e489                	bnez	s1,800014d0 <_Z13generate_textPKcifb+0x68>
    800014c8:	00015697          	auipc	a3,0x15
    800014cc:	64868693          	addi	a3,a3,1608 # 80016b10 <__tbss_end+0xde>
    800014d0:	7582                	ld	a1,32(sp)
    800014d2:	00015517          	auipc	a0,0x15
    800014d6:	65650513          	addi	a0,a0,1622 # 80016b28 <__tbss_end+0xf6>
    800014da:	296130ef          	jal	80014770 <iprintf>
    800014de:	08000613          	li	a2,128
    800014e2:	4581                	li	a1,0
    800014e4:	0988                	addi	a0,sp,208
    800014e6:	559130ef          	jal	8001523e <memset>
    800014ea:	8522                	mv	a0,s0
    800014ec:	579130ef          	jal	80015264 <strlen>
    800014f0:	02000793          	li	a5,32
    800014f4:	8caa                	mv	s9,a0
    800014f6:	00a7f363          	bgeu	a5,a0,800014fc <_Z13generate_textPKcifb+0x94>
    800014fa:	8cbe                	mv	s9,a5
    800014fc:	4a050763          	beqz	a0,800019aa <_Z13generate_textPKcifb+0x542>
    80001500:	02000793          	li	a5,32
    80001504:	419787b3          	sub	a5,a5,s9
    80001508:	0998                	addi	a4,sp,208
    8000150a:	078a                	slli	a5,a5,0x2
    8000150c:	97ba                	add	a5,a5,a4
    8000150e:	07f00613          	li	a2,127
    80001512:	4701                	li	a4,0
    80001514:	00e406b3          	add	a3,s0,a4
    80001518:	0006c683          	lbu	a3,0(a3)
    8000151c:	0705                	addi	a4,a4,1
    8000151e:	00d65363          	bge	a2,a3,80001524 <_Z13generate_textPKcifb+0xbc>
    80001522:	4681                	li	a3,0
    80001524:	c394                	sw	a3,0(a5)
    80001526:	0791                	addi	a5,a5,4
    80001528:	ff9766e3          	bltu	a4,s9,80001514 <_Z13generate_textPKcifb+0xac>
    8000152c:	6509                	lui	a0,0x2
    8000152e:	728120ef          	jal	80013c56 <malloc>
    80001532:	e02a                	sd	a0,0(sp)
    80001534:	6509                	lui	a0,0x2
    80001536:	720120ef          	jal	80013c56 <malloc>
    8000153a:	8a2a                	mv	s4,a0
    8000153c:	6509                	lui	a0,0x2
    8000153e:	718120ef          	jal	80013c56 <malloc>
    80001542:	8aaa                	mv	s5,a0
    80001544:	20000513          	li	a0,512
    80001548:	70e120ef          	jal	80013c56 <malloc>
    8000154c:	e82a                	sd	a0,16(sp)
    8000154e:	20000513          	li	a0,512
    80001552:	704120ef          	jal	80013c56 <malloc>
    80001556:	8b2a                	mv	s6,a0
    80001558:	00015517          	auipc	a0,0x15
    8000155c:	60850513          	addi	a0,a0,1544 # 80016b60 <__tbss_end+0x12e>
    80001560:	210130ef          	jal	80014770 <iprintf>
    80001564:	4481                	li	s1,0
    80001566:	009407b3          	add	a5,s0,s1
    8000156a:	0007c503          	lbu	a0,0(a5)
    8000156e:	0485                	addi	s1,s1,1
    80001570:	292130ef          	jal	80014802 <putchar>
    80001574:	ff94e9e3          	bltu	s1,s9,80001566 <_Z13generate_textPKcifb+0xfe>
    80001578:	8401b783          	ld	a5,-1984(gp) # 80024338 <_impure_ptr>
    8000157c:	6b88                	ld	a0,16(a5)
    8000157e:	411120ef          	jal	8001418e <fflush>
    80001582:	7782                	ld	a5,32(sp)
    80001584:	46f05763          	blez	a5,800019f2 <_Z13generate_textPKcifb+0x58a>
    80001588:	00023717          	auipc	a4,0x23
    8000158c:	e3072907          	flw	fs2,-464(a4) # 800243b8 <__atexit_dummy+0x68>
    80001590:	000d27b7          	lui	a5,0xd2
    80001594:	b7178793          	addi	a5,a5,-1167 # d1b71 <__heap_size+0xb1b71>
    80001598:	189974d3          	fdiv.s	fs1,fs2,fs1
    8000159c:	07b2                	slli	a5,a5,0xc
    8000159e:	75978793          	addi	a5,a5,1881
    800015a2:	e4be                	sd	a5,72(sp)
    800015a4:	6782                	ld	a5,0(sp)
    800015a6:	6709                	lui	a4,0x2
    800015a8:	3b713423          	sd	s7,936(sp)
    800015ac:	973e                	add	a4,a4,a5
    800015ae:	10078793          	addi	a5,a5,256
    800015b2:	fc3e                	sd	a5,56(sp)
    800015b4:	67c2                	ld	a5,16(sp)
    800015b6:	37313027          	fsd	fs3,864(sp)
    800015ba:	e0ba                	sd	a4,64(sp)
    800015bc:	20078b93          	addi	s7,a5,512
    800015c0:	00478713          	addi	a4,a5,4
    800015c4:	00023797          	auipc	a5,0x23
    800015c8:	e047a987          	flw	fs3,-508(a5) # 800243c8 <__atexit_dummy+0x78>
    800015cc:	39a13823          	sd	s10,912(sp)
    800015d0:	ece6                	sd	s9,88(sp)
    800015d2:	39b13423          	sd	s11,904(sp)
    800015d6:	36813c27          	fsd	fs0,888(sp)
    800015da:	35413c27          	fsd	fs4,856(sp)
    800015de:	e402                	sd	zero,8(sp)
    800015e0:	0005e997          	auipc	s3,0x5e
    800015e4:	f6898993          	addi	s3,s3,-152 # 8005f548 <_ZL16embedding_weight>
    800015e8:	0005e917          	auipc	s2,0x5e
    800015ec:	06090913          	addi	s2,s2,96 # 8005f648 <_ZL16embedding_weight+0x100>
    800015f0:	0005e497          	auipc	s1,0x5e
    800015f4:	f5848493          	addi	s1,s1,-168 # 8005f548 <_ZL16embedding_weight>
    800015f8:	f83a                	sd	a4,48(sp)
    800015fa:	08000413          	li	s0,128
    800015fe:	ec5a                	sd	s6,24(sp)
    80001600:	8cde                	mv	s9,s7
    80001602:	200b0d13          	addi	s10,s6,512
    80001606:	4c22                	lw	s8,8(sp)
    80001608:	6502                	ld	a0,0(sp)
    8000160a:	098c                	addi	a1,sp,208
    8000160c:	4601                	li	a2,0
    8000160e:	4194                	lw	a3,0(a1)
    80001610:	872a                	mv	a4,a0
    80001612:	06a2                	slli	a3,a3,0x8
    80001614:	00d987b3          	add	a5,s3,a3
    80001618:	96ca                	add	a3,a3,s2
    8000161a:	0007a787          	flw	fa5,0(a5)
    8000161e:	0791                	addi	a5,a5,4
    80001620:	0711                	addi	a4,a4,4 # 2004 <__stack_align+0x1ff4>
    80001622:	fef72e27          	fsw	fa5,-4(a4)
    80001626:	fed79ae3          	bne	a5,a3,8000161a <_Z13generate_textPKcifb+0x1b2>
    8000162a:	04060613          	addi	a2,a2,64
    8000162e:	80060793          	addi	a5,a2,-2048
    80001632:	0591                	addi	a1,a1,4
    80001634:	10050513          	addi	a0,a0,256
    80001638:	fbf9                	bnez	a5,8000160e <_Z13generate_textPKcifb+0x1a6>
    8000163a:	76e2                	ld	a3,56(sp)
    8000163c:	0005c617          	auipc	a2,0x5c
    80001640:	f0c60613          	addi	a2,a2,-244 # 8005d548 <_ZL12pos_encoding>
    80001644:	f0068793          	addi	a5,a3,-256
    80001648:	8732                	mv	a4,a2
    8000164a:	0007a787          	flw	fa5,0(a5)
    8000164e:	00072707          	flw	fa4,0(a4)
    80001652:	0791                	addi	a5,a5,4
    80001654:	0711                	addi	a4,a4,4
    80001656:	00e7f7d3          	fadd.s	fa5,fa5,fa4
    8000165a:	fef7ae27          	fsw	fa5,-4(a5)
    8000165e:	fed796e3          	bne	a5,a3,8000164a <_Z13generate_textPKcifb+0x1e2>
    80001662:	10060613          	addi	a2,a2,256
    80001666:	10078693          	addi	a3,a5,256
    8000166a:	fc961de3          	bne	a2,s1,80001644 <_Z13generate_textPKcifb+0x1dc>
    8000166e:	6702                	ld	a4,0(sp)
    80001670:	86d2                	mv	a3,s4
    80001672:	6b1c                	ld	a5,16(a4)
    80001674:	630c                	ld	a1,0(a4)
    80001676:	6710                	ld	a2,8(a4)
    80001678:	ea9c                	sd	a5,16(a3)
    8000167a:	e28c                	sd	a1,0(a3)
    8000167c:	e690                	sd	a2,8(a3)
    8000167e:	6f1c                	ld	a5,24(a4)
    80001680:	02070713          	addi	a4,a4,32
    80001684:	02068693          	addi	a3,a3,32
    80001688:	fef6bc23          	sd	a5,-8(a3)
    8000168c:	6786                	ld	a5,64(sp)
    8000168e:	fef712e3          	bne	a4,a5,80001672 <_Z13generate_textPKcifb+0x20a>
    80001692:	67e1                	lui	a5,0x18
    80001694:	70078793          	addi	a5,a5,1792 # 18700 <__stack_size+0x10700>
    80001698:	f43e                	sd	a5,40(sp)
    8000169a:	6789                	lui	a5,0x2
    8000169c:	0002bb97          	auipc	s7,0x2b
    800016a0:	0acb8b93          	addi	s7,s7,172 # 8002c748 <_ZL13layer_weights>
    800016a4:	00fa8db3          	add	s11,s5,a5
    800016a8:	02000693          	li	a3,32
    800016ac:	865e                	mv	a2,s7
    800016ae:	85d2                	mv	a1,s4
    800016b0:	8556                	mv	a0,s5
    800016b2:	b6fff0ef          	jal	80001220 <_Z25forward_transformer_blockPfPKfRK23TransformerBlockWeightsm>
    800016b6:	87d6                	mv	a5,s5
    800016b8:	8752                	mv	a4,s4
    800016ba:	6b94                	ld	a3,16(a5)
    800016bc:	638c                	ld	a1,0(a5)
    800016be:	6790                	ld	a2,8(a5)
    800016c0:	eb14                	sd	a3,16(a4)
    800016c2:	e30c                	sd	a1,0(a4)
    800016c4:	e710                	sd	a2,8(a4)
    800016c6:	6f94                	ld	a3,24(a5)
    800016c8:	02078793          	addi	a5,a5,32 # 2020 <__stack_align+0x2010>
    800016cc:	02070713          	addi	a4,a4,32
    800016d0:	fed73c23          	sd	a3,-8(a4)
    800016d4:	ffb793e3          	bne	a5,s11,800016ba <_Z13generate_textPKcifb+0x252>
    800016d8:	77a2                	ld	a5,40(sp)
    800016da:	9bbe                	add	s7,s7,a5
    800016dc:	0005c797          	auipc	a5,0x5c
    800016e0:	e6c78793          	addi	a5,a5,-404 # 8005d548 <_ZL12pos_encoding>
    800016e4:	fd7792e3          	bne	a5,s7,800016a8 <_Z13generate_textPKcifb+0x240>
    800016e8:	6bc2                	ld	s7,16(sp)
    800016ea:	02000613          	li	a2,32
    800016ee:	85d2                	mv	a1,s4
    800016f0:	855e                	mv	a0,s7
    800016f2:	bb1ff0ef          	jal	800012a2 <_Z16project_to_vocabPfPKfm>
    800016f6:	7742                	ld	a4,48(sp)
    800016f8:	000baa07          	flw	fs4,0(s7)
    800016fc:	00072787          	flw	fa5,0(a4)
    80001700:	0711                	addi	a4,a4,4
    80001702:	28fa1a53          	fmax.s	fs4,fs4,fa5
    80001706:	ff971be3          	bne	a4,s9,800016fc <_Z13generate_textPKcifb+0x294>
    8000170a:	6de2                	ld	s11,24(sp)
    8000170c:	f0000453          	fmv.w.x	fs0,zero
    80001710:	f452                	sd	s4,40(sp)
    80001712:	8b6e                	mv	s6,s11
    80001714:	8a6e                	mv	s4,s11
    80001716:	8dea                	mv	s11,s10
    80001718:	8d62                	mv	s10,s8
    8000171a:	000ba507          	flw	fa0,0(s7)
    8000171e:	0b91                	addi	s7,s7,4
    80001720:	0a11                	addi	s4,s4,4
    80001722:	09457553          	fsub.s	fa0,fa0,fs4
    80001726:	10957553          	fmul.s	fa0,fa0,fs1
    8000172a:	1a10e0ef          	jal	800100ca <expf>
    8000172e:	feaa2e27          	fsw	fa0,-4(s4)
    80001732:	00a47453          	fadd.s	fs0,fs0,fa0
    80001736:	ff9b92e3          	bne	s7,s9,8000171a <_Z13generate_textPKcifb+0x2b2>
    8000173a:	18897453          	fdiv.s	fs0,fs2,fs0
    8000173e:	7a22                	ld	s4,40(sp)
    80001740:	6762                	ld	a4,24(sp)
    80001742:	86da                	mv	a3,s6
    80001744:	8c6a                	mv	s8,s10
    80001746:	0d010b13          	addi	s6,sp,208
    8000174a:	8d6e                	mv	s10,s11
    8000174c:	00072787          	flw	fa5,0(a4)
    80001750:	0711                	addi	a4,a4,4
    80001752:	1087f7d3          	fmul.s	fa5,fa5,fs0
    80001756:	fef72e27          	fsw	fa5,-4(a4)
    8000175a:	ffa719e3          	bne	a4,s10,8000174c <_Z13generate_textPKcifb+0x2e4>
    8000175e:	67c6                	ld	a5,80(sp)
    80001760:	c7d5                	beqz	a5,8000180c <_Z13generate_textPKcifb+0x3a4>
    80001762:	00023717          	auipc	a4,0x23
    80001766:	b9672703          	lw	a4,-1130(a4) # 800242f8 <_ZL6g_seed>
    8000176a:	67a6                	ld	a5,72(sp)
    8000176c:	6509                	lui	a0,0x2
    8000176e:	02071613          	slli	a2,a4,0x20
    80001772:	9201                	srli	a2,a2,0x20
    80001774:	02f60633          	mul	a2,a2,a5
    80001778:	7105051b          	addiw	a0,a0,1808 # 2710 <__stack_align+0x2700>
    8000177c:	41c655b7          	lui	a1,0x41c65
    80001780:	e6d5859b          	addiw	a1,a1,-403 # 41c64e6d <__heap_size+0x41c44e6d>
    80001784:	f00007d3          	fmv.w.x	fa5,zero
    80001788:	9235                	srli	a2,a2,0x2d
    8000178a:	02c5053b          	mulw	a0,a0,a2
    8000178e:	660d                	lui	a2,0x3
    80001790:	0396061b          	addiw	a2,a2,57 # 3039 <__stack_align+0x3029>
    80001794:	02b705bb          	mulw	a1,a4,a1
    80001798:	9f09                	subw	a4,a4,a0
    8000179a:	d00776d3          	fcvt.s.w	fa3,a4
    8000179e:	4701                	li	a4,0
    800017a0:	1136f6d3          	fmul.s	fa3,fa3,fs3
    800017a4:	9e2d                	addw	a2,a2,a1
    800017a6:	00023597          	auipc	a1,0x23
    800017aa:	b4c5a923          	sw	a2,-1198(a1) # 800242f8 <_ZL6g_seed>
    800017ae:	0006a707          	flw	fa4,0(a3)
    800017b2:	0691                	addi	a3,a3,4
    800017b4:	00e7f7d3          	fadd.s	fa5,fa5,fa4
    800017b8:	a0d787d3          	fle.s	a5,fa5,fa3
    800017bc:	cfb5                	beqz	a5,80001838 <_Z13generate_textPKcifb+0x3d0>
    800017be:	0705                	addi	a4,a4,1
    800017c0:	fe8717e3          	bne	a4,s0,800017ae <_Z13generate_textPKcifb+0x346>
    800017c4:	07f00b93          	li	s7,127
    800017c8:	8dde                	mv	s11,s7
    800017ca:	856e                	mv	a0,s11
    800017cc:	036130ef          	jal	80014802 <putchar>
    800017d0:	8401b703          	ld	a4,-1984(gp) # 80024338 <_impure_ptr>
    800017d4:	2c05                	addiw	s8,s8,1
    800017d6:	6b08                	ld	a0,16(a4)
    800017d8:	1b7120ef          	jal	8001418e <fflush>
    800017dc:	6722                	ld	a4,8(sp)
    800017de:	02f4                	addi	a3,sp,332
    800017e0:	970a                	add	a4,a4,sp
    800017e2:	07770423          	sb	s7,104(a4)
    800017e6:	004b2783          	lw	a5,4(s6)
    800017ea:	0b11                	addi	s6,s6,4
    800017ec:	fefb2e23          	sw	a5,-4(s6)
    800017f0:	ff669be3          	bne	a3,s6,800017e6 <_Z13generate_textPKcifb+0x37e>
    800017f4:	7782                	ld	a5,32(sp)
    800017f6:	15b12623          	sw	s11,332(sp)
    800017fa:	04fc5363          	bge	s8,a5,80001840 <_Z13generate_textPKcifb+0x3d8>
    800017fe:	f9cc0793          	addi	a5,s8,-100
    80001802:	cf9d                	beqz	a5,80001840 <_Z13generate_textPKcifb+0x3d8>
    80001804:	67a2                	ld	a5,8(sp)
    80001806:	0785                	addi	a5,a5,1
    80001808:	e43e                	sd	a5,8(sp)
    8000180a:	bbf5                	j	80001606 <_Z13generate_textPKcifb+0x19e>
    8000180c:	67e2                	ld	a5,24(sp)
    8000180e:	4d81                	li	s11,0
    80001810:	4705                	li	a4,1
    80001812:	0007a707          	flw	fa4,0(a5)
    80001816:	00478693          	addi	a3,a5,4
    8000181a:	0006a787          	flw	fa5,0(a3)
    8000181e:	0691                	addi	a3,a3,4
    80001820:	a0e787d3          	fle.s	a5,fa5,fa4
    80001824:	e789                	bnez	a5,8000182e <_Z13generate_textPKcifb+0x3c6>
    80001826:	20f78753          	fmv.s	fa4,fa5
    8000182a:	00070d9b          	sext.w	s11,a4
    8000182e:	0705                	addi	a4,a4,1
    80001830:	fe8715e3          	bne	a4,s0,8000181a <_Z13generate_textPKcifb+0x3b2>
    80001834:	8bee                	mv	s7,s11
    80001836:	bf51                	j	800017ca <_Z13generate_textPKcifb+0x362>
    80001838:	00070d9b          	sext.w	s11,a4
    8000183c:	8bba                	mv	s7,a4
    8000183e:	b771                	j	800017ca <_Z13generate_textPKcifb+0x362>
    80001840:	002c07b3          	add	a5,s8,sp
    80001844:	00015517          	auipc	a0,0x15
    80001848:	3cc50513          	addi	a0,a0,972 # 80016c10 <__tbss_end+0x1de>
    8000184c:	06078423          	sb	zero,104(a5)
    80001850:	6ce6                	ld	s9,88(sp)
    80001852:	6b62                	ld	s6,24(sp)
    80001854:	062130ef          	jal	800148b6 <puts>
    80001858:	10ac                	addi	a1,sp,104
    8000185a:	00015517          	auipc	a0,0x15
    8000185e:	31650513          	addi	a0,a0,790 # 80016b70 <__tbss_end+0x13e>
    80001862:	70f120ef          	jal	80014770 <iprintf>
    80001866:	00015517          	auipc	a0,0x15
    8000186a:	32250513          	addi	a0,a0,802 # 80016b88 <__tbss_end+0x156>
    8000186e:	048130ef          	jal	800148b6 <puts>
    80001872:	85e6                	mv	a1,s9
    80001874:	00015517          	auipc	a0,0x15
    80001878:	32c50513          	addi	a0,a0,812 # 80016ba0 <__tbss_end+0x16e>
    8000187c:	6f5120ef          	jal	80014770 <iprintf>
    80001880:	85e2                	mv	a1,s8
    80001882:	00015517          	auipc	a0,0x15
    80001886:	33650513          	addi	a0,a0,822 # 80016bb8 <__tbss_end+0x186>
    8000188a:	6e7120ef          	jal	80014770 <iprintf>
    8000188e:	0a80                	addi	s0,sp,336
    80001890:	8522                	mv	a0,s0
    80001892:	20000613          	li	a2,512
    80001896:	4581                	li	a1,0
    80001898:	1a7130ef          	jal	8001523e <memset>
    8000189c:	d00c77d3          	fcvt.s.w	fa5,s8
    800018a0:	6722                	ld	a4,8(sp)
    800018a2:	06910693          	addi	a3,sp,105
    800018a6:	18f97953          	fdiv.s	fs2,fs2,fa5
    800018aa:	10bc                	addi	a5,sp,104
    800018ac:	96ba                	add	a3,a3,a4
    800018ae:	0007c703          	lbu	a4,0(a5)
    800018b2:	0785                	addi	a5,a5,1
    800018b4:	070a                	slli	a4,a4,0x2
    800018b6:	9722                	add	a4,a4,s0
    800018b8:	4310                	lw	a2,0(a4)
    800018ba:	2605                	addiw	a2,a2,1
    800018bc:	c310                	sw	a2,0(a4)
    800018be:	fef698e3          	bne	a3,a5,800018ae <_Z13generate_textPKcifb+0x446>
    800018c2:	3a813b83          	ld	s7,936(sp)
    800018c6:	39013d03          	ld	s10,912(sp)
    800018ca:	38813d83          	ld	s11,904(sp)
    800018ce:	37813407          	fld	fs0,888(sp)
    800018d2:	36013987          	fld	fs3,864(sp)
    800018d6:	35813a07          	fld	fs4,856(sp)
    800018da:	00015517          	auipc	a0,0x15
    800018de:	2f650513          	addi	a0,a0,758 # 80016bd0 <__tbss_end+0x19e>
    800018e2:	7d5120ef          	jal	800148b6 <puts>
    800018e6:	00023797          	auipc	a5,0x23
    800018ea:	aea7a787          	flw	fa5,-1302(a5) # 800243d0 <__atexit_dummy+0x80>
    800018ee:	4995                	li	s3,5
    800018f0:	07f00493          	li	s1,127
    800018f4:	10f97953          	fmul.s	fs2,fs2,fa5
    800018f8:	02000c13          	li	s8,32
    800018fc:	0b98                	addi	a4,sp,464
    800018fe:	02000793          	li	a5,32
    80001902:	4681                	li	a3,0
    80001904:	4901                	li	s2,0
    80001906:	430c                	lw	a1,0(a4)
    80001908:	0711                	addi	a4,a4,4
    8000190a:	00b6d463          	bge	a3,a1,80001912 <_Z13generate_textPKcifb+0x4aa>
    8000190e:	86ae                	mv	a3,a1
    80001910:	893e                	mv	s2,a5
    80001912:	2785                	addiw	a5,a5,1
    80001914:	fe9799e3          	bne	a5,s1,80001906 <_Z13generate_textPKcifb+0x49e>
    80001918:	02d05d63          	blez	a3,80001952 <_Z13generate_textPKcifb+0x4ea>
    8000191c:	0ff97793          	zext.b	a5,s2
    80001920:	85ca                	mv	a1,s2
    80001922:	01879463          	bne	a5,s8,8000192a <_Z13generate_textPKcifb+0x4c2>
    80001926:	05f00593          	li	a1,95
    8000192a:	d006f7d3          	fcvt.s.w	fa5,a3
    8000192e:	864a                	mv	a2,s2
    80001930:	00015517          	auipc	a0,0x15
    80001934:	2c050513          	addi	a0,a0,704 # 80016bf0 <__tbss_end+0x1be>
    80001938:	1127f7d3          	fmul.s	fa5,fa5,fs2
    8000193c:	420787d3          	fcvt.d.s	fa5,fa5
    80001940:	e2078753          	fmv.x.d	a4,fa5
    80001944:	62d120ef          	jal	80014770 <iprintf>
    80001948:	00291793          	slli	a5,s2,0x2
    8000194c:	97a2                	add	a5,a5,s0
    8000194e:	0007a023          	sw	zero,0(a5)
    80001952:	39fd                	addiw	s3,s3,-1
    80001954:	fa0994e3          	bnez	s3,800018fc <_Z13generate_textPKcifb+0x494>
    80001958:	6502                	ld	a0,0(sp)
    8000195a:	304120ef          	jal	80013c5e <free>
    8000195e:	8552                	mv	a0,s4
    80001960:	2fe120ef          	jal	80013c5e <free>
    80001964:	8556                	mv	a0,s5
    80001966:	2f8120ef          	jal	80013c5e <free>
    8000196a:	6542                	ld	a0,16(sp)
    8000196c:	2f2120ef          	jal	80013c5e <free>
    80001970:	3e013403          	ld	s0,992(sp)
    80001974:	3e813083          	ld	ra,1000(sp)
    80001978:	3d813483          	ld	s1,984(sp)
    8000197c:	3d013903          	ld	s2,976(sp)
    80001980:	3c813983          	ld	s3,968(sp)
    80001984:	3c013a03          	ld	s4,960(sp)
    80001988:	3b813a83          	ld	s5,952(sp)
    8000198c:	3a013c03          	ld	s8,928(sp)
    80001990:	39813c83          	ld	s9,920(sp)
    80001994:	37013487          	fld	fs1,880(sp)
    80001998:	36813907          	fld	fs2,872(sp)
    8000199c:	855a                	mv	a0,s6
    8000199e:	3b013b03          	ld	s6,944(sp)
    800019a2:	3f010113          	addi	sp,sp,1008
    800019a6:	2b81206f          	j	80013c5e <free>
    800019aa:	6509                	lui	a0,0x2
    800019ac:	2aa120ef          	jal	80013c56 <malloc>
    800019b0:	e02a                	sd	a0,0(sp)
    800019b2:	6509                	lui	a0,0x2
    800019b4:	2a2120ef          	jal	80013c56 <malloc>
    800019b8:	8a2a                	mv	s4,a0
    800019ba:	6509                	lui	a0,0x2
    800019bc:	29a120ef          	jal	80013c56 <malloc>
    800019c0:	8aaa                	mv	s5,a0
    800019c2:	20000513          	li	a0,512
    800019c6:	290120ef          	jal	80013c56 <malloc>
    800019ca:	e82a                	sd	a0,16(sp)
    800019cc:	20000513          	li	a0,512
    800019d0:	286120ef          	jal	80013c56 <malloc>
    800019d4:	8b2a                	mv	s6,a0
    800019d6:	00015517          	auipc	a0,0x15
    800019da:	18a50513          	addi	a0,a0,394 # 80016b60 <__tbss_end+0x12e>
    800019de:	593120ef          	jal	80014770 <iprintf>
    800019e2:	8401b783          	ld	a5,-1984(gp) # 80024338 <_impure_ptr>
    800019e6:	6b88                	ld	a0,16(a5)
    800019e8:	7a6120ef          	jal	8001418e <fflush>
    800019ec:	7782                	ld	a5,32(sp)
    800019ee:	b8f04de3          	bgtz	a5,80001588 <_Z13generate_textPKcifb+0x120>
    800019f2:	00015517          	auipc	a0,0x15
    800019f6:	21e50513          	addi	a0,a0,542 # 80016c10 <__tbss_end+0x1de>
    800019fa:	06010423          	sb	zero,104(sp)
    800019fe:	6b9120ef          	jal	800148b6 <puts>
    80001a02:	10ac                	addi	a1,sp,104
    80001a04:	00015517          	auipc	a0,0x15
    80001a08:	16c50513          	addi	a0,a0,364 # 80016b70 <__tbss_end+0x13e>
    80001a0c:	565120ef          	jal	80014770 <iprintf>
    80001a10:	00015517          	auipc	a0,0x15
    80001a14:	17850513          	addi	a0,a0,376 # 80016b88 <__tbss_end+0x156>
    80001a18:	69f120ef          	jal	800148b6 <puts>
    80001a1c:	85e6                	mv	a1,s9
    80001a1e:	00015517          	auipc	a0,0x15
    80001a22:	18250513          	addi	a0,a0,386 # 80016ba0 <__tbss_end+0x16e>
    80001a26:	54b120ef          	jal	80014770 <iprintf>
    80001a2a:	4581                	li	a1,0
    80001a2c:	00015517          	auipc	a0,0x15
    80001a30:	18c50513          	addi	a0,a0,396 # 80016bb8 <__tbss_end+0x186>
    80001a34:	53d120ef          	jal	80014770 <iprintf>
    80001a38:	0a80                	addi	s0,sp,336
    80001a3a:	8522                	mv	a0,s0
    80001a3c:	20000613          	li	a2,512
    80001a40:	4581                	li	a1,0
    80001a42:	7fc130ef          	jal	8001523e <memset>
    80001a46:	00023797          	auipc	a5,0x23
    80001a4a:	9867a907          	flw	fs2,-1658(a5) # 800243cc <__atexit_dummy+0x7c>
    80001a4e:	b571                	j	800018da <_Z13generate_textPKcifb+0x472>

0000000080001a50 <_Z17demo_forward_passv>:
    80001a50:	7151                	addi	sp,sp,-240
    80001a52:	00015517          	auipc	a0,0x15
    80001a56:	1c650513          	addi	a0,a0,454 # 80016c18 <__tbss_end+0x1e6>
    80001a5a:	f586                	sd	ra,232(sp)
    80001a5c:	f1a2                	sd	s0,224(sp)
    80001a5e:	fd56                	sd	s5,184(sp)
    80001a60:	eda6                	sd	s1,216(sp)
    80001a62:	e9ca                	sd	s2,208(sp)
    80001a64:	e5ce                	sd	s3,200(sp)
    80001a66:	e1d2                	sd	s4,192(sp)
    80001a68:	f95a                	sd	s6,176(sp)
    80001a6a:	f55e                	sd	s7,168(sp)
    80001a6c:	f162                	sd	s8,160(sp)
    80001a6e:	ed66                	sd	s9,152(sp)
    80001a70:	e96a                	sd	s10,144(sp)
    80001a72:	a522                	fsd	fs0,136(sp)
    80001a74:	a126                	fsd	fs1,128(sp)
    80001a76:	641120ef          	jal	800148b6 <puts>
    80001a7a:	00015517          	auipc	a0,0x15
    80001a7e:	1ce50513          	addi	a0,a0,462 # 80016c48 <__tbss_end+0x216>
    80001a82:	635120ef          	jal	800148b6 <puts>
    80001a86:	00015517          	auipc	a0,0x15
    80001a8a:	30a50513          	addi	a0,a0,778 # 80016d90 <__tbss_end+0x35e>
    80001a8e:	629120ef          	jal	800148b6 <puts>
    80001a92:	08000613          	li	a2,128
    80001a96:	850a                	mv	a0,sp
    80001a98:	4581                	li	a1,0
    80001a9a:	7a4130ef          	jal	8001523e <memset>
    80001a9e:	10e0                	addi	s0,sp,108
    80001aa0:	8a8a                	mv	s5,sp
    80001aa2:	87a2                	mv	a5,s0
    80001aa4:	00015697          	auipc	a3,0x15
    80001aa8:	1c468693          	addi	a3,a3,452 # 80016c68 <__tbss_end+0x236>
    80001aac:	07f00613          	li	a2,127
    80001ab0:	0006c703          	lbu	a4,0(a3)
    80001ab4:	0685                	addi	a3,a3,1
    80001ab6:	00e65363          	bge	a2,a4,80001abc <_Z17demo_forward_passv+0x6c>
    80001aba:	4701                	li	a4,0
    80001abc:	c398                	sw	a4,0(a5)
    80001abe:	0791                	addi	a5,a5,4
    80001ac0:	0118                	addi	a4,sp,128
    80001ac2:	fee797e3          	bne	a5,a4,80001ab0 <_Z17demo_forward_passv+0x60>
    80001ac6:	00015597          	auipc	a1,0x15
    80001aca:	1a258593          	addi	a1,a1,418 # 80016c68 <__tbss_end+0x236>
    80001ace:	00015517          	auipc	a0,0x15
    80001ad2:	1a250513          	addi	a0,a0,418 # 80016c70 <__tbss_end+0x23e>
    80001ad6:	49b120ef          	jal	80014770 <iprintf>
    80001ada:	4595                	li	a1,5
    80001adc:	00015517          	auipc	a0,0x15
    80001ae0:	1a450513          	addi	a0,a0,420 # 80016c80 <__tbss_end+0x24e>
    80001ae4:	48d120ef          	jal	80014770 <iprintf>
    80001ae8:	400c                	lw	a1,0(s0)
    80001aea:	00015517          	auipc	a0,0x15
    80001aee:	1b650513          	addi	a0,a0,438 # 80016ca0 <__tbss_end+0x26e>
    80001af2:	0411                	addi	s0,s0,4
    80001af4:	47d120ef          	jal	80014770 <iprintf>
    80001af8:	011c                	addi	a5,sp,128
    80001afa:	fef417e3          	bne	s0,a5,80001ae8 <_Z17demo_forward_passv+0x98>
    80001afe:	4529                	li	a0,10
    80001b00:	503120ef          	jal	80014802 <putchar>
    80001b04:	6509                	lui	a0,0x2
    80001b06:	150120ef          	jal	80013c56 <malloc>
    80001b0a:	89aa                	mv	s3,a0
    80001b0c:	6509                	lui	a0,0x2
    80001b0e:	148120ef          	jal	80013c56 <malloc>
    80001b12:	84aa                	mv	s1,a0
    80001b14:	6509                	lui	a0,0x2
    80001b16:	140120ef          	jal	80013c56 <malloc>
    80001b1a:	892a                	mv	s2,a0
    80001b1c:	20000513          	li	a0,512
    80001b20:	136120ef          	jal	80013c56 <malloc>
    80001b24:	8a2a                	mv	s4,a0
    80001b26:	20000513          	li	a0,512
    80001b2a:	12c120ef          	jal	80013c56 <malloc>
    80001b2e:	842a                	mv	s0,a0
    80001b30:	85ce                	mv	a1,s3
    80001b32:	4601                	li	a2,0
    80001b34:	0005e817          	auipc	a6,0x5e
    80001b38:	a1480813          	addi	a6,a6,-1516 # 8005f548 <_ZL16embedding_weight>
    80001b3c:	0005e517          	auipc	a0,0x5e
    80001b40:	b0c50513          	addi	a0,a0,-1268 # 8005f648 <_ZL16embedding_weight+0x100>
    80001b44:	000aa683          	lw	a3,0(s5)
    80001b48:	872e                	mv	a4,a1
    80001b4a:	06a2                	slli	a3,a3,0x8
    80001b4c:	00d807b3          	add	a5,a6,a3
    80001b50:	96aa                	add	a3,a3,a0
    80001b52:	0007a787          	flw	fa5,0(a5)
    80001b56:	0791                	addi	a5,a5,4
    80001b58:	0711                	addi	a4,a4,4
    80001b5a:	fef72e27          	fsw	fa5,-4(a4)
    80001b5e:	fed79ae3          	bne	a5,a3,80001b52 <_Z17demo_forward_passv+0x102>
    80001b62:	04060613          	addi	a2,a2,64
    80001b66:	80060793          	addi	a5,a2,-2048
    80001b6a:	0a91                	addi	s5,s5,4
    80001b6c:	10058593          	addi	a1,a1,256
    80001b70:	fbf1                	bnez	a5,80001b44 <_Z17demo_forward_passv+0xf4>
    80001b72:	0005c617          	auipc	a2,0x5c
    80001b76:	9d660613          	addi	a2,a2,-1578 # 8005d548 <_ZL12pos_encoding>
    80001b7a:	10098693          	addi	a3,s3,256
    80001b7e:	0005e597          	auipc	a1,0x5e
    80001b82:	9ca58593          	addi	a1,a1,-1590 # 8005f548 <_ZL16embedding_weight>
    80001b86:	f0068793          	addi	a5,a3,-256
    80001b8a:	8732                	mv	a4,a2
    80001b8c:	0007a787          	flw	fa5,0(a5)
    80001b90:	00072707          	flw	fa4,0(a4)
    80001b94:	0791                	addi	a5,a5,4
    80001b96:	0711                	addi	a4,a4,4
    80001b98:	00e7f7d3          	fadd.s	fa5,fa5,fa4
    80001b9c:	fef7ae27          	fsw	fa5,-4(a5)
    80001ba0:	fed796e3          	bne	a5,a3,80001b8c <_Z17demo_forward_passv+0x13c>
    80001ba4:	10060613          	addi	a2,a2,256
    80001ba8:	10078693          	addi	a3,a5,256
    80001bac:	fcb61de3          	bne	a2,a1,80001b86 <_Z17demo_forward_passv+0x136>
    80001bb0:	6a89                	lui	s5,0x2
    80001bb2:	6b09                	lui	s6,0x2
    80001bb4:	00015517          	auipc	a0,0x15
    80001bb8:	0f450513          	addi	a0,a0,244 # 80016ca8 <__tbss_end+0x276>
    80001bbc:	f00a8a93          	addi	s5,s5,-256 # 1f00 <__stack_align+0x1ef0>
    80001bc0:	f20b0b13          	addi	s6,s6,-224 # 1f20 <__stack_align+0x1f10>
    80001bc4:	3ad120ef          	jal	80014770 <iprintf>
    80001bc8:	9ace                	add	s5,s5,s3
    80001bca:	9b4e                	add	s6,s6,s3
    80001bcc:	000aa787          	flw	fa5,0(s5)
    80001bd0:	00015517          	auipc	a0,0x15
    80001bd4:	10850513          	addi	a0,a0,264 # 80016cd8 <__tbss_end+0x2a6>
    80001bd8:	0a91                	addi	s5,s5,4
    80001bda:	420787d3          	fcvt.d.s	fa5,fa5
    80001bde:	e20785d3          	fmv.x.d	a1,fa5
    80001be2:	38f120ef          	jal	80014770 <iprintf>
    80001be6:	ff6a93e3          	bne	s5,s6,80001bcc <_Z17demo_forward_passv+0x17c>
    80001bea:	00015517          	auipc	a0,0x15
    80001bee:	0f650513          	addi	a0,a0,246 # 80016ce0 <__tbss_end+0x2ae>
    80001bf2:	4c5120ef          	jal	800148b6 <puts>
    80001bf6:	6689                	lui	a3,0x2
    80001bf8:	87ce                	mv	a5,s3
    80001bfa:	8726                	mv	a4,s1
    80001bfc:	96ce                	add	a3,a3,s3
    80001bfe:	6b90                	ld	a2,16(a5)
    80001c00:	6388                	ld	a0,0(a5)
    80001c02:	678c                	ld	a1,8(a5)
    80001c04:	eb10                	sd	a2,16(a4)
    80001c06:	e308                	sd	a0,0(a4)
    80001c08:	e70c                	sd	a1,8(a4)
    80001c0a:	6f90                	ld	a2,24(a5)
    80001c0c:	02078793          	addi	a5,a5,32
    80001c10:	02070713          	addi	a4,a4,32
    80001c14:	fec73c23          	sd	a2,-8(a4)
    80001c18:	fed793e3          	bne	a5,a3,80001bfe <_Z17demo_forward_passv+0x1ae>
    80001c1c:	6b09                	lui	s6,0x2
    80001c1e:	6be1                	lui	s7,0x18
    80001c20:	9b4a                	add	s6,s6,s2
    80001c22:	700b8b93          	addi	s7,s7,1792 # 18700 <__stack_size+0x10700>
    80001c26:	0002ba97          	auipc	s5,0x2b
    80001c2a:	b22a8a93          	addi	s5,s5,-1246 # 8002c748 <_ZL13layer_weights>
    80001c2e:	0005cc17          	auipc	s8,0x5c
    80001c32:	91ac0c13          	addi	s8,s8,-1766 # 8005d548 <_ZL12pos_encoding>
    80001c36:	02000693          	li	a3,32
    80001c3a:	8656                	mv	a2,s5
    80001c3c:	85a6                	mv	a1,s1
    80001c3e:	854a                	mv	a0,s2
    80001c40:	de0ff0ef          	jal	80001220 <_Z25forward_transformer_blockPfPKfRK23TransformerBlockWeightsm>
    80001c44:	87ca                	mv	a5,s2
    80001c46:	8726                	mv	a4,s1
    80001c48:	6b94                	ld	a3,16(a5)
    80001c4a:	638c                	ld	a1,0(a5)
    80001c4c:	6790                	ld	a2,8(a5)
    80001c4e:	eb14                	sd	a3,16(a4)
    80001c50:	e30c                	sd	a1,0(a4)
    80001c52:	e710                	sd	a2,8(a4)
    80001c54:	6f94                	ld	a3,24(a5)
    80001c56:	02078793          	addi	a5,a5,32
    80001c5a:	02070713          	addi	a4,a4,32
    80001c5e:	fed73c23          	sd	a3,-8(a4)
    80001c62:	ff6793e3          	bne	a5,s6,80001c48 <_Z17demo_forward_passv+0x1f8>
    80001c66:	9ade                	add	s5,s5,s7
    80001c68:	fd5c17e3          	bne	s8,s5,80001c36 <_Z17demo_forward_passv+0x1e6>
    80001c6c:	6a89                	lui	s5,0x2
    80001c6e:	6b09                	lui	s6,0x2
    80001c70:	00015517          	auipc	a0,0x15
    80001c74:	07850513          	addi	a0,a0,120 # 80016ce8 <__tbss_end+0x2b6>
    80001c78:	f00a8a93          	addi	s5,s5,-256 # 1f00 <__stack_align+0x1ef0>
    80001c7c:	f20b0b13          	addi	s6,s6,-224 # 1f20 <__stack_align+0x1f10>
    80001c80:	2f1120ef          	jal	80014770 <iprintf>
    80001c84:	9aa6                	add	s5,s5,s1
    80001c86:	9b26                	add	s6,s6,s1
    80001c88:	000aa787          	flw	fa5,0(s5)
    80001c8c:	00015517          	auipc	a0,0x15
    80001c90:	04c50513          	addi	a0,a0,76 # 80016cd8 <__tbss_end+0x2a6>
    80001c94:	0a91                	addi	s5,s5,4
    80001c96:	420787d3          	fcvt.d.s	fa5,fa5
    80001c9a:	e20785d3          	fmv.x.d	a1,fa5
    80001c9e:	2d3120ef          	jal	80014770 <iprintf>
    80001ca2:	ff6a93e3          	bne	s5,s6,80001c88 <_Z17demo_forward_passv+0x238>
    80001ca6:	00015517          	auipc	a0,0x15
    80001caa:	03a50513          	addi	a0,a0,58 # 80016ce0 <__tbss_end+0x2ae>
    80001cae:	409120ef          	jal	800148b6 <puts>
    80001cb2:	85a6                	mv	a1,s1
    80001cb4:	8552                	mv	a0,s4
    80001cb6:	02000613          	li	a2,32
    80001cba:	de8ff0ef          	jal	800012a2 <_Z16project_to_vocabPfPKfm>
    80001cbe:	000a2407          	flw	fs0,0(s4)
    80001cc2:	8ad2                	mv	s5,s4
    80001cc4:	004a0793          	addi	a5,s4,4
    80001cc8:	200a0b93          	addi	s7,s4,512
    80001ccc:	0007a787          	flw	fa5,0(a5)
    80001cd0:	0791                	addi	a5,a5,4
    80001cd2:	28f41453          	fmax.s	fs0,fs0,fa5
    80001cd6:	ff779be3          	bne	a5,s7,80001ccc <_Z17demo_forward_passv+0x27c>
    80001cda:	f00004d3          	fmv.w.x	fs1,zero
    80001cde:	8b22                	mv	s6,s0
    80001ce0:	000aa507          	flw	fa0,0(s5)
    80001ce4:	0a91                	addi	s5,s5,4
    80001ce6:	0b11                	addi	s6,s6,4
    80001ce8:	08857553          	fsub.s	fa0,fa0,fs0
    80001cec:	3de0e0ef          	jal	800100ca <expf>
    80001cf0:	feab2e27          	fsw	fa0,-4(s6)
    80001cf4:	00a4f4d3          	fadd.s	fs1,fs1,fa0
    80001cf8:	ff7a94e3          	bne	s5,s7,80001ce0 <_Z17demo_forward_passv+0x290>
    80001cfc:	00022797          	auipc	a5,0x22
    80001d00:	6bc7a707          	flw	fa4,1724(a5) # 800243b8 <__atexit_dummy+0x68>
    80001d04:	20040713          	addi	a4,s0,512
    80001d08:	87a2                	mv	a5,s0
    80001d0a:	18977753          	fdiv.s	fa4,fa4,fs1
    80001d0e:	0007a787          	flw	fa5,0(a5)
    80001d12:	0791                	addi	a5,a5,4
    80001d14:	10e7f7d3          	fmul.s	fa5,fa5,fa4
    80001d18:	fef7ae27          	fsw	fa5,-4(a5)
    80001d1c:	fee799e3          	bne	a5,a4,80001d0e <_Z17demo_forward_passv+0x2be>
    80001d20:	00015517          	auipc	a0,0x15
    80001d24:	00050513          	mv	a0,a0
    80001d28:	38f120ef          	jal	800148b6 <puts>
    80001d2c:	4d01                	li	s10,0
    80001d2e:	08000a93          	li	s5,128
    80001d32:	07f00b93          	li	s7,127
    80001d36:	05e00c13          	li	s8,94
    80001d3a:	4b15                	li	s6,5
    80001d3c:	f0000753          	fmv.w.x	fa4,zero
    80001d40:	8722                	mv	a4,s0
    80001d42:	4781                	li	a5,0
    80001d44:	4c81                	li	s9,0
    80001d46:	00072787          	flw	fa5,0(a4)
    80001d4a:	0711                	addi	a4,a4,4
    80001d4c:	a0e78653          	fle.s	a2,fa5,fa4
    80001d50:	e601                	bnez	a2,80001d58 <_Z17demo_forward_passv+0x308>
    80001d52:	20f78753          	fmv.s	fa4,fa5
    80001d56:	8cbe                	mv	s9,a5
    80001d58:	2785                	addiw	a5,a5,1
    80001d5a:	ff5796e3          	bne	a5,s5,80001d46 <_Z17demo_forward_passv+0x2f6>
    80001d5e:	2d05                	addiw	s10,s10,1
    80001d60:	03f00613          	li	a2,63
    80001d64:	019bcb63          	blt	s7,s9,80001d7a <_Z17demo_forward_passv+0x32a>
    80001d68:	fe0c879b          	addiw	a5,s9,-32
    80001d6c:	0ff7f793          	zext.b	a5,a5
    80001d70:	8666                	mv	a2,s9
    80001d72:	00fc7463          	bgeu	s8,a5,80001d7a <_Z17demo_forward_passv+0x32a>
    80001d76:	03f00613          	li	a2,63
    80001d7a:	420707d3          	fcvt.d.s	fa5,fa4
    80001d7e:	86e6                	mv	a3,s9
    80001d80:	85ea                	mv	a1,s10
    80001d82:	e2078753          	fmv.x.d	a4,fa5
    80001d86:	00015517          	auipc	a0,0x15
    80001d8a:	fc250513          	addi	a0,a0,-62 # 80016d48 <__tbss_end+0x316>
    80001d8e:	1e3120ef          	jal	80014770 <iprintf>
    80001d92:	002c9793          	slli	a5,s9,0x2
    80001d96:	97a2                	add	a5,a5,s0
    80001d98:	0007a023          	sw	zero,0(a5)
    80001d9c:	fb6d10e3          	bne	s10,s6,80001d3c <_Z17demo_forward_passv+0x2ec>
    80001da0:	854e                	mv	a0,s3
    80001da2:	6bd110ef          	jal	80013c5e <free>
    80001da6:	8526                	mv	a0,s1
    80001da8:	6b7110ef          	jal	80013c5e <free>
    80001dac:	854a                	mv	a0,s2
    80001dae:	6b1110ef          	jal	80013c5e <free>
    80001db2:	8552                	mv	a0,s4
    80001db4:	6ab110ef          	jal	80013c5e <free>
    80001db8:	8522                	mv	a0,s0
    80001dba:	740e                	ld	s0,224(sp)
    80001dbc:	70ae                	ld	ra,232(sp)
    80001dbe:	64ee                	ld	s1,216(sp)
    80001dc0:	694e                	ld	s2,208(sp)
    80001dc2:	69ae                	ld	s3,200(sp)
    80001dc4:	6a0e                	ld	s4,192(sp)
    80001dc6:	7aea                	ld	s5,184(sp)
    80001dc8:	7b4a                	ld	s6,176(sp)
    80001dca:	7baa                	ld	s7,168(sp)
    80001dcc:	7c0a                	ld	s8,160(sp)
    80001dce:	6cea                	ld	s9,152(sp)
    80001dd0:	6d4a                	ld	s10,144(sp)
    80001dd2:	242a                	fld	fs0,136(sp)
    80001dd4:	248a                	fld	fs1,128(sp)
    80001dd6:	616d                	addi	sp,sp,240
    80001dd8:	6871106f          	j	80013c5e <free>

0000000080001ddc <_Z10matrix_sumPsPKsmm.part.0>:
    80001ddc:	1141                	addi	sp,sp,-16
    80001dde:	00015517          	auipc	a0,0x15
    80001de2:	36a50513          	addi	a0,a0,874 # 80017148 <__tbss_end+0x716>
    80001de6:	e406                	sd	ra,8(sp)
    80001de8:	2cf120ef          	jal	800148b6 <puts>
    80001dec:	00015517          	auipc	a0,0x15
    80001df0:	3ac50513          	addi	a0,a0,940 # 80017198 <__tbss_end+0x766>
    80001df4:	2c3120ef          	jal	800148b6 <puts>
    80001df8:	557d                	li	a0,-1
    80001dfa:	571110ef          	jal	80013b6a <exit>

0000000080001dfe <_Z12vector_equalPsPKsS1_m>:
    80001dfe:	c505                	beqz	a0,80001e26 <_Z12vector_equalPsPKsS1_m+0x28>
    80001e00:	c295                	beqz	a3,80001e24 <_Z12vector_equalPsPKsS1_m+0x26>
    80001e02:	0686                	slli	a3,a3,0x1
    80001e04:	96ae                	add	a3,a3,a1
    80001e06:	00059783          	lh	a5,0(a1)
    80001e0a:	00061703          	lh	a4,0(a2)
    80001e0e:	0589                	addi	a1,a1,2
    80001e10:	0609                	addi	a2,a2,2
    80001e12:	8f99                	sub	a5,a5,a4
    80001e14:	0017b793          	seqz	a5,a5
    80001e18:	00f51023          	sh	a5,0(a0)
    80001e1c:	0509                	addi	a0,a0,2
    80001e1e:	fed594e3          	bne	a1,a3,80001e06 <_Z12vector_equalPsPKsS1_m+0x8>
    80001e22:	8082                	ret
    80001e24:	8082                	ret
    80001e26:	1101                	addi	sp,sp,-32
    80001e28:	00015517          	auipc	a0,0x15
    80001e2c:	38850513          	addi	a0,a0,904 # 800171b0 <__tbss_end+0x77e>
    80001e30:	ec06                	sd	ra,24(sp)
    80001e32:	e436                	sd	a3,8(sp)
    80001e34:	283120ef          	jal	800148b6 <puts>
    80001e38:	65a2                	ld	a1,8(sp)
    80001e3a:	00015517          	auipc	a0,0x15
    80001e3e:	3c650513          	addi	a0,a0,966 # 80017200 <__tbss_end+0x7ce>
    80001e42:	12f120ef          	jal	80014770 <iprintf>
    80001e46:	557d                	li	a0,-1
    80001e48:	523110ef          	jal	80013b6a <exit>

0000000080001e4c <_Z10vector_sumPsPKsm>:
    80001e4c:	c11d                	beqz	a0,80001e72 <_Z10vector_sumPsPKsm+0x26>
    80001e4e:	4781                	li	a5,0
    80001e50:	ce11                	beqz	a2,80001e6c <_Z10vector_sumPsPKsm+0x20>
    80001e52:	0606                	slli	a2,a2,0x1
    80001e54:	962e                	add	a2,a2,a1
    80001e56:	4781                	li	a5,0
    80001e58:	0005d703          	lhu	a4,0(a1)
    80001e5c:	0589                	addi	a1,a1,2
    80001e5e:	9fb9                	addw	a5,a5,a4
    80001e60:	0107979b          	slliw	a5,a5,0x10
    80001e64:	4107d79b          	sraiw	a5,a5,0x10
    80001e68:	feb618e3          	bne	a2,a1,80001e58 <_Z10vector_sumPsPKsm+0xc>
    80001e6c:	00f51023          	sh	a5,0(a0)
    80001e70:	8082                	ret
    80001e72:	1141                	addi	sp,sp,-16
    80001e74:	00015517          	auipc	a0,0x15
    80001e78:	3b450513          	addi	a0,a0,948 # 80017228 <__tbss_end+0x7f6>
    80001e7c:	e406                	sd	ra,8(sp)
    80001e7e:	239120ef          	jal	800148b6 <puts>
    80001e82:	00015517          	auipc	a0,0x15
    80001e86:	31650513          	addi	a0,a0,790 # 80017198 <__tbss_end+0x766>
    80001e8a:	22d120ef          	jal	800148b6 <puts>
    80001e8e:	557d                	li	a0,-1
    80001e90:	4db110ef          	jal	80013b6a <exit>

0000000080001e94 <_Z11vector_meanPsPKsm>:
    80001e94:	c515                	beqz	a0,80001ec0 <_Z11vector_meanPsPKsm+0x2c>
    80001e96:	4781                	li	a5,0
    80001e98:	c20d                	beqz	a2,80001eba <_Z11vector_meanPsPKsm+0x26>
    80001e9a:	00161693          	slli	a3,a2,0x1
    80001e9e:	96ae                	add	a3,a3,a1
    80001ea0:	4781                	li	a5,0
    80001ea2:	0005d703          	lhu	a4,0(a1)
    80001ea6:	0589                	addi	a1,a1,2
    80001ea8:	9fb9                	addw	a5,a5,a4
    80001eaa:	0107979b          	slliw	a5,a5,0x10
    80001eae:	4107d79b          	sraiw	a5,a5,0x10
    80001eb2:	feb698e3          	bne	a3,a1,80001ea2 <_Z11vector_meanPsPKsm+0xe>
    80001eb6:	02c7d7b3          	divu	a5,a5,a2
    80001eba:	00f51023          	sh	a5,0(a0)
    80001ebe:	8082                	ret
    80001ec0:	1141                	addi	sp,sp,-16
    80001ec2:	00015517          	auipc	a0,0x15
    80001ec6:	3b650513          	addi	a0,a0,950 # 80017278 <__tbss_end+0x846>
    80001eca:	e406                	sd	ra,8(sp)
    80001ecc:	1eb120ef          	jal	800148b6 <puts>
    80001ed0:	00015517          	auipc	a0,0x15
    80001ed4:	2c850513          	addi	a0,a0,712 # 80017198 <__tbss_end+0x766>
    80001ed8:	1df120ef          	jal	800148b6 <puts>
    80001edc:	557d                	li	a0,-1
    80001ede:	48d110ef          	jal	80013b6a <exit>

0000000080001ee2 <_Z10vector_varPsPKsm>:
    80001ee2:	7179                	addi	sp,sp,-48
    80001ee4:	f406                	sd	ra,40(sp)
    80001ee6:	f022                	sd	s0,32(sp)
    80001ee8:	ec26                	sd	s1,24(sp)
    80001eea:	e84a                	sd	s2,16(sp)
    80001eec:	c525                	beqz	a0,80001f54 <_Z10vector_varPsPKsm+0x72>
    80001eee:	57cd                	li	a5,-13
    80001ef0:	8389                	srli	a5,a5,0x2
    80001ef2:	84b2                	mv	s1,a2
    80001ef4:	06c7ef63          	bltu	a5,a2,80001f72 <_Z10vector_varPsPKsm+0x90>
    80001ef8:	00161413          	slli	s0,a2,0x1
    80001efc:	892a                	mv	s2,a0
    80001efe:	8522                	mv	a0,s0
    80001f00:	e42e                	sd	a1,8(sp)
    80001f02:	2bf030ef          	jal	800059c0 <_Znam>
    80001f06:	65a2                	ld	a1,8(sp)
    80001f08:	c4a1                	beqz	s1,80001f50 <_Z10vector_varPsPKsm+0x6e>
    80001f0a:	00858833          	add	a6,a1,s0
    80001f0e:	87ae                	mv	a5,a1
    80001f10:	4601                	li	a2,0
    80001f12:	0007d703          	lhu	a4,0(a5)
    80001f16:	0789                	addi	a5,a5,2
    80001f18:	9e39                	addw	a2,a2,a4
    80001f1a:	0106161b          	slliw	a2,a2,0x10
    80001f1e:	4106561b          	sraiw	a2,a2,0x10
    80001f22:	fef818e3          	bne	a6,a5,80001f12 <_Z10vector_varPsPKsm+0x30>
    80001f26:	02965633          	divu	a2,a2,s1
    80001f2a:	0106161b          	slliw	a2,a2,0x10
    80001f2e:	4106561b          	sraiw	a2,a2,0x10
    80001f32:	86a6                	mv	a3,s1
    80001f34:	e42a                	sd	a0,8(sp)
    80001f36:	7a0000ef          	jal	800026d6 <_Z23tiled_vector_sub_scalarPsPKssm>
    80001f3a:	6622                	ld	a2,8(sp)
    80001f3c:	7402                	ld	s0,32(sp)
    80001f3e:	70a2                	ld	ra,40(sp)
    80001f40:	86a6                	mv	a3,s1
    80001f42:	854a                	mv	a0,s2
    80001f44:	64e2                	ld	s1,24(sp)
    80001f46:	6942                	ld	s2,16(sp)
    80001f48:	85b2                	mv	a1,a2
    80001f4a:	6145                	addi	sp,sp,48
    80001f4c:	4e80106f          	j	80003434 <_Z13tiled_dotprodPsPKsS1_m>
    80001f50:	4601                	li	a2,0
    80001f52:	b7c5                	j	80001f32 <_Z10vector_varPsPKsm+0x50>
    80001f54:	00015517          	auipc	a0,0x15
    80001f58:	37450513          	addi	a0,a0,884 # 800172c8 <__tbss_end+0x896>
    80001f5c:	15b120ef          	jal	800148b6 <puts>
    80001f60:	00015517          	auipc	a0,0x15
    80001f64:	23850513          	addi	a0,a0,568 # 80017198 <__tbss_end+0x766>
    80001f68:	14f120ef          	jal	800148b6 <puts>
    80001f6c:	557d                	li	a0,-1
    80001f6e:	3fd110ef          	jal	80013b6a <exit>
    80001f72:	b16fe0ef          	jal	80000288 <__cxa_throw_bad_array_new_length>

0000000080001f76 <_Z14vector_softmaxPsPKsms>:
    80001f76:	715d                	addi	sp,sp,-80
    80001f78:	e486                	sd	ra,72(sp)
    80001f7a:	e0a2                	sd	s0,64(sp)
    80001f7c:	fc26                	sd	s1,56(sp)
    80001f7e:	f84a                	sd	s2,48(sp)
    80001f80:	f44e                	sd	s3,40(sp)
    80001f82:	c141                	beqz	a0,80002002 <_Z14vector_softmaxPsPKsms+0x8c>
    80001f84:	842a                	mv	s0,a0
    80001f86:	00e10513          	addi	a0,sp,14
    80001f8a:	8932                	mv	s2,a2
    80001f8c:	89b6                	mv	s3,a3
    80001f8e:	84ae                	mv	s1,a1
    80001f90:	391000ef          	jal	80002b20 <_Z16tiled_vector_maxPsPKsm>
    80001f94:	00e11603          	lh	a2,14(sp)
    80001f98:	86ca                	mv	a3,s2
    80001f9a:	85a6                	mv	a1,s1
    80001f9c:	8522                	mv	a0,s0
    80001f9e:	738000ef          	jal	800026d6 <_Z23tiled_vector_sub_scalarPsPKssm>
    80001fa2:	04090963          	beqz	s2,80001ff4 <_Z14vector_softmaxPsPKsms+0x7e>
    80001fa6:	ac22                	fsd	fs0,24(sp)
    80001fa8:	f2000453          	fmv.d.x	fs0,zero
    80001fac:	0906                	slli	s2,s2,0x1
    80001fae:	9922                	add	s2,s2,s0
    80001fb0:	84a2                	mv	s1,s0
    80001fb2:	00049783          	lh	a5,0(s1)
    80001fb6:	0489                	addi	s1,s1,2
    80001fb8:	d2078553          	fcvt.d.w	fa0,a5
    80001fbc:	4210d0ef          	jal	8000fbdc <exp>
    80001fc0:	02a47453          	fadd.d	fs0,fs0,fa0
    80001fc4:	fe9917e3          	bne	s2,s1,80001fb2 <_Z14vector_softmaxPsPKsms+0x3c>
    80001fc8:	00022797          	auipc	a5,0x22
    80001fcc:	3907b707          	fld	fa4,912(a5) # 80024358 <__atexit_dummy+0x8>
    80001fd0:	1a877753          	fdiv.d	fa4,fa4,fs0
    80001fd4:	00041783          	lh	a5,0(s0)
    80001fd8:	0409                	addi	s0,s0,2
    80001fda:	033787bb          	mulw	a5,a5,s3
    80001fde:	d20787d3          	fcvt.d.w	fa5,a5
    80001fe2:	12e7f7d3          	fmul.d	fa5,fa5,fa4
    80001fe6:	c20797d3          	fcvt.w.d	a5,fa5,rtz
    80001fea:	fef41f23          	sh	a5,-2(s0)
    80001fee:	fe8913e3          	bne	s2,s0,80001fd4 <_Z14vector_softmaxPsPKsms+0x5e>
    80001ff2:	2462                	fld	fs0,24(sp)
    80001ff4:	6406                	ld	s0,64(sp)
    80001ff6:	60a6                	ld	ra,72(sp)
    80001ff8:	74e2                	ld	s1,56(sp)
    80001ffa:	7942                	ld	s2,48(sp)
    80001ffc:	79a2                	ld	s3,40(sp)
    80001ffe:	6161                	addi	sp,sp,80
    80002000:	8082                	ret
    80002002:	00015517          	auipc	a0,0x15
    80002006:	31650513          	addi	a0,a0,790 # 80017318 <__tbss_end+0x8e6>
    8000200a:	ac22                	fsd	fs0,24(sp)
    8000200c:	0ab120ef          	jal	800148b6 <puts>
    80002010:	00015517          	auipc	a0,0x15
    80002014:	18850513          	addi	a0,a0,392 # 80017198 <__tbss_end+0x766>
    80002018:	09f120ef          	jal	800148b6 <puts>
    8000201c:	557d                	li	a0,-1
    8000201e:	34d110ef          	jal	80013b6a <exit>

0000000080002022 <_Z10matrix_sumPsPKsmm>:
    80002022:	cd31                	beqz	a0,8000207e <_Z10matrix_sumPsPKsmm+0x5c>
    80002024:	ca19                	beqz	a2,8000203a <_Z10matrix_sumPsPKsmm+0x18>
    80002026:	00169313          	slli	t1,a3,0x1
    8000202a:	959a                	add	a1,a1,t1
    8000202c:	00161e13          	slli	t3,a2,0x1
    80002030:	4881                	li	a7,0
    80002032:	ea81                	bnez	a3,80002042 <_Z10matrix_sumPsPKsmm+0x20>
    80002034:	0885                	addi	a7,a7,1
    80002036:	ff161fe3          	bne	a2,a7,80002034 <_Z10matrix_sumPsPKsmm+0x12>
    8000203a:	4801                	li	a6,0
    8000203c:	01051023          	sh	a6,0(a0)
    80002040:	8082                	ret
    80002042:	4801                	li	a6,0
    80002044:	40658733          	sub	a4,a1,t1
    80002048:	4781                	li	a5,0
    8000204a:	00075683          	lhu	a3,0(a4)
    8000204e:	0709                	addi	a4,a4,2
    80002050:	9fb5                	addw	a5,a5,a3
    80002052:	03079693          	slli	a3,a5,0x30
    80002056:	0107979b          	slliw	a5,a5,0x10
    8000205a:	92c1                	srli	a3,a3,0x30
    8000205c:	4107d79b          	sraiw	a5,a5,0x10
    80002060:	fee595e3          	bne	a1,a4,8000204a <_Z10matrix_sumPsPKsmm+0x28>
    80002064:	00d8083b          	addw	a6,a6,a3
    80002068:	0108181b          	slliw	a6,a6,0x10
    8000206c:	0885                	addi	a7,a7,1
    8000206e:	4108581b          	sraiw	a6,a6,0x10
    80002072:	95f2                	add	a1,a1,t3
    80002074:	fcc898e3          	bne	a7,a2,80002044 <_Z10matrix_sumPsPKsmm+0x22>
    80002078:	01051023          	sh	a6,0(a0)
    8000207c:	8082                	ret
    8000207e:	1141                	addi	sp,sp,-16
    80002080:	e406                	sd	ra,8(sp)
    80002082:	d5bff0ef          	jal	80001ddc <_Z10matrix_sumPsPKsmm.part.0>

0000000080002086 <_Z10matrix_sumPsPKsmmm>:
    80002086:	1141                	addi	sp,sp,-16
    80002088:	e406                	sd	ra,8(sp)
    8000208a:	e022                	sd	s0,0(sp)
    8000208c:	cd49                	beqz	a0,80002126 <_Z10matrix_sumPsPKsmmm+0xa0>
    8000208e:	842a                	mv	s0,a0
    80002090:	c741                	beqz	a4,80002118 <_Z10matrix_sumPsPKsmmm+0x92>
    80002092:	c259                	beqz	a2,80002118 <_Z10matrix_sumPsPKsmmm+0x92>
    80002094:	00169e93          	slli	t4,a3,0x1
    80002098:	01d582b3          	add	t0,a1,t4
    8000209c:	00171513          	slli	a0,a4,0x1
    800020a0:	00161f13          	slli	t5,a2,0x1
    800020a4:	4f81                	li	t6,0
    800020a6:	4381                	li	t2,0
    800020a8:	8896                	mv	a7,t0
    800020aa:	4e01                	li	t3,0
    800020ac:	e68d                	bnez	a3,800020d6 <_Z10matrix_sumPsPKsmmm+0x50>
    800020ae:	0e05                	addi	t3,t3,1
    800020b0:	ffc61fe3          	bne	a2,t3,800020ae <_Z10matrix_sumPsPKsmmm+0x28>
    800020b4:	4581                	li	a1,0
    800020b6:	00bf8fbb          	addw	t6,t6,a1
    800020ba:	010f9f9b          	slliw	t6,t6,0x10
    800020be:	0385                	addi	t2,t2,1
    800020c0:	410fdf9b          	sraiw	t6,t6,0x10
    800020c4:	92aa                	add	t0,t0,a0
    800020c6:	fee391e3          	bne	t2,a4,800020a8 <_Z10matrix_sumPsPKsmmm+0x22>
    800020ca:	60a2                	ld	ra,8(sp)
    800020cc:	01f41023          	sh	t6,0(s0)
    800020d0:	6402                	ld	s0,0(sp)
    800020d2:	0141                	addi	sp,sp,16
    800020d4:	8082                	ret
    800020d6:	4301                	li	t1,0
    800020d8:	41d885b3          	sub	a1,a7,t4
    800020dc:	4781                	li	a5,0
    800020de:	0005d803          	lhu	a6,0(a1)
    800020e2:	0589                	addi	a1,a1,2
    800020e4:	00f807bb          	addw	a5,a6,a5
    800020e8:	03079813          	slli	a6,a5,0x30
    800020ec:	0107979b          	slliw	a5,a5,0x10
    800020f0:	03085813          	srli	a6,a6,0x30
    800020f4:	4107d79b          	sraiw	a5,a5,0x10
    800020f8:	ff1593e3          	bne	a1,a7,800020de <_Z10matrix_sumPsPKsmmm+0x58>
    800020fc:	010307bb          	addw	a5,t1,a6
    80002100:	03079593          	slli	a1,a5,0x30
    80002104:	0107931b          	slliw	t1,a5,0x10
    80002108:	0e05                	addi	t3,t3,1
    8000210a:	98fa                	add	a7,a7,t5
    8000210c:	91c1                	srli	a1,a1,0x30
    8000210e:	4103531b          	sraiw	t1,t1,0x10
    80002112:	fdc613e3          	bne	a2,t3,800020d8 <_Z10matrix_sumPsPKsmmm+0x52>
    80002116:	b745                	j	800020b6 <_Z10matrix_sumPsPKsmmm+0x30>
    80002118:	4f81                	li	t6,0
    8000211a:	60a2                	ld	ra,8(sp)
    8000211c:	01f41023          	sh	t6,0(s0)
    80002120:	6402                	ld	s0,0(sp)
    80002122:	0141                	addi	sp,sp,16
    80002124:	8082                	ret
    80002126:	cb7ff0ef          	jal	80001ddc <_Z10matrix_sumPsPKsmm.part.0>

000000008000212a <_Z11matrix_meanPsPKsmm>:
    8000212a:	c12d                	beqz	a0,8000218c <_Z11matrix_meanPsPKsmm+0x62>
    8000212c:	4801                	li	a6,0
    8000212e:	c205                	beqz	a2,8000214e <_Z11matrix_meanPsPKsmm+0x24>
    80002130:	00169313          	slli	t1,a3,0x1
    80002134:	02d60eb3          	mul	t4,a2,a3
    80002138:	959a                	add	a1,a1,t1
    8000213a:	00161e13          	slli	t3,a2,0x1
    8000213e:	4881                	li	a7,0
    80002140:	ea91                	bnez	a3,80002154 <_Z11matrix_meanPsPKsmm+0x2a>
    80002142:	0885                	addi	a7,a7,1
    80002144:	ff161fe3          	bne	a2,a7,80002142 <_Z11matrix_meanPsPKsmm+0x18>
    80002148:	4801                	li	a6,0
    8000214a:	03d85833          	divu	a6,a6,t4
    8000214e:	01051023          	sh	a6,0(a0)
    80002152:	8082                	ret
    80002154:	4801                	li	a6,0
    80002156:	40658733          	sub	a4,a1,t1
    8000215a:	4781                	li	a5,0
    8000215c:	00075683          	lhu	a3,0(a4)
    80002160:	0709                	addi	a4,a4,2
    80002162:	9fb5                	addw	a5,a5,a3
    80002164:	03079693          	slli	a3,a5,0x30
    80002168:	0107979b          	slliw	a5,a5,0x10
    8000216c:	92c1                	srli	a3,a3,0x30
    8000216e:	4107d79b          	sraiw	a5,a5,0x10
    80002172:	fee595e3          	bne	a1,a4,8000215c <_Z11matrix_meanPsPKsmm+0x32>
    80002176:	00d8083b          	addw	a6,a6,a3
    8000217a:	0108181b          	slliw	a6,a6,0x10
    8000217e:	0885                	addi	a7,a7,1
    80002180:	4108581b          	sraiw	a6,a6,0x10
    80002184:	95f2                	add	a1,a1,t3
    80002186:	fd1618e3          	bne	a2,a7,80002156 <_Z11matrix_meanPsPKsmm+0x2c>
    8000218a:	b7c1                	j	8000214a <_Z11matrix_meanPsPKsmm+0x20>
    8000218c:	1141                	addi	sp,sp,-16
    8000218e:	00015517          	auipc	a0,0x15
    80002192:	1da50513          	addi	a0,a0,474 # 80017368 <__tbss_end+0x936>
    80002196:	e406                	sd	ra,8(sp)
    80002198:	71e120ef          	jal	800148b6 <puts>
    8000219c:	00015517          	auipc	a0,0x15
    800021a0:	ffc50513          	addi	a0,a0,-4 # 80017198 <__tbss_end+0x766>
    800021a4:	712120ef          	jal	800148b6 <puts>
    800021a8:	557d                	li	a0,-1
    800021aa:	1c1110ef          	jal	80013b6a <exit>

00000000800021ae <_Z11matrix_meanPsPKsmmm>:
    800021ae:	7139                	addi	sp,sp,-64
    800021b0:	fc06                	sd	ra,56(sp)
    800021b2:	f822                	sd	s0,48(sp)
    800021b4:	f426                	sd	s1,40(sp)
    800021b6:	f04a                	sd	s2,32(sp)
    800021b8:	ec4e                	sd	s3,24(sp)
    800021ba:	cd05                	beqz	a0,800021f2 <_Z11matrix_meanPsPKsmmm+0x44>
    800021bc:	842a                	mv	s0,a0
    800021be:	00e10513          	addi	a0,sp,14
    800021c2:	84b2                	mv	s1,a2
    800021c4:	8936                	mv	s2,a3
    800021c6:	89ba                	mv	s3,a4
    800021c8:	00011723          	sh	zero,14(sp)
    800021cc:	ebbff0ef          	jal	80002086 <_Z10matrix_sumPsPKsmmm>
    800021d0:	03390633          	mul	a2,s2,s3
    800021d4:	00e11783          	lh	a5,14(sp)
    800021d8:	70e2                	ld	ra,56(sp)
    800021da:	7902                	ld	s2,32(sp)
    800021dc:	69e2                	ld	s3,24(sp)
    800021de:	02960633          	mul	a2,a2,s1
    800021e2:	74a2                	ld	s1,40(sp)
    800021e4:	02c7d7b3          	divu	a5,a5,a2
    800021e8:	00f41023          	sh	a5,0(s0)
    800021ec:	7442                	ld	s0,48(sp)
    800021ee:	6121                	addi	sp,sp,64
    800021f0:	8082                	ret
    800021f2:	00015517          	auipc	a0,0x15
    800021f6:	17650513          	addi	a0,a0,374 # 80017368 <__tbss_end+0x936>
    800021fa:	6bc120ef          	jal	800148b6 <puts>
    800021fe:	00015517          	auipc	a0,0x15
    80002202:	f9a50513          	addi	a0,a0,-102 # 80017198 <__tbss_end+0x766>
    80002206:	6b0120ef          	jal	800148b6 <puts>
    8000220a:	557d                	li	a0,-1
    8000220c:	15f110ef          	jal	80013b6a <exit>

0000000080002210 <_Z14fit_vector_addPsPKsS1_m>:
    80002210:	02000793          	li	a5,32
    80002214:	02d7e263          	bltu	a5,a3,80002238 <_Z14fit_vector_addPsPKsS1_m+0x28>
    80002218:	872a                	mv	a4,a0
    8000221a:	8536                	mv	a0,a3
    8000221c:	1805200b          	.insn	4, 0x1805200b
    80002220:	852e                	mv	a0,a1
    80002222:	1005208b          	.insn	4, 0x1005208b
    80002226:	8532                	mv	a0,a2
    80002228:	1005210b          	.insn	4, 0x1005210b
    8000222c:	0220818b          	.insn	4, 0x0220818b
    80002230:	853a                	mv	a0,a4
    80002232:	1235200b          	.insn	4, 0x1235200b
    80002236:	8082                	ret
    80002238:	1141                	addi	sp,sp,-16
    8000223a:	00015697          	auipc	a3,0x15
    8000223e:	17e68693          	addi	a3,a3,382 # 800173b8 <__tbss_end+0x986>
    80002242:	00015617          	auipc	a2,0x15
    80002246:	18e60613          	addi	a2,a2,398 # 800173d0 <__tbss_end+0x99e>
    8000224a:	4599                	li	a1,6
    8000224c:	00015517          	auipc	a0,0x15
    80002250:	1cc50513          	addi	a0,a0,460 # 80017418 <__tbss_end+0x9e6>
    80002254:	e406                	sd	ra,8(sp)
    80002256:	0cf110ef          	jal	80013b24 <__assert_func>

000000008000225a <_Z16tiled_vector_addPsPKsS1_m>:
    8000225a:	cd49                	beqz	a0,800022f4 <_Z16tiled_vector_addPsPKsS1_m+0x9a>
    8000225c:	02000793          	li	a5,32
    80002260:	8e2a                	mv	t3,a0
    80002262:	06d7fa63          	bgeu	a5,a3,800022d6 <_Z16tiled_vector_addPsPKsS1_m+0x7c>
    80002266:	01f6fe93          	andi	t4,a3,31
    8000226a:	0056d313          	srli	t1,a3,0x5
    8000226e:	88ae                	mv	a7,a1
    80002270:	8832                	mv	a6,a2
    80002272:	872a                	mv	a4,a0
    80002274:	4781                	li	a5,0
    80002276:	02000513          	li	a0,32
    8000227a:	1805200b          	.insn	4, 0x1805200b
    8000227e:	8546                	mv	a0,a7
    80002280:	1005208b          	.insn	4, 0x1005208b
    80002284:	8542                	mv	a0,a6
    80002286:	1005210b          	.insn	4, 0x1005210b
    8000228a:	0220818b          	.insn	4, 0x0220818b
    8000228e:	853a                	mv	a0,a4
    80002290:	1235200b          	.insn	4, 0x1235200b
    80002294:	0785                	addi	a5,a5,1
    80002296:	04088893          	addi	a7,a7,64
    8000229a:	04080813          	addi	a6,a6,64
    8000229e:	04070713          	addi	a4,a4,64
    800022a2:	fcf31ae3          	bne	t1,a5,80002276 <_Z16tiled_vector_addPsPKsS1_m+0x1c>
    800022a6:	000e9363          	bnez	t4,800022ac <_Z16tiled_vector_addPsPKsS1_m+0x52>
    800022aa:	8082                	ret
    800022ac:	41d686b3          	sub	a3,a3,t4
    800022b0:	0686                	slli	a3,a3,0x1
    800022b2:	8576                	mv	a0,t4
    800022b4:	1805200b          	.insn	4, 0x1805200b
    800022b8:	00d58533          	add	a0,a1,a3
    800022bc:	1005208b          	.insn	4, 0x1005208b
    800022c0:	00d60533          	add	a0,a2,a3
    800022c4:	1005210b          	.insn	4, 0x1005210b
    800022c8:	0220818b          	.insn	4, 0x0220818b
    800022cc:	00de0533          	add	a0,t3,a3
    800022d0:	1235200b          	.insn	4, 0x1235200b
    800022d4:	8082                	ret
    800022d6:	8536                	mv	a0,a3
    800022d8:	1805200b          	.insn	4, 0x1805200b
    800022dc:	852e                	mv	a0,a1
    800022de:	1005208b          	.insn	4, 0x1005208b
    800022e2:	8532                	mv	a0,a2
    800022e4:	1005210b          	.insn	4, 0x1005210b
    800022e8:	0220818b          	.insn	4, 0x0220818b
    800022ec:	8572                	mv	a0,t3
    800022ee:	1235200b          	.insn	4, 0x1235200b
    800022f2:	8082                	ret
    800022f4:	1101                	addi	sp,sp,-32
    800022f6:	00015517          	auipc	a0,0x15
    800022fa:	13a50513          	addi	a0,a0,314 # 80017430 <__tbss_end+0x9fe>
    800022fe:	ec06                	sd	ra,24(sp)
    80002300:	e436                	sd	a3,8(sp)
    80002302:	5b4120ef          	jal	800148b6 <puts>
    80002306:	65a2                	ld	a1,8(sp)
    80002308:	00015517          	auipc	a0,0x15
    8000230c:	17850513          	addi	a0,a0,376 # 80017480 <__tbss_end+0xa4e>
    80002310:	460120ef          	jal	80014770 <iprintf>
    80002314:	557d                	li	a0,-1
    80002316:	055110ef          	jal	80013b6a <exit>

000000008000231a <_Z23tiled_matrix_vector_addPsPKsS1_mm>:
    8000231a:	7139                	addi	sp,sp,-64
    8000231c:	e852                	sd	s4,16(sp)
    8000231e:	e456                	sd	s5,8(sp)
    80002320:	fc06                	sd	ra,56(sp)
    80002322:	8a36                	mv	s4,a3
    80002324:	8aba                	mv	s5,a4
    80002326:	c131                	beqz	a0,8000236a <_Z23tiled_matrix_vector_addPsPKsS1_mm+0x50>
    80002328:	ce85                	beqz	a3,80002360 <_Z23tiled_matrix_vector_addPsPKsS1_mm+0x46>
    8000232a:	f822                	sd	s0,48(sp)
    8000232c:	f426                	sd	s1,40(sp)
    8000232e:	f04a                	sd	s2,32(sp)
    80002330:	ec4e                	sd	s3,24(sp)
    80002332:	e05a                	sd	s6,0(sp)
    80002334:	842a                	mv	s0,a0
    80002336:	8b32                	mv	s6,a2
    80002338:	84ae                	mv	s1,a1
    8000233a:	00171993          	slli	s3,a4,0x1
    8000233e:	4901                	li	s2,0
    80002340:	85a6                	mv	a1,s1
    80002342:	8522                	mv	a0,s0
    80002344:	86d6                	mv	a3,s5
    80002346:	865a                	mv	a2,s6
    80002348:	0905                	addi	s2,s2,1
    8000234a:	f11ff0ef          	jal	8000225a <_Z16tiled_vector_addPsPKsS1_m>
    8000234e:	944e                	add	s0,s0,s3
    80002350:	94ce                	add	s1,s1,s3
    80002352:	ff2a17e3          	bne	s4,s2,80002340 <_Z23tiled_matrix_vector_addPsPKsS1_mm+0x26>
    80002356:	7442                	ld	s0,48(sp)
    80002358:	74a2                	ld	s1,40(sp)
    8000235a:	7902                	ld	s2,32(sp)
    8000235c:	69e2                	ld	s3,24(sp)
    8000235e:	6b02                	ld	s6,0(sp)
    80002360:	70e2                	ld	ra,56(sp)
    80002362:	6a42                	ld	s4,16(sp)
    80002364:	6aa2                	ld	s5,8(sp)
    80002366:	6121                	addi	sp,sp,64
    80002368:	8082                	ret
    8000236a:	00015517          	auipc	a0,0x15
    8000236e:	13650513          	addi	a0,a0,310 # 800174a0 <__tbss_end+0xa6e>
    80002372:	f822                	sd	s0,48(sp)
    80002374:	f426                	sd	s1,40(sp)
    80002376:	f04a                	sd	s2,32(sp)
    80002378:	ec4e                	sd	s3,24(sp)
    8000237a:	e05a                	sd	s6,0(sp)
    8000237c:	53a120ef          	jal	800148b6 <puts>
    80002380:	8656                	mv	a2,s5
    80002382:	85d2                	mv	a1,s4
    80002384:	00015517          	auipc	a0,0x15
    80002388:	17450513          	addi	a0,a0,372 # 800174f8 <__tbss_end+0xac6>
    8000238c:	3e4120ef          	jal	80014770 <iprintf>
    80002390:	557d                	li	a0,-1
    80002392:	7d8110ef          	jal	80013b6a <exit>

0000000080002396 <_Z14fit_vector_subPsPKsS1_m>:
    80002396:	02000793          	li	a5,32
    8000239a:	02d7e263          	bltu	a5,a3,800023be <_Z14fit_vector_subPsPKsS1_m+0x28>
    8000239e:	872a                	mv	a4,a0
    800023a0:	8536                	mv	a0,a3
    800023a2:	1805200b          	.insn	4, 0x1805200b
    800023a6:	852e                	mv	a0,a1
    800023a8:	1005208b          	.insn	4, 0x1005208b
    800023ac:	8532                	mv	a0,a2
    800023ae:	1005210b          	.insn	4, 0x1005210b
    800023b2:	0420818b          	.insn	4, 0x0420818b
    800023b6:	853a                	mv	a0,a4
    800023b8:	1235200b          	.insn	4, 0x1235200b
    800023bc:	8082                	ret
    800023be:	1141                	addi	sp,sp,-16
    800023c0:	00015697          	auipc	a3,0x15
    800023c4:	ff868693          	addi	a3,a3,-8 # 800173b8 <__tbss_end+0x986>
    800023c8:	00015617          	auipc	a2,0x15
    800023cc:	16060613          	addi	a2,a2,352 # 80017528 <__tbss_end+0xaf6>
    800023d0:	03600593          	li	a1,54
    800023d4:	00015517          	auipc	a0,0x15
    800023d8:	04450513          	addi	a0,a0,68 # 80017418 <__tbss_end+0x9e6>
    800023dc:	e406                	sd	ra,8(sp)
    800023de:	746110ef          	jal	80013b24 <__assert_func>

00000000800023e2 <_Z16tiled_vector_subPsPKsS1_m>:
    800023e2:	cd49                	beqz	a0,8000247c <_Z16tiled_vector_subPsPKsS1_m+0x9a>
    800023e4:	02000793          	li	a5,32
    800023e8:	8e2a                	mv	t3,a0
    800023ea:	06d7fa63          	bgeu	a5,a3,8000245e <_Z16tiled_vector_subPsPKsS1_m+0x7c>
    800023ee:	01f6fe93          	andi	t4,a3,31
    800023f2:	0056d313          	srli	t1,a3,0x5
    800023f6:	88ae                	mv	a7,a1
    800023f8:	8832                	mv	a6,a2
    800023fa:	872a                	mv	a4,a0
    800023fc:	4781                	li	a5,0
    800023fe:	02000513          	li	a0,32
    80002402:	1805200b          	.insn	4, 0x1805200b
    80002406:	8546                	mv	a0,a7
    80002408:	1005208b          	.insn	4, 0x1005208b
    8000240c:	8542                	mv	a0,a6
    8000240e:	1005210b          	.insn	4, 0x1005210b
    80002412:	0420818b          	.insn	4, 0x0420818b
    80002416:	853a                	mv	a0,a4
    80002418:	1235200b          	.insn	4, 0x1235200b
    8000241c:	0785                	addi	a5,a5,1
    8000241e:	04088893          	addi	a7,a7,64
    80002422:	04080813          	addi	a6,a6,64
    80002426:	04070713          	addi	a4,a4,64
    8000242a:	fcf31ae3          	bne	t1,a5,800023fe <_Z16tiled_vector_subPsPKsS1_m+0x1c>
    8000242e:	000e9363          	bnez	t4,80002434 <_Z16tiled_vector_subPsPKsS1_m+0x52>
    80002432:	8082                	ret
    80002434:	41d686b3          	sub	a3,a3,t4
    80002438:	0686                	slli	a3,a3,0x1
    8000243a:	8576                	mv	a0,t4
    8000243c:	1805200b          	.insn	4, 0x1805200b
    80002440:	00d58533          	add	a0,a1,a3
    80002444:	1005208b          	.insn	4, 0x1005208b
    80002448:	00d60533          	add	a0,a2,a3
    8000244c:	1005210b          	.insn	4, 0x1005210b
    80002450:	0420818b          	.insn	4, 0x0420818b
    80002454:	00de0533          	add	a0,t3,a3
    80002458:	1235200b          	.insn	4, 0x1235200b
    8000245c:	8082                	ret
    8000245e:	8536                	mv	a0,a3
    80002460:	1805200b          	.insn	4, 0x1805200b
    80002464:	852e                	mv	a0,a1
    80002466:	1005208b          	.insn	4, 0x1005208b
    8000246a:	8532                	mv	a0,a2
    8000246c:	1005210b          	.insn	4, 0x1005210b
    80002470:	0420818b          	.insn	4, 0x0420818b
    80002474:	8572                	mv	a0,t3
    80002476:	1235200b          	.insn	4, 0x1235200b
    8000247a:	8082                	ret
    8000247c:	1101                	addi	sp,sp,-32
    8000247e:	00015517          	auipc	a0,0x15
    80002482:	0f250513          	addi	a0,a0,242 # 80017570 <__tbss_end+0xb3e>
    80002486:	ec06                	sd	ra,24(sp)
    80002488:	e436                	sd	a3,8(sp)
    8000248a:	42c120ef          	jal	800148b6 <puts>
    8000248e:	65a2                	ld	a1,8(sp)
    80002490:	00015517          	auipc	a0,0x15
    80002494:	ff050513          	addi	a0,a0,-16 # 80017480 <__tbss_end+0xa4e>
    80002498:	2d8120ef          	jal	80014770 <iprintf>
    8000249c:	557d                	li	a0,-1
    8000249e:	6cc110ef          	jal	80013b6a <exit>

00000000800024a2 <_Z23tiled_matrix_vector_subPsPKsS1_mm>:
    800024a2:	7139                	addi	sp,sp,-64
    800024a4:	e852                	sd	s4,16(sp)
    800024a6:	e456                	sd	s5,8(sp)
    800024a8:	fc06                	sd	ra,56(sp)
    800024aa:	8a36                	mv	s4,a3
    800024ac:	8aba                	mv	s5,a4
    800024ae:	c131                	beqz	a0,800024f2 <_Z23tiled_matrix_vector_subPsPKsS1_mm+0x50>
    800024b0:	ce85                	beqz	a3,800024e8 <_Z23tiled_matrix_vector_subPsPKsS1_mm+0x46>
    800024b2:	f822                	sd	s0,48(sp)
    800024b4:	f426                	sd	s1,40(sp)
    800024b6:	f04a                	sd	s2,32(sp)
    800024b8:	ec4e                	sd	s3,24(sp)
    800024ba:	e05a                	sd	s6,0(sp)
    800024bc:	842a                	mv	s0,a0
    800024be:	8b32                	mv	s6,a2
    800024c0:	84ae                	mv	s1,a1
    800024c2:	00171993          	slli	s3,a4,0x1
    800024c6:	4901                	li	s2,0
    800024c8:	85a6                	mv	a1,s1
    800024ca:	8522                	mv	a0,s0
    800024cc:	86d6                	mv	a3,s5
    800024ce:	865a                	mv	a2,s6
    800024d0:	0905                	addi	s2,s2,1
    800024d2:	f11ff0ef          	jal	800023e2 <_Z16tiled_vector_subPsPKsS1_m>
    800024d6:	944e                	add	s0,s0,s3
    800024d8:	94ce                	add	s1,s1,s3
    800024da:	ff2a17e3          	bne	s4,s2,800024c8 <_Z23tiled_matrix_vector_subPsPKsS1_mm+0x26>
    800024de:	7442                	ld	s0,48(sp)
    800024e0:	74a2                	ld	s1,40(sp)
    800024e2:	7902                	ld	s2,32(sp)
    800024e4:	69e2                	ld	s3,24(sp)
    800024e6:	6b02                	ld	s6,0(sp)
    800024e8:	70e2                	ld	ra,56(sp)
    800024ea:	6a42                	ld	s4,16(sp)
    800024ec:	6aa2                	ld	s5,8(sp)
    800024ee:	6121                	addi	sp,sp,64
    800024f0:	8082                	ret
    800024f2:	00015517          	auipc	a0,0x15
    800024f6:	0ce50513          	addi	a0,a0,206 # 800175c0 <__tbss_end+0xb8e>
    800024fa:	f822                	sd	s0,48(sp)
    800024fc:	f426                	sd	s1,40(sp)
    800024fe:	f04a                	sd	s2,32(sp)
    80002500:	ec4e                	sd	s3,24(sp)
    80002502:	e05a                	sd	s6,0(sp)
    80002504:	3b2120ef          	jal	800148b6 <puts>
    80002508:	8656                	mv	a2,s5
    8000250a:	85d2                	mv	a1,s4
    8000250c:	00015517          	auipc	a0,0x15
    80002510:	fec50513          	addi	a0,a0,-20 # 800174f8 <__tbss_end+0xac6>
    80002514:	25c120ef          	jal	80014770 <iprintf>
    80002518:	557d                	li	a0,-1
    8000251a:	650110ef          	jal	80013b6a <exit>

000000008000251e <_Z21fit_vector_add_scalarPsPKssm>:
    8000251e:	02000793          	li	a5,32
    80002522:	02d7e063          	bltu	a5,a3,80002542 <_Z21fit_vector_add_scalarPsPKssm+0x24>
    80002526:	872a                	mv	a4,a0
    80002528:	8536                	mv	a0,a3
    8000252a:	1805200b          	.insn	4, 0x1805200b
    8000252e:	852e                	mv	a0,a1
    80002530:	1005208b          	.insn	4, 0x1005208b
    80002534:	8532                	mv	a0,a2
    80002536:	0615210b          	.insn	4, 0x0615210b
    8000253a:	853a                	mv	a0,a4
    8000253c:	1235200b          	.insn	4, 0x1235200b
    80002540:	8082                	ret
    80002542:	1141                	addi	sp,sp,-16
    80002544:	00015697          	auipc	a3,0x15
    80002548:	e7468693          	addi	a3,a3,-396 # 800173b8 <__tbss_end+0x986>
    8000254c:	00015617          	auipc	a2,0x15
    80002550:	0cc60613          	addi	a2,a2,204 # 80017618 <__tbss_end+0xbe6>
    80002554:	06600593          	li	a1,102
    80002558:	00015517          	auipc	a0,0x15
    8000255c:	ec050513          	addi	a0,a0,-320 # 80017418 <__tbss_end+0x9e6>
    80002560:	e406                	sd	ra,8(sp)
    80002562:	5c2110ef          	jal	80013b24 <__assert_func>

0000000080002566 <_Z23tiled_vector_add_scalarPsPKssm>:
    80002566:	c159                	beqz	a0,800025ec <_Z23tiled_vector_add_scalarPsPKssm+0x86>
    80002568:	02000793          	li	a5,32
    8000256c:	832a                	mv	t1,a0
    8000256e:	06d7f263          	bgeu	a5,a3,800025d2 <_Z23tiled_vector_add_scalarPsPKssm+0x6c>
    80002572:	01f6fe13          	andi	t3,a3,31
    80002576:	0056d893          	srli	a7,a3,0x5
    8000257a:	882e                	mv	a6,a1
    8000257c:	872a                	mv	a4,a0
    8000257e:	4781                	li	a5,0
    80002580:	02000513          	li	a0,32
    80002584:	1805200b          	.insn	4, 0x1805200b
    80002588:	8542                	mv	a0,a6
    8000258a:	1005208b          	.insn	4, 0x1005208b
    8000258e:	8532                	mv	a0,a2
    80002590:	0615210b          	.insn	4, 0x0615210b
    80002594:	853a                	mv	a0,a4
    80002596:	1235200b          	.insn	4, 0x1235200b
    8000259a:	0785                	addi	a5,a5,1
    8000259c:	04080813          	addi	a6,a6,64
    800025a0:	04070713          	addi	a4,a4,64
    800025a4:	fcf89ee3          	bne	a7,a5,80002580 <_Z23tiled_vector_add_scalarPsPKssm+0x1a>
    800025a8:	000e1363          	bnez	t3,800025ae <_Z23tiled_vector_add_scalarPsPKssm+0x48>
    800025ac:	8082                	ret
    800025ae:	41c686b3          	sub	a3,a3,t3
    800025b2:	0686                	slli	a3,a3,0x1
    800025b4:	8572                	mv	a0,t3
    800025b6:	1805200b          	.insn	4, 0x1805200b
    800025ba:	00d58533          	add	a0,a1,a3
    800025be:	1005208b          	.insn	4, 0x1005208b
    800025c2:	8532                	mv	a0,a2
    800025c4:	0615210b          	.insn	4, 0x0615210b
    800025c8:	00d30533          	add	a0,t1,a3
    800025cc:	1235200b          	.insn	4, 0x1235200b
    800025d0:	8082                	ret
    800025d2:	8536                	mv	a0,a3
    800025d4:	1805200b          	.insn	4, 0x1805200b
    800025d8:	852e                	mv	a0,a1
    800025da:	1005208b          	.insn	4, 0x1005208b
    800025de:	8532                	mv	a0,a2
    800025e0:	0615210b          	.insn	4, 0x0615210b
    800025e4:	851a                	mv	a0,t1
    800025e6:	1235200b          	.insn	4, 0x1235200b
    800025ea:	8082                	ret
    800025ec:	1101                	addi	sp,sp,-32
    800025ee:	00015517          	auipc	a0,0x15
    800025f2:	07250513          	addi	a0,a0,114 # 80017660 <__tbss_end+0xc2e>
    800025f6:	ec06                	sd	ra,24(sp)
    800025f8:	e436                	sd	a3,8(sp)
    800025fa:	2bc120ef          	jal	800148b6 <puts>
    800025fe:	65a2                	ld	a1,8(sp)
    80002600:	00015517          	auipc	a0,0x15
    80002604:	e8050513          	addi	a0,a0,-384 # 80017480 <__tbss_end+0xa4e>
    80002608:	168120ef          	jal	80014770 <iprintf>
    8000260c:	557d                	li	a0,-1
    8000260e:	55c110ef          	jal	80013b6a <exit>

0000000080002612 <_Z23tiled_matrix_add_scalarPsPKssmm>:
    80002612:	7139                	addi	sp,sp,-64
    80002614:	e852                	sd	s4,16(sp)
    80002616:	e456                	sd	s5,8(sp)
    80002618:	fc06                	sd	ra,56(sp)
    8000261a:	8a36                	mv	s4,a3
    8000261c:	8aba                	mv	s5,a4
    8000261e:	c131                	beqz	a0,80002662 <_Z23tiled_matrix_add_scalarPsPKssmm+0x50>
    80002620:	ce85                	beqz	a3,80002658 <_Z23tiled_matrix_add_scalarPsPKssmm+0x46>
    80002622:	f822                	sd	s0,48(sp)
    80002624:	f426                	sd	s1,40(sp)
    80002626:	f04a                	sd	s2,32(sp)
    80002628:	ec4e                	sd	s3,24(sp)
    8000262a:	e05a                	sd	s6,0(sp)
    8000262c:	842a                	mv	s0,a0
    8000262e:	8b32                	mv	s6,a2
    80002630:	84ae                	mv	s1,a1
    80002632:	00171993          	slli	s3,a4,0x1
    80002636:	4901                	li	s2,0
    80002638:	85a6                	mv	a1,s1
    8000263a:	8522                	mv	a0,s0
    8000263c:	86d6                	mv	a3,s5
    8000263e:	865a                	mv	a2,s6
    80002640:	0905                	addi	s2,s2,1
    80002642:	f25ff0ef          	jal	80002566 <_Z23tiled_vector_add_scalarPsPKssm>
    80002646:	944e                	add	s0,s0,s3
    80002648:	94ce                	add	s1,s1,s3
    8000264a:	ff2a17e3          	bne	s4,s2,80002638 <_Z23tiled_matrix_add_scalarPsPKssmm+0x26>
    8000264e:	7442                	ld	s0,48(sp)
    80002650:	74a2                	ld	s1,40(sp)
    80002652:	7902                	ld	s2,32(sp)
    80002654:	69e2                	ld	s3,24(sp)
    80002656:	6b02                	ld	s6,0(sp)
    80002658:	70e2                	ld	ra,56(sp)
    8000265a:	6a42                	ld	s4,16(sp)
    8000265c:	6aa2                	ld	s5,8(sp)
    8000265e:	6121                	addi	sp,sp,64
    80002660:	8082                	ret
    80002662:	00015517          	auipc	a0,0x15
    80002666:	05650513          	addi	a0,a0,86 # 800176b8 <__tbss_end+0xc86>
    8000266a:	f822                	sd	s0,48(sp)
    8000266c:	f426                	sd	s1,40(sp)
    8000266e:	f04a                	sd	s2,32(sp)
    80002670:	ec4e                	sd	s3,24(sp)
    80002672:	e05a                	sd	s6,0(sp)
    80002674:	242120ef          	jal	800148b6 <puts>
    80002678:	8656                	mv	a2,s5
    8000267a:	85d2                	mv	a1,s4
    8000267c:	00015517          	auipc	a0,0x15
    80002680:	e7c50513          	addi	a0,a0,-388 # 800174f8 <__tbss_end+0xac6>
    80002684:	0ec120ef          	jal	80014770 <iprintf>
    80002688:	557d                	li	a0,-1
    8000268a:	4e0110ef          	jal	80013b6a <exit>

000000008000268e <_Z21fit_vector_sub_scalarPsPKssm>:
    8000268e:	02000793          	li	a5,32
    80002692:	02d7e063          	bltu	a5,a3,800026b2 <_Z21fit_vector_sub_scalarPsPKssm+0x24>
    80002696:	872a                	mv	a4,a0
    80002698:	8536                	mv	a0,a3
    8000269a:	1805200b          	.insn	4, 0x1805200b
    8000269e:	852e                	mv	a0,a1
    800026a0:	1005208b          	.insn	4, 0x1005208b
    800026a4:	8532                	mv	a0,a2
    800026a6:	0815210b          	.insn	4, 0x0815210b
    800026aa:	853a                	mv	a0,a4
    800026ac:	1235200b          	.insn	4, 0x1235200b
    800026b0:	8082                	ret
    800026b2:	1141                	addi	sp,sp,-16
    800026b4:	00015697          	auipc	a3,0x15
    800026b8:	d0468693          	addi	a3,a3,-764 # 800173b8 <__tbss_end+0x986>
    800026bc:	00015617          	auipc	a2,0x15
    800026c0:	05460613          	addi	a2,a2,84 # 80017710 <__tbss_end+0xcde>
    800026c4:	09500593          	li	a1,149
    800026c8:	00015517          	auipc	a0,0x15
    800026cc:	d5050513          	addi	a0,a0,-688 # 80017418 <__tbss_end+0x9e6>
    800026d0:	e406                	sd	ra,8(sp)
    800026d2:	452110ef          	jal	80013b24 <__assert_func>

00000000800026d6 <_Z23tiled_vector_sub_scalarPsPKssm>:
    800026d6:	c159                	beqz	a0,8000275c <_Z23tiled_vector_sub_scalarPsPKssm+0x86>
    800026d8:	02000793          	li	a5,32
    800026dc:	832a                	mv	t1,a0
    800026de:	06d7f263          	bgeu	a5,a3,80002742 <_Z23tiled_vector_sub_scalarPsPKssm+0x6c>
    800026e2:	01f6fe13          	andi	t3,a3,31
    800026e6:	0056d893          	srli	a7,a3,0x5
    800026ea:	882e                	mv	a6,a1
    800026ec:	872a                	mv	a4,a0
    800026ee:	4781                	li	a5,0
    800026f0:	02000513          	li	a0,32
    800026f4:	1805200b          	.insn	4, 0x1805200b
    800026f8:	8542                	mv	a0,a6
    800026fa:	1005208b          	.insn	4, 0x1005208b
    800026fe:	8532                	mv	a0,a2
    80002700:	0815210b          	.insn	4, 0x0815210b
    80002704:	853a                	mv	a0,a4
    80002706:	1235200b          	.insn	4, 0x1235200b
    8000270a:	0785                	addi	a5,a5,1
    8000270c:	04080813          	addi	a6,a6,64
    80002710:	04070713          	addi	a4,a4,64
    80002714:	fcf89ee3          	bne	a7,a5,800026f0 <_Z23tiled_vector_sub_scalarPsPKssm+0x1a>
    80002718:	000e1363          	bnez	t3,8000271e <_Z23tiled_vector_sub_scalarPsPKssm+0x48>
    8000271c:	8082                	ret
    8000271e:	41c686b3          	sub	a3,a3,t3
    80002722:	0686                	slli	a3,a3,0x1
    80002724:	8572                	mv	a0,t3
    80002726:	1805200b          	.insn	4, 0x1805200b
    8000272a:	00d58533          	add	a0,a1,a3
    8000272e:	1005208b          	.insn	4, 0x1005208b
    80002732:	8532                	mv	a0,a2
    80002734:	0815210b          	.insn	4, 0x0815210b
    80002738:	00d30533          	add	a0,t1,a3
    8000273c:	1235200b          	.insn	4, 0x1235200b
    80002740:	8082                	ret
    80002742:	8536                	mv	a0,a3
    80002744:	1805200b          	.insn	4, 0x1805200b
    80002748:	852e                	mv	a0,a1
    8000274a:	1005208b          	.insn	4, 0x1005208b
    8000274e:	8532                	mv	a0,a2
    80002750:	0815210b          	.insn	4, 0x0815210b
    80002754:	851a                	mv	a0,t1
    80002756:	1235200b          	.insn	4, 0x1235200b
    8000275a:	8082                	ret
    8000275c:	1101                	addi	sp,sp,-32
    8000275e:	00015517          	auipc	a0,0x15
    80002762:	ffa50513          	addi	a0,a0,-6 # 80017758 <__tbss_end+0xd26>
    80002766:	ec06                	sd	ra,24(sp)
    80002768:	e436                	sd	a3,8(sp)
    8000276a:	14c120ef          	jal	800148b6 <puts>
    8000276e:	65a2                	ld	a1,8(sp)
    80002770:	00015517          	auipc	a0,0x15
    80002774:	d1050513          	addi	a0,a0,-752 # 80017480 <__tbss_end+0xa4e>
    80002778:	7f9110ef          	jal	80014770 <iprintf>
    8000277c:	557d                	li	a0,-1
    8000277e:	3ec110ef          	jal	80013b6a <exit>

0000000080002782 <_Z23tiled_matrix_sub_scalarPsPKssmm>:
    80002782:	7139                	addi	sp,sp,-64
    80002784:	e852                	sd	s4,16(sp)
    80002786:	e456                	sd	s5,8(sp)
    80002788:	fc06                	sd	ra,56(sp)
    8000278a:	8a36                	mv	s4,a3
    8000278c:	8aba                	mv	s5,a4
    8000278e:	c131                	beqz	a0,800027d2 <_Z23tiled_matrix_sub_scalarPsPKssmm+0x50>
    80002790:	ce85                	beqz	a3,800027c8 <_Z23tiled_matrix_sub_scalarPsPKssmm+0x46>
    80002792:	f822                	sd	s0,48(sp)
    80002794:	f426                	sd	s1,40(sp)
    80002796:	f04a                	sd	s2,32(sp)
    80002798:	ec4e                	sd	s3,24(sp)
    8000279a:	e05a                	sd	s6,0(sp)
    8000279c:	842a                	mv	s0,a0
    8000279e:	8b32                	mv	s6,a2
    800027a0:	84ae                	mv	s1,a1
    800027a2:	00171993          	slli	s3,a4,0x1
    800027a6:	4901                	li	s2,0
    800027a8:	85a6                	mv	a1,s1
    800027aa:	8522                	mv	a0,s0
    800027ac:	86d6                	mv	a3,s5
    800027ae:	865a                	mv	a2,s6
    800027b0:	0905                	addi	s2,s2,1
    800027b2:	f25ff0ef          	jal	800026d6 <_Z23tiled_vector_sub_scalarPsPKssm>
    800027b6:	944e                	add	s0,s0,s3
    800027b8:	94ce                	add	s1,s1,s3
    800027ba:	ff2a17e3          	bne	s4,s2,800027a8 <_Z23tiled_matrix_sub_scalarPsPKssmm+0x26>
    800027be:	7442                	ld	s0,48(sp)
    800027c0:	74a2                	ld	s1,40(sp)
    800027c2:	7902                	ld	s2,32(sp)
    800027c4:	69e2                	ld	s3,24(sp)
    800027c6:	6b02                	ld	s6,0(sp)
    800027c8:	70e2                	ld	ra,56(sp)
    800027ca:	6a42                	ld	s4,16(sp)
    800027cc:	6aa2                	ld	s5,8(sp)
    800027ce:	6121                	addi	sp,sp,64
    800027d0:	8082                	ret
    800027d2:	00015517          	auipc	a0,0x15
    800027d6:	fde50513          	addi	a0,a0,-34 # 800177b0 <__tbss_end+0xd7e>
    800027da:	f822                	sd	s0,48(sp)
    800027dc:	f426                	sd	s1,40(sp)
    800027de:	f04a                	sd	s2,32(sp)
    800027e0:	ec4e                	sd	s3,24(sp)
    800027e2:	e05a                	sd	s6,0(sp)
    800027e4:	0d2120ef          	jal	800148b6 <puts>
    800027e8:	8656                	mv	a2,s5
    800027ea:	85d2                	mv	a1,s4
    800027ec:	00015517          	auipc	a0,0x15
    800027f0:	d0c50513          	addi	a0,a0,-756 # 800174f8 <__tbss_end+0xac6>
    800027f4:	77d110ef          	jal	80014770 <iprintf>
    800027f8:	557d                	li	a0,-1
    800027fa:	370110ef          	jal	80013b6a <exit>

00000000800027fe <_Z21fit_vector_mul_scalarPsPKssm>:
    800027fe:	02000793          	li	a5,32
    80002802:	02d7e063          	bltu	a5,a3,80002822 <_Z21fit_vector_mul_scalarPsPKssm+0x24>
    80002806:	872a                	mv	a4,a0
    80002808:	8536                	mv	a0,a3
    8000280a:	1805200b          	.insn	4, 0x1805200b
    8000280e:	852e                	mv	a0,a1
    80002810:	1005208b          	.insn	4, 0x1005208b
    80002814:	8532                	mv	a0,a2
    80002816:	0a15210b          	.insn	4, 0x0a15210b
    8000281a:	853a                	mv	a0,a4
    8000281c:	1235200b          	.insn	4, 0x1235200b
    80002820:	8082                	ret
    80002822:	1141                	addi	sp,sp,-16
    80002824:	00015697          	auipc	a3,0x15
    80002828:	b9468693          	addi	a3,a3,-1132 # 800173b8 <__tbss_end+0x986>
    8000282c:	00015617          	auipc	a2,0x15
    80002830:	fdc60613          	addi	a2,a2,-36 # 80017808 <__tbss_end+0xdd6>
    80002834:	0c400593          	li	a1,196
    80002838:	00015517          	auipc	a0,0x15
    8000283c:	be050513          	addi	a0,a0,-1056 # 80017418 <__tbss_end+0x9e6>
    80002840:	e406                	sd	ra,8(sp)
    80002842:	2e2110ef          	jal	80013b24 <__assert_func>

0000000080002846 <_Z23tiled_vector_mul_scalarPsPKssm>:
    80002846:	c159                	beqz	a0,800028cc <_Z23tiled_vector_mul_scalarPsPKssm+0x86>
    80002848:	02000793          	li	a5,32
    8000284c:	832a                	mv	t1,a0
    8000284e:	06d7f263          	bgeu	a5,a3,800028b2 <_Z23tiled_vector_mul_scalarPsPKssm+0x6c>
    80002852:	01f6fe13          	andi	t3,a3,31
    80002856:	0056d893          	srli	a7,a3,0x5
    8000285a:	882e                	mv	a6,a1
    8000285c:	872a                	mv	a4,a0
    8000285e:	4781                	li	a5,0
    80002860:	02000513          	li	a0,32
    80002864:	1805200b          	.insn	4, 0x1805200b
    80002868:	8542                	mv	a0,a6
    8000286a:	1005208b          	.insn	4, 0x1005208b
    8000286e:	8532                	mv	a0,a2
    80002870:	0a15210b          	.insn	4, 0x0a15210b
    80002874:	853a                	mv	a0,a4
    80002876:	1235200b          	.insn	4, 0x1235200b
    8000287a:	0785                	addi	a5,a5,1
    8000287c:	04080813          	addi	a6,a6,64
    80002880:	04070713          	addi	a4,a4,64
    80002884:	fcf89ee3          	bne	a7,a5,80002860 <_Z23tiled_vector_mul_scalarPsPKssm+0x1a>
    80002888:	000e1363          	bnez	t3,8000288e <_Z23tiled_vector_mul_scalarPsPKssm+0x48>
    8000288c:	8082                	ret
    8000288e:	41c686b3          	sub	a3,a3,t3
    80002892:	0686                	slli	a3,a3,0x1
    80002894:	8572                	mv	a0,t3
    80002896:	1805200b          	.insn	4, 0x1805200b
    8000289a:	00d58533          	add	a0,a1,a3
    8000289e:	1005208b          	.insn	4, 0x1005208b
    800028a2:	8532                	mv	a0,a2
    800028a4:	0a15210b          	.insn	4, 0x0a15210b
    800028a8:	00d30533          	add	a0,t1,a3
    800028ac:	1235200b          	.insn	4, 0x1235200b
    800028b0:	8082                	ret
    800028b2:	8536                	mv	a0,a3
    800028b4:	1805200b          	.insn	4, 0x1805200b
    800028b8:	852e                	mv	a0,a1
    800028ba:	1005208b          	.insn	4, 0x1005208b
    800028be:	8532                	mv	a0,a2
    800028c0:	0a15210b          	.insn	4, 0x0a15210b
    800028c4:	851a                	mv	a0,t1
    800028c6:	1235200b          	.insn	4, 0x1235200b
    800028ca:	8082                	ret
    800028cc:	1101                	addi	sp,sp,-32
    800028ce:	00015517          	auipc	a0,0x15
    800028d2:	f8250513          	addi	a0,a0,-126 # 80017850 <__tbss_end+0xe1e>
    800028d6:	ec06                	sd	ra,24(sp)
    800028d8:	e436                	sd	a3,8(sp)
    800028da:	7dd110ef          	jal	800148b6 <puts>
    800028de:	65a2                	ld	a1,8(sp)
    800028e0:	00015517          	auipc	a0,0x15
    800028e4:	ba050513          	addi	a0,a0,-1120 # 80017480 <__tbss_end+0xa4e>
    800028e8:	689110ef          	jal	80014770 <iprintf>
    800028ec:	557d                	li	a0,-1
    800028ee:	27c110ef          	jal	80013b6a <exit>

00000000800028f2 <_Z23tiled_matrix_mul_scalarPsPKssmm>:
    800028f2:	7139                	addi	sp,sp,-64
    800028f4:	e852                	sd	s4,16(sp)
    800028f6:	e456                	sd	s5,8(sp)
    800028f8:	fc06                	sd	ra,56(sp)
    800028fa:	8a36                	mv	s4,a3
    800028fc:	8aba                	mv	s5,a4
    800028fe:	c131                	beqz	a0,80002942 <_Z23tiled_matrix_mul_scalarPsPKssmm+0x50>
    80002900:	ce85                	beqz	a3,80002938 <_Z23tiled_matrix_mul_scalarPsPKssmm+0x46>
    80002902:	f822                	sd	s0,48(sp)
    80002904:	f426                	sd	s1,40(sp)
    80002906:	f04a                	sd	s2,32(sp)
    80002908:	ec4e                	sd	s3,24(sp)
    8000290a:	e05a                	sd	s6,0(sp)
    8000290c:	842a                	mv	s0,a0
    8000290e:	8b32                	mv	s6,a2
    80002910:	84ae                	mv	s1,a1
    80002912:	00171993          	slli	s3,a4,0x1
    80002916:	4901                	li	s2,0
    80002918:	85a6                	mv	a1,s1
    8000291a:	8522                	mv	a0,s0
    8000291c:	86d6                	mv	a3,s5
    8000291e:	865a                	mv	a2,s6
    80002920:	0905                	addi	s2,s2,1
    80002922:	f25ff0ef          	jal	80002846 <_Z23tiled_vector_mul_scalarPsPKssm>
    80002926:	944e                	add	s0,s0,s3
    80002928:	94ce                	add	s1,s1,s3
    8000292a:	ff2a17e3          	bne	s4,s2,80002918 <_Z23tiled_matrix_mul_scalarPsPKssmm+0x26>
    8000292e:	7442                	ld	s0,48(sp)
    80002930:	74a2                	ld	s1,40(sp)
    80002932:	7902                	ld	s2,32(sp)
    80002934:	69e2                	ld	s3,24(sp)
    80002936:	6b02                	ld	s6,0(sp)
    80002938:	70e2                	ld	ra,56(sp)
    8000293a:	6a42                	ld	s4,16(sp)
    8000293c:	6aa2                	ld	s5,8(sp)
    8000293e:	6121                	addi	sp,sp,64
    80002940:	8082                	ret
    80002942:	00015517          	auipc	a0,0x15
    80002946:	f6650513          	addi	a0,a0,-154 # 800178a8 <__tbss_end+0xe76>
    8000294a:	f822                	sd	s0,48(sp)
    8000294c:	f426                	sd	s1,40(sp)
    8000294e:	f04a                	sd	s2,32(sp)
    80002950:	ec4e                	sd	s3,24(sp)
    80002952:	e05a                	sd	s6,0(sp)
    80002954:	763110ef          	jal	800148b6 <puts>
    80002958:	8656                	mv	a2,s5
    8000295a:	85d2                	mv	a1,s4
    8000295c:	00015517          	auipc	a0,0x15
    80002960:	b9c50513          	addi	a0,a0,-1124 # 800174f8 <__tbss_end+0xac6>
    80002964:	60d110ef          	jal	80014770 <iprintf>
    80002968:	557d                	li	a0,-1
    8000296a:	200110ef          	jal	80013b6a <exit>

000000008000296e <_Z21fit_vector_div_scalarPsPKssm>:
    8000296e:	02000793          	li	a5,32
    80002972:	02d7e063          	bltu	a5,a3,80002992 <_Z21fit_vector_div_scalarPsPKssm+0x24>
    80002976:	872a                	mv	a4,a0
    80002978:	8536                	mv	a0,a3
    8000297a:	1805200b          	.insn	4, 0x1805200b
    8000297e:	852e                	mv	a0,a1
    80002980:	1005208b          	.insn	4, 0x1005208b
    80002984:	8532                	mv	a0,a2
    80002986:	0c15210b          	.insn	4, 0x0c15210b
    8000298a:	853a                	mv	a0,a4
    8000298c:	1235200b          	.insn	4, 0x1235200b
    80002990:	8082                	ret
    80002992:	1141                	addi	sp,sp,-16
    80002994:	00015697          	auipc	a3,0x15
    80002998:	a2468693          	addi	a3,a3,-1500 # 800173b8 <__tbss_end+0x986>
    8000299c:	00015617          	auipc	a2,0x15
    800029a0:	f6460613          	addi	a2,a2,-156 # 80017900 <__tbss_end+0xece>
    800029a4:	0f300593          	li	a1,243
    800029a8:	00015517          	auipc	a0,0x15
    800029ac:	a7050513          	addi	a0,a0,-1424 # 80017418 <__tbss_end+0x9e6>
    800029b0:	e406                	sd	ra,8(sp)
    800029b2:	172110ef          	jal	80013b24 <__assert_func>

00000000800029b6 <_Z23tiled_vector_div_scalarPsPKssm>:
    800029b6:	c159                	beqz	a0,80002a3c <_Z23tiled_vector_div_scalarPsPKssm+0x86>
    800029b8:	02000793          	li	a5,32
    800029bc:	832a                	mv	t1,a0
    800029be:	06d7f263          	bgeu	a5,a3,80002a22 <_Z23tiled_vector_div_scalarPsPKssm+0x6c>
    800029c2:	01f6fe13          	andi	t3,a3,31
    800029c6:	0056d893          	srli	a7,a3,0x5
    800029ca:	882e                	mv	a6,a1
    800029cc:	872a                	mv	a4,a0
    800029ce:	4781                	li	a5,0
    800029d0:	02000513          	li	a0,32
    800029d4:	1805200b          	.insn	4, 0x1805200b
    800029d8:	8542                	mv	a0,a6
    800029da:	1005208b          	.insn	4, 0x1005208b
    800029de:	8532                	mv	a0,a2
    800029e0:	0c15210b          	.insn	4, 0x0c15210b
    800029e4:	853a                	mv	a0,a4
    800029e6:	1235200b          	.insn	4, 0x1235200b
    800029ea:	0785                	addi	a5,a5,1
    800029ec:	04080813          	addi	a6,a6,64
    800029f0:	04070713          	addi	a4,a4,64
    800029f4:	fcf89ee3          	bne	a7,a5,800029d0 <_Z23tiled_vector_div_scalarPsPKssm+0x1a>
    800029f8:	000e1363          	bnez	t3,800029fe <_Z23tiled_vector_div_scalarPsPKssm+0x48>
    800029fc:	8082                	ret
    800029fe:	41c686b3          	sub	a3,a3,t3
    80002a02:	0686                	slli	a3,a3,0x1
    80002a04:	8572                	mv	a0,t3
    80002a06:	1805200b          	.insn	4, 0x1805200b
    80002a0a:	00d58533          	add	a0,a1,a3
    80002a0e:	1005208b          	.insn	4, 0x1005208b
    80002a12:	8532                	mv	a0,a2
    80002a14:	0c15210b          	.insn	4, 0x0c15210b
    80002a18:	00d30533          	add	a0,t1,a3
    80002a1c:	1235200b          	.insn	4, 0x1235200b
    80002a20:	8082                	ret
    80002a22:	8536                	mv	a0,a3
    80002a24:	1805200b          	.insn	4, 0x1805200b
    80002a28:	852e                	mv	a0,a1
    80002a2a:	1005208b          	.insn	4, 0x1005208b
    80002a2e:	8532                	mv	a0,a2
    80002a30:	0c15210b          	.insn	4, 0x0c15210b
    80002a34:	851a                	mv	a0,t1
    80002a36:	1235200b          	.insn	4, 0x1235200b
    80002a3a:	8082                	ret
    80002a3c:	1101                	addi	sp,sp,-32
    80002a3e:	00015517          	auipc	a0,0x15
    80002a42:	f0a50513          	addi	a0,a0,-246 # 80017948 <__tbss_end+0xf16>
    80002a46:	ec06                	sd	ra,24(sp)
    80002a48:	e436                	sd	a3,8(sp)
    80002a4a:	66d110ef          	jal	800148b6 <puts>
    80002a4e:	65a2                	ld	a1,8(sp)
    80002a50:	00015517          	auipc	a0,0x15
    80002a54:	a3050513          	addi	a0,a0,-1488 # 80017480 <__tbss_end+0xa4e>
    80002a58:	519110ef          	jal	80014770 <iprintf>
    80002a5c:	557d                	li	a0,-1
    80002a5e:	10c110ef          	jal	80013b6a <exit>

0000000080002a62 <_Z23tiled_matrix_div_scalarPsPKssmm>:
    80002a62:	7139                	addi	sp,sp,-64
    80002a64:	e852                	sd	s4,16(sp)
    80002a66:	e456                	sd	s5,8(sp)
    80002a68:	fc06                	sd	ra,56(sp)
    80002a6a:	8a36                	mv	s4,a3
    80002a6c:	8aba                	mv	s5,a4
    80002a6e:	c131                	beqz	a0,80002ab2 <_Z23tiled_matrix_div_scalarPsPKssmm+0x50>
    80002a70:	ce85                	beqz	a3,80002aa8 <_Z23tiled_matrix_div_scalarPsPKssmm+0x46>
    80002a72:	f822                	sd	s0,48(sp)
    80002a74:	f426                	sd	s1,40(sp)
    80002a76:	f04a                	sd	s2,32(sp)
    80002a78:	ec4e                	sd	s3,24(sp)
    80002a7a:	e05a                	sd	s6,0(sp)
    80002a7c:	842a                	mv	s0,a0
    80002a7e:	8b32                	mv	s6,a2
    80002a80:	84ae                	mv	s1,a1
    80002a82:	00171993          	slli	s3,a4,0x1
    80002a86:	4901                	li	s2,0
    80002a88:	85a6                	mv	a1,s1
    80002a8a:	8522                	mv	a0,s0
    80002a8c:	86d6                	mv	a3,s5
    80002a8e:	865a                	mv	a2,s6
    80002a90:	0905                	addi	s2,s2,1
    80002a92:	f25ff0ef          	jal	800029b6 <_Z23tiled_vector_div_scalarPsPKssm>
    80002a96:	944e                	add	s0,s0,s3
    80002a98:	94ce                	add	s1,s1,s3
    80002a9a:	ff2a17e3          	bne	s4,s2,80002a88 <_Z23tiled_matrix_div_scalarPsPKssmm+0x26>
    80002a9e:	7442                	ld	s0,48(sp)
    80002aa0:	74a2                	ld	s1,40(sp)
    80002aa2:	7902                	ld	s2,32(sp)
    80002aa4:	69e2                	ld	s3,24(sp)
    80002aa6:	6b02                	ld	s6,0(sp)
    80002aa8:	70e2                	ld	ra,56(sp)
    80002aaa:	6a42                	ld	s4,16(sp)
    80002aac:	6aa2                	ld	s5,8(sp)
    80002aae:	6121                	addi	sp,sp,64
    80002ab0:	8082                	ret
    80002ab2:	00015517          	auipc	a0,0x15
    80002ab6:	eee50513          	addi	a0,a0,-274 # 800179a0 <__tbss_end+0xf6e>
    80002aba:	f822                	sd	s0,48(sp)
    80002abc:	f426                	sd	s1,40(sp)
    80002abe:	f04a                	sd	s2,32(sp)
    80002ac0:	ec4e                	sd	s3,24(sp)
    80002ac2:	e05a                	sd	s6,0(sp)
    80002ac4:	5f3110ef          	jal	800148b6 <puts>
    80002ac8:	8656                	mv	a2,s5
    80002aca:	85d2                	mv	a1,s4
    80002acc:	00015517          	auipc	a0,0x15
    80002ad0:	a2c50513          	addi	a0,a0,-1492 # 800174f8 <__tbss_end+0xac6>
    80002ad4:	49d110ef          	jal	80014770 <iprintf>
    80002ad8:	557d                	li	a0,-1
    80002ada:	090110ef          	jal	80013b6a <exit>

0000000080002ade <_Z14fit_vector_maxPsPKsm>:
    80002ade:	02000793          	li	a5,32
    80002ae2:	00c7ee63          	bltu	a5,a2,80002afe <_Z14fit_vector_maxPsPKsm+0x20>
    80002ae6:	872a                	mv	a4,a0
    80002ae8:	8532                	mv	a0,a2
    80002aea:	1805200b          	.insn	4, 0x1805200b
    80002aee:	852e                	mv	a0,a1
    80002af0:	1005208b          	.insn	4, 0x1005208b
    80002af4:	1600c50b          	.insn	4, 0x1600c50b
    80002af8:	00a71023          	sh	a0,0(a4)
    80002afc:	8082                	ret
    80002afe:	1141                	addi	sp,sp,-16
    80002b00:	00015697          	auipc	a3,0x15
    80002b04:	8b868693          	addi	a3,a3,-1864 # 800173b8 <__tbss_end+0x986>
    80002b08:	00015617          	auipc	a2,0x15
    80002b0c:	ef060613          	addi	a2,a2,-272 # 800179f8 <__tbss_end+0xfc6>
    80002b10:	4599                	li	a1,6
    80002b12:	00015517          	auipc	a0,0x15
    80002b16:	f1e50513          	addi	a0,a0,-226 # 80017a30 <__tbss_end+0xffe>
    80002b1a:	e406                	sd	ra,8(sp)
    80002b1c:	008110ef          	jal	80013b24 <__assert_func>

0000000080002b20 <_Z16tiled_vector_maxPsPKsm>:
    80002b20:	c14d                	beqz	a0,80002bc2 <_Z16tiled_vector_maxPsPKsm+0xa2>
    80002b22:	02000793          	li	a5,32
    80002b26:	8e2a                	mv	t3,a0
    80002b28:	06c7fe63          	bgeu	a5,a2,80002ba4 <_Z16tiled_vector_maxPsPKsm+0x84>
    80002b2c:	01f67e93          	andi	t4,a2,31
    80002b30:	00565313          	srli	t1,a2,0x5
    80002b34:	882e                	mv	a6,a1
    80002b36:	7761                	lui	a4,0xffff8
    80002b38:	4681                	li	a3,0
    80002b3a:	02000513          	li	a0,32
    80002b3e:	1805200b          	.insn	4, 0x1805200b
    80002b42:	8542                	mv	a0,a6
    80002b44:	1005208b          	.insn	4, 0x1005208b
    80002b48:	1600c50b          	.insn	4, 0x1600c50b
    80002b4c:	0105189b          	slliw	a7,a0,0x10
    80002b50:	4108d89b          	sraiw	a7,a7,0x10
    80002b54:	87aa                	mv	a5,a0
    80002b56:	00e8d363          	bge	a7,a4,80002b5c <_Z16tiled_vector_maxPsPKsm+0x3c>
    80002b5a:	87ba                	mv	a5,a4
    80002b5c:	0107971b          	slliw	a4,a5,0x10
    80002b60:	0685                	addi	a3,a3,1
    80002b62:	04080813          	addi	a6,a6,64
    80002b66:	4107571b          	sraiw	a4,a4,0x10
    80002b6a:	fcd318e3          	bne	t1,a3,80002b3a <_Z16tiled_vector_maxPsPKsm+0x1a>
    80002b6e:	000e9563          	bnez	t4,80002b78 <_Z16tiled_vector_maxPsPKsm+0x58>
    80002b72:	00ee1023          	sh	a4,0(t3)
    80002b76:	8082                	ret
    80002b78:	41d60633          	sub	a2,a2,t4
    80002b7c:	0606                	slli	a2,a2,0x1
    80002b7e:	8576                	mv	a0,t4
    80002b80:	1805200b          	.insn	4, 0x1805200b
    80002b84:	00c58533          	add	a0,a1,a2
    80002b88:	1005208b          	.insn	4, 0x1005208b
    80002b8c:	1600c50b          	.insn	4, 0x1600c50b
    80002b90:	0105169b          	slliw	a3,a0,0x10
    80002b94:	4106d69b          	sraiw	a3,a3,0x10
    80002b98:	02e6c263          	blt	a3,a4,80002bbc <_Z16tiled_vector_maxPsPKsm+0x9c>
    80002b9c:	872a                	mv	a4,a0
    80002b9e:	00ee1023          	sh	a4,0(t3)
    80002ba2:	8082                	ret
    80002ba4:	8532                	mv	a0,a2
    80002ba6:	1805200b          	.insn	4, 0x1805200b
    80002baa:	852e                	mv	a0,a1
    80002bac:	1005208b          	.insn	4, 0x1005208b
    80002bb0:	1600c50b          	.insn	4, 0x1600c50b
    80002bb4:	872a                	mv	a4,a0
    80002bb6:	00ee1023          	sh	a4,0(t3)
    80002bba:	8082                	ret
    80002bbc:	853e                	mv	a0,a5
    80002bbe:	872a                	mv	a4,a0
    80002bc0:	bff9                	j	80002b9e <_Z16tiled_vector_maxPsPKsm+0x7e>
    80002bc2:	1141                	addi	sp,sp,-16
    80002bc4:	00015517          	auipc	a0,0x15
    80002bc8:	e8450513          	addi	a0,a0,-380 # 80017a48 <__tbss_end+0x1016>
    80002bcc:	e406                	sd	ra,8(sp)
    80002bce:	4e9110ef          	jal	800148b6 <puts>
    80002bd2:	00014517          	auipc	a0,0x14
    80002bd6:	5c650513          	addi	a0,a0,1478 # 80017198 <__tbss_end+0x766>
    80002bda:	4dd110ef          	jal	800148b6 <puts>
    80002bde:	557d                	li	a0,-1
    80002be0:	78b100ef          	jal	80013b6a <exit>

0000000080002be4 <_Z23tiled_matrix_vector_maxPsPKsmm>:
    80002be4:	7139                	addi	sp,sp,-64
    80002be6:	ec4e                	sd	s3,24(sp)
    80002be8:	fc06                	sd	ra,56(sp)
    80002bea:	89b2                	mv	s3,a2
    80002bec:	c121                	beqz	a0,80002c2c <_Z23tiled_matrix_vector_maxPsPKsmm+0x48>
    80002bee:	ca1d                	beqz	a2,80002c24 <_Z23tiled_matrix_vector_maxPsPKsmm+0x40>
    80002bf0:	f822                	sd	s0,48(sp)
    80002bf2:	f426                	sd	s1,40(sp)
    80002bf4:	f04a                	sd	s2,32(sp)
    80002bf6:	e852                	sd	s4,16(sp)
    80002bf8:	e456                	sd	s5,8(sp)
    80002bfa:	8a36                	mv	s4,a3
    80002bfc:	842a                	mv	s0,a0
    80002bfe:	84ae                	mv	s1,a1
    80002c00:	00169a93          	slli	s5,a3,0x1
    80002c04:	4901                	li	s2,0
    80002c06:	85a6                	mv	a1,s1
    80002c08:	8522                	mv	a0,s0
    80002c0a:	8652                	mv	a2,s4
    80002c0c:	0905                	addi	s2,s2,1
    80002c0e:	f13ff0ef          	jal	80002b20 <_Z16tiled_vector_maxPsPKsm>
    80002c12:	0409                	addi	s0,s0,2
    80002c14:	94d6                	add	s1,s1,s5
    80002c16:	ff2998e3          	bne	s3,s2,80002c06 <_Z23tiled_matrix_vector_maxPsPKsmm+0x22>
    80002c1a:	7442                	ld	s0,48(sp)
    80002c1c:	74a2                	ld	s1,40(sp)
    80002c1e:	7902                	ld	s2,32(sp)
    80002c20:	6a42                	ld	s4,16(sp)
    80002c22:	6aa2                	ld	s5,8(sp)
    80002c24:	70e2                	ld	ra,56(sp)
    80002c26:	69e2                	ld	s3,24(sp)
    80002c28:	6121                	addi	sp,sp,64
    80002c2a:	8082                	ret
    80002c2c:	00015517          	auipc	a0,0x15
    80002c30:	e6c50513          	addi	a0,a0,-404 # 80017a98 <__tbss_end+0x1066>
    80002c34:	f822                	sd	s0,48(sp)
    80002c36:	f426                	sd	s1,40(sp)
    80002c38:	f04a                	sd	s2,32(sp)
    80002c3a:	e852                	sd	s4,16(sp)
    80002c3c:	e456                	sd	s5,8(sp)
    80002c3e:	479110ef          	jal	800148b6 <puts>
    80002c42:	85ce                	mv	a1,s3
    80002c44:	00015517          	auipc	a0,0x15
    80002c48:	eac50513          	addi	a0,a0,-340 # 80017af0 <__tbss_end+0x10be>
    80002c4c:	325110ef          	jal	80014770 <iprintf>
    80002c50:	557d                	li	a0,-1
    80002c52:	719100ef          	jal	80013b6a <exit>

0000000080002c56 <_Z14fit_vector_minPsPKsm>:
    80002c56:	02000793          	li	a5,32
    80002c5a:	00c7ee63          	bltu	a5,a2,80002c76 <_Z14fit_vector_minPsPKsm+0x20>
    80002c5e:	872a                	mv	a4,a0
    80002c60:	8532                	mv	a0,a2
    80002c62:	1805200b          	.insn	4, 0x1805200b
    80002c66:	852e                	mv	a0,a1
    80002c68:	1005208b          	.insn	4, 0x1005208b
    80002c6c:	1610c50b          	.insn	4, 0x1610c50b
    80002c70:	00a71023          	sh	a0,0(a4) # ffffffffffff8000 <__heap_end+0xffffffff7ff6f000>
    80002c74:	8082                	ret
    80002c76:	1141                	addi	sp,sp,-16
    80002c78:	00014697          	auipc	a3,0x14
    80002c7c:	74068693          	addi	a3,a3,1856 # 800173b8 <__tbss_end+0x986>
    80002c80:	00015617          	auipc	a2,0x15
    80002c84:	e9060613          	addi	a2,a2,-368 # 80017b10 <__tbss_end+0x10de>
    80002c88:	03400593          	li	a1,52
    80002c8c:	00015517          	auipc	a0,0x15
    80002c90:	da450513          	addi	a0,a0,-604 # 80017a30 <__tbss_end+0xffe>
    80002c94:	e406                	sd	ra,8(sp)
    80002c96:	68f100ef          	jal	80013b24 <__assert_func>

0000000080002c9a <_Z16tiled_vector_minPsPKsm>:
    80002c9a:	c155                	beqz	a0,80002d3e <_Z16tiled_vector_minPsPKsm+0xa4>
    80002c9c:	02000793          	li	a5,32
    80002ca0:	8e2a                	mv	t3,a0
    80002ca2:	06c7ff63          	bgeu	a5,a2,80002d20 <_Z16tiled_vector_minPsPKsm+0x86>
    80002ca6:	6721                	lui	a4,0x8
    80002ca8:	177d                	addi	a4,a4,-1 # 7fff <__stack_size_min+0x1fff>
    80002caa:	01f67e93          	andi	t4,a2,31
    80002cae:	00565313          	srli	t1,a2,0x5
    80002cb2:	882e                	mv	a6,a1
    80002cb4:	4681                	li	a3,0
    80002cb6:	02000513          	li	a0,32
    80002cba:	1805200b          	.insn	4, 0x1805200b
    80002cbe:	8542                	mv	a0,a6
    80002cc0:	1005208b          	.insn	4, 0x1005208b
    80002cc4:	1610c50b          	.insn	4, 0x1610c50b
    80002cc8:	0105189b          	slliw	a7,a0,0x10
    80002ccc:	4108d89b          	sraiw	a7,a7,0x10
    80002cd0:	87aa                	mv	a5,a0
    80002cd2:	01175363          	bge	a4,a7,80002cd8 <_Z16tiled_vector_minPsPKsm+0x3e>
    80002cd6:	87ba                	mv	a5,a4
    80002cd8:	0107971b          	slliw	a4,a5,0x10
    80002cdc:	0685                	addi	a3,a3,1
    80002cde:	04080813          	addi	a6,a6,64
    80002ce2:	4107571b          	sraiw	a4,a4,0x10
    80002ce6:	fcd318e3          	bne	t1,a3,80002cb6 <_Z16tiled_vector_minPsPKsm+0x1c>
    80002cea:	000e9563          	bnez	t4,80002cf4 <_Z16tiled_vector_minPsPKsm+0x5a>
    80002cee:	00ee1023          	sh	a4,0(t3)
    80002cf2:	8082                	ret
    80002cf4:	41d60633          	sub	a2,a2,t4
    80002cf8:	0606                	slli	a2,a2,0x1
    80002cfa:	8576                	mv	a0,t4
    80002cfc:	1805200b          	.insn	4, 0x1805200b
    80002d00:	00c58533          	add	a0,a1,a2
    80002d04:	1005208b          	.insn	4, 0x1005208b
    80002d08:	1610c50b          	.insn	4, 0x1610c50b
    80002d0c:	0105169b          	slliw	a3,a0,0x10
    80002d10:	4106d69b          	sraiw	a3,a3,0x10
    80002d14:	02d74263          	blt	a4,a3,80002d38 <_Z16tiled_vector_minPsPKsm+0x9e>
    80002d18:	872a                	mv	a4,a0
    80002d1a:	00ee1023          	sh	a4,0(t3)
    80002d1e:	8082                	ret
    80002d20:	8532                	mv	a0,a2
    80002d22:	1805200b          	.insn	4, 0x1805200b
    80002d26:	852e                	mv	a0,a1
    80002d28:	1005208b          	.insn	4, 0x1005208b
    80002d2c:	1610c50b          	.insn	4, 0x1610c50b
    80002d30:	872a                	mv	a4,a0
    80002d32:	00ee1023          	sh	a4,0(t3)
    80002d36:	8082                	ret
    80002d38:	853e                	mv	a0,a5
    80002d3a:	872a                	mv	a4,a0
    80002d3c:	bff9                	j	80002d1a <_Z16tiled_vector_minPsPKsm+0x80>
    80002d3e:	1141                	addi	sp,sp,-16
    80002d40:	00015517          	auipc	a0,0x15
    80002d44:	e0850513          	addi	a0,a0,-504 # 80017b48 <__tbss_end+0x1116>
    80002d48:	e406                	sd	ra,8(sp)
    80002d4a:	36d110ef          	jal	800148b6 <puts>
    80002d4e:	00014517          	auipc	a0,0x14
    80002d52:	44a50513          	addi	a0,a0,1098 # 80017198 <__tbss_end+0x766>
    80002d56:	361110ef          	jal	800148b6 <puts>
    80002d5a:	557d                	li	a0,-1
    80002d5c:	60f100ef          	jal	80013b6a <exit>

0000000080002d60 <_Z23tiled_matrix_vector_minPsPKsmm>:
    80002d60:	7139                	addi	sp,sp,-64
    80002d62:	ec4e                	sd	s3,24(sp)
    80002d64:	fc06                	sd	ra,56(sp)
    80002d66:	89b2                	mv	s3,a2
    80002d68:	c121                	beqz	a0,80002da8 <_Z23tiled_matrix_vector_minPsPKsmm+0x48>
    80002d6a:	ca1d                	beqz	a2,80002da0 <_Z23tiled_matrix_vector_minPsPKsmm+0x40>
    80002d6c:	f822                	sd	s0,48(sp)
    80002d6e:	f426                	sd	s1,40(sp)
    80002d70:	f04a                	sd	s2,32(sp)
    80002d72:	e852                	sd	s4,16(sp)
    80002d74:	e456                	sd	s5,8(sp)
    80002d76:	8a36                	mv	s4,a3
    80002d78:	842a                	mv	s0,a0
    80002d7a:	84ae                	mv	s1,a1
    80002d7c:	00169a93          	slli	s5,a3,0x1
    80002d80:	4901                	li	s2,0
    80002d82:	85a6                	mv	a1,s1
    80002d84:	8522                	mv	a0,s0
    80002d86:	8652                	mv	a2,s4
    80002d88:	0905                	addi	s2,s2,1
    80002d8a:	f11ff0ef          	jal	80002c9a <_Z16tiled_vector_minPsPKsm>
    80002d8e:	0409                	addi	s0,s0,2
    80002d90:	94d6                	add	s1,s1,s5
    80002d92:	ff2998e3          	bne	s3,s2,80002d82 <_Z23tiled_matrix_vector_minPsPKsmm+0x22>
    80002d96:	7442                	ld	s0,48(sp)
    80002d98:	74a2                	ld	s1,40(sp)
    80002d9a:	7902                	ld	s2,32(sp)
    80002d9c:	6a42                	ld	s4,16(sp)
    80002d9e:	6aa2                	ld	s5,8(sp)
    80002da0:	70e2                	ld	ra,56(sp)
    80002da2:	69e2                	ld	s3,24(sp)
    80002da4:	6121                	addi	sp,sp,64
    80002da6:	8082                	ret
    80002da8:	00015517          	auipc	a0,0x15
    80002dac:	df050513          	addi	a0,a0,-528 # 80017b98 <__tbss_end+0x1166>
    80002db0:	f822                	sd	s0,48(sp)
    80002db2:	f426                	sd	s1,40(sp)
    80002db4:	f04a                	sd	s2,32(sp)
    80002db6:	e852                	sd	s4,16(sp)
    80002db8:	e456                	sd	s5,8(sp)
    80002dba:	2fd110ef          	jal	800148b6 <puts>
    80002dbe:	85ce                	mv	a1,s3
    80002dc0:	00015517          	auipc	a0,0x15
    80002dc4:	d3050513          	addi	a0,a0,-720 # 80017af0 <__tbss_end+0x10be>
    80002dc8:	1a9110ef          	jal	80014770 <iprintf>
    80002dcc:	557d                	li	a0,-1
    80002dce:	59d100ef          	jal	80013b6a <exit>

0000000080002dd2 <_Z18fit_vector_dropoutPsPKssm>:
    80002dd2:	02000793          	li	a5,32
    80002dd6:	02d7e163          	bltu	a5,a3,80002df8 <_Z18fit_vector_dropoutPsPKssm+0x26>
    80002dda:	852e                	mv	a0,a1
    80002ddc:	1005258b          	.insn	4, 0x1005258b
    80002de0:	8536                	mv	a0,a3
    80002de2:	1805200b          	.insn	4, 0x1805200b
    80002de6:	45ad                	li	a1,11
    80002de8:	18c5b08b          	.insn	4, 0x18c5b08b
    80002dec:	0205858b          	.insn	4, 0x0205858b
    80002df0:	567d                	li	a2,-1
    80002df2:	18c5b08b          	.insn	4, 0x18c5b08b
    80002df6:	8082                	ret
    80002df8:	1141                	addi	sp,sp,-16
    80002dfa:	00014697          	auipc	a3,0x14
    80002dfe:	5be68693          	addi	a3,a3,1470 # 800173b8 <__tbss_end+0x986>
    80002e02:	00015617          	auipc	a2,0x15
    80002e06:	dee60613          	addi	a2,a2,-530 # 80017bf0 <__tbss_end+0x11be>
    80002e0a:	06200593          	li	a1,98
    80002e0e:	00015517          	auipc	a0,0x15
    80002e12:	c2250513          	addi	a0,a0,-990 # 80017a30 <__tbss_end+0xffe>
    80002e16:	e406                	sd	ra,8(sp)
    80002e18:	50d100ef          	jal	80013b24 <__assert_func>

0000000080002e1c <_Z13vector_argmaxPsPKsm>:
    80002e1c:	7139                	addi	sp,sp,-64
    80002e1e:	f426                	sd	s1,40(sp)
    80002e20:	84aa                	mv	s1,a0
    80002e22:	01e10513          	addi	a0,sp,30
    80002e26:	f822                	sd	s0,48(sp)
    80002e28:	e432                	sd	a2,8(sp)
    80002e2a:	fc06                	sd	ra,56(sp)
    80002e2c:	842e                	mv	s0,a1
    80002e2e:	cf3ff0ef          	jal	80002b20 <_Z16tiled_vector_maxPsPKsm>
    80002e32:	6622                	ld	a2,8(sp)
    80002e34:	c60d                	beqz	a2,80002e5e <_Z13vector_argmaxPsPKsm+0x42>
    80002e36:	01e11683          	lh	a3,30(sp)
    80002e3a:	85a2                	mv	a1,s0
    80002e3c:	4781                	li	a5,0
    80002e3e:	a021                	j	80002e46 <_Z13vector_argmaxPsPKsm+0x2a>
    80002e40:	0785                	addi	a5,a5,1
    80002e42:	00f60763          	beq	a2,a5,80002e50 <_Z13vector_argmaxPsPKsm+0x34>
    80002e46:	00059703          	lh	a4,0(a1)
    80002e4a:	0589                	addi	a1,a1,2
    80002e4c:	fed71ae3          	bne	a4,a3,80002e40 <_Z13vector_argmaxPsPKsm+0x24>
    80002e50:	70e2                	ld	ra,56(sp)
    80002e52:	7442                	ld	s0,48(sp)
    80002e54:	00f49023          	sh	a5,0(s1)
    80002e58:	74a2                	ld	s1,40(sp)
    80002e5a:	6121                	addi	sp,sp,64
    80002e5c:	8082                	ret
    80002e5e:	4781                	li	a5,0
    80002e60:	bfc5                	j	80002e50 <_Z13vector_argmaxPsPKsm+0x34>

0000000080002e62 <_Z20matrix_vector_argmaxPsPKsmm>:
    80002e62:	715d                	addi	sp,sp,-80
    80002e64:	f052                	sd	s4,32(sp)
    80002e66:	e486                	sd	ra,72(sp)
    80002e68:	8a32                	mv	s4,a2
    80002e6a:	c935                	beqz	a0,80002ede <_Z20matrix_vector_argmaxPsPKsmm+0x7c>
    80002e6c:	ce21                	beqz	a2,80002ec4 <_Z20matrix_vector_argmaxPsPKsmm+0x62>
    80002e6e:	e0a2                	sd	s0,64(sp)
    80002e70:	fc26                	sd	s1,56(sp)
    80002e72:	f84a                	sd	s2,48(sp)
    80002e74:	f44e                	sd	s3,40(sp)
    80002e76:	ec56                	sd	s5,24(sp)
    80002e78:	8436                	mv	s0,a3
    80002e7a:	84ae                	mv	s1,a1
    80002e7c:	892a                	mv	s2,a0
    80002e7e:	00169a93          	slli	s5,a3,0x1
    80002e82:	4981                	li	s3,0
    80002e84:	8622                	mv	a2,s0
    80002e86:	85a6                	mv	a1,s1
    80002e88:	00e10513          	addi	a0,sp,14
    80002e8c:	c95ff0ef          	jal	80002b20 <_Z16tiled_vector_maxPsPKsm>
    80002e90:	cc15                	beqz	s0,80002ecc <_Z20matrix_vector_argmaxPsPKsmm+0x6a>
    80002e92:	00e11683          	lh	a3,14(sp)
    80002e96:	8726                	mv	a4,s1
    80002e98:	4781                	li	a5,0
    80002e9a:	a029                	j	80002ea4 <_Z20matrix_vector_argmaxPsPKsmm+0x42>
    80002e9c:	0785                	addi	a5,a5,1
    80002e9e:	0709                	addi	a4,a4,2
    80002ea0:	00f40663          	beq	s0,a5,80002eac <_Z20matrix_vector_argmaxPsPKsmm+0x4a>
    80002ea4:	00071803          	lh	a6,0(a4)
    80002ea8:	fed81ae3          	bne	a6,a3,80002e9c <_Z20matrix_vector_argmaxPsPKsmm+0x3a>
    80002eac:	00f91023          	sh	a5,0(s2)
    80002eb0:	0985                	addi	s3,s3,1
    80002eb2:	94d6                	add	s1,s1,s5
    80002eb4:	0909                	addi	s2,s2,2
    80002eb6:	fd3a17e3          	bne	s4,s3,80002e84 <_Z20matrix_vector_argmaxPsPKsmm+0x22>
    80002eba:	6406                	ld	s0,64(sp)
    80002ebc:	74e2                	ld	s1,56(sp)
    80002ebe:	7942                	ld	s2,48(sp)
    80002ec0:	79a2                	ld	s3,40(sp)
    80002ec2:	6ae2                	ld	s5,24(sp)
    80002ec4:	60a6                	ld	ra,72(sp)
    80002ec6:	7a02                	ld	s4,32(sp)
    80002ec8:	6161                	addi	sp,sp,80
    80002eca:	8082                	ret
    80002ecc:	4781                	li	a5,0
    80002ece:	00f91023          	sh	a5,0(s2)
    80002ed2:	0985                	addi	s3,s3,1
    80002ed4:	94d6                	add	s1,s1,s5
    80002ed6:	0909                	addi	s2,s2,2
    80002ed8:	fb3a16e3          	bne	s4,s3,80002e84 <_Z20matrix_vector_argmaxPsPKsmm+0x22>
    80002edc:	bff9                	j	80002eba <_Z20matrix_vector_argmaxPsPKsmm+0x58>
    80002ede:	00015517          	auipc	a0,0x15
    80002ee2:	d5250513          	addi	a0,a0,-686 # 80017c30 <__tbss_end+0x11fe>
    80002ee6:	e0a2                	sd	s0,64(sp)
    80002ee8:	fc26                	sd	s1,56(sp)
    80002eea:	f84a                	sd	s2,48(sp)
    80002eec:	f44e                	sd	s3,40(sp)
    80002eee:	ec56                	sd	s5,24(sp)
    80002ef0:	1c7110ef          	jal	800148b6 <puts>
    80002ef4:	85d2                	mv	a1,s4
    80002ef6:	00015517          	auipc	a0,0x15
    80002efa:	bfa50513          	addi	a0,a0,-1030 # 80017af0 <__tbss_end+0x10be>
    80002efe:	073110ef          	jal	80014770 <iprintf>
    80002f02:	557d                	li	a0,-1
    80002f04:	467100ef          	jal	80013b6a <exit>

0000000080002f08 <_Z12vector_shiftPsmm11direction_t>:
    80002f08:	c215                	beqz	a2,80002f2c <_Z12vector_shiftPsmm11direction_t+0x24>
    80002f0a:	c121                	beqz	a0,80002f4a <_Z12vector_shiftPsmm11direction_t+0x42>
    80002f0c:	4785                	li	a5,1
    80002f0e:	02f68063          	beq	a3,a5,80002f2e <_Z12vector_shiftPsmm11direction_t+0x26>
    80002f12:	00159713          	slli	a4,a1,0x1
    80002f16:	972a                	add	a4,a4,a0
    80002f18:	c985                	beqz	a1,80002f48 <_Z12vector_shiftPsmm11direction_t+0x40>
    80002f1a:	00051783          	lh	a5,0(a0)
    80002f1e:	0509                	addi	a0,a0,2
    80002f20:	00c797bb          	sllw	a5,a5,a2
    80002f24:	fef51f23          	sh	a5,-2(a0)
    80002f28:	fea719e3          	bne	a4,a0,80002f1a <_Z12vector_shiftPsmm11direction_t+0x12>
    80002f2c:	8082                	ret
    80002f2e:	ddfd                	beqz	a1,80002f2c <_Z12vector_shiftPsmm11direction_t+0x24>
    80002f30:	0586                	slli	a1,a1,0x1
    80002f32:	95aa                	add	a1,a1,a0
    80002f34:	00051783          	lh	a5,0(a0)
    80002f38:	0509                	addi	a0,a0,2
    80002f3a:	40c7d7bb          	sraw	a5,a5,a2
    80002f3e:	fef51f23          	sh	a5,-2(a0)
    80002f42:	fea599e3          	bne	a1,a0,80002f34 <_Z12vector_shiftPsmm11direction_t+0x2c>
    80002f46:	8082                	ret
    80002f48:	8082                	ret
    80002f4a:	1101                	addi	sp,sp,-32
    80002f4c:	00015517          	auipc	a0,0x15
    80002f50:	d3c50513          	addi	a0,a0,-708 # 80017c88 <__tbss_end+0x1256>
    80002f54:	ec06                	sd	ra,24(sp)
    80002f56:	e42e                	sd	a1,8(sp)
    80002f58:	15f110ef          	jal	800148b6 <puts>
    80002f5c:	65a2                	ld	a1,8(sp)
    80002f5e:	00015517          	auipc	a0,0x15
    80002f62:	d7a50513          	addi	a0,a0,-646 # 80017cd8 <__tbss_end+0x12a6>
    80002f66:	00b110ef          	jal	80014770 <iprintf>
    80002f6a:	557d                	li	a0,-1
    80002f6c:	3ff100ef          	jal	80013b6a <exit>

0000000080002f70 <_Z13mat_transposePsPKsmm>:
    80002f70:	cd15                	beqz	a0,80002fac <_Z13mat_transposePsPKsmm+0x3c>
    80002f72:	c611                	beqz	a2,80002f7e <_Z13mat_transposePsPKsmm+0xe>
    80002f74:	4881                	li	a7,0
    80002f76:	e689                	bnez	a3,80002f80 <_Z13mat_transposePsPKsmm+0x10>
    80002f78:	0885                	addi	a7,a7,1
    80002f7a:	ff161fe3          	bne	a2,a7,80002f78 <_Z13mat_transposePsPKsmm+0x8>
    80002f7e:	8082                	ret
    80002f80:	00169313          	slli	t1,a3,0x1
    80002f84:	959a                	add	a1,a1,t1
    80002f86:	00161813          	slli	a6,a2,0x1
    80002f8a:	406587b3          	sub	a5,a1,t1
    80002f8e:	872a                	mv	a4,a0
    80002f90:	00079683          	lh	a3,0(a5)
    80002f94:	0789                	addi	a5,a5,2
    80002f96:	00d71023          	sh	a3,0(a4)
    80002f9a:	9742                	add	a4,a4,a6
    80002f9c:	fef59ae3          	bne	a1,a5,80002f90 <_Z13mat_transposePsPKsmm+0x20>
    80002fa0:	0885                	addi	a7,a7,1
    80002fa2:	0509                	addi	a0,a0,2
    80002fa4:	959a                	add	a1,a1,t1
    80002fa6:	ff1612e3          	bne	a2,a7,80002f8a <_Z13mat_transposePsPKsmm+0x1a>
    80002faa:	8082                	ret
    80002fac:	1101                	addi	sp,sp,-32
    80002fae:	00015517          	auipc	a0,0x15
    80002fb2:	d4a50513          	addi	a0,a0,-694 # 80017cf8 <__tbss_end+0x12c6>
    80002fb6:	ec06                	sd	ra,24(sp)
    80002fb8:	e436                	sd	a3,8(sp)
    80002fba:	e032                	sd	a2,0(sp)
    80002fbc:	0fb110ef          	jal	800148b6 <puts>
    80002fc0:	6602                	ld	a2,0(sp)
    80002fc2:	65a2                	ld	a1,8(sp)
    80002fc4:	00015517          	auipc	a0,0x15
    80002fc8:	d8450513          	addi	a0,a0,-636 # 80017d48 <__tbss_end+0x1316>
    80002fcc:	7a4110ef          	jal	80014770 <iprintf>
    80002fd0:	557d                	li	a0,-1
    80002fd2:	399100ef          	jal	80013b6a <exit>

0000000080002fd6 <_Z15fit_vector_reluPsPKsm>:
    80002fd6:	02000793          	li	a5,32
    80002fda:	00c7ef63          	bltu	a5,a2,80002ff8 <_Z15fit_vector_reluPsPKsm+0x22>
    80002fde:	872a                	mv	a4,a0
    80002fe0:	8532                	mv	a0,a2
    80002fe2:	1805200b          	.insn	4, 0x1805200b
    80002fe6:	852e                	mv	a0,a1
    80002fe8:	1005208b          	.insn	4, 0x1005208b
    80002fec:	0e00810b          	.insn	4, 0x0e00810b
    80002ff0:	853a                	mv	a0,a4
    80002ff2:	1225200b          	.insn	4, 0x1225200b
    80002ff6:	8082                	ret
    80002ff8:	1141                	addi	sp,sp,-16
    80002ffa:	00014697          	auipc	a3,0x14
    80002ffe:	3be68693          	addi	a3,a3,958 # 800173b8 <__tbss_end+0x986>
    80003002:	00015617          	auipc	a2,0x15
    80003006:	d6e60613          	addi	a2,a2,-658 # 80017d70 <__tbss_end+0x133e>
    8000300a:	4599                	li	a1,6
    8000300c:	00015517          	auipc	a0,0x15
    80003010:	d9c50513          	addi	a0,a0,-612 # 80017da8 <__tbss_end+0x1376>
    80003014:	e406                	sd	ra,8(sp)
    80003016:	30f100ef          	jal	80013b24 <__assert_func>

000000008000301a <_Z17tiled_vector_reluPsPKsm>:
    8000301a:	c141                	beqz	a0,8000309a <_Z17tiled_vector_reluPsPKsm+0x80>
    8000301c:	02000793          	li	a5,32
    80003020:	88aa                	mv	a7,a0
    80003022:	06c7f063          	bgeu	a5,a2,80003082 <_Z17tiled_vector_reluPsPKsm+0x68>
    80003026:	01f67313          	andi	t1,a2,31
    8000302a:	00565813          	srli	a6,a2,0x5
    8000302e:	86ae                	mv	a3,a1
    80003030:	872a                	mv	a4,a0
    80003032:	4781                	li	a5,0
    80003034:	02000513          	li	a0,32
    80003038:	1805200b          	.insn	4, 0x1805200b
    8000303c:	8536                	mv	a0,a3
    8000303e:	1005208b          	.insn	4, 0x1005208b
    80003042:	0e00810b          	.insn	4, 0x0e00810b
    80003046:	853a                	mv	a0,a4
    80003048:	1225200b          	.insn	4, 0x1225200b
    8000304c:	0785                	addi	a5,a5,1
    8000304e:	04068693          	addi	a3,a3,64
    80003052:	04070713          	addi	a4,a4,64
    80003056:	fcf81fe3          	bne	a6,a5,80003034 <_Z17tiled_vector_reluPsPKsm+0x1a>
    8000305a:	00031363          	bnez	t1,80003060 <_Z17tiled_vector_reluPsPKsm+0x46>
    8000305e:	8082                	ret
    80003060:	40660633          	sub	a2,a2,t1
    80003064:	0606                	slli	a2,a2,0x1
    80003066:	851a                	mv	a0,t1
    80003068:	1805200b          	.insn	4, 0x1805200b
    8000306c:	00c58533          	add	a0,a1,a2
    80003070:	1005208b          	.insn	4, 0x1005208b
    80003074:	0e00810b          	.insn	4, 0x0e00810b
    80003078:	00c88533          	add	a0,a7,a2
    8000307c:	1225200b          	.insn	4, 0x1225200b
    80003080:	8082                	ret
    80003082:	8532                	mv	a0,a2
    80003084:	1805200b          	.insn	4, 0x1805200b
    80003088:	852e                	mv	a0,a1
    8000308a:	1005208b          	.insn	4, 0x1005208b
    8000308e:	0e00810b          	.insn	4, 0x0e00810b
    80003092:	8546                	mv	a0,a7
    80003094:	1225200b          	.insn	4, 0x1225200b
    80003098:	8082                	ret
    8000309a:	1101                	addi	sp,sp,-32
    8000309c:	00015517          	auipc	a0,0x15
    800030a0:	d2450513          	addi	a0,a0,-732 # 80017dc0 <__tbss_end+0x138e>
    800030a4:	ec06                	sd	ra,24(sp)
    800030a6:	e432                	sd	a2,8(sp)
    800030a8:	00f110ef          	jal	800148b6 <puts>
    800030ac:	65a2                	ld	a1,8(sp)
    800030ae:	00014517          	auipc	a0,0x14
    800030b2:	3d250513          	addi	a0,a0,978 # 80017480 <__tbss_end+0xa4e>
    800030b6:	6ba110ef          	jal	80014770 <iprintf>
    800030ba:	557d                	li	a0,-1
    800030bc:	2af100ef          	jal	80013b6a <exit>

00000000800030c0 <_Z17tiled_matrix_reluPsPKsmm>:
    800030c0:	7139                	addi	sp,sp,-64
    800030c2:	e852                	sd	s4,16(sp)
    800030c4:	e456                	sd	s5,8(sp)
    800030c6:	fc06                	sd	ra,56(sp)
    800030c8:	8a32                	mv	s4,a2
    800030ca:	8ab6                	mv	s5,a3
    800030cc:	cd15                	beqz	a0,80003108 <_Z17tiled_matrix_reluPsPKsmm+0x48>
    800030ce:	ca05                	beqz	a2,800030fe <_Z17tiled_matrix_reluPsPKsmm+0x3e>
    800030d0:	f822                	sd	s0,48(sp)
    800030d2:	f426                	sd	s1,40(sp)
    800030d4:	f04a                	sd	s2,32(sp)
    800030d6:	ec4e                	sd	s3,24(sp)
    800030d8:	842a                	mv	s0,a0
    800030da:	84ae                	mv	s1,a1
    800030dc:	00169993          	slli	s3,a3,0x1
    800030e0:	4901                	li	s2,0
    800030e2:	85a6                	mv	a1,s1
    800030e4:	8522                	mv	a0,s0
    800030e6:	8656                	mv	a2,s5
    800030e8:	0905                	addi	s2,s2,1
    800030ea:	f31ff0ef          	jal	8000301a <_Z17tiled_vector_reluPsPKsm>
    800030ee:	944e                	add	s0,s0,s3
    800030f0:	94ce                	add	s1,s1,s3
    800030f2:	ff2a18e3          	bne	s4,s2,800030e2 <_Z17tiled_matrix_reluPsPKsmm+0x22>
    800030f6:	7442                	ld	s0,48(sp)
    800030f8:	74a2                	ld	s1,40(sp)
    800030fa:	7902                	ld	s2,32(sp)
    800030fc:	69e2                	ld	s3,24(sp)
    800030fe:	70e2                	ld	ra,56(sp)
    80003100:	6a42                	ld	s4,16(sp)
    80003102:	6aa2                	ld	s5,8(sp)
    80003104:	6121                	addi	sp,sp,64
    80003106:	8082                	ret
    80003108:	00015517          	auipc	a0,0x15
    8000310c:	d1050513          	addi	a0,a0,-752 # 80017e18 <__tbss_end+0x13e6>
    80003110:	f822                	sd	s0,48(sp)
    80003112:	f426                	sd	s1,40(sp)
    80003114:	f04a                	sd	s2,32(sp)
    80003116:	ec4e                	sd	s3,24(sp)
    80003118:	79e110ef          	jal	800148b6 <puts>
    8000311c:	8656                	mv	a2,s5
    8000311e:	85d2                	mv	a1,s4
    80003120:	00015517          	auipc	a0,0x15
    80003124:	d5050513          	addi	a0,a0,-688 # 80017e70 <__tbss_end+0x143e>
    80003128:	648110ef          	jal	80014770 <iprintf>
    8000312c:	557d                	li	a0,-1
    8000312e:	23d100ef          	jal	80013b6a <exit>

0000000080003132 <_Z15fit_vector_tanhPsPKsm>:
    80003132:	02000793          	li	a5,32
    80003136:	00c7ef63          	bltu	a5,a2,80003154 <_Z15fit_vector_tanhPsPKsm+0x22>
    8000313a:	872a                	mv	a4,a0
    8000313c:	8532                	mv	a0,a2
    8000313e:	1805200b          	.insn	4, 0x1805200b
    80003142:	852e                	mv	a0,a1
    80003144:	1005208b          	.insn	4, 0x1005208b
    80003148:	0e10810b          	.insn	4, 0x0e10810b
    8000314c:	853a                	mv	a0,a4
    8000314e:	1225200b          	.insn	4, 0x1225200b
    80003152:	8082                	ret
    80003154:	1141                	addi	sp,sp,-16
    80003156:	00014697          	auipc	a3,0x14
    8000315a:	26268693          	addi	a3,a3,610 # 800173b8 <__tbss_end+0x986>
    8000315e:	00015617          	auipc	a2,0x15
    80003162:	d4260613          	addi	a2,a2,-702 # 80017ea0 <__tbss_end+0x146e>
    80003166:	03100593          	li	a1,49
    8000316a:	00015517          	auipc	a0,0x15
    8000316e:	c3e50513          	addi	a0,a0,-962 # 80017da8 <__tbss_end+0x1376>
    80003172:	e406                	sd	ra,8(sp)
    80003174:	1b1100ef          	jal	80013b24 <__assert_func>

0000000080003178 <_Z17tiled_vector_tanhPsPKsm>:
    80003178:	c141                	beqz	a0,800031f8 <_Z17tiled_vector_tanhPsPKsm+0x80>
    8000317a:	02000793          	li	a5,32
    8000317e:	88aa                	mv	a7,a0
    80003180:	06c7f063          	bgeu	a5,a2,800031e0 <_Z17tiled_vector_tanhPsPKsm+0x68>
    80003184:	01f67313          	andi	t1,a2,31
    80003188:	00565813          	srli	a6,a2,0x5
    8000318c:	86ae                	mv	a3,a1
    8000318e:	872a                	mv	a4,a0
    80003190:	4781                	li	a5,0
    80003192:	02000513          	li	a0,32
    80003196:	1805200b          	.insn	4, 0x1805200b
    8000319a:	8536                	mv	a0,a3
    8000319c:	1005208b          	.insn	4, 0x1005208b
    800031a0:	0e10810b          	.insn	4, 0x0e10810b
    800031a4:	853a                	mv	a0,a4
    800031a6:	1225200b          	.insn	4, 0x1225200b
    800031aa:	0785                	addi	a5,a5,1
    800031ac:	04068693          	addi	a3,a3,64
    800031b0:	04070713          	addi	a4,a4,64
    800031b4:	fcf81fe3          	bne	a6,a5,80003192 <_Z17tiled_vector_tanhPsPKsm+0x1a>
    800031b8:	00031363          	bnez	t1,800031be <_Z17tiled_vector_tanhPsPKsm+0x46>
    800031bc:	8082                	ret
    800031be:	40660633          	sub	a2,a2,t1
    800031c2:	0606                	slli	a2,a2,0x1
    800031c4:	851a                	mv	a0,t1
    800031c6:	1805200b          	.insn	4, 0x1805200b
    800031ca:	00c58533          	add	a0,a1,a2
    800031ce:	1005208b          	.insn	4, 0x1005208b
    800031d2:	0e10810b          	.insn	4, 0x0e10810b
    800031d6:	00c88533          	add	a0,a7,a2
    800031da:	1225200b          	.insn	4, 0x1225200b
    800031de:	8082                	ret
    800031e0:	8532                	mv	a0,a2
    800031e2:	1805200b          	.insn	4, 0x1805200b
    800031e6:	852e                	mv	a0,a1
    800031e8:	1005208b          	.insn	4, 0x1005208b
    800031ec:	0e10810b          	.insn	4, 0x0e10810b
    800031f0:	8546                	mv	a0,a7
    800031f2:	1225200b          	.insn	4, 0x1225200b
    800031f6:	8082                	ret
    800031f8:	1101                	addi	sp,sp,-32
    800031fa:	00015517          	auipc	a0,0x15
    800031fe:	cde50513          	addi	a0,a0,-802 # 80017ed8 <__tbss_end+0x14a6>
    80003202:	ec06                	sd	ra,24(sp)
    80003204:	e432                	sd	a2,8(sp)
    80003206:	6b0110ef          	jal	800148b6 <puts>
    8000320a:	65a2                	ld	a1,8(sp)
    8000320c:	00014517          	auipc	a0,0x14
    80003210:	27450513          	addi	a0,a0,628 # 80017480 <__tbss_end+0xa4e>
    80003214:	55c110ef          	jal	80014770 <iprintf>
    80003218:	557d                	li	a0,-1
    8000321a:	151100ef          	jal	80013b6a <exit>

000000008000321e <_Z17tiled_matrix_tanhPsPKsmm>:
    8000321e:	7139                	addi	sp,sp,-64
    80003220:	e852                	sd	s4,16(sp)
    80003222:	e456                	sd	s5,8(sp)
    80003224:	fc06                	sd	ra,56(sp)
    80003226:	8a32                	mv	s4,a2
    80003228:	8ab6                	mv	s5,a3
    8000322a:	cd15                	beqz	a0,80003266 <_Z17tiled_matrix_tanhPsPKsmm+0x48>
    8000322c:	ca05                	beqz	a2,8000325c <_Z17tiled_matrix_tanhPsPKsmm+0x3e>
    8000322e:	f822                	sd	s0,48(sp)
    80003230:	f426                	sd	s1,40(sp)
    80003232:	f04a                	sd	s2,32(sp)
    80003234:	ec4e                	sd	s3,24(sp)
    80003236:	842a                	mv	s0,a0
    80003238:	84ae                	mv	s1,a1
    8000323a:	00169993          	slli	s3,a3,0x1
    8000323e:	4901                	li	s2,0
    80003240:	85a6                	mv	a1,s1
    80003242:	8522                	mv	a0,s0
    80003244:	8656                	mv	a2,s5
    80003246:	0905                	addi	s2,s2,1
    80003248:	f31ff0ef          	jal	80003178 <_Z17tiled_vector_tanhPsPKsm>
    8000324c:	944e                	add	s0,s0,s3
    8000324e:	94ce                	add	s1,s1,s3
    80003250:	ff2a18e3          	bne	s4,s2,80003240 <_Z17tiled_matrix_tanhPsPKsmm+0x22>
    80003254:	7442                	ld	s0,48(sp)
    80003256:	74a2                	ld	s1,40(sp)
    80003258:	7902                	ld	s2,32(sp)
    8000325a:	69e2                	ld	s3,24(sp)
    8000325c:	70e2                	ld	ra,56(sp)
    8000325e:	6a42                	ld	s4,16(sp)
    80003260:	6aa2                	ld	s5,8(sp)
    80003262:	6121                	addi	sp,sp,64
    80003264:	8082                	ret
    80003266:	00015517          	auipc	a0,0x15
    8000326a:	cca50513          	addi	a0,a0,-822 # 80017f30 <__tbss_end+0x14fe>
    8000326e:	f822                	sd	s0,48(sp)
    80003270:	f426                	sd	s1,40(sp)
    80003272:	f04a                	sd	s2,32(sp)
    80003274:	ec4e                	sd	s3,24(sp)
    80003276:	640110ef          	jal	800148b6 <puts>
    8000327a:	8656                	mv	a2,s5
    8000327c:	85d2                	mv	a1,s4
    8000327e:	00015517          	auipc	a0,0x15
    80003282:	bf250513          	addi	a0,a0,-1038 # 80017e70 <__tbss_end+0x143e>
    80003286:	4ea110ef          	jal	80014770 <iprintf>
    8000328a:	557d                	li	a0,-1
    8000328c:	0df100ef          	jal	80013b6a <exit>

0000000080003290 <_Z18fit_vector_sigmoidPsPKsm>:
    80003290:	02000793          	li	a5,32
    80003294:	00c7ef63          	bltu	a5,a2,800032b2 <_Z18fit_vector_sigmoidPsPKsm+0x22>
    80003298:	872a                	mv	a4,a0
    8000329a:	8532                	mv	a0,a2
    8000329c:	1805200b          	.insn	4, 0x1805200b
    800032a0:	852e                	mv	a0,a1
    800032a2:	1005208b          	.insn	4, 0x1005208b
    800032a6:	0e20810b          	.insn	4, 0x0e20810b
    800032aa:	853a                	mv	a0,a4
    800032ac:	1225200b          	.insn	4, 0x1225200b
    800032b0:	8082                	ret
    800032b2:	1141                	addi	sp,sp,-16
    800032b4:	00014697          	auipc	a3,0x14
    800032b8:	10468693          	addi	a3,a3,260 # 800173b8 <__tbss_end+0x986>
    800032bc:	00015617          	auipc	a2,0x15
    800032c0:	ccc60613          	addi	a2,a2,-820 # 80017f88 <__tbss_end+0x1556>
    800032c4:	05c00593          	li	a1,92
    800032c8:	00015517          	auipc	a0,0x15
    800032cc:	ae050513          	addi	a0,a0,-1312 # 80017da8 <__tbss_end+0x1376>
    800032d0:	e406                	sd	ra,8(sp)
    800032d2:	053100ef          	jal	80013b24 <__assert_func>

00000000800032d6 <_Z20tiled_vector_sigmoidPsPKsm>:
    800032d6:	c141                	beqz	a0,80003356 <_Z20tiled_vector_sigmoidPsPKsm+0x80>
    800032d8:	02000793          	li	a5,32
    800032dc:	88aa                	mv	a7,a0
    800032de:	06c7f063          	bgeu	a5,a2,8000333e <_Z20tiled_vector_sigmoidPsPKsm+0x68>
    800032e2:	01f67313          	andi	t1,a2,31
    800032e6:	00565813          	srli	a6,a2,0x5
    800032ea:	86ae                	mv	a3,a1
    800032ec:	872a                	mv	a4,a0
    800032ee:	4781                	li	a5,0
    800032f0:	02000513          	li	a0,32
    800032f4:	1805200b          	.insn	4, 0x1805200b
    800032f8:	8536                	mv	a0,a3
    800032fa:	1005208b          	.insn	4, 0x1005208b
    800032fe:	0e20810b          	.insn	4, 0x0e20810b
    80003302:	853a                	mv	a0,a4
    80003304:	1225200b          	.insn	4, 0x1225200b
    80003308:	0785                	addi	a5,a5,1
    8000330a:	04068693          	addi	a3,a3,64
    8000330e:	04070713          	addi	a4,a4,64
    80003312:	fcf81fe3          	bne	a6,a5,800032f0 <_Z20tiled_vector_sigmoidPsPKsm+0x1a>
    80003316:	00031363          	bnez	t1,8000331c <_Z20tiled_vector_sigmoidPsPKsm+0x46>
    8000331a:	8082                	ret
    8000331c:	40660633          	sub	a2,a2,t1
    80003320:	0606                	slli	a2,a2,0x1
    80003322:	851a                	mv	a0,t1
    80003324:	1805200b          	.insn	4, 0x1805200b
    80003328:	00c58533          	add	a0,a1,a2
    8000332c:	1005208b          	.insn	4, 0x1005208b
    80003330:	0e20810b          	.insn	4, 0x0e20810b
    80003334:	00c88533          	add	a0,a7,a2
    80003338:	1225200b          	.insn	4, 0x1225200b
    8000333c:	8082                	ret
    8000333e:	8532                	mv	a0,a2
    80003340:	1805200b          	.insn	4, 0x1805200b
    80003344:	852e                	mv	a0,a1
    80003346:	1005208b          	.insn	4, 0x1005208b
    8000334a:	0e20810b          	.insn	4, 0x0e20810b
    8000334e:	8546                	mv	a0,a7
    80003350:	1225200b          	.insn	4, 0x1225200b
    80003354:	8082                	ret
    80003356:	1101                	addi	sp,sp,-32
    80003358:	00015517          	auipc	a0,0x15
    8000335c:	c6850513          	addi	a0,a0,-920 # 80017fc0 <__tbss_end+0x158e>
    80003360:	ec06                	sd	ra,24(sp)
    80003362:	e432                	sd	a2,8(sp)
    80003364:	552110ef          	jal	800148b6 <puts>
    80003368:	65a2                	ld	a1,8(sp)
    8000336a:	00014517          	auipc	a0,0x14
    8000336e:	11650513          	addi	a0,a0,278 # 80017480 <__tbss_end+0xa4e>
    80003372:	3fe110ef          	jal	80014770 <iprintf>
    80003376:	557d                	li	a0,-1
    80003378:	7f2100ef          	jal	80013b6a <exit>

000000008000337c <_Z20tiled_matrix_sigmoidPsPKsmm>:
    8000337c:	7139                	addi	sp,sp,-64
    8000337e:	e852                	sd	s4,16(sp)
    80003380:	e456                	sd	s5,8(sp)
    80003382:	fc06                	sd	ra,56(sp)
    80003384:	8a32                	mv	s4,a2
    80003386:	8ab6                	mv	s5,a3
    80003388:	cd15                	beqz	a0,800033c4 <_Z20tiled_matrix_sigmoidPsPKsmm+0x48>
    8000338a:	ca05                	beqz	a2,800033ba <_Z20tiled_matrix_sigmoidPsPKsmm+0x3e>
    8000338c:	f822                	sd	s0,48(sp)
    8000338e:	f426                	sd	s1,40(sp)
    80003390:	f04a                	sd	s2,32(sp)
    80003392:	ec4e                	sd	s3,24(sp)
    80003394:	842a                	mv	s0,a0
    80003396:	84ae                	mv	s1,a1
    80003398:	00169993          	slli	s3,a3,0x1
    8000339c:	4901                	li	s2,0
    8000339e:	85a6                	mv	a1,s1
    800033a0:	8522                	mv	a0,s0
    800033a2:	8656                	mv	a2,s5
    800033a4:	0905                	addi	s2,s2,1
    800033a6:	f31ff0ef          	jal	800032d6 <_Z20tiled_vector_sigmoidPsPKsm>
    800033aa:	944e                	add	s0,s0,s3
    800033ac:	94ce                	add	s1,s1,s3
    800033ae:	ff2a18e3          	bne	s4,s2,8000339e <_Z20tiled_matrix_sigmoidPsPKsmm+0x22>
    800033b2:	7442                	ld	s0,48(sp)
    800033b4:	74a2                	ld	s1,40(sp)
    800033b6:	7902                	ld	s2,32(sp)
    800033b8:	69e2                	ld	s3,24(sp)
    800033ba:	70e2                	ld	ra,56(sp)
    800033bc:	6a42                	ld	s4,16(sp)
    800033be:	6aa2                	ld	s5,8(sp)
    800033c0:	6121                	addi	sp,sp,64
    800033c2:	8082                	ret
    800033c4:	00015517          	auipc	a0,0x15
    800033c8:	c5450513          	addi	a0,a0,-940 # 80018018 <__tbss_end+0x15e6>
    800033cc:	f822                	sd	s0,48(sp)
    800033ce:	f426                	sd	s1,40(sp)
    800033d0:	f04a                	sd	s2,32(sp)
    800033d2:	ec4e                	sd	s3,24(sp)
    800033d4:	4e2110ef          	jal	800148b6 <puts>
    800033d8:	8656                	mv	a2,s5
    800033da:	85d2                	mv	a1,s4
    800033dc:	00015517          	auipc	a0,0x15
    800033e0:	a9450513          	addi	a0,a0,-1388 # 80017e70 <__tbss_end+0x143e>
    800033e4:	38c110ef          	jal	80014770 <iprintf>
    800033e8:	557d                	li	a0,-1
    800033ea:	780100ef          	jal	80013b6a <exit>

00000000800033ee <_Z11fit_dotprodPsPKsS1_m>:
    800033ee:	47a1                	li	a5,8
    800033f0:	02d7e163          	bltu	a5,a3,80003412 <_Z11fit_dotprodPsPKsS1_m+0x24>
    800033f4:	872a                	mv	a4,a0
    800033f6:	8536                	mv	a0,a3
    800033f8:	1805200b          	.insn	4, 0x1805200b
    800033fc:	852e                	mv	a0,a1
    800033fe:	1005208b          	.insn	4, 0x1005208b
    80003402:	8532                	mv	a0,a2
    80003404:	1005210b          	.insn	4, 0x1005210b
    80003408:	1a20c50b          	.insn	4, 0x1a20c50b
    8000340c:	00a71023          	sh	a0,0(a4)
    80003410:	8082                	ret
    80003412:	1141                	addi	sp,sp,-16
    80003414:	00015697          	auipc	a3,0x15
    80003418:	c5c68693          	addi	a3,a3,-932 # 80018070 <__tbss_end+0x163e>
    8000341c:	00015617          	auipc	a2,0x15
    80003420:	c6c60613          	addi	a2,a2,-916 # 80018088 <__tbss_end+0x1656>
    80003424:	4591                	li	a1,4
    80003426:	00015517          	auipc	a0,0x15
    8000342a:	ca250513          	addi	a0,a0,-862 # 800180c8 <__tbss_end+0x1696>
    8000342e:	e406                	sd	ra,8(sp)
    80003430:	6f4100ef          	jal	80013b24 <__assert_func>

0000000080003434 <_Z13tiled_dotprodPsPKsS1_m>:
    80003434:	47a1                	li	a5,8
    80003436:	8eaa                	mv	t4,a0
    80003438:	06d7fa63          	bgeu	a5,a3,800034ac <_Z13tiled_dotprodPsPKsS1_m+0x78>
    8000343c:	0076ff13          	andi	t5,a3,7
    80003440:	0036de13          	srli	t3,a3,0x3
    80003444:	88ae                	mv	a7,a1
    80003446:	8832                	mv	a6,a2
    80003448:	4301                	li	t1,0
    8000344a:	4701                	li	a4,0
    8000344c:	4521                	li	a0,8
    8000344e:	1805200b          	.insn	4, 0x1805200b
    80003452:	8546                	mv	a0,a7
    80003454:	1005208b          	.insn	4, 0x1005208b
    80003458:	8542                	mv	a0,a6
    8000345a:	1005210b          	.insn	4, 0x1005210b
    8000345e:	1a20c50b          	.insn	4, 0x1a20c50b
    80003462:	00a307bb          	addw	a5,t1,a0
    80003466:	0107931b          	slliw	t1,a5,0x10
    8000346a:	0705                	addi	a4,a4,1
    8000346c:	08c1                	addi	a7,a7,16
    8000346e:	0841                	addi	a6,a6,16
    80003470:	4103531b          	sraiw	t1,t1,0x10
    80003474:	fcee1ce3          	bne	t3,a4,8000344c <_Z13tiled_dotprodPsPKsS1_m+0x18>
    80003478:	000f1563          	bnez	t5,80003482 <_Z13tiled_dotprodPsPKsS1_m+0x4e>
    8000347c:	006e9023          	sh	t1,0(t4)
    80003480:	8082                	ret
    80003482:	41e686b3          	sub	a3,a3,t5
    80003486:	0686                	slli	a3,a3,0x1
    80003488:	857a                	mv	a0,t5
    8000348a:	1805200b          	.insn	4, 0x1805200b
    8000348e:	00d58533          	add	a0,a1,a3
    80003492:	1005208b          	.insn	4, 0x1005208b
    80003496:	00d60533          	add	a0,a2,a3
    8000349a:	1005210b          	.insn	4, 0x1005210b
    8000349e:	1a20c50b          	.insn	4, 0x1a20c50b
    800034a2:	00f5033b          	addw	t1,a0,a5
    800034a6:	006e9023          	sh	t1,0(t4)
    800034aa:	8082                	ret
    800034ac:	8536                	mv	a0,a3
    800034ae:	1805200b          	.insn	4, 0x1805200b
    800034b2:	852e                	mv	a0,a1
    800034b4:	1005208b          	.insn	4, 0x1005208b
    800034b8:	8532                	mv	a0,a2
    800034ba:	1005210b          	.insn	4, 0x1005210b
    800034be:	1a20c50b          	.insn	4, 0x1a20c50b
    800034c2:	832a                	mv	t1,a0
    800034c4:	006e9023          	sh	t1,0(t4)
    800034c8:	8082                	ret

00000000800034ca <_Z9tiled_mvmPsPKsS1_mm>:
    800034ca:	7139                	addi	sp,sp,-64
    800034cc:	ec4e                	sd	s3,24(sp)
    800034ce:	fc06                	sd	ra,56(sp)
    800034d0:	89b6                	mv	s3,a3
    800034d2:	c521                	beqz	a0,8000351a <_Z9tiled_mvmPsPKsS1_mm+0x50>
    800034d4:	ce9d                	beqz	a3,80003512 <_Z9tiled_mvmPsPKsS1_mm+0x48>
    800034d6:	f822                	sd	s0,48(sp)
    800034d8:	f426                	sd	s1,40(sp)
    800034da:	f04a                	sd	s2,32(sp)
    800034dc:	e852                	sd	s4,16(sp)
    800034de:	e456                	sd	s5,8(sp)
    800034e0:	e05a                	sd	s6,0(sp)
    800034e2:	8ab2                	mv	s5,a2
    800034e4:	8a3a                	mv	s4,a4
    800034e6:	842a                	mv	s0,a0
    800034e8:	84ae                	mv	s1,a1
    800034ea:	00171b13          	slli	s6,a4,0x1
    800034ee:	4901                	li	s2,0
    800034f0:	85a6                	mv	a1,s1
    800034f2:	8522                	mv	a0,s0
    800034f4:	86d2                	mv	a3,s4
    800034f6:	8656                	mv	a2,s5
    800034f8:	0905                	addi	s2,s2,1
    800034fa:	f3bff0ef          	jal	80003434 <_Z13tiled_dotprodPsPKsS1_m>
    800034fe:	0409                	addi	s0,s0,2
    80003500:	94da                	add	s1,s1,s6
    80003502:	ff2997e3          	bne	s3,s2,800034f0 <_Z9tiled_mvmPsPKsS1_mm+0x26>
    80003506:	7442                	ld	s0,48(sp)
    80003508:	74a2                	ld	s1,40(sp)
    8000350a:	7902                	ld	s2,32(sp)
    8000350c:	6a42                	ld	s4,16(sp)
    8000350e:	6aa2                	ld	s5,8(sp)
    80003510:	6b02                	ld	s6,0(sp)
    80003512:	70e2                	ld	ra,56(sp)
    80003514:	69e2                	ld	s3,24(sp)
    80003516:	6121                	addi	sp,sp,64
    80003518:	8082                	ret
    8000351a:	00015517          	auipc	a0,0x15
    8000351e:	bc650513          	addi	a0,a0,-1082 # 800180e0 <__tbss_end+0x16ae>
    80003522:	f822                	sd	s0,48(sp)
    80003524:	f426                	sd	s1,40(sp)
    80003526:	f04a                	sd	s2,32(sp)
    80003528:	e852                	sd	s4,16(sp)
    8000352a:	e456                	sd	s5,8(sp)
    8000352c:	e05a                	sd	s6,0(sp)
    8000352e:	388110ef          	jal	800148b6 <puts>
    80003532:	85ce                	mv	a1,s3
    80003534:	00014517          	auipc	a0,0x14
    80003538:	5bc50513          	addi	a0,a0,1468 # 80017af0 <__tbss_end+0x10be>
    8000353c:	234110ef          	jal	80014770 <iprintf>
    80003540:	557d                	li	a0,-1
    80003542:	628100ef          	jal	80013b6a <exit>

0000000080003546 <_Z22tiled_matmul_transposePsPKsS1_mmm>:
    80003546:	7159                	addi	sp,sp,-112
    80003548:	e4ce                	sd	s3,72(sp)
    8000354a:	f062                	sd	s8,32(sp)
    8000354c:	f486                	sd	ra,104(sp)
    8000354e:	89b6                	mv	s3,a3
    80003550:	8c3e                	mv	s8,a5
    80003552:	c92d                	beqz	a0,800035c4 <_Z22tiled_matmul_transposePsPKsS1_mmm+0x7e>
    80003554:	c3bd                	beqz	a5,800035ba <_Z22tiled_matmul_transposePsPKsS1_mmm+0x74>
    80003556:	c2b5                	beqz	a3,800035ba <_Z22tiled_matmul_transposePsPKsS1_mmm+0x74>
    80003558:	e8ca                	sd	s2,80(sp)
    8000355a:	e0d2                	sd	s4,64(sp)
    8000355c:	fc56                	sd	s5,56(sp)
    8000355e:	f85a                	sd	s6,48(sp)
    80003560:	f45e                	sd	s7,40(sp)
    80003562:	ec66                	sd	s9,24(sp)
    80003564:	e86a                	sd	s10,16(sp)
    80003566:	f0a2                	sd	s0,96(sp)
    80003568:	eca6                	sd	s1,88(sp)
    8000356a:	e46e                	sd	s11,8(sp)
